ARM GAS  /tmp/ccutSapt.s 			page 1


   1              		.cpu cortex-m0
   2              		.arch armv6s-m
   3              		.fpu softvfp
   4              		.eabi_attribute 23, 1
   5              		.eabi_attribute 24, 1
   6              		.eabi_attribute 25, 1
   7              		.eabi_attribute 26, 1
   8              		.eabi_attribute 30, 4
   9              		.eabi_attribute 34, 0
  10              		.eabi_attribute 18, 4
  11              		.file	"dm_downlink.c"
  12              		.text
  13              		.section	.rodata.dm_parse_cmd.str1.1,"aMS",%progbits,1
  14              	.LC0:
  15 0000 1B5B303B 		.ascii	"\033[0;31mERROR: Invalid DM command %x\012\000"
  15      33316D45 
  15      52524F52 
  15      3A20496E 
  15      76616C69 
  16              	.LC2:
  17 0025 1B5B306D 		.ascii	"\033[0m\000"
  17      00
  18              	.LC5:
  19 002a 1B5B303B 		.ascii	"\033[0;31mERROR: Invalid DM command size (too small"
  19      33316D45 
  19      52524F52 
  19      3A20496E 
  19      76616C69 
  20 005a 290A00   		.ascii	")\012\000"
  21              	.LC8:
  22 005d 1B5B303B 		.ascii	"\033[0;33mWARN: DM_%s (0x%02x)\012\000"
  22      33336D57 
  22      41524E3A 
  22      20444D5F 
  22      25732028 
  23              	.LC10:
  24 007a 1B5B303B 		.ascii	"\033[0;31mERROR: Invalid DM command size (too long)"
  24      33316D45 
  24      52524F52 
  24      3A20496E 
  24      76616C69 
  25 00aa 0A00     		.ascii	"\012\000"
  26              	.LC12:
  27 00ac 1B5B303B 		.ascii	"\033[0;31mERROR: invalid DM reset code (0x%02x)\012"
  27      33316D45 
  27      52524F52 
  27      3A20696E 
  27      76616C69 
  28 00d9 00       		.ascii	"\000"
  29              	.LC16:
  30 00da 1B5B303B 		.ascii	"\033[0;31mERROR: invalid DM reset session code\012\000"
  30      33316D45 
  30      52524F52 
  30      3A20696E 
  30      76616C69 
  31              	.LC18:
  32 0107 1B5B303B 		.ascii	"\033[0;31mERROR: NOT RESET !!!\012\000"
ARM GAS  /tmp/ccutSapt.s 			page 2


  32      33316D45 
  32      52524F52 
  32      3A204E4F 
  32      54205245 
  33              	.LC20:
  34 0124 1B5B303B 		.ascii	"\033[0;33mWARN: DM_FILE_DONE donwlink\012\000"
  34      33336D57 
  34      41524E3A 
  34      20444D5F 
  34      46494C45 
  35              	.LC22:
  36 0148 1B5B303B 		.ascii	"\033[0;31mERROR: No FileUpload ongoing\012\000"
  36      33316D45 
  36      52524F52 
  36      3A204E6F 
  36      2046696C 
  37              	.LC25:
  38 016d 1B5B303B 		.ascii	"\033[0;31mERROR: DM_FILE_DONE bad session_counter o"
  38      33316D45 
  38      52524F52 
  38      3A20444D 
  38      5F46494C 
  39 019d 72206261 		.ascii	"r bad message\012\000"
  39      64206D65 
  39      73736167 
  39      650A00
  40              	.LC27:
  41 01ac 1B5B303B 		.ascii	"\033[0;32mINFO: File upload DONE with server confir"
  41      33326D49 
  41      4E464F3A 
  41      2046696C 
  41      65207570 
  42 01dc 6D617469 		.ascii	"mation \012\000"
  42      6F6E200A 
  42      00
  43              	.LC14:
  44 01e5 0F00     		.ascii	"\017\000"
  45              	.LC29:
  46 01e7 1200     		.ascii	"\022\000"
  47              		.section	.text.dm_parse_cmd,"ax",%progbits
  48              		.align	1
  49              		.global	dm_parse_cmd
  50              		.syntax unified
  51              		.code	16
  52              		.thumb_func
  54              	dm_parse_cmd:
  55              		@ args = 0, pretend = 0, frame = 8
  56              		@ frame_needed = 1, uses_anonymous_args = 0
  57 0000 F7B5     		push	{r0, r1, r2, r4, r5, r6, r7, lr}
  58 0002 8278     		ldrb	r2, [r0, #2]
  59 0004 0400     		movs	r4, r0
  60 0006 017A     		ldrb	r1, [r0, #8]
  61 0008 C34D     		ldr	r5, .L82
  62 000a 00AF     		add	r7, sp, #0
  63 000c 0D2A     		cmp	r2, #13
  64 000e 08D9     		bls	.L2
  65 0010 1100     		movs	r1, r2
ARM GAS  /tmp/ccutSapt.s 			page 3


  66 0012 C248     		ldr	r0, .L82+4
  67 0014 FFF7FEFF 		bl	smtc_modem_hal_print_trace
  68              	.L71:
  69 0018 2800     		movs	r0, r5
  70 001a FFF7FEFF 		bl	smtc_modem_hal_print_trace
  71              	.L3:
  72 001e 0020     		movs	r0, #0
  73 0020 3CE0     		b	.L20
  74              	.L2:
  75 0022 BF4B     		ldr	r3, .L82+8
  76 0024 5000     		lsls	r0, r2, #1
  77 0026 C65C     		ldrb	r6, [r0, r3]
  78 0028 8E42     		cmp	r6, r1
  79 002a 03D9     		bls	.L4
  80 002c BD48     		ldr	r0, .L82+12
  81              	.L72:
  82 002e FFF7FEFF 		bl	smtc_modem_hal_print_trace
  83 0032 F1E7     		b	.L71
  84              	.L4:
  85 0034 1B18     		adds	r3, r3, r0
  86 0036 5B78     		ldrb	r3, [r3, #1]
  87 0038 8B42     		cmp	r3, r1
  88 003a 1BD3     		bcc	.L5
  89 003c BA4B     		ldr	r3, .L82+16
  90 003e 9100     		lsls	r1, r2, #2
  91 0040 BA48     		ldr	r0, .L82+20
  92 0042 C958     		ldr	r1, [r1, r3]
  93 0044 FFF7FEFF 		bl	smtc_modem_hal_print_trace
  94 0048 2800     		movs	r0, r5
  95 004a FFF7FEFF 		bl	smtc_modem_hal_print_trace
  96 004e A078     		ldrb	r0, [r4, #2]
  97 0050 0D28     		cmp	r0, #13
  98 0052 E4D8     		bhi	.L3
  99 0054 FFF7FEFF 		bl	__gnu_thumb1_case_shi
 100              	.L7:
 101 0058 1000     		.2byte	(.L19-.L7)/2
 102 005a 2100     		.2byte	(.L18-.L7)/2
 103 005c 3D00     		.2byte	(.L17-.L7)/2
 104 005e 6B00     		.2byte	(.L16-.L7)/2
 105 0060 7600     		.2byte	(.L15-.L7)/2
 106 0062 8300     		.2byte	(.L14-.L7)/2
 107 0064 9F00     		.2byte	(.L13-.L7)/2
 108 0066 AE00     		.2byte	(.L12-.L7)/2
 109 0068 B400     		.2byte	(.L11-.L7)/2
 110 006a BA00     		.2byte	(.L10-.L7)/2
 111 006c 2001     		.2byte	(.L9-.L7)/2
 112 006e E3FF     		.2byte	(.L3-.L7)/2
 113 0070 4F01     		.2byte	(.L8-.L7)/2
 114 0072 4501     		.2byte	(.L6-.L7)/2
 115              		.p2align 1
 116              	.L5:
 117 0074 AE48     		ldr	r0, .L82+24
 118 0076 DAE7     		b	.L72
 119              	.L19:
 120 0078 6368     		ldr	r3, [r4, #4]
 121 007a 9C78     		ldrb	r4, [r3, #2]
 122 007c 5A78     		ldrb	r2, [r3, #1]
ARM GAS  /tmp/ccutSapt.s 			page 4


 123 007e 2402     		lsls	r4, r4, #8
 124 0080 1443     		orrs	r4, r2
 125 0082 1E78     		ldrb	r6, [r3]
 126 0084 FFF7FEFF 		bl	lorawan_api_nb_reset_get
 127 0088 8442     		cmp	r4, r0
 128 008a 12D1     		bne	.L21
 129 008c 731E     		subs	r3, r6, #1
 130 008e 022B     		cmp	r3, #2
 131 0090 06D8     		bhi	.L22
 132 0092 FFF7FEFF 		bl	lorawan_api_context_save
 133 0096 FFF7FEFF 		bl	smtc_modem_hal_reset_mcu
 134              	.L18:
 135 009a 0120     		movs	r0, #1
 136              	.L20:
 137 009c BD46     		mov	sp, r7
 138              		@ sp needed
 139 009e FEBD     		pop	{r1, r2, r3, r4, r5, r6, r7, pc}
 140              	.L22:
 141 00a0 3100     		movs	r1, r6
 142 00a2 A448     		ldr	r0, .L82+28
 143 00a4 FFF7FEFF 		bl	smtc_modem_hal_print_trace
 144              	.L70:
 145 00a8 2800     		movs	r0, r5
 146 00aa FFF7FEFF 		bl	smtc_modem_hal_print_trace
 147 00ae A248     		ldr	r0, .L82+32
 148 00b0 BDE7     		b	.L72
 149              	.L21:
 150 00b2 0122     		movs	r2, #1
 151 00b4 A14B     		ldr	r3, .L82+36
 152 00b6 1100     		movs	r1, r2
 153 00b8 1B78     		ldrb	r3, [r3]
 154 00ba 381D     		adds	r0, r7, #4
 155 00bc 3B71     		strb	r3, [r7, #4]
 156 00be FFF7FEFF 		bl	set_dm_info
 157 00c2 0128     		cmp	r0, #1
 158 00c4 01D1     		bne	.L24
 159 00c6 FFF7FEFF 		bl	modem_supervisor_add_task_dm_status_now
 160              	.L24:
 161 00ca 9D48     		ldr	r0, .L82+40
 162 00cc FFF7FEFF 		bl	smtc_modem_hal_print_trace
 163 00d0 EAE7     		b	.L70
 164              	.L17:
 165 00d2 9C48     		ldr	r0, .L82+44
 166 00d4 FFF7FEFF 		bl	smtc_modem_hal_print_trace
 167 00d8 2800     		movs	r0, r5
 168 00da FFF7FEFF 		bl	smtc_modem_hal_print_trace
 169 00de FFF7FEFF 		bl	modem_get_upload_state
 170 00e2 0228     		cmp	r0, #2
 171 00e4 06D0     		beq	.L25
 172 00e6 9848     		ldr	r0, .L82+48
 173              	.L69:
 174 00e8 FFF7FEFF 		bl	smtc_modem_hal_print_trace
 175 00ec 2800     		movs	r0, r5
 176 00ee FFF7FEFF 		bl	smtc_modem_hal_print_trace
 177 00f2 D2E7     		b	.L18
 178              	.L25:
 179 00f4 227A     		ldrb	r2, [r4, #8]
ARM GAS  /tmp/ccutSapt.s 			page 5


 180 00f6 6168     		ldr	r1, [r4, #4]
 181 00f8 9448     		ldr	r0, .L82+52
 182 00fa FFF7FEFF 		bl	file_upload_process_file_done_frame
 183 00fe 041E     		subs	r4, r0, #0
 184 0100 01D0     		beq	.L26
 185 0102 9348     		ldr	r0, .L82+56
 186 0104 F0E7     		b	.L69
 187              	.L26:
 188 0106 9348     		ldr	r0, .L82+60
 189 0108 FFF7FEFF 		bl	smtc_modem_hal_print_trace
 190 010c 2800     		movs	r0, r5
 191 010e FFF7FEFF 		bl	smtc_modem_hal_print_trace
 192 0112 0121     		movs	r1, #1
 193 0114 0520     		movs	r0, #5
 194 0116 FFF7FEFF 		bl	increment_asynchronous_msgnumber
 195 011a 2000     		movs	r0, r4
 196 011c FFF7FEFF 		bl	set_modem_status_file_upload
 197 0120 0320     		movs	r0, #3
 198 0122 FFF7FEFF 		bl	modem_set_upload_state
 199 0126 0420     		movs	r0, #4
 200 0128 FFF7FEFF 		bl	modem_supervisor_remove_task
 201 012c B5E7     		b	.L18
 202              	.L16:
 203 012e 0122     		movs	r2, #1
 204 0130 217A     		ldrb	r1, [r4, #8]
 205 0132 6068     		ldr	r0, [r4, #4]
 206 0134 FFF7FEFF 		bl	set_dm_info
 207 0138 0128     		cmp	r0, #1
 208 013a 00D0     		beq	.LCB183
 209 013c 6FE7     		b	.L3	@long jump
 210              	.LCB183:
 211 013e FFF7FEFF 		bl	modem_supervisor_add_task_dm_status_now
 212 0142 AAE7     		b	.L18
 213              	.L15:
 214 0144 227A     		ldrb	r2, [r4, #8]
 215 0146 6368     		ldr	r3, [r4, #4]
 216 0148 013A     		subs	r2, r2, #1
 217 014a 1878     		ldrb	r0, [r3]
 218 014c D2B2     		uxtb	r2, r2
 219 014e 591C     		adds	r1, r3, #1
 220 0150 FFF7FEFF 		bl	dm_set_conf
 221              	.L76:
 222 0154 0138     		subs	r0, r0, #1
 223              	.L75:
 224 0156 4342     		rsbs	r3, r0, #0
 225 0158 5841     		adcs	r0, r0, r3
 226 015a C0B2     		uxtb	r0, r0
 227 015c 9EE7     		b	.L20
 228              	.L14:
 229 015e 6368     		ldr	r3, [r4, #4]
 230 0160 5C78     		ldrb	r4, [r3, #1]
 231 0162 1A78     		ldrb	r2, [r3]
 232 0164 2402     		lsls	r4, r4, #8
 233 0166 1443     		orrs	r4, r2
 234 0168 FFF7FEFF 		bl	lorawan_api_devnonce_get
 235 016c 8442     		cmp	r4, r0
 236 016e 0DD0     		beq	.L27
ARM GAS  /tmp/ccutSapt.s 			page 6


 237 0170 0122     		movs	r2, #1
 238 0172 794B     		ldr	r3, .L82+64
 239 0174 1100     		movs	r1, r2
 240 0176 1B78     		ldrb	r3, [r3]
 241 0178 381D     		adds	r0, r7, #4
 242 017a 3B71     		strb	r3, [r7, #4]
 243 017c FFF7FEFF 		bl	set_dm_info
 244 0180 0128     		cmp	r0, #1
 245 0182 00D0     		beq	.LCB229
 246 0184 4BE7     		b	.L3	@long jump
 247              	.LCB229:
 248 0186 FFF7FEFF 		bl	modem_supervisor_add_task_dm_status_now
 249 018a 48E7     		b	.L3
 250              	.L27:
 251 018c FFF7FEFF 		bl	modem_leave
 252 0190 FFF7FEFF 		bl	modem_supervisor_add_task_join
 253 0194 81E7     		b	.L18
 254              	.L13:
 255 0196 6368     		ldr	r3, [r4, #4]
 256 0198 1878     		ldrb	r0, [r3]
 257 019a FFF7FEFF 		bl	dm_set_number_of_days_mute
 258 019e FFF7FEFF 		bl	get_modem_muted
 259 01a2 0128     		cmp	r0, #1
 260 01a4 01D1     		bne	.L29
 261 01a6 FFF7FEFF 		bl	modem_supervisor_add_task_modem_mute
 262              	.L29:
 263 01aa 0021     		movs	r1, #0
 264 01ac 0720     		movs	r0, #7
 265 01ae FFF7FEFF 		bl	increment_asynchronous_msgnumber
 266 01b2 72E7     		b	.L18
 267              	.L12:
 268 01b4 0022     		movs	r2, #0
 269 01b6 217A     		ldrb	r1, [r4, #8]
 270 01b8 6068     		ldr	r0, [r4, #4]
 271 01ba FFF7FEFF 		bl	set_dm_info
 272 01be C9E7     		b	.L76
 273              	.L11:
 274 01c0 227A     		ldrb	r2, [r4, #8]
 275 01c2 6168     		ldr	r1, [r4, #4]
 276 01c4 6548     		ldr	r0, .L82+68
 277 01c6 FFF7FEFF 		bl	stream_process_dn_frame
 278 01ca C4E7     		b	.L75
 279              	.L10:
 280 01cc 644E     		ldr	r6, .L82+72
 281 01ce 227A     		ldrb	r2, [r4, #8]
 282 01d0 3000     		movs	r0, r6
 283 01d2 6168     		ldr	r1, [r4, #4]
 284 01d4 FFF7FEFF 		bl	alc_sync_parser
 285 01d8 0500     		movs	r5, r0
 286 01da 8307     		lsls	r3, r0, #30
 287 01dc 28D5     		bpl	.L31
 288 01de 0121     		movs	r1, #1
 289 01e0 0D20     		movs	r0, #13
 290 01e2 2936     		adds	r6, r6, #41
 291 01e4 3170     		strb	r1, [r6]
 292 01e6 FFF7FEFF 		bl	increment_asynchronous_msgnumber
 293 01ea FFF7FEFF 		bl	modem_supervisor_remove_task_clock_sync
ARM GAS  /tmp/ccutSapt.s 			page 7


 294 01ee 5D4C     		ldr	r4, .L82+76
 295 01f0 2000     		movs	r0, r4
 296 01f2 FFF7FEFF 		bl	clock_sync_is_enabled
 297 01f6 0028     		cmp	r0, #0
 298 01f8 1AD0     		beq	.L31
 299 01fa 2000     		movs	r0, r4
 300 01fc FFF7FEFF 		bl	clock_sync_get_interval_second
 301 0200 0600     		movs	r6, r0
 302 0202 2000     		movs	r0, r4
 303 0204 FFF7FEFF 		bl	clock_sync_get_time_left_connection_lost
 304 0208 8642     		cmp	r6, r0
 305 020a 3DD2     		bcs	.L33
 306 020c 2000     		movs	r0, r4
 307 020e FFF7FEFF 		bl	clock_sync_get_interval_second
 308              	.L73:
 309 0212 1E26     		movs	r6, #30
 310 0214 0400     		movs	r4, r0
 311 0216 7642     		rsbs	r6, r6, #0
 312              	.L36:
 313 0218 1E21     		movs	r1, #30
 314 021a 3000     		movs	r0, r6
 315 021c FFF7FEFF 		bl	smtc_modem_hal_get_signed_random_nb_in_range
 316 0220 0028     		cmp	r0, #0
 317 0222 02DA     		bge	.L35
 318 0224 4342     		rsbs	r3, r0, #0
 319 0226 A342     		cmp	r3, r4
 320 0228 F6D8     		bhi	.L36
 321              	.L35:
 322 022a 0019     		adds	r0, r0, r4
 323 022c FFF7FEFF 		bl	modem_supervisor_add_task_clock_sync_time_req
 324              	.L31:
 325 0230 0223     		movs	r3, #2
 326 0232 2A00     		movs	r2, r5
 327 0234 9A43     		bics	r2, r3
 328 0236 00D1     		bne	.LCB331
 329 0238 2FE7     		b	.L18	@long jump
 330              	.LCB331:
 331 023a 6D07     		lsls	r5, r5, #29
 332 023c 20D5     		bpl	.L38
 333 023e 494C     		ldr	r4, .L82+76
 334 0240 2000     		movs	r0, r4
 335 0242 FFF7FEFF 		bl	clock_sync_is_enabled
 336 0246 0028     		cmp	r0, #0
 337 0248 1AD0     		beq	.L38
 338 024a 2000     		movs	r0, r4
 339 024c FFF7FEFF 		bl	clock_sync_get_interval_second
 340 0250 0500     		movs	r5, r0
 341 0252 2000     		movs	r0, r4
 342 0254 FFF7FEFF 		bl	clock_sync_get_time_left_connection_lost
 343 0258 8542     		cmp	r5, r0
 344 025a 19D2     		bcs	.L40
 345 025c 2000     		movs	r0, r4
 346 025e FFF7FEFF 		bl	clock_sync_get_interval_second
 347              	.L74:
 348 0262 1E25     		movs	r5, #30
 349 0264 0400     		movs	r4, r0
 350 0266 6D42     		rsbs	r5, r5, #0
ARM GAS  /tmp/ccutSapt.s 			page 8


 351              	.L43:
 352 0268 1E21     		movs	r1, #30
 353 026a 2800     		movs	r0, r5
 354 026c FFF7FEFF 		bl	smtc_modem_hal_get_signed_random_nb_in_range
 355 0270 0028     		cmp	r0, #0
 356 0272 02DA     		bge	.L42
 357 0274 4342     		rsbs	r3, r0, #0
 358 0276 A342     		cmp	r3, r4
 359 0278 F6D8     		bhi	.L43
 360              	.L42:
 361 027a 0019     		adds	r0, r0, r4
 362 027c FFF7FEFF 		bl	modem_supervisor_add_task_clock_sync_time_req
 363              	.L38:
 364 0280 0120     		movs	r0, #1
 365 0282 FFF7FEFF 		bl	modem_supervisor_add_task_alc_sync_ans
 366 0286 08E7     		b	.L18
 367              	.L33:
 368 0288 2000     		movs	r0, r4
 369 028a FFF7FEFF 		bl	clock_sync_get_time_left_connection_lost
 370 028e C0E7     		b	.L73
 371              	.L40:
 372 0290 2000     		movs	r0, r4
 373 0292 FFF7FEFF 		bl	clock_sync_get_time_left_connection_lost
 374 0296 E4E7     		b	.L74
 375              	.L9:
 376 0298 227A     		ldrb	r2, [r4, #8]
 377 029a 6D46     		mov	r5, sp
 378 029c 1300     		movs	r3, r2
 379 029e 0A33     		adds	r3, r3, #10
 380 02a0 DB08     		lsrs	r3, r3, #3
 381 02a2 DB00     		lsls	r3, r3, #3
 382 02a4 EB1A     		subs	r3, r5, r3
 383 02a6 9D46     		mov	sp, r3
 384 02a8 0A21     		movs	r1, #10
 385              	.L81:
 386 02aa 9970     		strb	r1, [r3, #2]
 387 02ac D81C     		adds	r0, r3, #3
 388 02ae 6168     		ldr	r1, [r4, #4]
 389 02b0 FFF7FEFF 		bl	memcpy
 390 02b4 FFF7FEFF 		bl	modem_context_get_modem_radio_ctx
 391 02b8 227A     		ldrb	r2, [r4, #8]
 392 02ba 6946     		mov	r1, sp
 393 02bc 0332     		adds	r2, r2, #3
 394 02be D2B2     		uxtb	r2, r2
 395 02c0 FFF7FEFF 		bl	almanac_update_process_downlink_payload
 396 02c4 0300     		movs	r3, r0
 397 02c6 0020     		movs	r0, #0
 398 02c8 8342     		cmp	r3, r0
 399 02ca 08D1     		bne	.L46
 400 02cc 2178     		ldrb	r1, [r4]
 401 02ce 8142     		cmp	r1, r0
 402 02d0 01D0     		beq	.L47
 403 02d2 0121     		movs	r1, #1
 404 02d4 2380     		strh	r3, [r4]
 405              	.L47:
 406 02d6 1120     		movs	r0, #17
 407 02d8 FFF7FEFF 		bl	increment_asynchronous_msgnumber
ARM GAS  /tmp/ccutSapt.s 			page 9


 408 02dc 0120     		movs	r0, #1
 409              	.L46:
 410 02de AD46     		mov	sp, r5
 411 02e0 DCE6     		b	.L20
 412              	.L6:
 413 02e2 227A     		ldrb	r2, [r4, #8]
 414 02e4 6D46     		mov	r5, sp
 415 02e6 1300     		movs	r3, r2
 416 02e8 0A33     		adds	r3, r3, #10
 417 02ea DB08     		lsrs	r3, r3, #3
 418 02ec DB00     		lsls	r3, r3, #3
 419 02ee EB1A     		subs	r3, r5, r3
 420 02f0 9D46     		mov	sp, r3
 421 02f2 0D21     		movs	r1, #13
 422 02f4 D9E7     		b	.L81
 423              	.L8:
 424 02f6 0E20     		movs	r0, #14
 425 02f8 FFF7FEFF 		bl	modem_context_suspend_radio_access
 426 02fc FFF7FEFF 		bl	modem_context_get_modem_radio_ctx
 427 0300 227A     		ldrb	r2, [r4, #8]
 428 0302 6168     		ldr	r1, [r4, #4]
 429 0304 FFF7FEFF 		bl	lr11xx_gnss_push_solver_msg
 430 0308 0400     		movs	r4, r0
 431 030a 6342     		rsbs	r3, r4, #0
 432 030c 5C41     		adcs	r4, r4, r3
 433 030e FFF7FEFF 		bl	modem_context_resume_radio_access
 434 0312 E0B2     		uxtb	r0, r4
 435 0314 C2E6     		b	.L20
 436              	.L83:
 437 0316 C046     		.align	2
 438              	.L82:
 439 0318 25000000 		.word	.LC2
 440 031c 00000000 		.word	.LC0
 441 0320 00000000 		.word	dm_cmd_len
 442 0324 2A000000 		.word	.LC5
 443 0328 00000000 		.word	dm_cmd_str
 444 032c 5D000000 		.word	.LC8
 445 0330 7A000000 		.word	.LC10
 446 0334 AC000000 		.word	.LC12
 447 0338 07010000 		.word	.LC18
 448 033c E5010000 		.word	.LC14
 449 0340 DA000000 		.word	.LC16
 450 0344 24010000 		.word	.LC20
 451 0348 48010000 		.word	.LC22
 452 034c A8040000 		.word	smtc_modem_services_ctx+1192
 453 0350 6D010000 		.word	.LC25
 454 0354 AC010000 		.word	.LC27
 455 0358 E7010000 		.word	.LC29
 456 035c 54000000 		.word	smtc_modem_services_ctx+84
 457 0360 00000000 		.word	smtc_modem_services_ctx
 458 0364 2C000000 		.word	smtc_modem_services_ctx+44
 460              		.section	.rodata.dm_downlink.str1.1,"aMS",%progbits,1
 461              	.LC35:
 462 0000 1B5B303B 		.ascii	"\033[0;31mERROR: DM Downlink must contain at least "
 462      33316D45 
 462      52524F52 
 462      3A20444D 
ARM GAS  /tmp/ccutSapt.s 			page 10


 462      20446F77 
 463 0030 34206279 		.ascii	"4 bytes\012\000"
 463      7465730A 
 463      00
 464              		.section	.text.dm_downlink,"ax",%progbits
 465              		.align	1
 466              		.global	dm_downlink
 467              		.syntax unified
 468              		.code	16
 469              		.thumb_func
 471              	dm_downlink:
 472              		@ args = 0, pretend = 0, frame = 16
 473              		@ frame_needed = 0, uses_anonymous_args = 0
 474 0000 7FB5     		push	{r0, r1, r2, r3, r4, r5, r6, lr}
 475 0002 0329     		cmp	r1, #3
 476 0004 09D8     		bhi	.L85
 477 0006 1248     		ldr	r0, .L89
 478 0008 FFF7FEFF 		bl	smtc_modem_hal_print_trace
 479 000c 1148     		ldr	r0, .L89+4
 480 000e FFF7FEFF 		bl	smtc_modem_hal_print_trace
 481 0012 0025     		movs	r5, #0
 482              	.L86:
 483 0014 2800     		movs	r0, r5
 484 0016 04B0     		add	sp, sp, #16
 485              		@ sp needed
 486 0018 70BD     		pop	{r4, r5, r6, pc}
 487              	.L85:
 488 001a 0378     		ldrb	r3, [r0]
 489 001c 01AC     		add	r4, sp, #4
 490 001e 2370     		strb	r3, [r4]
 491 0020 4378     		ldrb	r3, [r0, #1]
 492 0022 0339     		subs	r1, r1, #3
 493 0024 6370     		strb	r3, [r4, #1]
 494 0026 8378     		ldrb	r3, [r0, #2]
 495 0028 0330     		adds	r0, r0, #3
 496 002a 0290     		str	r0, [sp, #8]
 497 002c 2000     		movs	r0, r4
 498 002e 2172     		strb	r1, [r4, #8]
 499 0030 A370     		strb	r3, [r4, #2]
 500 0032 FFF7FEFF 		bl	dm_parse_cmd
 501 0036 2678     		ldrb	r6, [r4]
 502 0038 6478     		ldrb	r4, [r4, #1]
 503 003a 0500     		movs	r5, r0
 504 003c 2100     		movs	r1, r4
 505 003e 3000     		movs	r0, r6
 506 0040 FFF7FEFF 		bl	set_dm_retrieve_pending_dl
 507 0044 002E     		cmp	r6, #0
 508 0046 E5D0     		beq	.L86
 509 0048 2000     		movs	r0, r4
 510 004a FFF7FEFF 		bl	modem_supervisor_add_task_retrieve_dl
 511 004e E1E7     		b	.L86
 512              	.L90:
 513              		.align	2
 514              	.L89:
 515 0050 00000000 		.word	.LC35
 516 0054 25000000 		.word	.LC2
 518              		.section	.rodata.dm_cmd_len,"a"
ARM GAS  /tmp/ccutSapt.s 			page 11


 519              		.align	2
 522              	dm_cmd_len:
 523 0000 0303     		.ascii	"\003\003"
 524 0002 01FF     		.ascii	"\001\377"
 525 0004 0101     		.ascii	"\001\001"
 526 0006 01FF     		.ascii	"\001\377"
 527 0008 02FF     		.ascii	"\002\377"
 528 000a 0202     		.ascii	"\002\002"
 529 000c 0101     		.ascii	"\001\001"
 530 000e 011C     		.ascii	"\001\034"
 531 0010 01FF     		.ascii	"\001\377"
 532 0012 01FF     		.ascii	"\001\377"
 533 0014 01FF     		.ascii	"\001\377"
 534 0016 01FF     		.ascii	"\001\377"
 535 0018 01FF     		.ascii	"\001\377"
 536 001a 01FF     		.ascii	"\001\377"
 537              		.section	.rodata.str1.1,"aMS",%progbits,1
 538              	.LC38:
 539 0000 52455345 		.ascii	"RESET\000"
 539      5400
 540              	.LC39:
 541 0006 46554F54 		.ascii	"FUOTA\000"
 541      4100
 542              	.LC40:
 543 000c 46494C45 		.ascii	"FILE_DONE\000"
 543      5F444F4E 
 543      4500
 544              	.LC41:
 545 0016 4745545F 		.ascii	"GET_INFO\000"
 545      494E464F 
 545      00
 546              	.LC42:
 547 001f 5345545F 		.ascii	"SET_CONF\000"
 547      434F4E46 
 547      00
 548              	.LC43:
 549 0028 52454A4F 		.ascii	"REJOIN\000"
 549      494E00
 550              	.LC44:
 551 002f 4D555445 		.ascii	"MUTE\000"
 551      00
 552              	.LC45:
 553 0034 5345545F 		.ascii	"SET_DM_INFO\000"
 553      444D5F49 
 553      4E464F00 
 554              	.LC46:
 555 0040 53545245 		.ascii	"STREAM\000"
 555      414D00
 556              	.LC47:
 557 0047 414C435F 		.ascii	"ALC_SYNC\000"
 557      53594E43 
 557      00
 558              	.LC48:
 559 0050 414C4D5F 		.ascii	"ALM_UPDATE\000"
 559      55504441 
 559      544500
 560              	.LC49:
ARM GAS  /tmp/ccutSapt.s 			page 12


 561 005b 414C4D5F 		.ascii	"ALM_DEBUG\000"
 561      44454255 
 561      4700
 562              	.LC50:
 563 0065 534F4C56 		.ascii	"SOLVER_UPDATE\000"
 563      45525F55 
 563      50444154 
 563      4500
 564              	.LC51:
 565 0073 414C4D5F 		.ascii	"ALM_FUPDATE\000"
 565      46555044 
 565      41544500 
 566              		.section	.rodata.dm_cmd_str,"a"
 567              		.align	2
 570              	dm_cmd_str:
 571 0000 00000000 		.word	.LC38
 572 0004 06000000 		.word	.LC39
 573 0008 0C000000 		.word	.LC40
 574 000c 16000000 		.word	.LC41
 575 0010 1F000000 		.word	.LC42
 576 0014 28000000 		.word	.LC43
 577 0018 2F000000 		.word	.LC44
 578 001c 34000000 		.word	.LC45
 579 0020 40000000 		.word	.LC46
 580 0024 47000000 		.word	.LC47
 581 0028 50000000 		.word	.LC48
 582 002c 5B000000 		.word	.LC49
 583 0030 65000000 		.word	.LC50
 584 0034 73000000 		.word	.LC51
 585              		.ident	"GCC: (Arch Repository) 13.2.0"
ARM GAS  /tmp/ccutSapt.s 			page 13


DEFINED SYMBOLS
                            *ABS*:00000000 dm_downlink.c
     /tmp/ccutSapt.s:48     .text.dm_parse_cmd:00000000 $t
     /tmp/ccutSapt.s:54     .text.dm_parse_cmd:00000000 dm_parse_cmd
     /tmp/ccutSapt.s:101    .text.dm_parse_cmd:00000058 $d
     /tmp/ccutSapt.s:115    .text.dm_parse_cmd:00000074 $t
     /tmp/ccutSapt.s:439    .text.dm_parse_cmd:00000318 $d
     /tmp/ccutSapt.s:522    .rodata.dm_cmd_len:00000000 dm_cmd_len
     /tmp/ccutSapt.s:570    .rodata.dm_cmd_str:00000000 dm_cmd_str
     /tmp/ccutSapt.s:465    .text.dm_downlink:00000000 $t
     /tmp/ccutSapt.s:471    .text.dm_downlink:00000000 dm_downlink
     /tmp/ccutSapt.s:515    .text.dm_downlink:00000050 $d
     /tmp/ccutSapt.s:519    .rodata.dm_cmd_len:00000000 $d
     /tmp/ccutSapt.s:567    .rodata.dm_cmd_str:00000000 $d

UNDEFINED SYMBOLS
smtc_modem_hal_print_trace
__gnu_thumb1_case_shi
lorawan_api_nb_reset_get
lorawan_api_context_save
smtc_modem_hal_reset_mcu
set_dm_info
modem_supervisor_add_task_dm_status_now
modem_get_upload_state
file_upload_process_file_done_frame
increment_asynchronous_msgnumber
set_modem_status_file_upload
modem_set_upload_state
modem_supervisor_remove_task
dm_set_conf
lorawan_api_devnonce_get
modem_leave
modem_supervisor_add_task_join
dm_set_number_of_days_mute
get_modem_muted
modem_supervisor_add_task_modem_mute
stream_process_dn_frame
alc_sync_parser
modem_supervisor_remove_task_clock_sync
clock_sync_is_enabled
clock_sync_get_interval_second
clock_sync_get_time_left_connection_lost
smtc_modem_hal_get_signed_random_nb_in_range
modem_supervisor_add_task_clock_sync_time_req
modem_supervisor_add_task_alc_sync_ans
memcpy
modem_context_get_modem_radio_ctx
almanac_update_process_downlink_payload
modem_context_suspend_radio_access
lr11xx_gnss_push_solver_msg
modem_context_resume_radio_access
smtc_modem_services_ctx
set_dm_retrieve_pending_dl
modem_supervisor_add_task_retrieve_dl
