ARM GAS  /tmp/ccCFG3OY.s 			page 1


   1              		.cpu cortex-m0
   2              		.arch armv6s-m
   3              		.fpu softvfp
   4              		.eabi_attribute 23, 1
   5              		.eabi_attribute 24, 1
   6              		.eabi_attribute 25, 1
   7              		.eabi_attribute 26, 1
   8              		.eabi_attribute 30, 4
   9              		.eabi_attribute 34, 0
  10              		.eabi_attribute 18, 4
  11              		.file	"lorawan_api.c"
  12              		.text
  13              		.section	.rodata.lorawan_api_class_b_downlink_callback.str1.1,"aMS",%progbits,1
  14              	.LC2:
  15 0000 1B5B303B 		.ascii	"\033[0;31mERROR: crash log :%s\012\000"
  15      33316D45 
  15      52524F52 
  15      3A206372 
  15      61736820 
  16              	.LC4:
  17 001d 1B5B306D 		.ascii	"\033[0m\000"
  17      00
  18              	.LC6:
  19 0022 1B5B303B 		.ascii	"\033[0;31mERROR: -> Fifo problem\012\000"
  19      33316D45 
  19      52524F52 
  19      3A202D3E 
  19      20466966 
  20              		.section	.text.lorawan_api_class_b_downlink_callback,"ax",%progbits
  21              		.align	1
  22              		.syntax unified
  23              		.code	16
  24              		.thumb_func
  26              	lorawan_api_class_b_downlink_callback:
  27              		@ args = 0, pretend = 0, frame = 0
  28              		@ frame_needed = 0, uses_anonymous_args = 0
  29 0000 9223     		movs	r3, #146
  30 0002 73B5     		push	{r0, r1, r4, r5, r6, lr}
  31 0004 FF33     		adds	r3, r3, #255
  32 0006 C35C     		ldrb	r3, [r0, r3]
  33 0008 0500     		movs	r5, r0
  34 000a 0600     		movs	r6, r0
  35 000c 5A1E     		subs	r2, r3, #1
  36 000e 9341     		sbcs	r3, r3, r2
  37 0010 4030     		adds	r0, r0, #64
  38 0012 4135     		adds	r5, r5, #65
  39 0014 2C36     		adds	r6, r6, #44
  40 0016 0400     		movs	r4, r0
  41 0018 0178     		ldrb	r1, [r0]
  42 001a 3200     		movs	r2, r6
  43 001c 2800     		movs	r0, r5
  44 001e DBB2     		uxtb	r3, r3
  45 0020 FFF7FEFF 		bl	modem_supervisor_update_downlink_frame
  46 0024 0028     		cmp	r0, #0
  47 0026 21D0     		beq	.L1
  48 0028 1423     		movs	r3, #20
  49 002a 2278     		ldrb	r2, [r4]
ARM GAS  /tmp/ccCFG3OY.s 			page 2


  50 002c 124C     		ldr	r4, .L7
  51 002e 0093     		str	r3, [sp]
  52 0030 2900     		movs	r1, r5
  53 0032 3300     		movs	r3, r6
  54 0034 2000     		movs	r0, r4
  55 0036 FFF7FEFF 		bl	fifo_ctrl_set
  56 003a 0028     		cmp	r0, #0
  57 003c 17D0     		beq	.L3
  58 003e 0F4C     		ldr	r4, .L7+4
  59 0040 2000     		movs	r0, r4
  60 0042 FFF7FEFF 		bl	smtc_modem_hal_store_crashlog
  61 0046 0120     		movs	r0, #1
  62 0048 FFF7FEFF 		bl	smtc_modem_hal_set_crashlog_status
  63 004c 2100     		movs	r1, r4
  64 004e 0C48     		ldr	r0, .L7+8
  65 0050 FFF7FEFF 		bl	smtc_modem_hal_print_trace
  66 0054 0B4C     		ldr	r4, .L7+12
  67 0056 2000     		movs	r0, r4
  68 0058 FFF7FEFF 		bl	smtc_modem_hal_print_trace
  69 005c 0A48     		ldr	r0, .L7+16
  70 005e FFF7FEFF 		bl	smtc_modem_hal_print_trace
  71 0062 2000     		movs	r0, r4
  72 0064 FFF7FEFF 		bl	smtc_modem_hal_print_trace
  73 0068 FFF7FEFF 		bl	smtc_modem_hal_reset_mcu
  74              	.L1:
  75              		@ sp needed
  76 006c 73BD     		pop	{r0, r1, r4, r5, r6, pc}
  77              	.L3:
  78 006e 2000     		movs	r0, r4
  79 0070 FFF7FEFF 		bl	fifo_ctrl_print_stat
  80 0074 FAE7     		b	.L1
  81              	.L8:
  82 0076 C046     		.align	2
  83              	.L7:
  84 0078 6C0A0000 		.word	lr1mac_core_context+2668
  85 007c 00000000 		.word	__func__.1
  86 0080 00000000 		.word	.LC2
  87 0084 1D000000 		.word	.LC4
  88 0088 22000000 		.word	.LC6
  90              		.section	.text.lorawan_api_class_c_downlink_callback,"ax",%progbits
  91              		.align	1
  92              		.syntax unified
  93              		.code	16
  94              		.thumb_func
  96              	lorawan_api_class_c_downlink_callback:
  97              		@ args = 0, pretend = 0, frame = 0
  98              		@ frame_needed = 0, uses_anonymous_args = 0
  99 0000 7E23     		movs	r3, #126
 100 0002 73B5     		push	{r0, r1, r4, r5, r6, lr}
 101 0004 FF33     		adds	r3, r3, #255
 102 0006 C35C     		ldrb	r3, [r0, r3]
 103 0008 0500     		movs	r5, r0
 104 000a 0600     		movs	r6, r0
 105 000c 5A1E     		subs	r2, r3, #1
 106 000e 9341     		sbcs	r3, r3, r2
 107 0010 3830     		adds	r0, r0, #56
 108 0012 3935     		adds	r5, r5, #57
ARM GAS  /tmp/ccCFG3OY.s 			page 3


 109 0014 2436     		adds	r6, r6, #36
 110 0016 0400     		movs	r4, r0
 111 0018 0178     		ldrb	r1, [r0]
 112 001a 3200     		movs	r2, r6
 113 001c 2800     		movs	r0, r5
 114 001e DBB2     		uxtb	r3, r3
 115 0020 FFF7FEFF 		bl	modem_supervisor_update_downlink_frame
 116 0024 0028     		cmp	r0, #0
 117 0026 21D0     		beq	.L9
 118 0028 1423     		movs	r3, #20
 119 002a 2278     		ldrb	r2, [r4]
 120 002c 124C     		ldr	r4, .L15
 121 002e 0093     		str	r3, [sp]
 122 0030 2900     		movs	r1, r5
 123 0032 3300     		movs	r3, r6
 124 0034 2000     		movs	r0, r4
 125 0036 FFF7FEFF 		bl	fifo_ctrl_set
 126 003a 0028     		cmp	r0, #0
 127 003c 17D0     		beq	.L11
 128 003e 0F4C     		ldr	r4, .L15+4
 129 0040 2000     		movs	r0, r4
 130 0042 FFF7FEFF 		bl	smtc_modem_hal_store_crashlog
 131 0046 0120     		movs	r0, #1
 132 0048 FFF7FEFF 		bl	smtc_modem_hal_set_crashlog_status
 133 004c 2100     		movs	r1, r4
 134 004e 0C48     		ldr	r0, .L15+8
 135 0050 FFF7FEFF 		bl	smtc_modem_hal_print_trace
 136 0054 0B4C     		ldr	r4, .L15+12
 137 0056 2000     		movs	r0, r4
 138 0058 FFF7FEFF 		bl	smtc_modem_hal_print_trace
 139 005c 0A48     		ldr	r0, .L15+16
 140 005e FFF7FEFF 		bl	smtc_modem_hal_print_trace
 141 0062 2000     		movs	r0, r4
 142 0064 FFF7FEFF 		bl	smtc_modem_hal_print_trace
 143 0068 FFF7FEFF 		bl	smtc_modem_hal_reset_mcu
 144              	.L9:
 145              		@ sp needed
 146 006c 73BD     		pop	{r0, r1, r4, r5, r6, pc}
 147              	.L11:
 148 006e 2000     		movs	r0, r4
 149 0070 FFF7FEFF 		bl	fifo_ctrl_print_stat
 150 0074 FAE7     		b	.L9
 151              	.L16:
 152 0076 C046     		.align	2
 153              	.L15:
 154 0078 6C0A0000 		.word	lr1mac_core_context+2668
 155 007c 00000000 		.word	__func__.0
 156 0080 00000000 		.word	.LC2
 157 0084 1D000000 		.word	.LC4
 158 0088 22000000 		.word	.LC6
 160              		.section	.text.lorawan_api_class_b_beacon_callback,"ax",%progbits
 161              		.align	1
 162              		.syntax unified
 163              		.code	16
 164              		.thumb_func
 166              	lorawan_api_class_b_beacon_callback:
 167              		@ args = 0, pretend = 0, frame = 0
ARM GAS  /tmp/ccCFG3OY.s 			page 4


 168              		@ frame_needed = 0, uses_anonymous_args = 0
 169 0000 73B5     		push	{r0, r1, r4, r5, r6, lr}
 170 0002 0500     		movs	r5, r0
 171 0004 0600     		movs	r6, r0
 172 0006 1035     		adds	r5, r5, #16
 173 0008 2930     		adds	r0, r0, #41
 174 000a 7036     		adds	r6, r6, #112
 175 000c 0400     		movs	r4, r0
 176 000e 0178     		ldrb	r1, [r0]
 177 0010 0023     		movs	r3, #0
 178 0012 3200     		movs	r2, r6
 179 0014 2800     		movs	r0, r5
 180 0016 FFF7FEFF 		bl	modem_supervisor_update_downlink_frame
 181 001a 0028     		cmp	r0, #0
 182 001c 21D0     		beq	.L17
 183 001e 1423     		movs	r3, #20
 184 0020 2278     		ldrb	r2, [r4]
 185 0022 124C     		ldr	r4, .L23
 186 0024 0093     		str	r3, [sp]
 187 0026 2900     		movs	r1, r5
 188 0028 3300     		movs	r3, r6
 189 002a 2000     		movs	r0, r4
 190 002c FFF7FEFF 		bl	fifo_ctrl_set
 191 0030 0028     		cmp	r0, #0
 192 0032 17D0     		beq	.L19
 193 0034 0E4C     		ldr	r4, .L23+4
 194 0036 2000     		movs	r0, r4
 195 0038 FFF7FEFF 		bl	smtc_modem_hal_store_crashlog
 196 003c 0120     		movs	r0, #1
 197 003e FFF7FEFF 		bl	smtc_modem_hal_set_crashlog_status
 198 0042 2100     		movs	r1, r4
 199 0044 0B48     		ldr	r0, .L23+8
 200 0046 FFF7FEFF 		bl	smtc_modem_hal_print_trace
 201 004a 0B4C     		ldr	r4, .L23+12
 202 004c 2000     		movs	r0, r4
 203 004e FFF7FEFF 		bl	smtc_modem_hal_print_trace
 204 0052 0A48     		ldr	r0, .L23+16
 205 0054 FFF7FEFF 		bl	smtc_modem_hal_print_trace
 206 0058 2000     		movs	r0, r4
 207 005a FFF7FEFF 		bl	smtc_modem_hal_print_trace
 208 005e FFF7FEFF 		bl	smtc_modem_hal_reset_mcu
 209              	.L17:
 210              		@ sp needed
 211 0062 73BD     		pop	{r0, r1, r4, r5, r6, pc}
 212              	.L19:
 213 0064 2000     		movs	r0, r4
 214 0066 FFF7FEFF 		bl	fifo_ctrl_print_stat
 215 006a FAE7     		b	.L17
 216              	.L24:
 217              		.align	2
 218              	.L23:
 219 006c 6C0A0000 		.word	lr1mac_core_context+2668
 220 0070 00000000 		.word	__func__.2
 221 0074 00000000 		.word	.LC2
 222 0078 1D000000 		.word	.LC4
 223 007c 22000000 		.word	.LC6
 225              		.section	.rodata.lorawan_api_class_a_downlink_callback.str1.1,"aMS",%progbits,1
ARM GAS  /tmp/ccCFG3OY.s 			page 5


 226              	.LC19:
 227 0000 4669666F 		.ascii	"Fifo problem\012\000"
 227      2070726F 
 227      626C656D 
 227      0A00
 228              		.section	.text.lorawan_api_class_a_downlink_callback,"ax",%progbits
 229              		.align	1
 230              		.syntax unified
 231              		.code	16
 232              		.thumb_func
 234              	lorawan_api_class_a_downlink_callback:
 235              		@ args = 0, pretend = 0, frame = 0
 236              		@ frame_needed = 0, uses_anonymous_args = 0
 237 0000 8423     		movs	r3, #132
 238 0002 9B00     		lsls	r3, r3, #2
 239 0004 F7B5     		push	{r0, r1, r2, r4, r5, r6, r7, lr}
 240 0006 C518     		adds	r5, r0, r3
 241 0008 9A23     		movs	r3, #154
 242 000a 0F4F     		ldr	r7, .L31
 243 000c DB00     		lsls	r3, r3, #3
 244 000e C618     		adds	r6, r0, r3
 245 0010 0400     		movs	r4, r0
 246 0012 C15D     		ldrb	r1, [r0, r7]
 247 0014 0023     		movs	r3, #0
 248 0016 3200     		movs	r2, r6
 249 0018 2800     		movs	r0, r5
 250 001a FFF7FEFF 		bl	modem_supervisor_update_downlink_frame
 251 001e 0028     		cmp	r0, #0
 252 0020 0DD0     		beq	.L25
 253 0022 1423     		movs	r3, #20
 254 0024 E25D     		ldrb	r2, [r4, r7]
 255 0026 094C     		ldr	r4, .L31+4
 256 0028 0093     		str	r3, [sp]
 257 002a 2900     		movs	r1, r5
 258 002c 3300     		movs	r3, r6
 259 002e 2000     		movs	r0, r4
 260 0030 FFF7FEFF 		bl	fifo_ctrl_set
 261 0034 0028     		cmp	r0, #0
 262 0036 03D0     		beq	.L27
 263 0038 0548     		ldr	r0, .L31+8
 264 003a FFF7FEFF 		bl	smtc_modem_hal_print_trace
 265              	.L25:
 266              		@ sp needed
 267 003e F7BD     		pop	{r0, r1, r2, r4, r5, r6, r7, pc}
 268              	.L27:
 269 0040 2000     		movs	r0, r4
 270 0042 FFF7FEFF 		bl	fifo_ctrl_print_stat
 271 0046 FAE7     		b	.L25
 272              	.L32:
 273              		.align	2
 274              	.L31:
 275 0048 0F020000 		.word	527
 276 004c 6C0A0000 		.word	lr1mac_core_context+2668
 277 0050 00000000 		.word	.LC19
 279              		.section	.text.lorawan_api_init,"ax",%progbits
 280              		.align	1
 281              		.global	lorawan_api_init
ARM GAS  /tmp/ccCFG3OY.s 			page 6


 282              		.syntax unified
 283              		.code	16
 284              		.thumb_func
 286              	lorawan_api_init:
 287              		@ args = 0, pretend = 0, frame = 0
 288              		@ frame_needed = 0, uses_anonymous_args = 0
 289 0000 F0B5     		push	{r4, r5, r6, r7, lr}
 290 0002 0400     		movs	r4, r0
 291 0004 2348     		ldr	r0, .L34
 292 0006 87B0     		sub	sp, sp, #28
 293 0008 0390     		str	r0, [sp, #12]
 294 000a 0120     		movs	r0, #1
 295 000c 0290     		str	r0, [sp, #8]
 296 000e 0020     		movs	r0, #0
 297 0010 214D     		ldr	r5, .L34+4
 298 0012 224B     		ldr	r3, .L34+8
 299 0014 0190     		str	r0, [sp, #4]
 300 0016 224A     		ldr	r2, .L34+12
 301 0018 2800     		movs	r0, r5
 302 001a 2249     		ldr	r1, .L34+16
 303 001c 0495     		str	r5, [sp, #16]
 304 001e 0094     		str	r4, [sp]
 305 0020 FFF7FEFF 		bl	lr1mac_core_init
 306 0024 8022     		movs	r2, #128
 307 0026 2049     		ldr	r1, .L34+20
 308 0028 9200     		lsls	r2, r2, #2
 309 002a 2048     		ldr	r0, .L34+24
 310 002c FFF7FEFF 		bl	fifo_ctrl_init
 311 0030 1F4F     		ldr	r7, .L34+28
 312 0032 3800     		movs	r0, r7
 313 0034 FFF7FEFF 		bl	smtc_multicast_init
 314 0038 1E4B     		ldr	r3, .L34+32
 315 003a 1F48     		ldr	r0, .L34+36
 316 003c 0393     		str	r3, [sp, #12]
 317 003e 1F4B     		ldr	r3, .L34+40
 318 0040 3A00     		movs	r2, r7
 319 0042 0193     		str	r3, [sp, #4]
 320 0044 0A23     		movs	r3, #10
 321 0046 2900     		movs	r1, r5
 322 0048 0490     		str	r0, [sp, #16]
 323 004a 0290     		str	r0, [sp, #8]
 324 004c 0093     		str	r3, [sp]
 325 004e 2300     		movs	r3, r4
 326 0050 FFF7FEFF 		bl	lr1mac_class_c_init
 327 0054 1A4B     		ldr	r3, .L34+44
 328 0056 1B4E     		ldr	r6, .L34+48
 329 0058 0393     		str	r3, [sp, #12]
 330 005a 1B4B     		ldr	r3, .L34+52
 331 005c 3A00     		movs	r2, r7
 332 005e 0193     		str	r3, [sp, #4]
 333 0060 0723     		movs	r3, #7
 334 0062 2900     		movs	r1, r5
 335 0064 3000     		movs	r0, r6
 336 0066 0093     		str	r3, [sp]
 337 0068 0496     		str	r6, [sp, #16]
 338 006a 2300     		movs	r3, r4
 339 006c 0296     		str	r6, [sp, #8]
ARM GAS  /tmp/ccCFG3OY.s 			page 7


 340 006e FFF7FEFF 		bl	smtc_ping_slot_init
 341 0072 164B     		ldr	r3, .L34+56
 342 0074 1648     		ldr	r0, .L34+60
 343 0076 0193     		str	r3, [sp, #4]
 344 0078 0623     		movs	r3, #6
 345 007a 2A00     		movs	r2, r5
 346 007c 3100     		movs	r1, r6
 347 007e 0290     		str	r0, [sp, #8]
 348 0080 0093     		str	r3, [sp]
 349 0082 2300     		movs	r3, r4
 350 0084 FFF7FEFF 		bl	smtc_beacon_sniff_init
 351 0088 1248     		ldr	r0, .L34+64
 352 008a FFF7FEFF 		bl	lorawan_certification_init
 353 008e 07B0     		add	sp, sp, #28
 354              		@ sp needed
 355 0090 F0BD     		pop	{r4, r5, r6, r7, pc}
 356              	.L35:
 357 0092 C046     		.align	2
 358              	.L34:
 359 0094 00000000 		.word	lorawan_api_class_a_downlink_callback
 360 0098 00000000 		.word	lr1mac_core_context
 361 009c F4060000 		.word	lr1mac_core_context+1780
 362 00a0 B4060000 		.word	lr1mac_core_context+1716
 363 00a4 54050000 		.word	lr1mac_core_context+1364
 364 00a8 00000000 		.word	fifo_buffer
 365 00ac 6C0A0000 		.word	lr1mac_core_context+2668
 366 00b0 C40C0000 		.word	lr1mac_core_context+3268
 367 00b4 00000000 		.word	lorawan_api_class_c_downlink_callback
 368 00b8 D8080000 		.word	lr1mac_core_context+2264
 369 00bc 00000000 		.word	lr1mac_class_c_mac_rp_callback
 370 00c0 00000000 		.word	lorawan_api_class_b_downlink_callback
 371 00c4 0C0B0000 		.word	lr1mac_core_context+2828
 372 00c8 00000000 		.word	smtc_ping_slot_mac_rp_callback
 373 00cc 00000000 		.word	lorawan_api_class_b_beacon_callback
 374 00d0 880A0000 		.word	lr1mac_core_context+2696
 375 00d4 740D0000 		.word	lr1mac_core_context+3444
 377              		.section	.text.lorawan_api_get_region,"ax",%progbits
 378              		.align	1
 379              		.global	lorawan_api_get_region
 380              		.syntax unified
 381              		.code	16
 382              		.thumb_func
 384              	lorawan_api_get_region:
 385              		@ args = 0, pretend = 0, frame = 0
 386              		@ frame_needed = 0, uses_anonymous_args = 0
 387 0000 10B5     		push	{r4, lr}
 388 0002 0248     		ldr	r0, .L37
 389 0004 FFF7FEFF 		bl	lr1mac_core_get_region
 390              		@ sp needed
 391 0008 10BD     		pop	{r4, pc}
 392              	.L38:
 393 000a C046     		.align	2
 394              	.L37:
 395 000c 00000000 		.word	lr1mac_core_context
 397              		.section	.text.lorawan_api_set_region,"ax",%progbits
 398              		.align	1
 399              		.global	lorawan_api_set_region
ARM GAS  /tmp/ccCFG3OY.s 			page 8


 400              		.syntax unified
 401              		.code	16
 402              		.thumb_func
 404              	lorawan_api_set_region:
 405              		@ args = 0, pretend = 0, frame = 0
 406              		@ frame_needed = 0, uses_anonymous_args = 0
 407 0000 10B5     		push	{r4, lr}
 408 0002 034B     		ldr	r3, .L40
 409 0004 0100     		movs	r1, r0
 410              		@ sp needed
 411 0006 1800     		movs	r0, r3
 412 0008 FFF7FEFF 		bl	lr1mac_core_set_region
 413 000c 10BD     		pop	{r4, pc}
 414              	.L41:
 415 000e C046     		.align	2
 416              	.L40:
 417 0010 00000000 		.word	lr1mac_core_context
 419              		.section	.text.lorawan_api_payload_send,"ax",%progbits
 420              		.align	1
 421              		.global	lorawan_api_payload_send
 422              		.syntax unified
 423              		.code	16
 424              		.thumb_func
 426              	lorawan_api_payload_send:
 427              		@ args = 8, pretend = 0, frame = 0
 428              		@ frame_needed = 0, uses_anonymous_args = 0
 429 0000 7FB5     		push	{r0, r1, r2, r3, r4, r5, r6, lr}
 430 0002 0400     		movs	r4, r0
 431 0004 08A8     		add	r0, sp, #32
 432 0006 0578     		ldrb	r5, [r0]
 433 0008 099E     		ldr	r6, [sp, #36]
 434 000a 0093     		str	r3, [sp]
 435 000c 0296     		str	r6, [sp, #8]
 436 000e 1300     		movs	r3, r2
 437 0010 0195     		str	r5, [sp, #4]
 438 0012 0A00     		movs	r2, r1
 439 0014 0248     		ldr	r0, .L43
 440 0016 2100     		movs	r1, r4
 441 0018 FFF7FEFF 		bl	lr1mac_core_payload_send
 442 001c 04B0     		add	sp, sp, #16
 443              		@ sp needed
 444 001e 70BD     		pop	{r4, r5, r6, pc}
 445              	.L44:
 446              		.align	2
 447              	.L43:
 448 0020 00000000 		.word	lr1mac_core_context
 450              		.section	.text.lorawan_api_payload_send_at_time,"ax",%progbits
 451              		.align	1
 452              		.global	lorawan_api_payload_send_at_time
 453              		.syntax unified
 454              		.code	16
 455              		.thumb_func
 457              	lorawan_api_payload_send_at_time:
 458              		@ args = 8, pretend = 0, frame = 0
 459              		@ frame_needed = 0, uses_anonymous_args = 0
 460 0000 7FB5     		push	{r0, r1, r2, r3, r4, r5, r6, lr}
 461 0002 0400     		movs	r4, r0
ARM GAS  /tmp/ccCFG3OY.s 			page 9


 462 0004 08A8     		add	r0, sp, #32
 463 0006 0578     		ldrb	r5, [r0]
 464 0008 099E     		ldr	r6, [sp, #36]
 465 000a 0093     		str	r3, [sp]
 466 000c 0296     		str	r6, [sp, #8]
 467 000e 1300     		movs	r3, r2
 468 0010 0195     		str	r5, [sp, #4]
 469 0012 0A00     		movs	r2, r1
 470 0014 0248     		ldr	r0, .L46
 471 0016 2100     		movs	r1, r4
 472 0018 FFF7FEFF 		bl	lr1mac_core_payload_send_at_time
 473 001c 04B0     		add	sp, sp, #16
 474              		@ sp needed
 475 001e 70BD     		pop	{r4, r5, r6, pc}
 476              	.L47:
 477              		.align	2
 478              	.L46:
 479 0020 00000000 		.word	lr1mac_core_context
 481              		.section	.text.lorawan_api_send_stack_cid_req,"ax",%progbits
 482              		.align	1
 483              		.global	lorawan_api_send_stack_cid_req
 484              		.syntax unified
 485              		.code	16
 486              		.thumb_func
 488              	lorawan_api_send_stack_cid_req:
 489              		@ args = 0, pretend = 0, frame = 0
 490              		@ frame_needed = 0, uses_anonymous_args = 0
 491 0000 10B5     		push	{r4, lr}
 492 0002 034B     		ldr	r3, .L49
 493 0004 0100     		movs	r1, r0
 494              		@ sp needed
 495 0006 1800     		movs	r0, r3
 496 0008 FFF7FEFF 		bl	lr1mac_core_send_stack_cid_req
 497 000c 10BD     		pop	{r4, pc}
 498              	.L50:
 499 000e C046     		.align	2
 500              	.L49:
 501 0010 00000000 		.word	lr1mac_core_context
 503              		.section	.text.lorawan_api_join,"ax",%progbits
 504              		.align	1
 505              		.global	lorawan_api_join
 506              		.syntax unified
 507              		.code	16
 508              		.thumb_func
 510              	lorawan_api_join:
 511              		@ args = 0, pretend = 0, frame = 0
 512              		@ frame_needed = 0, uses_anonymous_args = 0
 513 0000 10B5     		push	{r4, lr}
 514 0002 034B     		ldr	r3, .L52
 515 0004 0100     		movs	r1, r0
 516              		@ sp needed
 517 0006 1800     		movs	r0, r3
 518 0008 FFF7FEFF 		bl	lr1mac_core_join
 519 000c 10BD     		pop	{r4, pc}
 520              	.L53:
 521 000e C046     		.align	2
 522              	.L52:
ARM GAS  /tmp/ccCFG3OY.s 			page 10


 523 0010 00000000 		.word	lr1mac_core_context
 525              		.section	.text.lorawan_api_isjoined,"ax",%progbits
 526              		.align	1
 527              		.global	lorawan_api_isjoined
 528              		.syntax unified
 529              		.code	16
 530              		.thumb_func
 532              	lorawan_api_isjoined:
 533              		@ args = 0, pretend = 0, frame = 0
 534              		@ frame_needed = 0, uses_anonymous_args = 0
 535 0000 10B5     		push	{r4, lr}
 536 0002 0248     		ldr	r0, .L55
 537 0004 FFF7FEFF 		bl	lr1_mac_joined_status_get
 538              		@ sp needed
 539 0008 10BD     		pop	{r4, pc}
 540              	.L56:
 541 000a C046     		.align	2
 542              	.L55:
 543 000c 00000000 		.word	lr1mac_core_context
 545              		.section	.text.lorawan_api_join_status_clear,"ax",%progbits
 546              		.align	1
 547              		.global	lorawan_api_join_status_clear
 548              		.syntax unified
 549              		.code	16
 550              		.thumb_func
 552              	lorawan_api_join_status_clear:
 553              		@ args = 0, pretend = 0, frame = 0
 554              		@ frame_needed = 0, uses_anonymous_args = 0
 555 0000 10B5     		push	{r4, lr}
 556 0002 0248     		ldr	r0, .L58
 557 0004 FFF7FEFF 		bl	lr1mac_core_join_status_clear
 558              		@ sp needed
 559 0008 10BD     		pop	{r4, pc}
 560              	.L59:
 561 000a C046     		.align	2
 562              	.L58:
 563 000c 00000000 		.word	lr1mac_core_context
 565              		.section	.text.lorawan_api_dr_strategy_set,"ax",%progbits
 566              		.align	1
 567              		.global	lorawan_api_dr_strategy_set
 568              		.syntax unified
 569              		.code	16
 570              		.thumb_func
 572              	lorawan_api_dr_strategy_set:
 573              		@ args = 0, pretend = 0, frame = 0
 574              		@ frame_needed = 0, uses_anonymous_args = 0
 575 0000 10B5     		push	{r4, lr}
 576 0002 034B     		ldr	r3, .L61
 577 0004 0100     		movs	r1, r0
 578              		@ sp needed
 579 0006 1800     		movs	r0, r3
 580 0008 FFF7FEFF 		bl	lr1mac_core_dr_strategy_set
 581 000c 10BD     		pop	{r4, pc}
 582              	.L62:
 583 000e C046     		.align	2
 584              	.L61:
 585 0010 00000000 		.word	lr1mac_core_context
ARM GAS  /tmp/ccCFG3OY.s 			page 11


 587              		.section	.text.lorawan_api_dr_strategy_get,"ax",%progbits
 588              		.align	1
 589              		.global	lorawan_api_dr_strategy_get
 590              		.syntax unified
 591              		.code	16
 592              		.thumb_func
 594              	lorawan_api_dr_strategy_get:
 595              		@ args = 0, pretend = 0, frame = 0
 596              		@ frame_needed = 0, uses_anonymous_args = 0
 597 0000 10B5     		push	{r4, lr}
 598 0002 0248     		ldr	r0, .L64
 599 0004 FFF7FEFF 		bl	lr1mac_core_dr_strategy_get
 600              		@ sp needed
 601 0008 10BD     		pop	{r4, pc}
 602              	.L65:
 603 000a C046     		.align	2
 604              	.L64:
 605 000c 00000000 		.word	lr1mac_core_context
 607              		.section	.text.lorawan_api_dr_custom_set,"ax",%progbits
 608              		.align	1
 609              		.global	lorawan_api_dr_custom_set
 610              		.syntax unified
 611              		.code	16
 612              		.thumb_func
 614              	lorawan_api_dr_custom_set:
 615              		@ args = 0, pretend = 0, frame = 0
 616              		@ frame_needed = 0, uses_anonymous_args = 0
 617 0000 10B5     		push	{r4, lr}
 618 0002 034B     		ldr	r3, .L67
 619 0004 0100     		movs	r1, r0
 620              		@ sp needed
 621 0006 1800     		movs	r0, r3
 622 0008 FFF7FEFF 		bl	lr1mac_core_dr_custom_set
 623 000c 10BD     		pop	{r4, pc}
 624              	.L68:
 625 000e C046     		.align	2
 626              	.L67:
 627 0010 00000000 		.word	lr1mac_core_context
 629              		.section	.text.lorawan_api_process,"ax",%progbits
 630              		.align	1
 631              		.global	lorawan_api_process
 632              		.syntax unified
 633              		.code	16
 634              		.thumb_func
 636              	lorawan_api_process:
 637              		@ args = 0, pretend = 0, frame = 0
 638              		@ frame_needed = 0, uses_anonymous_args = 0
 639 0000 10B5     		push	{r4, lr}
 640 0002 0248     		ldr	r0, .L70
 641 0004 FFF7FEFF 		bl	lr1mac_core_process
 642              		@ sp needed
 643 0008 10BD     		pop	{r4, pc}
 644              	.L71:
 645 000a C046     		.align	2
 646              	.L70:
 647 000c 00000000 		.word	lr1mac_core_context
 649              		.section	.text.lorawan_api_context_load,"ax",%progbits
ARM GAS  /tmp/ccCFG3OY.s 			page 12


 650              		.align	1
 651              		.global	lorawan_api_context_load
 652              		.syntax unified
 653              		.code	16
 654              		.thumb_func
 656              	lorawan_api_context_load:
 657              		@ args = 0, pretend = 0, frame = 0
 658              		@ frame_needed = 0, uses_anonymous_args = 0
 659 0000 10B5     		push	{r4, lr}
 660 0002 0248     		ldr	r0, .L73
 661 0004 FFF7FEFF 		bl	lr1mac_core_context_load
 662              		@ sp needed
 663 0008 10BD     		pop	{r4, pc}
 664              	.L74:
 665 000a C046     		.align	2
 666              	.L73:
 667 000c 00000000 		.word	lr1mac_core_context
 669              		.section	.text.lorawan_api_context_save,"ax",%progbits
 670              		.align	1
 671              		.global	lorawan_api_context_save
 672              		.syntax unified
 673              		.code	16
 674              		.thumb_func
 676              	lorawan_api_context_save:
 677              		@ args = 0, pretend = 0, frame = 0
 678              		@ frame_needed = 0, uses_anonymous_args = 0
 679 0000 10B5     		push	{r4, lr}
 680 0002 0248     		ldr	r0, .L76
 681 0004 FFF7FEFF 		bl	lr1mac_core_context_save
 682              		@ sp needed
 683 0008 10BD     		pop	{r4, pc}
 684              	.L77:
 685 000a C046     		.align	2
 686              	.L76:
 687 000c 00000000 		.word	lr1mac_core_context
 689              		.section	.text.lorawan_api_last_snr_get,"ax",%progbits
 690              		.align	1
 691              		.global	lorawan_api_last_snr_get
 692              		.syntax unified
 693              		.code	16
 694              		.thumb_func
 696              	lorawan_api_last_snr_get:
 697              		@ args = 0, pretend = 0, frame = 0
 698              		@ frame_needed = 0, uses_anonymous_args = 0
 699 0000 10B5     		push	{r4, lr}
 700 0002 0248     		ldr	r0, .L79
 701 0004 FFF7FEFF 		bl	lr1mac_core_last_snr_get
 702              		@ sp needed
 703 0008 10BD     		pop	{r4, pc}
 704              	.L80:
 705 000a C046     		.align	2
 706              	.L79:
 707 000c 00000000 		.word	lr1mac_core_context
 709              		.section	.text.lorawan_api_last_rssi_get,"ax",%progbits
 710              		.align	1
 711              		.global	lorawan_api_last_rssi_get
 712              		.syntax unified
ARM GAS  /tmp/ccCFG3OY.s 			page 13


 713              		.code	16
 714              		.thumb_func
 716              	lorawan_api_last_rssi_get:
 717              		@ args = 0, pretend = 0, frame = 0
 718              		@ frame_needed = 0, uses_anonymous_args = 0
 719 0000 10B5     		push	{r4, lr}
 720 0002 0248     		ldr	r0, .L82
 721 0004 FFF7FEFF 		bl	lr1mac_core_last_rssi_get
 722              		@ sp needed
 723 0008 10BD     		pop	{r4, pc}
 724              	.L83:
 725 000a C046     		.align	2
 726              	.L82:
 727 000c 00000000 		.word	lr1mac_core_context
 729              		.section	.text.lorawan_api_factory_reset,"ax",%progbits
 730              		.align	1
 731              		.global	lorawan_api_factory_reset
 732              		.syntax unified
 733              		.code	16
 734              		.thumb_func
 736              	lorawan_api_factory_reset:
 737              		@ args = 0, pretend = 0, frame = 0
 738              		@ frame_needed = 0, uses_anonymous_args = 0
 739 0000 10B5     		push	{r4, lr}
 740 0002 0248     		ldr	r0, .L85
 741 0004 FFF7FEFF 		bl	lr1mac_core_factory_reset
 742              		@ sp needed
 743 0008 10BD     		pop	{r4, pc}
 744              	.L86:
 745 000a C046     		.align	2
 746              	.L85:
 747 000c 00000000 		.word	lr1mac_core_context
 749              		.section	.text.lorawan_api_get_activation_mode,"ax",%progbits
 750              		.align	1
 751              		.global	lorawan_api_get_activation_mode
 752              		.syntax unified
 753              		.code	16
 754              		.thumb_func
 756              	lorawan_api_get_activation_mode:
 757              		@ args = 0, pretend = 0, frame = 0
 758              		@ frame_needed = 0, uses_anonymous_args = 0
 759 0000 10B5     		push	{r4, lr}
 760 0002 0248     		ldr	r0, .L88
 761 0004 FFF7FEFF 		bl	lr1mac_core_get_activation_mode
 762              		@ sp needed
 763 0008 10BD     		pop	{r4, pc}
 764              	.L89:
 765 000a C046     		.align	2
 766              	.L88:
 767 000c 00000000 		.word	lr1mac_core_context
 769              		.section	.text.lorawan_api_set_activation_mode,"ax",%progbits
 770              		.align	1
 771              		.global	lorawan_api_set_activation_mode
 772              		.syntax unified
 773              		.code	16
 774              		.thumb_func
 776              	lorawan_api_set_activation_mode:
ARM GAS  /tmp/ccCFG3OY.s 			page 14


 777              		@ args = 0, pretend = 0, frame = 0
 778              		@ frame_needed = 0, uses_anonymous_args = 0
 779 0000 10B5     		push	{r4, lr}
 780 0002 034B     		ldr	r3, .L91
 781 0004 0100     		movs	r1, r0
 782              		@ sp needed
 783 0006 1800     		movs	r0, r3
 784 0008 FFF7FEFF 		bl	lr1mac_core_set_activation_mode
 785 000c 10BD     		pop	{r4, pc}
 786              	.L92:
 787 000e C046     		.align	2
 788              	.L91:
 789 0010 00000000 		.word	lr1mac_core_context
 791              		.section	.text.lorawan_api_next_max_payload_length_get,"ax",%progbits
 792              		.align	1
 793              		.global	lorawan_api_next_max_payload_length_get
 794              		.syntax unified
 795              		.code	16
 796              		.thumb_func
 798              	lorawan_api_next_max_payload_length_get:
 799              		@ args = 0, pretend = 0, frame = 0
 800              		@ frame_needed = 0, uses_anonymous_args = 0
 801 0000 10B5     		push	{r4, lr}
 802 0002 0248     		ldr	r0, .L94
 803 0004 FFF7FEFF 		bl	lr1mac_core_next_max_payload_length_get
 804              		@ sp needed
 805 0008 10BD     		pop	{r4, pc}
 806              	.L95:
 807 000a C046     		.align	2
 808              	.L94:
 809 000c 00000000 		.word	lr1mac_core_context
 811              		.section	.text.lorawan_api_devaddr_get,"ax",%progbits
 812              		.align	1
 813              		.global	lorawan_api_devaddr_get
 814              		.syntax unified
 815              		.code	16
 816              		.thumb_func
 818              	lorawan_api_devaddr_get:
 819              		@ args = 0, pretend = 0, frame = 0
 820              		@ frame_needed = 0, uses_anonymous_args = 0
 821 0000 10B5     		push	{r4, lr}
 822 0002 0248     		ldr	r0, .L97
 823 0004 FFF7FEFF 		bl	lr1mac_core_devaddr_get
 824              		@ sp needed
 825 0008 10BD     		pop	{r4, pc}
 826              	.L98:
 827 000a C046     		.align	2
 828              	.L97:
 829 000c 00000000 		.word	lr1mac_core_context
 831              		.section	.text.lorawan_api_get_deveui,"ax",%progbits
 832              		.align	1
 833              		.global	lorawan_api_get_deveui
 834              		.syntax unified
 835              		.code	16
 836              		.thumb_func
 838              	lorawan_api_get_deveui:
 839              		@ args = 0, pretend = 0, frame = 0
ARM GAS  /tmp/ccCFG3OY.s 			page 15


 840              		@ frame_needed = 0, uses_anonymous_args = 0
 841 0000 10B5     		push	{r4, lr}
 842 0002 FFF7FEFF 		bl	smtc_secure_element_get_deveui
 843              		@ sp needed
 844 0006 431E     		subs	r3, r0, #1
 845 0008 9841     		sbcs	r0, r0, r3
 846 000a 4042     		rsbs	r0, r0, #0
 847 000c 10BD     		pop	{r4, pc}
 849              		.section	.text.lorawan_api_set_deveui,"ax",%progbits
 850              		.align	1
 851              		.global	lorawan_api_set_deveui
 852              		.syntax unified
 853              		.code	16
 854              		.thumb_func
 856              	lorawan_api_set_deveui:
 857              		@ args = 0, pretend = 0, frame = 0
 858              		@ frame_needed = 0, uses_anonymous_args = 0
 859 0000 10B5     		push	{r4, lr}
 860 0002 FFF7FEFF 		bl	smtc_secure_element_set_deveui
 861              		@ sp needed
 862 0006 431E     		subs	r3, r0, #1
 863 0008 9841     		sbcs	r0, r0, r3
 864 000a 4042     		rsbs	r0, r0, #0
 865 000c 10BD     		pop	{r4, pc}
 867              		.section	.text.lorawan_api_set_appkey,"ax",%progbits
 868              		.align	1
 869              		.global	lorawan_api_set_appkey
 870              		.syntax unified
 871              		.code	16
 872              		.thumb_func
 874              	lorawan_api_set_appkey:
 875              		@ args = 0, pretend = 0, frame = 0
 876              		@ frame_needed = 0, uses_anonymous_args = 0
 877 0000 10B5     		push	{r4, lr}
 878 0002 0100     		movs	r1, r0
 879 0004 0400     		movs	r4, r0
 880 0006 0120     		movs	r0, #1
 881 0008 FFF7FEFF 		bl	smtc_modem_crypto_set_key
 882 000c 0028     		cmp	r0, #0
 883 000e 06D1     		bne	.L103
 884 0010 2100     		movs	r1, r4
 885 0012 FFF7FEFF 		bl	smtc_modem_crypto_set_key
 886 0016 431E     		subs	r3, r0, #1
 887 0018 9841     		sbcs	r0, r0, r3
 888              	.L104:
 889              		@ sp needed
 890 001a 4042     		rsbs	r0, r0, #0
 891 001c 10BD     		pop	{r4, pc}
 892              	.L103:
 893 001e 0120     		movs	r0, #1
 894 0020 FBE7     		b	.L104
 896              		.section	.text.lorawan_api_get_joineui,"ax",%progbits
 897              		.align	1
 898              		.global	lorawan_api_get_joineui
 899              		.syntax unified
 900              		.code	16
 901              		.thumb_func
ARM GAS  /tmp/ccCFG3OY.s 			page 16


 903              	lorawan_api_get_joineui:
 904              		@ args = 0, pretend = 0, frame = 0
 905              		@ frame_needed = 0, uses_anonymous_args = 0
 906 0000 10B5     		push	{r4, lr}
 907 0002 FFF7FEFF 		bl	smtc_secure_element_get_joineui
 908              		@ sp needed
 909 0006 431E     		subs	r3, r0, #1
 910 0008 9841     		sbcs	r0, r0, r3
 911 000a 4042     		rsbs	r0, r0, #0
 912 000c 10BD     		pop	{r4, pc}
 914              		.section	.text.lorawan_api_set_joineui,"ax",%progbits
 915              		.align	1
 916              		.global	lorawan_api_set_joineui
 917              		.syntax unified
 918              		.code	16
 919              		.thumb_func
 921              	lorawan_api_set_joineui:
 922              		@ args = 0, pretend = 0, frame = 0
 923              		@ frame_needed = 0, uses_anonymous_args = 0
 924 0000 10B5     		push	{r4, lr}
 925 0002 FFF7FEFF 		bl	smtc_secure_element_set_joineui
 926              		@ sp needed
 927 0006 431E     		subs	r3, r0, #1
 928 0008 9841     		sbcs	r0, r0, r3
 929 000a 4042     		rsbs	r0, r0, #0
 930 000c 10BD     		pop	{r4, pc}
 932              		.section	.text.lorawan_api_next_power_get,"ax",%progbits
 933              		.align	1
 934              		.global	lorawan_api_next_power_get
 935              		.syntax unified
 936              		.code	16
 937              		.thumb_func
 939              	lorawan_api_next_power_get:
 940              		@ args = 0, pretend = 0, frame = 0
 941              		@ frame_needed = 0, uses_anonymous_args = 0
 942 0000 10B5     		push	{r4, lr}
 943 0002 0248     		ldr	r0, .L108
 944 0004 FFF7FEFF 		bl	lr1mac_core_next_power_get
 945              		@ sp needed
 946 0008 10BD     		pop	{r4, pc}
 947              	.L109:
 948 000a C046     		.align	2
 949              	.L108:
 950 000c 00000000 		.word	lr1mac_core_context
 952              		.section	.text.lorawan_api_next_dr_get,"ax",%progbits
 953              		.align	1
 954              		.global	lorawan_api_next_dr_get
 955              		.syntax unified
 956              		.code	16
 957              		.thumb_func
 959              	lorawan_api_next_dr_get:
 960              		@ args = 0, pretend = 0, frame = 0
 961              		@ frame_needed = 0, uses_anonymous_args = 0
 962 0000 10B5     		push	{r4, lr}
 963 0002 0248     		ldr	r0, .L111
 964 0004 FFF7FEFF 		bl	lr1mac_core_next_dr_get
 965              		@ sp needed
ARM GAS  /tmp/ccCFG3OY.s 			page 17


 966 0008 10BD     		pop	{r4, pc}
 967              	.L112:
 968 000a C046     		.align	2
 969              	.L111:
 970 000c 00000000 		.word	lr1mac_core_context
 972              		.section	.text.lorawan_api_next_frequency_get,"ax",%progbits
 973              		.align	1
 974              		.global	lorawan_api_next_frequency_get
 975              		.syntax unified
 976              		.code	16
 977              		.thumb_func
 979              	lorawan_api_next_frequency_get:
 980              		@ args = 0, pretend = 0, frame = 0
 981              		@ frame_needed = 0, uses_anonymous_args = 0
 982 0000 10B5     		push	{r4, lr}
 983 0002 0248     		ldr	r0, .L114
 984 0004 FFF7FEFF 		bl	lr1mac_core_next_frequency_get
 985              		@ sp needed
 986 0008 10BD     		pop	{r4, pc}
 987              	.L115:
 988 000a C046     		.align	2
 989              	.L114:
 990 000c 00000000 		.word	lr1mac_core_context
 992              		.section	.text.lorawan_api_max_tx_dr_get,"ax",%progbits
 993              		.align	1
 994              		.global	lorawan_api_max_tx_dr_get
 995              		.syntax unified
 996              		.code	16
 997              		.thumb_func
 999              	lorawan_api_max_tx_dr_get:
 1000              		@ args = 0, pretend = 0, frame = 0
 1001              		@ frame_needed = 0, uses_anonymous_args = 0
 1002 0000 10B5     		push	{r4, lr}
 1003 0002 0248     		ldr	r0, .L117
 1004 0004 FFF7FEFF 		bl	smtc_real_get_max_tx_channel_dr
 1005              		@ sp needed
 1006 0008 10BD     		pop	{r4, pc}
 1007              	.L118:
 1008 000a C046     		.align	2
 1009              	.L117:
 1010 000c 00000000 		.word	lr1mac_core_context
 1012              		.section	.text.lorawan_api_mask_tx_dr_channel_up_dwell_time_check,"ax",%progbits
 1013              		.align	1
 1014              		.global	lorawan_api_mask_tx_dr_channel_up_dwell_time_check
 1015              		.syntax unified
 1016              		.code	16
 1017              		.thumb_func
 1019              	lorawan_api_mask_tx_dr_channel_up_dwell_time_check:
 1020              		@ args = 0, pretend = 0, frame = 0
 1021              		@ frame_needed = 0, uses_anonymous_args = 0
 1022 0000 10B5     		push	{r4, lr}
 1023 0002 0248     		ldr	r0, .L120
 1024 0004 FFF7FEFF 		bl	smtc_real_mask_tx_dr_channel_up_dwell_time_check
 1025              		@ sp needed
 1026 0008 10BD     		pop	{r4, pc}
 1027              	.L121:
 1028 000a C046     		.align	2
ARM GAS  /tmp/ccCFG3OY.s 			page 18


 1029              	.L120:
 1030 000c 00000000 		.word	lr1mac_core_context
 1032              		.section	.text.lorawan_api_min_tx_dr_get,"ax",%progbits
 1033              		.align	1
 1034              		.global	lorawan_api_min_tx_dr_get
 1035              		.syntax unified
 1036              		.code	16
 1037              		.thumb_func
 1039              	lorawan_api_min_tx_dr_get:
 1040              		@ args = 0, pretend = 0, frame = 0
 1041              		@ frame_needed = 0, uses_anonymous_args = 0
 1042 0000 10B5     		push	{r4, lr}
 1043 0002 0248     		ldr	r0, .L123
 1044 0004 FFF7FEFF 		bl	smtc_real_get_min_tx_channel_dr
 1045              		@ sp needed
 1046 0008 10BD     		pop	{r4, pc}
 1047              	.L124:
 1048 000a C046     		.align	2
 1049              	.L123:
 1050 000c 00000000 		.word	lr1mac_core_context
 1052              		.section	.text.lorawan_api_state_get,"ax",%progbits
 1053              		.align	1
 1054              		.global	lorawan_api_state_get
 1055              		.syntax unified
 1056              		.code	16
 1057              		.thumb_func
 1059              	lorawan_api_state_get:
 1060              		@ args = 0, pretend = 0, frame = 0
 1061              		@ frame_needed = 0, uses_anonymous_args = 0
 1062 0000 10B5     		push	{r4, lr}
 1063 0002 0248     		ldr	r0, .L126
 1064 0004 FFF7FEFF 		bl	lr1mac_core_state_get
 1065              		@ sp needed
 1066 0008 10BD     		pop	{r4, pc}
 1067              	.L127:
 1068 000a C046     		.align	2
 1069              	.L126:
 1070 000c 00000000 		.word	lr1mac_core_context
 1072              		.section	.text.lorawan_api_nb_reset_get,"ax",%progbits
 1073              		.align	1
 1074              		.global	lorawan_api_nb_reset_get
 1075              		.syntax unified
 1076              		.code	16
 1077              		.thumb_func
 1079              	lorawan_api_nb_reset_get:
 1080              		@ args = 0, pretend = 0, frame = 0
 1081              		@ frame_needed = 0, uses_anonymous_args = 0
 1082 0000 10B5     		push	{r4, lr}
 1083 0002 0248     		ldr	r0, .L129
 1084 0004 FFF7FEFF 		bl	lr1mac_core_nb_reset_get
 1085              		@ sp needed
 1086 0008 10BD     		pop	{r4, pc}
 1087              	.L130:
 1088 000a C046     		.align	2
 1089              	.L129:
 1090 000c 00000000 		.word	lr1mac_core_context
 1092              		.section	.text.lorawan_api_devnonce_get,"ax",%progbits
ARM GAS  /tmp/ccCFG3OY.s 			page 19


 1093              		.align	1
 1094              		.global	lorawan_api_devnonce_get
 1095              		.syntax unified
 1096              		.code	16
 1097              		.thumb_func
 1099              	lorawan_api_devnonce_get:
 1100              		@ args = 0, pretend = 0, frame = 0
 1101              		@ frame_needed = 0, uses_anonymous_args = 0
 1102 0000 10B5     		push	{r4, lr}
 1103 0002 0248     		ldr	r0, .L132
 1104 0004 FFF7FEFF 		bl	lr1mac_core_devnonce_get
 1105              		@ sp needed
 1106 0008 10BD     		pop	{r4, pc}
 1107              	.L133:
 1108 000a C046     		.align	2
 1109              	.L132:
 1110 000c 00000000 		.word	lr1mac_core_context
 1112              		.section	.text.lorawan_api_rx_window_get,"ax",%progbits
 1113              		.align	1
 1114              		.global	lorawan_api_rx_window_get
 1115              		.syntax unified
 1116              		.code	16
 1117              		.thumb_func
 1119              	lorawan_api_rx_window_get:
 1120              		@ args = 0, pretend = 0, frame = 0
 1121              		@ frame_needed = 0, uses_anonymous_args = 0
 1122 0000 10B5     		push	{r4, lr}
 1123 0002 0248     		ldr	r0, .L135
 1124 0004 FFF7FEFF 		bl	lr1mac_core_rx_window_get
 1125              		@ sp needed
 1126 0008 10BD     		pop	{r4, pc}
 1127              	.L136:
 1128 000a C046     		.align	2
 1129              	.L135:
 1130 000c 00000000 		.word	lr1mac_core_context
 1132              		.section	.text.lorawan_api_next_join_time_second_get,"ax",%progbits
 1133              		.align	1
 1134              		.global	lorawan_api_next_join_time_second_get
 1135              		.syntax unified
 1136              		.code	16
 1137              		.thumb_func
 1139              	lorawan_api_next_join_time_second_get:
 1140              		@ args = 0, pretend = 0, frame = 0
 1141              		@ frame_needed = 0, uses_anonymous_args = 0
 1142 0000 10B5     		push	{r4, lr}
 1143 0002 0248     		ldr	r0, .L138
 1144 0004 FFF7FEFF 		bl	lr1mac_core_next_join_time_second_get
 1145              		@ sp needed
 1146 0008 10BD     		pop	{r4, pc}
 1147              	.L139:
 1148 000a C046     		.align	2
 1149              	.L138:
 1150 000c 00000000 		.word	lr1mac_core_context
 1152              		.section	.text.lorawan_api_next_free_duty_cycle_ms_get,"ax",%progbits
 1153              		.align	1
 1154              		.global	lorawan_api_next_free_duty_cycle_ms_get
 1155              		.syntax unified
ARM GAS  /tmp/ccCFG3OY.s 			page 20


 1156              		.code	16
 1157              		.thumb_func
 1159              	lorawan_api_next_free_duty_cycle_ms_get:
 1160              		@ args = 0, pretend = 0, frame = 0
 1161              		@ frame_needed = 0, uses_anonymous_args = 0
 1162 0000 10B5     		push	{r4, lr}
 1163 0002 0248     		ldr	r0, .L141
 1164 0004 FFF7FEFF 		bl	lr1mac_core_next_free_duty_cycle_ms_get
 1165              		@ sp needed
 1166 0008 10BD     		pop	{r4, pc}
 1167              	.L142:
 1168 000a C046     		.align	2
 1169              	.L141:
 1170 000c 00000000 		.word	lr1mac_core_context
 1172              		.section	.text.lorawan_api_duty_cycle_enable_set,"ax",%progbits
 1173              		.align	1
 1174              		.global	lorawan_api_duty_cycle_enable_set
 1175              		.syntax unified
 1176              		.code	16
 1177              		.thumb_func
 1179              	lorawan_api_duty_cycle_enable_set:
 1180              		@ args = 0, pretend = 0, frame = 0
 1181              		@ frame_needed = 0, uses_anonymous_args = 0
 1182 0000 054B     		ldr	r3, .L144
 1183 0002 0100     		movs	r1, r0
 1184 0004 10B5     		push	{r4, lr}
 1185 0006 D86B     		ldr	r0, [r3, #60]
 1186 0008 FFF7FEFF 		bl	smtc_duty_cycle_enable_set
 1187              		@ sp needed
 1188 000c 0138     		subs	r0, r0, #1
 1189 000e 431E     		subs	r3, r0, #1
 1190 0010 9841     		sbcs	r0, r0, r3
 1191 0012 4042     		rsbs	r0, r0, #0
 1192 0014 10BD     		pop	{r4, pc}
 1193              	.L145:
 1194 0016 C046     		.align	2
 1195              	.L144:
 1196 0018 00000000 		.word	lr1mac_core_context
 1198              		.section	.text.lorawan_api_duty_cycle_enable_get,"ax",%progbits
 1199              		.align	1
 1200              		.global	lorawan_api_duty_cycle_enable_get
 1201              		.syntax unified
 1202              		.code	16
 1203              		.thumb_func
 1205              	lorawan_api_duty_cycle_enable_get:
 1206              		@ args = 0, pretend = 0, frame = 0
 1207              		@ frame_needed = 0, uses_anonymous_args = 0
 1208 0000 10B5     		push	{r4, lr}
 1209 0002 024B     		ldr	r3, .L147
 1210              		@ sp needed
 1211 0004 D86B     		ldr	r0, [r3, #60]
 1212 0006 FFF7FEFF 		bl	smtc_duty_cycle_enable_get
 1213 000a 10BD     		pop	{r4, pc}
 1214              	.L148:
 1215              		.align	2
 1216              	.L147:
 1217 000c 00000000 		.word	lr1mac_core_context
ARM GAS  /tmp/ccCFG3OY.s 			page 21


 1219              		.section	.text.lorawan_api_fcnt_up_get,"ax",%progbits
 1220              		.align	1
 1221              		.global	lorawan_api_fcnt_up_get
 1222              		.syntax unified
 1223              		.code	16
 1224              		.thumb_func
 1226              	lorawan_api_fcnt_up_get:
 1227              		@ args = 0, pretend = 0, frame = 0
 1228              		@ frame_needed = 0, uses_anonymous_args = 0
 1229 0000 10B5     		push	{r4, lr}
 1230 0002 0248     		ldr	r0, .L150
 1231 0004 FFF7FEFF 		bl	lr1mac_core_fcnt_up_get
 1232              		@ sp needed
 1233 0008 10BD     		pop	{r4, pc}
 1234              	.L151:
 1235 000a C046     		.align	2
 1236              	.L150:
 1237 000c 00000000 		.word	lr1mac_core_context
 1239              		.section	.text.lorawan_api_rp_hook_id_get,"ax",%progbits
 1240              		.align	1
 1241              		.global	lorawan_api_rp_hook_id_get
 1242              		.syntax unified
 1243              		.code	16
 1244              		.thumb_func
 1246              	lorawan_api_rp_hook_id_get:
 1247              		@ args = 0, pretend = 0, frame = 8
 1248              		@ frame_needed = 0, uses_anonymous_args = 0
 1249 0000 37B5     		push	{r0, r1, r2, r4, r5, lr}
 1250 0002 064D     		ldr	r5, .L153
 1251              		@ sp needed
 1252 0004 2800     		movs	r0, r5
 1253 0006 FFF7FEFF 		bl	lr1mac_core_rp_get
 1254 000a 6B46     		mov	r3, sp
 1255 000c DC1D     		adds	r4, r3, #7
 1256 000e 2900     		movs	r1, r5
 1257 0010 2200     		movs	r2, r4
 1258 0012 FFF7FEFF 		bl	rp_hook_get_id
 1259 0016 2078     		ldrb	r0, [r4]
 1260 0018 3EBD     		pop	{r1, r2, r3, r4, r5, pc}
 1261              	.L154:
 1262 001a C046     		.align	2
 1263              	.L153:
 1264 001c 00000000 		.word	lr1mac_core_context
 1266              		.section	.text.lorawan_api_class_c_enabled,"ax",%progbits
 1267              		.align	1
 1268              		.global	lorawan_api_class_c_enabled
 1269              		.syntax unified
 1270              		.code	16
 1271              		.thumb_func
 1273              	lorawan_api_class_c_enabled:
 1274              		@ args = 0, pretend = 0, frame = 0
 1275              		@ frame_needed = 0, uses_anonymous_args = 0
 1276 0000 10B5     		push	{r4, lr}
 1277 0002 064C     		ldr	r4, .L157
 1278 0004 0100     		movs	r1, r0
 1279 0006 2000     		movs	r0, r4
 1280 0008 FFF7FEFF 		bl	lr1mac_class_c_enabled
ARM GAS  /tmp/ccCFG3OY.s 			page 22


 1281 000c FFF7FEFF 		bl	lorawan_api_isjoined
 1282 0010 0228     		cmp	r0, #2
 1283 0012 02D1     		bne	.L155
 1284 0014 2000     		movs	r0, r4
 1285 0016 FFF7FEFF 		bl	lr1mac_class_c_start
 1286              	.L155:
 1287              		@ sp needed
 1288 001a 10BD     		pop	{r4, pc}
 1289              	.L158:
 1290              		.align	2
 1291              	.L157:
 1292 001c D8080000 		.word	lr1mac_core_context+2264
 1294              		.section	.text.lorawan_api_class_c_start,"ax",%progbits
 1295              		.align	1
 1296              		.global	lorawan_api_class_c_start
 1297              		.syntax unified
 1298              		.code	16
 1299              		.thumb_func
 1301              	lorawan_api_class_c_start:
 1302              		@ args = 0, pretend = 0, frame = 0
 1303              		@ frame_needed = 0, uses_anonymous_args = 0
 1304 0000 10B5     		push	{r4, lr}
 1305 0002 0248     		ldr	r0, .L160
 1306 0004 FFF7FEFF 		bl	lr1mac_class_c_start
 1307              		@ sp needed
 1308 0008 10BD     		pop	{r4, pc}
 1309              	.L161:
 1310 000a C046     		.align	2
 1311              	.L160:
 1312 000c D8080000 		.word	lr1mac_core_context+2264
 1314              		.section	.text.lorawan_api_class_c_stop,"ax",%progbits
 1315              		.align	1
 1316              		.global	lorawan_api_class_c_stop
 1317              		.syntax unified
 1318              		.code	16
 1319              		.thumb_func
 1321              	lorawan_api_class_c_stop:
 1322              		@ args = 0, pretend = 0, frame = 0
 1323              		@ frame_needed = 0, uses_anonymous_args = 0
 1324 0000 10B5     		push	{r4, lr}
 1325 0002 0248     		ldr	r0, .L163
 1326 0004 FFF7FEFF 		bl	lr1mac_class_c_stop
 1327              		@ sp needed
 1328 0008 10BD     		pop	{r4, pc}
 1329              	.L164:
 1330 000a C046     		.align	2
 1331              	.L163:
 1332 000c D8080000 		.word	lr1mac_core_context+2264
 1334              		.section	.text.lorawan_api_multicast_set_group_session_keys,"ax",%progbits
 1335              		.align	1
 1336              		.global	lorawan_api_multicast_set_group_session_keys
 1337              		.syntax unified
 1338              		.code	16
 1339              		.thumb_func
 1341              	lorawan_api_multicast_set_group_session_keys:
 1342              		@ args = 0, pretend = 0, frame = 0
 1343              		@ frame_needed = 0, uses_anonymous_args = 0
ARM GAS  /tmp/ccCFG3OY.s 			page 23


 1344 0000 10B5     		push	{r4, lr}
 1345 0002 044C     		ldr	r4, .L166
 1346 0004 1300     		movs	r3, r2
 1347              		@ sp needed
 1348 0006 0A00     		movs	r2, r1
 1349 0008 0100     		movs	r1, r0
 1350 000a 2000     		movs	r0, r4
 1351 000c FFF7FEFF 		bl	smtc_multicast_set_group_keys
 1352 0010 10BD     		pop	{r4, pc}
 1353              	.L167:
 1354 0012 C046     		.align	2
 1355              	.L166:
 1356 0014 C40C0000 		.word	lr1mac_core_context+3268
 1358              		.section	.text.lorawan_api_multicast_set_group_address,"ax",%progbits
 1359              		.align	1
 1360              		.global	lorawan_api_multicast_set_group_address
 1361              		.syntax unified
 1362              		.code	16
 1363              		.thumb_func
 1365              	lorawan_api_multicast_set_group_address:
 1366              		@ args = 0, pretend = 0, frame = 0
 1367              		@ frame_needed = 0, uses_anonymous_args = 0
 1368 0000 10B5     		push	{r4, lr}
 1369 0002 034B     		ldr	r3, .L169
 1370 0004 0A00     		movs	r2, r1
 1371              		@ sp needed
 1372 0006 0100     		movs	r1, r0
 1373 0008 1800     		movs	r0, r3
 1374 000a FFF7FEFF 		bl	smtc_multicast_set_group_address
 1375 000e 10BD     		pop	{r4, pc}
 1376              	.L170:
 1377              		.align	2
 1378              	.L169:
 1379 0010 C40C0000 		.word	lr1mac_core_context+3268
 1381              		.section	.text.lorawan_api_multicast_get_group_address,"ax",%progbits
 1382              		.align	1
 1383              		.global	lorawan_api_multicast_get_group_address
 1384              		.syntax unified
 1385              		.code	16
 1386              		.thumb_func
 1388              	lorawan_api_multicast_get_group_address:
 1389              		@ args = 0, pretend = 0, frame = 0
 1390              		@ frame_needed = 0, uses_anonymous_args = 0
 1391 0000 10B5     		push	{r4, lr}
 1392 0002 034B     		ldr	r3, .L172
 1393 0004 0A00     		movs	r2, r1
 1394              		@ sp needed
 1395 0006 0100     		movs	r1, r0
 1396 0008 1800     		movs	r0, r3
 1397 000a FFF7FEFF 		bl	smtc_multicast_get_group_address
 1398 000e 10BD     		pop	{r4, pc}
 1399              	.L173:
 1400              		.align	2
 1401              	.L172:
 1402 0010 C40C0000 		.word	lr1mac_core_context+3268
 1404              		.section	.text.lorawan_api_multicast_get_running_status,"ax",%progbits
 1405              		.align	1
ARM GAS  /tmp/ccCFG3OY.s 			page 24


 1406              		.global	lorawan_api_multicast_get_running_status
 1407              		.syntax unified
 1408              		.code	16
 1409              		.thumb_func
 1411              	lorawan_api_multicast_get_running_status:
 1412              		@ args = 0, pretend = 0, frame = 0
 1413              		@ frame_needed = 0, uses_anonymous_args = 0
 1414 0000 10B5     		push	{r4, lr}
 1415 0002 034B     		ldr	r3, .L175
 1416 0004 0A00     		movs	r2, r1
 1417              		@ sp needed
 1418 0006 0100     		movs	r1, r0
 1419 0008 1800     		movs	r0, r3
 1420 000a FFF7FEFF 		bl	smtc_multicast_get_running_status
 1421 000e 10BD     		pop	{r4, pc}
 1422              	.L176:
 1423              		.align	2
 1424              	.L175:
 1425 0010 C40C0000 		.word	lr1mac_core_context+3268
 1427              		.section	.text.lorawan_api_multicast_c_get_session_status,"ax",%progbits
 1428              		.align	1
 1429              		.global	lorawan_api_multicast_c_get_session_status
 1430              		.syntax unified
 1431              		.code	16
 1432              		.thumb_func
 1434              	lorawan_api_multicast_c_get_session_status:
 1435              		@ args = 0, pretend = 0, frame = 0
 1436              		@ frame_needed = 0, uses_anonymous_args = 0
 1437 0000 13B5     		push	{r0, r1, r4, lr}
 1438 0002 0400     		movs	r4, r0
 1439              		@ sp needed
 1440 0004 0093     		str	r3, [sp]
 1441 0006 0348     		ldr	r0, .L178
 1442 0008 1300     		movs	r3, r2
 1443 000a 0A00     		movs	r2, r1
 1444 000c 2100     		movs	r1, r4
 1445 000e FFF7FEFF 		bl	lr1mac_class_c_multicast_get_session_status
 1446 0012 16BD     		pop	{r1, r2, r4, pc}
 1447              	.L179:
 1448              		.align	2
 1449              	.L178:
 1450 0014 D8080000 		.word	lr1mac_core_context+2264
 1452              		.section	.text.lorawan_api_multicast_c_start_session,"ax",%progbits
 1453              		.align	1
 1454              		.global	lorawan_api_multicast_c_start_session
 1455              		.syntax unified
 1456              		.code	16
 1457              		.thumb_func
 1459              	lorawan_api_multicast_c_start_session:
 1460              		@ args = 0, pretend = 0, frame = 0
 1461              		@ frame_needed = 0, uses_anonymous_args = 0
 1462 0000 10B5     		push	{r4, lr}
 1463 0002 044C     		ldr	r4, .L181
 1464 0004 1300     		movs	r3, r2
 1465              		@ sp needed
 1466 0006 0A00     		movs	r2, r1
 1467 0008 0100     		movs	r1, r0
ARM GAS  /tmp/ccCFG3OY.s 			page 25


 1468 000a 2000     		movs	r0, r4
 1469 000c FFF7FEFF 		bl	lr1mac_class_c_multicast_start_session
 1470 0010 10BD     		pop	{r4, pc}
 1471              	.L182:
 1472 0012 C046     		.align	2
 1473              	.L181:
 1474 0014 D8080000 		.word	lr1mac_core_context+2264
 1476              		.section	.text.lorawan_api_multicast_c_stop_session,"ax",%progbits
 1477              		.align	1
 1478              		.global	lorawan_api_multicast_c_stop_session
 1479              		.syntax unified
 1480              		.code	16
 1481              		.thumb_func
 1483              	lorawan_api_multicast_c_stop_session:
 1484              		@ args = 0, pretend = 0, frame = 0
 1485              		@ frame_needed = 0, uses_anonymous_args = 0
 1486 0000 10B5     		push	{r4, lr}
 1487 0002 034B     		ldr	r3, .L184
 1488 0004 0100     		movs	r1, r0
 1489              		@ sp needed
 1490 0006 1800     		movs	r0, r3
 1491 0008 FFF7FEFF 		bl	lr1mac_class_c_multicast_stop_session
 1492 000c 10BD     		pop	{r4, pc}
 1493              	.L185:
 1494 000e C046     		.align	2
 1495              	.L184:
 1496 0010 D8080000 		.word	lr1mac_core_context+2264
 1498              		.section	.text.lorawan_api_multicast_c_stop_all_sessions,"ax",%progbits
 1499              		.align	1
 1500              		.global	lorawan_api_multicast_c_stop_all_sessions
 1501              		.syntax unified
 1502              		.code	16
 1503              		.thumb_func
 1505              	lorawan_api_multicast_c_stop_all_sessions:
 1506              		@ args = 0, pretend = 0, frame = 0
 1507              		@ frame_needed = 0, uses_anonymous_args = 0
 1508 0000 10B5     		push	{r4, lr}
 1509 0002 0248     		ldr	r0, .L187
 1510 0004 FFF7FEFF 		bl	lr1mac_class_c_multicast_stop_all_sessions
 1511              		@ sp needed
 1512 0008 10BD     		pop	{r4, pc}
 1513              	.L188:
 1514 000a C046     		.align	2
 1515              	.L187:
 1516 000c D8080000 		.word	lr1mac_core_context+2264
 1518              		.section	.text.lorawan_api_multicast_b_get_session_status,"ax",%progbits
 1519              		.align	1
 1520              		.global	lorawan_api_multicast_b_get_session_status
 1521              		.syntax unified
 1522              		.code	16
 1523              		.thumb_func
 1525              	lorawan_api_multicast_b_get_session_status:
 1526              		@ args = 8, pretend = 0, frame = 0
 1527              		@ frame_needed = 0, uses_anonymous_args = 0
 1528 0000 30B5     		push	{r4, r5, lr}
 1529 0002 0400     		movs	r4, r0
 1530 0004 85B0     		sub	sp, sp, #20
ARM GAS  /tmp/ccCFG3OY.s 			page 26


 1531 0006 099D     		ldr	r5, [sp, #36]
 1532 0008 0093     		str	r3, [sp]
 1533 000a 0295     		str	r5, [sp, #8]
 1534 000c 089D     		ldr	r5, [sp, #32]
 1535 000e 1300     		movs	r3, r2
 1536 0010 0195     		str	r5, [sp, #4]
 1537 0012 0A00     		movs	r2, r1
 1538 0014 0248     		ldr	r0, .L190
 1539 0016 2100     		movs	r1, r4
 1540 0018 FFF7FEFF 		bl	smtc_ping_slot_multicast_b_get_session_status
 1541 001c 05B0     		add	sp, sp, #20
 1542              		@ sp needed
 1543 001e 30BD     		pop	{r4, r5, pc}
 1544              	.L191:
 1545              		.align	2
 1546              	.L190:
 1547 0020 0C0B0000 		.word	lr1mac_core_context+2828
 1549              		.section	.text.lorawan_api_multicast_b_start_session,"ax",%progbits
 1550              		.align	1
 1551              		.global	lorawan_api_multicast_b_start_session
 1552              		.syntax unified
 1553              		.code	16
 1554              		.thumb_func
 1556              	lorawan_api_multicast_b_start_session:
 1557              		@ args = 0, pretend = 0, frame = 0
 1558              		@ frame_needed = 0, uses_anonymous_args = 0
 1559 0000 13B5     		push	{r0, r1, r4, lr}
 1560 0002 0400     		movs	r4, r0
 1561              		@ sp needed
 1562 0004 0093     		str	r3, [sp]
 1563 0006 0348     		ldr	r0, .L193
 1564 0008 1300     		movs	r3, r2
 1565 000a 0A00     		movs	r2, r1
 1566 000c 2100     		movs	r1, r4
 1567 000e FFF7FEFF 		bl	smtc_ping_slot_multicast_b_start_session
 1568 0012 16BD     		pop	{r1, r2, r4, pc}
 1569              	.L194:
 1570              		.align	2
 1571              	.L193:
 1572 0014 0C0B0000 		.word	lr1mac_core_context+2828
 1574              		.section	.text.lorawan_api_multicast_b_stop_session,"ax",%progbits
 1575              		.align	1
 1576              		.global	lorawan_api_multicast_b_stop_session
 1577              		.syntax unified
 1578              		.code	16
 1579              		.thumb_func
 1581              	lorawan_api_multicast_b_stop_session:
 1582              		@ args = 0, pretend = 0, frame = 0
 1583              		@ frame_needed = 0, uses_anonymous_args = 0
 1584 0000 10B5     		push	{r4, lr}
 1585 0002 034B     		ldr	r3, .L196
 1586 0004 0100     		movs	r1, r0
 1587              		@ sp needed
 1588 0006 1800     		movs	r0, r3
 1589 0008 FFF7FEFF 		bl	smtc_ping_slot_multicast_b_stop_session
 1590 000c 10BD     		pop	{r4, pc}
 1591              	.L197:
ARM GAS  /tmp/ccCFG3OY.s 			page 27


 1592 000e C046     		.align	2
 1593              	.L196:
 1594 0010 0C0B0000 		.word	lr1mac_core_context+2828
 1596              		.section	.text.lorawan_api_multicast_b_stop_all_sessions,"ax",%progbits
 1597              		.align	1
 1598              		.global	lorawan_api_multicast_b_stop_all_sessions
 1599              		.syntax unified
 1600              		.code	16
 1601              		.thumb_func
 1603              	lorawan_api_multicast_b_stop_all_sessions:
 1604              		@ args = 0, pretend = 0, frame = 0
 1605              		@ frame_needed = 0, uses_anonymous_args = 0
 1606 0000 10B5     		push	{r4, lr}
 1607 0002 0248     		ldr	r0, .L199
 1608 0004 FFF7FEFF 		bl	smtc_ping_slot_multicast_b_stop_all_sessions
 1609              		@ sp needed
 1610 0008 10BD     		pop	{r4, pc}
 1611              	.L200:
 1612 000a C046     		.align	2
 1613              	.L199:
 1614 000c 0C0B0000 		.word	lr1mac_core_context+2828
 1616              		.section	.text.lorawan_api_rx_ack_bit_get,"ax",%progbits
 1617              		.align	1
 1618              		.global	lorawan_api_rx_ack_bit_get
 1619              		.syntax unified
 1620              		.code	16
 1621              		.thumb_func
 1623              	lorawan_api_rx_ack_bit_get:
 1624              		@ args = 0, pretend = 0, frame = 0
 1625              		@ frame_needed = 0, uses_anonymous_args = 0
 1626 0000 10B5     		push	{r4, lr}
 1627 0002 0248     		ldr	r0, .L202
 1628 0004 FFF7FEFF 		bl	lr1mac_core_rx_ack_bit_get
 1629              		@ sp needed
 1630 0008 10BD     		pop	{r4, pc}
 1631              	.L203:
 1632 000a C046     		.align	2
 1633              	.L202:
 1634 000c 00000000 		.word	lr1mac_core_context
 1636              		.section	.text.lorawan_api_rx_fpending_bit_get,"ax",%progbits
 1637              		.align	1
 1638              		.global	lorawan_api_rx_fpending_bit_get
 1639              		.syntax unified
 1640              		.code	16
 1641              		.thumb_func
 1643              	lorawan_api_rx_fpending_bit_get:
 1644              		@ args = 0, pretend = 0, frame = 0
 1645              		@ frame_needed = 0, uses_anonymous_args = 0
 1646 0000 10B5     		push	{r4, lr}
 1647 0002 0248     		ldr	r0, .L205
 1648 0004 FFF7FEFF 		bl	lr1mac_core_rx_fpending_bit_get
 1649              		@ sp needed
 1650 0008 10BD     		pop	{r4, pc}
 1651              	.L206:
 1652 000a C046     		.align	2
 1653              	.L205:
 1654 000c 00000000 		.word	lr1mac_core_context
ARM GAS  /tmp/ccCFG3OY.s 			page 28


 1656              		.section	.text.lorawan_api_set_no_rx_packet_threshold,"ax",%progbits
 1657              		.align	1
 1658              		.global	lorawan_api_set_no_rx_packet_threshold
 1659              		.syntax unified
 1660              		.code	16
 1661              		.thumb_func
 1663              	lorawan_api_set_no_rx_packet_threshold:
 1664              		@ args = 0, pretend = 0, frame = 0
 1665              		@ frame_needed = 0, uses_anonymous_args = 0
 1666 0000 10B5     		push	{r4, lr}
 1667 0002 034B     		ldr	r3, .L208
 1668 0004 0100     		movs	r1, r0
 1669              		@ sp needed
 1670 0006 1800     		movs	r0, r3
 1671 0008 FFF7FEFF 		bl	lr1mac_core_set_no_rx_packet_threshold
 1672 000c 10BD     		pop	{r4, pc}
 1673              	.L209:
 1674 000e C046     		.align	2
 1675              	.L208:
 1676 0010 00000000 		.word	lr1mac_core_context
 1678              		.section	.text.lorawan_api_get_no_rx_packet_threshold,"ax",%progbits
 1679              		.align	1
 1680              		.global	lorawan_api_get_no_rx_packet_threshold
 1681              		.syntax unified
 1682              		.code	16
 1683              		.thumb_func
 1685              	lorawan_api_get_no_rx_packet_threshold:
 1686              		@ args = 0, pretend = 0, frame = 0
 1687              		@ frame_needed = 0, uses_anonymous_args = 0
 1688 0000 10B5     		push	{r4, lr}
 1689 0002 0248     		ldr	r0, .L211
 1690 0004 FFF7FEFF 		bl	lr1mac_core_get_no_rx_packet_threshold
 1691              		@ sp needed
 1692 0008 10BD     		pop	{r4, pc}
 1693              	.L212:
 1694 000a C046     		.align	2
 1695              	.L211:
 1696 000c 00000000 		.word	lr1mac_core_context
 1698              		.section	.text.lorawan_api_get_current_adr_ack_cnt,"ax",%progbits
 1699              		.align	1
 1700              		.global	lorawan_api_get_current_adr_ack_cnt
 1701              		.syntax unified
 1702              		.code	16
 1703              		.thumb_func
 1705              	lorawan_api_get_current_adr_ack_cnt:
 1706              		@ args = 0, pretend = 0, frame = 0
 1707              		@ frame_needed = 0, uses_anonymous_args = 0
 1708 0000 10B5     		push	{r4, lr}
 1709 0002 0248     		ldr	r0, .L214
 1710 0004 FFF7FEFF 		bl	lr1mac_core_get_current_adr_ack_cnt
 1711              		@ sp needed
 1712 0008 10BD     		pop	{r4, pc}
 1713              	.L215:
 1714 000a C046     		.align	2
 1715              	.L214:
 1716 000c 00000000 		.word	lr1mac_core_context
 1718              		.section	.text.lorawan_api_reset_no_rx_packet_in_mobile_mode_cnt,"ax",%progbits
ARM GAS  /tmp/ccCFG3OY.s 			page 29


 1719              		.align	1
 1720              		.global	lorawan_api_reset_no_rx_packet_in_mobile_mode_cnt
 1721              		.syntax unified
 1722              		.code	16
 1723              		.thumb_func
 1725              	lorawan_api_reset_no_rx_packet_in_mobile_mode_cnt:
 1726              		@ args = 0, pretend = 0, frame = 0
 1727              		@ frame_needed = 0, uses_anonymous_args = 0
 1728 0000 10B5     		push	{r4, lr}
 1729 0002 0248     		ldr	r0, .L217
 1730 0004 FFF7FEFF 		bl	lr1mac_core_reset_no_rx_packet_in_mobile_mode_cnt
 1731              		@ sp needed
 1732 0008 10BD     		pop	{r4, pc}
 1733              	.L218:
 1734 000a C046     		.align	2
 1735              	.L217:
 1736 000c 00000000 		.word	lr1mac_core_context
 1738              		.section	.text.lorawan_api_get_current_no_rx_packet_in_mobile_mode_cnt,"ax",%progbits
 1739              		.align	1
 1740              		.global	lorawan_api_get_current_no_rx_packet_in_mobile_mode_cnt
 1741              		.syntax unified
 1742              		.code	16
 1743              		.thumb_func
 1745              	lorawan_api_get_current_no_rx_packet_in_mobile_mode_cnt:
 1746              		@ args = 0, pretend = 0, frame = 0
 1747              		@ frame_needed = 0, uses_anonymous_args = 0
 1748 0000 10B5     		push	{r4, lr}
 1749 0002 0248     		ldr	r0, .L220
 1750 0004 FFF7FEFF 		bl	lr1mac_core_get_current_no_rx_packet_in_mobile_mode
 1751              		@ sp needed
 1752 0008 10BD     		pop	{r4, pc}
 1753              	.L221:
 1754 000a C046     		.align	2
 1755              	.L220:
 1756 000c 00000000 		.word	lr1mac_core_context
 1758              		.section	.text.lorawan_api_get_current_no_rx_packet_cnt,"ax",%progbits
 1759              		.align	1
 1760              		.global	lorawan_api_get_current_no_rx_packet_cnt
 1761              		.syntax unified
 1762              		.code	16
 1763              		.thumb_func
 1765              	lorawan_api_get_current_no_rx_packet_cnt:
 1766              		@ args = 0, pretend = 0, frame = 0
 1767              		@ frame_needed = 0, uses_anonymous_args = 0
 1768 0000 10B5     		push	{r4, lr}
 1769 0002 0248     		ldr	r0, .L223
 1770 0004 FFF7FEFF 		bl	lr1mac_core_get_current_no_rx_packet_cnt
 1771              		@ sp needed
 1772 0008 10BD     		pop	{r4, pc}
 1773              	.L224:
 1774 000a C046     		.align	2
 1775              	.L223:
 1776 000c 00000000 		.word	lr1mac_core_context
 1778              		.section	.text.lorawan_api_certification_is_enabled,"ax",%progbits
 1779              		.align	1
 1780              		.global	lorawan_api_certification_is_enabled
 1781              		.syntax unified
ARM GAS  /tmp/ccCFG3OY.s 			page 30


 1782              		.code	16
 1783              		.thumb_func
 1785              	lorawan_api_certification_is_enabled:
 1786              		@ args = 0, pretend = 0, frame = 0
 1787              		@ frame_needed = 0, uses_anonymous_args = 0
 1788 0000 10B5     		push	{r4, lr}
 1789 0002 0248     		ldr	r0, .L226
 1790 0004 FFF7FEFF 		bl	lorawan_certification_get_enabled
 1791              		@ sp needed
 1792 0008 10BD     		pop	{r4, pc}
 1793              	.L227:
 1794 000a C046     		.align	2
 1795              	.L226:
 1796 000c 740D0000 		.word	lr1mac_core_context+3444
 1798              		.section	.text.lorawan_api_certification_get_ul_periodicity,"ax",%progbits
 1799              		.align	1
 1800              		.global	lorawan_api_certification_get_ul_periodicity
 1801              		.syntax unified
 1802              		.code	16
 1803              		.thumb_func
 1805              	lorawan_api_certification_get_ul_periodicity:
 1806              		@ args = 0, pretend = 0, frame = 0
 1807              		@ frame_needed = 0, uses_anonymous_args = 0
 1808 0000 10B5     		push	{r4, lr}
 1809 0002 0248     		ldr	r0, .L229
 1810 0004 FFF7FEFF 		bl	lorawan_certification_get_ul_periodicity
 1811              		@ sp needed
 1812 0008 10BD     		pop	{r4, pc}
 1813              	.L230:
 1814 000a C046     		.align	2
 1815              	.L229:
 1816 000c 740D0000 		.word	lr1mac_core_context+3444
 1818              		.section	.text.lorawan_api_certification_get_frame_type,"ax",%progbits
 1819              		.align	1
 1820              		.global	lorawan_api_certification_get_frame_type
 1821              		.syntax unified
 1822              		.code	16
 1823              		.thumb_func
 1825              	lorawan_api_certification_get_frame_type:
 1826              		@ args = 0, pretend = 0, frame = 0
 1827              		@ frame_needed = 0, uses_anonymous_args = 0
 1828 0000 10B5     		push	{r4, lr}
 1829 0002 0248     		ldr	r0, .L232
 1830 0004 FFF7FEFF 		bl	lorawan_certification_get_frame_type
 1831              		@ sp needed
 1832 0008 10BD     		pop	{r4, pc}
 1833              	.L233:
 1834 000a C046     		.align	2
 1835              	.L232:
 1836 000c 740D0000 		.word	lr1mac_core_context+3444
 1838              		.section	.text.lorawan_api_certification_get_cw_config,"ax",%progbits
 1839              		.align	1
 1840              		.global	lorawan_api_certification_get_cw_config
 1841              		.syntax unified
 1842              		.code	16
 1843              		.thumb_func
 1845              	lorawan_api_certification_get_cw_config:
ARM GAS  /tmp/ccCFG3OY.s 			page 31


 1846              		@ args = 0, pretend = 0, frame = 0
 1847              		@ frame_needed = 0, uses_anonymous_args = 0
 1848 0000 10B5     		push	{r4, lr}
 1849 0002 044C     		ldr	r4, .L235
 1850 0004 1300     		movs	r3, r2
 1851              		@ sp needed
 1852 0006 0A00     		movs	r2, r1
 1853 0008 0100     		movs	r1, r0
 1854 000a 2000     		movs	r0, r4
 1855 000c FFF7FEFF 		bl	lorawan_certification_get_cw_config
 1856 0010 10BD     		pop	{r4, pc}
 1857              	.L236:
 1858 0012 C046     		.align	2
 1859              	.L235:
 1860 0014 740D0000 		.word	lr1mac_core_context+3444
 1862              		.section	.text.lorawan_api_certification_is_cw_running,"ax",%progbits
 1863              		.align	1
 1864              		.global	lorawan_api_certification_is_cw_running
 1865              		.syntax unified
 1866              		.code	16
 1867              		.thumb_func
 1869              	lorawan_api_certification_is_cw_running:
 1870              		@ args = 0, pretend = 0, frame = 0
 1871              		@ frame_needed = 0, uses_anonymous_args = 0
 1872 0000 10B5     		push	{r4, lr}
 1873 0002 0248     		ldr	r0, .L238
 1874 0004 FFF7FEFF 		bl	lorawan_certification_is_cw_running
 1875              		@ sp needed
 1876 0008 10BD     		pop	{r4, pc}
 1877              	.L239:
 1878 000a C046     		.align	2
 1879              	.L238:
 1880 000c 740D0000 		.word	lr1mac_core_context+3444
 1882              		.section	.text.lorawan_api_certification_cw_set_as_stopped,"ax",%progbits
 1883              		.align	1
 1884              		.global	lorawan_api_certification_cw_set_as_stopped
 1885              		.syntax unified
 1886              		.code	16
 1887              		.thumb_func
 1889              	lorawan_api_certification_cw_set_as_stopped:
 1890              		@ args = 0, pretend = 0, frame = 0
 1891              		@ frame_needed = 0, uses_anonymous_args = 0
 1892 0000 10B5     		push	{r4, lr}
 1893 0002 0248     		ldr	r0, .L241
 1894 0004 FFF7FEFF 		bl	lorawan_certification_cw_set_as_stopped
 1895              		@ sp needed
 1896 0008 10BD     		pop	{r4, pc}
 1897              	.L242:
 1898 000a C046     		.align	2
 1899              	.L241:
 1900 000c 740D0000 		.word	lr1mac_core_context+3444
 1902              		.section	.text.lorawan_api_certification_get_beacon_rx_status_ind_ctrl,"ax",%progbits
 1903              		.align	1
 1904              		.global	lorawan_api_certification_get_beacon_rx_status_ind_ctrl
 1905              		.syntax unified
 1906              		.code	16
 1907              		.thumb_func
ARM GAS  /tmp/ccCFG3OY.s 			page 32


 1909              	lorawan_api_certification_get_beacon_rx_status_ind_ctrl:
 1910              		@ args = 0, pretend = 0, frame = 0
 1911              		@ frame_needed = 0, uses_anonymous_args = 0
 1912 0000 10B5     		push	{r4, lr}
 1913 0002 0248     		ldr	r0, .L244
 1914 0004 FFF7FEFF 		bl	lorawan_certification_get_beacon_rx_status_ind_ctrl
 1915              		@ sp needed
 1916 0008 10BD     		pop	{r4, pc}
 1917              	.L245:
 1918 000a C046     		.align	2
 1919              	.L244:
 1920 000c 740D0000 		.word	lr1mac_core_context+3444
 1922              		.section	.text.lorawan_api_modem_certification_is_enabled,"ax",%progbits
 1923              		.align	1
 1924              		.global	lorawan_api_modem_certification_is_enabled
 1925              		.syntax unified
 1926              		.code	16
 1927              		.thumb_func
 1929              	lorawan_api_modem_certification_is_enabled:
 1930              		@ args = 0, pretend = 0, frame = 0
 1931              		@ frame_needed = 0, uses_anonymous_args = 0
 1932 0000 10B5     		push	{r4, lr}
 1933 0002 0248     		ldr	r0, .L247
 1934 0004 FFF7FEFF 		bl	lr1mac_core_certification_get
 1935              		@ sp needed
 1936 0008 10BD     		pop	{r4, pc}
 1937              	.L248:
 1938 000a C046     		.align	2
 1939              	.L247:
 1940 000c 00000000 		.word	lr1mac_core_context
 1942              		.section	.text.lorawan_api_certification_get_requested_class,"ax",%progbits
 1943              		.align	1
 1944              		.global	lorawan_api_certification_get_requested_class
 1945              		.syntax unified
 1946              		.code	16
 1947              		.thumb_func
 1949              	lorawan_api_certification_get_requested_class:
 1950              		@ args = 0, pretend = 0, frame = 0
 1951              		@ frame_needed = 0, uses_anonymous_args = 0
 1952 0000 10B5     		push	{r4, lr}
 1953 0002 0248     		ldr	r0, .L250
 1954 0004 FFF7FEFF 		bl	lorawan_certification_get_requested_class
 1955              		@ sp needed
 1956 0008 10BD     		pop	{r4, pc}
 1957              	.L251:
 1958 000a C046     		.align	2
 1959              	.L250:
 1960 000c 740D0000 		.word	lr1mac_core_context+3444
 1962              		.section	.text.lorawan_api_certification,"ax",%progbits
 1963              		.align	1
 1964              		.global	lorawan_api_certification
 1965              		.syntax unified
 1966              		.code	16
 1967              		.thumb_func
 1969              	lorawan_api_certification:
 1970              		@ args = 4, pretend = 0, frame = 0
 1971              		@ frame_needed = 0, uses_anonymous_args = 0
ARM GAS  /tmp/ccCFG3OY.s 			page 33


 1972 0000 37B5     		push	{r0, r1, r2, r4, r5, lr}
 1973 0002 0400     		movs	r4, r0
 1974              		@ sp needed
 1975 0004 069D     		ldr	r5, [sp, #24]
 1976 0006 0093     		str	r3, [sp]
 1977 0008 0195     		str	r5, [sp, #4]
 1978 000a 1300     		movs	r3, r2
 1979 000c 0248     		ldr	r0, .L253
 1980 000e 0A00     		movs	r2, r1
 1981 0010 2100     		movs	r1, r4
 1982 0012 FFF7FEFF 		bl	lorawan_certification_parser
 1983 0016 3EBD     		pop	{r1, r2, r3, r4, r5, pc}
 1984              	.L254:
 1985              		.align	2
 1986              	.L253:
 1987 0018 740D0000 		.word	lr1mac_core_context+3444
 1989              		.section	.text.lorawan_api_certification_build_beacon_rx_status_ind,"ax",%progbits
 1990              		.align	1
 1991              		.global	lorawan_api_certification_build_beacon_rx_status_ind
 1992              		.syntax unified
 1993              		.code	16
 1994              		.thumb_func
 1996              	lorawan_api_certification_build_beacon_rx_status_ind:
 1997              		@ args = 16, pretend = 0, frame = 0
 1998              		@ frame_needed = 0, uses_anonymous_args = 0
 1999 0000 F0B5     		push	{r4, r5, r6, r7, lr}
 2000 0002 0025     		movs	r5, #0
 2001 0004 0026     		movs	r6, #0
 2002 0006 9C46     		mov	ip, r3
 2003 0008 87B0     		sub	sp, sp, #28
 2004 000a 0400     		movs	r4, r0
 2005 000c 0CA8     		add	r0, sp, #48
 2006 000e 4557     		ldrsb	r5, [r0, r5]
 2007 0010 0F9B     		ldr	r3, [sp, #60]
 2008 0012 0DA8     		add	r0, sp, #52
 2009 0014 8657     		ldrsb	r6, [r0, r6]
 2010 0016 0EA8     		add	r0, sp, #56
 2011 0018 0778     		ldrb	r7, [r0]
 2012 001a 0493     		str	r3, [sp, #16]
 2013 001c 6346     		mov	r3, ip
 2014 001e 0648     		ldr	r0, .L256
 2015 0020 0093     		str	r3, [sp]
 2016 0022 0397     		str	r7, [sp, #12]
 2017 0024 1300     		movs	r3, r2
 2018 0026 0296     		str	r6, [sp, #8]
 2019 0028 0A00     		movs	r2, r1
 2020 002a 0195     		str	r5, [sp, #4]
 2021 002c 2100     		movs	r1, r4
 2022 002e FFF7FEFF 		bl	lorawan_certification_build_beacon_rx_status_ind
 2023 0032 07B0     		add	sp, sp, #28
 2024              		@ sp needed
 2025 0034 F0BD     		pop	{r4, r5, r6, r7, pc}
 2026              	.L257:
 2027 0036 C046     		.align	2
 2028              	.L256:
 2029 0038 740D0000 		.word	lr1mac_core_context+3444
 2031              		.section	.text.lorawan_api_available_link_adr_get,"ax",%progbits
ARM GAS  /tmp/ccCFG3OY.s 			page 34


 2032              		.align	1
 2033              		.global	lorawan_api_available_link_adr_get
 2034              		.syntax unified
 2035              		.code	16
 2036              		.thumb_func
 2038              	lorawan_api_available_link_adr_get:
 2039              		@ args = 0, pretend = 0, frame = 0
 2040              		@ frame_needed = 0, uses_anonymous_args = 0
 2041 0000 10B5     		push	{r4, lr}
 2042 0002 0248     		ldr	r0, .L259
 2043 0004 FFF7FEFF 		bl	lr1mac_core_available_link_adr_get
 2044              		@ sp needed
 2045 0008 10BD     		pop	{r4, pc}
 2046              	.L260:
 2047 000a C046     		.align	2
 2048              	.L259:
 2049 000c 00000000 		.word	lr1mac_core_context
 2051              		.section	.text.lorawan_api_stack_mac_get,"ax",%progbits
 2052              		.align	1
 2053              		.global	lorawan_api_stack_mac_get
 2054              		.syntax unified
 2055              		.code	16
 2056              		.thumb_func
 2058              	lorawan_api_stack_mac_get:
 2059              		@ args = 0, pretend = 0, frame = 0
 2060              		@ frame_needed = 0, uses_anonymous_args = 0
 2061              		@ link register save eliminated.
 2062 0000 0048     		ldr	r0, .L262
 2063              		@ sp needed
 2064 0002 7047     		bx	lr
 2065              	.L263:
 2066              		.align	2
 2067              	.L262:
 2068 0004 00000000 		.word	lr1mac_core_context
 2070              		.section	.text.lorawan_api_get_fifo_obj,"ax",%progbits
 2071              		.align	1
 2072              		.global	lorawan_api_get_fifo_obj
 2073              		.syntax unified
 2074              		.code	16
 2075              		.thumb_func
 2077              	lorawan_api_get_fifo_obj:
 2078              		@ args = 0, pretend = 0, frame = 0
 2079              		@ frame_needed = 0, uses_anonymous_args = 0
 2080              		@ link register save eliminated.
 2081 0000 0048     		ldr	r0, .L265
 2082              		@ sp needed
 2083 0002 7047     		bx	lr
 2084              	.L266:
 2085              		.align	2
 2086              	.L265:
 2087 0004 6C0A0000 		.word	lr1mac_core_context+2668
 2089              		.section	.text.lorawan_api_set_network_type,"ax",%progbits
 2090              		.align	1
 2091              		.global	lorawan_api_set_network_type
 2092              		.syntax unified
 2093              		.code	16
 2094              		.thumb_func
ARM GAS  /tmp/ccCFG3OY.s 			page 35


 2096              	lorawan_api_set_network_type:
 2097              		@ args = 0, pretend = 0, frame = 0
 2098              		@ frame_needed = 0, uses_anonymous_args = 0
 2099 0000 10B5     		push	{r4, lr}
 2100 0002 074C     		ldr	r4, .L271
 2101 0004 0028     		cmp	r0, #0
 2102 0006 07D0     		beq	.L268
 2103 0008 2000     		movs	r0, r4
 2104 000a FFF7FEFF 		bl	smtc_real_get_public_sync_word
 2105              	.L270:
 2106              		@ sp needed
 2107 000e 0100     		movs	r1, r0
 2108 0010 2000     		movs	r0, r4
 2109 0012 FFF7FEFF 		bl	smtc_real_set_sync_word
 2110 0016 10BD     		pop	{r4, pc}
 2111              	.L268:
 2112 0018 2000     		movs	r0, r4
 2113 001a FFF7FEFF 		bl	smtc_real_get_private_sync_word
 2114 001e F6E7     		b	.L270
 2115              	.L272:
 2116              		.align	2
 2117              	.L271:
 2118 0020 00000000 		.word	lr1mac_core_context
 2120              		.section	.text.lorawan_api_get_network_type,"ax",%progbits
 2121              		.align	1
 2122              		.global	lorawan_api_get_network_type
 2123              		.syntax unified
 2124              		.code	16
 2125              		.thumb_func
 2127              	lorawan_api_get_network_type:
 2128              		@ args = 0, pretend = 0, frame = 0
 2129              		@ frame_needed = 0, uses_anonymous_args = 0
 2130 0000 70B5     		push	{r4, r5, r6, lr}
 2131 0002 064D     		ldr	r5, .L274
 2132              		@ sp needed
 2133 0004 2800     		movs	r0, r5
 2134 0006 FFF7FEFF 		bl	smtc_real_get_sync_word
 2135 000a 0400     		movs	r4, r0
 2136 000c 2800     		movs	r0, r5
 2137 000e FFF7FEFF 		bl	smtc_real_get_public_sync_word
 2138 0012 001B     		subs	r0, r0, r4
 2139 0014 4342     		rsbs	r3, r0, #0
 2140 0016 5841     		adcs	r0, r0, r3
 2141 0018 C0B2     		uxtb	r0, r0
 2142 001a 70BD     		pop	{r4, r5, r6, pc}
 2143              	.L275:
 2144              		.align	2
 2145              	.L274:
 2146 001c 00000000 		.word	lr1mac_core_context
 2148              		.section	.text.lorawan_api_nb_trans_get,"ax",%progbits
 2149              		.align	1
 2150              		.global	lorawan_api_nb_trans_get
 2151              		.syntax unified
 2152              		.code	16
 2153              		.thumb_func
 2155              	lorawan_api_nb_trans_get:
 2156              		@ args = 0, pretend = 0, frame = 0
ARM GAS  /tmp/ccCFG3OY.s 			page 36


 2157              		@ frame_needed = 0, uses_anonymous_args = 0
 2158 0000 10B5     		push	{r4, lr}
 2159 0002 0248     		ldr	r0, .L277
 2160 0004 FFF7FEFF 		bl	lr1_stack_nb_trans_get
 2161              		@ sp needed
 2162 0008 10BD     		pop	{r4, pc}
 2163              	.L278:
 2164 000a C046     		.align	2
 2165              	.L277:
 2166 000c 00000000 		.word	lr1mac_core_context
 2168              		.section	.text.lorawan_api_nb_trans_set,"ax",%progbits
 2169              		.align	1
 2170              		.global	lorawan_api_nb_trans_set
 2171              		.syntax unified
 2172              		.code	16
 2173              		.thumb_func
 2175              	lorawan_api_nb_trans_set:
 2176              		@ args = 0, pretend = 0, frame = 0
 2177              		@ frame_needed = 0, uses_anonymous_args = 0
 2178 0000 10B5     		push	{r4, lr}
 2179 0002 034B     		ldr	r3, .L280
 2180 0004 0100     		movs	r1, r0
 2181              		@ sp needed
 2182 0006 1800     		movs	r0, r3
 2183 0008 FFF7FEFF 		bl	lr1_stack_nb_trans_set
 2184 000c 10BD     		pop	{r4, pc}
 2185              	.L281:
 2186 000e C046     		.align	2
 2187              	.L280:
 2188 0010 00000000 		.word	lr1mac_core_context
 2190              		.section	.text.lorawan_api_get_crystal_error,"ax",%progbits
 2191              		.align	1
 2192              		.global	lorawan_api_get_crystal_error
 2193              		.syntax unified
 2194              		.code	16
 2195              		.thumb_func
 2197              	lorawan_api_get_crystal_error:
 2198              		@ args = 0, pretend = 0, frame = 0
 2199              		@ frame_needed = 0, uses_anonymous_args = 0
 2200 0000 10B5     		push	{r4, lr}
 2201 0002 0248     		ldr	r0, .L283
 2202 0004 FFF7FEFF 		bl	lr1_stack_get_crystal_error
 2203              		@ sp needed
 2204 0008 10BD     		pop	{r4, pc}
 2205              	.L284:
 2206 000a C046     		.align	2
 2207              	.L283:
 2208 000c 00000000 		.word	lr1mac_core_context
 2210              		.section	.text.lorawan_api_set_crystal_error,"ax",%progbits
 2211              		.align	1
 2212              		.global	lorawan_api_set_crystal_error
 2213              		.syntax unified
 2214              		.code	16
 2215              		.thumb_func
 2217              	lorawan_api_set_crystal_error:
 2218              		@ args = 0, pretend = 0, frame = 0
 2219              		@ frame_needed = 0, uses_anonymous_args = 0
ARM GAS  /tmp/ccCFG3OY.s 			page 37


 2220 0000 10B5     		push	{r4, lr}
 2221 0002 034B     		ldr	r3, .L286
 2222 0004 0100     		movs	r1, r0
 2223              		@ sp needed
 2224 0006 1800     		movs	r0, r3
 2225 0008 FFF7FEFF 		bl	lr1_stack_set_crystal_error
 2226 000c 10BD     		pop	{r4, pc}
 2227              	.L287:
 2228 000e C046     		.align	2
 2229              	.L286:
 2230 0010 00000000 		.word	lr1mac_core_context
 2232              		.section	.text.lorawan_api_get_spec_version,"ax",%progbits
 2233              		.align	1
 2234              		.global	lorawan_api_get_spec_version
 2235              		.syntax unified
 2236              		.code	16
 2237              		.thumb_func
 2239              	lorawan_api_get_spec_version:
 2240              		@ args = 0, pretend = 0, frame = 8
 2241              		@ frame_needed = 0, uses_anonymous_args = 0
 2242 0000 13B5     		push	{r0, r1, r4, lr}
 2243 0002 0948     		ldr	r0, .L289
 2244 0004 FFF7FEFF 		bl	lr1mac_core_get_lorawan_version
 2245              		@ sp needed
 2246 0008 FF24     		movs	r4, #255
 2247 000a 0200     		movs	r2, r0
 2248 000c 030A     		lsrs	r3, r0, #8
 2249 000e 010C     		lsrs	r1, r0, #16
 2250 0010 2340     		ands	r3, r4
 2251 0012 2240     		ands	r2, r4
 2252 0014 1B02     		lsls	r3, r3, #8
 2253 0016 2140     		ands	r1, r4
 2254 0018 0904     		lsls	r1, r1, #16
 2255 001a 1A43     		orrs	r2, r3
 2256 001c 0A43     		orrs	r2, r1
 2257 001e 030E     		lsrs	r3, r0, #24
 2258 0020 1000     		movs	r0, r2
 2259 0022 1B06     		lsls	r3, r3, #24
 2260 0024 1843     		orrs	r0, r3
 2261 0026 16BD     		pop	{r1, r2, r4, pc}
 2262              	.L290:
 2263              		.align	2
 2264              	.L289:
 2265 0028 00000000 		.word	lr1mac_core_context
 2267              		.section	.text.lorawan_api_get_regional_parameters_version,"ax",%progbits
 2268              		.align	1
 2269              		.global	lorawan_api_get_regional_parameters_version
 2270              		.syntax unified
 2271              		.code	16
 2272              		.thumb_func
 2274              	lorawan_api_get_regional_parameters_version:
 2275              		@ args = 0, pretend = 0, frame = 8
 2276              		@ frame_needed = 0, uses_anonymous_args = 0
 2277 0000 13B5     		push	{r0, r1, r4, lr}
 2278 0002 FFF7FEFF 		bl	smtc_real_get_regional_parameters_version
 2279              		@ sp needed
 2280 0006 FF24     		movs	r4, #255
ARM GAS  /tmp/ccCFG3OY.s 			page 38


 2281 0008 0200     		movs	r2, r0
 2282 000a 030A     		lsrs	r3, r0, #8
 2283 000c 010C     		lsrs	r1, r0, #16
 2284 000e 2340     		ands	r3, r4
 2285 0010 2240     		ands	r2, r4
 2286 0012 1B02     		lsls	r3, r3, #8
 2287 0014 2140     		ands	r1, r4
 2288 0016 0904     		lsls	r1, r1, #16
 2289 0018 1A43     		orrs	r2, r3
 2290 001a 0A43     		orrs	r2, r1
 2291 001c 030E     		lsrs	r3, r0, #24
 2292 001e 1000     		movs	r0, r2
 2293 0020 1B06     		lsls	r3, r3, #24
 2294 0022 1843     		orrs	r0, r3
 2295 0024 16BD     		pop	{r1, r2, r4, pc}
 2297              		.section	.text.lorawan_api_convert_rtc_to_gps_epoch_time,"ax",%progbits
 2298              		.align	1
 2299              		.global	lorawan_api_convert_rtc_to_gps_epoch_time
 2300              		.syntax unified
 2301              		.code	16
 2302              		.thumb_func
 2304              	lorawan_api_convert_rtc_to_gps_epoch_time:
 2305              		@ args = 0, pretend = 0, frame = 0
 2306              		@ frame_needed = 0, uses_anonymous_args = 0
 2307 0000 10B5     		push	{r4, lr}
 2308 0002 044C     		ldr	r4, .L293
 2309 0004 1300     		movs	r3, r2
 2310              		@ sp needed
 2311 0006 0A00     		movs	r2, r1
 2312 0008 0100     		movs	r1, r0
 2313 000a 2000     		movs	r0, r4
 2314 000c FFF7FEFF 		bl	lr1mac_core_convert_rtc_to_gps_epoch_time
 2315 0010 10BD     		pop	{r4, pc}
 2316              	.L294:
 2317 0012 C046     		.align	2
 2318              	.L293:
 2319 0014 00000000 		.word	lr1mac_core_context
 2321              		.section	.text.lorawan_api_is_time_valid,"ax",%progbits
 2322              		.align	1
 2323              		.global	lorawan_api_is_time_valid
 2324              		.syntax unified
 2325              		.code	16
 2326              		.thumb_func
 2328              	lorawan_api_is_time_valid:
 2329              		@ args = 0, pretend = 0, frame = 0
 2330              		@ frame_needed = 0, uses_anonymous_args = 0
 2331 0000 10B5     		push	{r4, lr}
 2332 0002 0248     		ldr	r0, .L296
 2333 0004 FFF7FEFF 		bl	lr1mac_core_is_time_valid
 2334              		@ sp needed
 2335 0008 10BD     		pop	{r4, pc}
 2336              	.L297:
 2337 000a C046     		.align	2
 2338              	.L296:
 2339 000c 00000000 		.word	lr1mac_core_context
 2341              		.section	.text.lorawan_api_get_timestamp_last_device_time_ans_s,"ax",%progbits
 2342              		.align	1
ARM GAS  /tmp/ccCFG3OY.s 			page 39


 2343              		.global	lorawan_api_get_timestamp_last_device_time_ans_s
 2344              		.syntax unified
 2345              		.code	16
 2346              		.thumb_func
 2348              	lorawan_api_get_timestamp_last_device_time_ans_s:
 2349              		@ args = 0, pretend = 0, frame = 0
 2350              		@ frame_needed = 0, uses_anonymous_args = 0
 2351 0000 10B5     		push	{r4, lr}
 2352 0002 0248     		ldr	r0, .L299
 2353 0004 FFF7FEFF 		bl	lr1mac_core_get_timestamp_last_device_time_ans_s
 2354              		@ sp needed
 2355 0008 10BD     		pop	{r4, pc}
 2356              	.L300:
 2357 000a C046     		.align	2
 2358              	.L299:
 2359 000c 00000000 		.word	lr1mac_core_context
 2361              		.section	.text.lorawan_api_get_time_left_connection_lost,"ax",%progbits
 2362              		.align	1
 2363              		.global	lorawan_api_get_time_left_connection_lost
 2364              		.syntax unified
 2365              		.code	16
 2366              		.thumb_func
 2368              	lorawan_api_get_time_left_connection_lost:
 2369              		@ args = 0, pretend = 0, frame = 0
 2370              		@ frame_needed = 0, uses_anonymous_args = 0
 2371 0000 10B5     		push	{r4, lr}
 2372 0002 0248     		ldr	r0, .L302
 2373 0004 FFF7FEFF 		bl	lr1mac_core_get_time_left_connection_lost
 2374              		@ sp needed
 2375 0008 10BD     		pop	{r4, pc}
 2376              	.L303:
 2377 000a C046     		.align	2
 2378              	.L302:
 2379 000c 00000000 		.word	lr1mac_core_context
 2381              		.section	.text.lorawan_api_set_device_time_callback,"ax",%progbits
 2382              		.align	1
 2383              		.global	lorawan_api_set_device_time_callback
 2384              		.syntax unified
 2385              		.code	16
 2386              		.thumb_func
 2388              	lorawan_api_set_device_time_callback:
 2389              		@ args = 0, pretend = 0, frame = 0
 2390              		@ frame_needed = 0, uses_anonymous_args = 0
 2391 0000 10B5     		push	{r4, lr}
 2392 0002 044C     		ldr	r4, .L305
 2393 0004 1300     		movs	r3, r2
 2394              		@ sp needed
 2395 0006 0A00     		movs	r2, r1
 2396 0008 0100     		movs	r1, r0
 2397 000a 2000     		movs	r0, r4
 2398 000c FFF7FEFF 		bl	lr1mac_core_set_device_time_callback
 2399 0010 10BD     		pop	{r4, pc}
 2400              	.L306:
 2401 0012 C046     		.align	2
 2402              	.L305:
 2403 0014 00000000 		.word	lr1mac_core_context
 2405              		.section	.text.lorawan_api_set_device_time_invalid_delay_s,"ax",%progbits
ARM GAS  /tmp/ccCFG3OY.s 			page 40


 2406              		.align	1
 2407              		.global	lorawan_api_set_device_time_invalid_delay_s
 2408              		.syntax unified
 2409              		.code	16
 2410              		.thumb_func
 2412              	lorawan_api_set_device_time_invalid_delay_s:
 2413              		@ args = 0, pretend = 0, frame = 0
 2414              		@ frame_needed = 0, uses_anonymous_args = 0
 2415 0000 10B5     		push	{r4, lr}
 2416 0002 034B     		ldr	r3, .L308
 2417 0004 0100     		movs	r1, r0
 2418              		@ sp needed
 2419 0006 1800     		movs	r0, r3
 2420 0008 FFF7FEFF 		bl	lr1_mac_core_set_device_time_invalid_delay_s
 2421 000c 10BD     		pop	{r4, pc}
 2422              	.L309:
 2423 000e C046     		.align	2
 2424              	.L308:
 2425 0010 00000000 		.word	lr1mac_core_context
 2427              		.section	.text.lorawan_api_get_device_time_invalid_delay_s,"ax",%progbits
 2428              		.align	1
 2429              		.global	lorawan_api_get_device_time_invalid_delay_s
 2430              		.syntax unified
 2431              		.code	16
 2432              		.thumb_func
 2434              	lorawan_api_get_device_time_invalid_delay_s:
 2435              		@ args = 0, pretend = 0, frame = 0
 2436              		@ frame_needed = 0, uses_anonymous_args = 0
 2437 0000 10B5     		push	{r4, lr}
 2438 0002 0248     		ldr	r0, .L311
 2439 0004 FFF7FEFF 		bl	lr1_mac_core_get_device_time_invalid_delay_s
 2440              		@ sp needed
 2441 0008 10BD     		pop	{r4, pc}
 2442              	.L312:
 2443 000a C046     		.align	2
 2444              	.L311:
 2445 000c 00000000 		.word	lr1mac_core_context
 2447              		.section	.text.lorawan_api_get_link_check_ans,"ax",%progbits
 2448              		.align	1
 2449              		.global	lorawan_api_get_link_check_ans
 2450              		.syntax unified
 2451              		.code	16
 2452              		.thumb_func
 2454              	lorawan_api_get_link_check_ans:
 2455              		@ args = 0, pretend = 0, frame = 0
 2456              		@ frame_needed = 0, uses_anonymous_args = 0
 2457 0000 10B5     		push	{r4, lr}
 2458 0002 034B     		ldr	r3, .L314
 2459 0004 0A00     		movs	r2, r1
 2460              		@ sp needed
 2461 0006 0100     		movs	r1, r0
 2462 0008 1800     		movs	r0, r3
 2463 000a FFF7FEFF 		bl	lr1_mac_core_get_link_check_ans
 2464 000e 10BD     		pop	{r4, pc}
 2465              	.L315:
 2466              		.align	2
 2467              	.L314:
ARM GAS  /tmp/ccCFG3OY.s 			page 41


 2468 0010 00000000 		.word	lr1mac_core_context
 2470              		.section	.text.lorawan_api_get_device_time_req_status,"ax",%progbits
 2471              		.align	1
 2472              		.global	lorawan_api_get_device_time_req_status
 2473              		.syntax unified
 2474              		.code	16
 2475              		.thumb_func
 2477              	lorawan_api_get_device_time_req_status:
 2478              		@ args = 0, pretend = 0, frame = 0
 2479              		@ frame_needed = 0, uses_anonymous_args = 0
 2480 0000 10B5     		push	{r4, lr}
 2481 0002 0248     		ldr	r0, .L317
 2482 0004 FFF7FEFF 		bl	lr1_mac_core_get_device_time_req_status
 2483              		@ sp needed
 2484 0008 10BD     		pop	{r4, pc}
 2485              	.L318:
 2486 000a C046     		.align	2
 2487              	.L317:
 2488 000c 00000000 		.word	lr1mac_core_context
 2490              		.section	.text.lorawan_api_lbt_set_parameters,"ax",%progbits
 2491              		.align	1
 2492              		.global	lorawan_api_lbt_set_parameters
 2493              		.syntax unified
 2494              		.code	16
 2495              		.thumb_func
 2497              	lorawan_api_lbt_set_parameters:
 2498              		@ args = 0, pretend = 0, frame = 0
 2499              		@ frame_needed = 0, uses_anonymous_args = 0
 2500 0000 10B5     		push	{r4, lr}
 2501 0002 044C     		ldr	r4, .L320
 2502 0004 1300     		movs	r3, r2
 2503              		@ sp needed
 2504 0006 0A00     		movs	r2, r1
 2505 0008 0100     		movs	r1, r0
 2506 000a 2000     		movs	r0, r4
 2507 000c FFF7FEFF 		bl	smtc_lbt_set_parameters
 2508 0010 10BD     		pop	{r4, pc}
 2509              	.L321:
 2510 0012 C046     		.align	2
 2511              	.L320:
 2512 0014 B4060000 		.word	lr1mac_core_context+1716
 2514              		.section	.text.lorawan_api_lbt_get_parameters,"ax",%progbits
 2515              		.align	1
 2516              		.global	lorawan_api_lbt_get_parameters
 2517              		.syntax unified
 2518              		.code	16
 2519              		.thumb_func
 2521              	lorawan_api_lbt_get_parameters:
 2522              		@ args = 0, pretend = 0, frame = 0
 2523              		@ frame_needed = 0, uses_anonymous_args = 0
 2524 0000 10B5     		push	{r4, lr}
 2525 0002 044C     		ldr	r4, .L323
 2526 0004 1300     		movs	r3, r2
 2527              		@ sp needed
 2528 0006 0A00     		movs	r2, r1
 2529 0008 0100     		movs	r1, r0
 2530 000a 2000     		movs	r0, r4
ARM GAS  /tmp/ccCFG3OY.s 			page 42


 2531 000c FFF7FEFF 		bl	smtc_lbt_get_parameters
 2532 0010 10BD     		pop	{r4, pc}
 2533              	.L324:
 2534 0012 C046     		.align	2
 2535              	.L323:
 2536 0014 B4060000 		.word	lr1mac_core_context+1716
 2538              		.section	.text.lorawan_api_lbt_set_state,"ax",%progbits
 2539              		.align	1
 2540              		.global	lorawan_api_lbt_set_state
 2541              		.syntax unified
 2542              		.code	16
 2543              		.thumb_func
 2545              	lorawan_api_lbt_set_state:
 2546              		@ args = 0, pretend = 0, frame = 0
 2547              		@ frame_needed = 0, uses_anonymous_args = 0
 2548 0000 10B5     		push	{r4, lr}
 2549 0002 034B     		ldr	r3, .L326
 2550 0004 0100     		movs	r1, r0
 2551              		@ sp needed
 2552 0006 1800     		movs	r0, r3
 2553 0008 FFF7FEFF 		bl	smtc_lbt_set_state
 2554 000c 10BD     		pop	{r4, pc}
 2555              	.L327:
 2556 000e C046     		.align	2
 2557              	.L326:
 2558 0010 B4060000 		.word	lr1mac_core_context+1716
 2560              		.section	.text.lorawan_api_lbt_get_state,"ax",%progbits
 2561              		.align	1
 2562              		.global	lorawan_api_lbt_get_state
 2563              		.syntax unified
 2564              		.code	16
 2565              		.thumb_func
 2567              	lorawan_api_lbt_get_state:
 2568              		@ args = 0, pretend = 0, frame = 0
 2569              		@ frame_needed = 0, uses_anonymous_args = 0
 2570 0000 10B5     		push	{r4, lr}
 2571 0002 0248     		ldr	r0, .L329
 2572 0004 FFF7FEFF 		bl	smtc_lbt_get_state
 2573              		@ sp needed
 2574 0008 10BD     		pop	{r4, pc}
 2575              	.L330:
 2576 000a C046     		.align	2
 2577              	.L329:
 2578 000c B4060000 		.word	lr1mac_core_context+1716
 2580              		.section	.text.lorawan_api_class_b_enabled,"ax",%progbits
 2581              		.align	1
 2582              		.global	lorawan_api_class_b_enabled
 2583              		.syntax unified
 2584              		.code	16
 2585              		.thumb_func
 2587              	lorawan_api_class_b_enabled:
 2588              		@ args = 0, pretend = 0, frame = 0
 2589              		@ frame_needed = 0, uses_anonymous_args = 0
 2590 0000 70B5     		push	{r4, r5, r6, lr}
 2591 0002 084D     		ldr	r5, .L336
 2592 0004 0100     		movs	r1, r0
 2593 0006 0400     		movs	r4, r0
ARM GAS  /tmp/ccCFG3OY.s 			page 43


 2594 0008 2800     		movs	r0, r5
 2595 000a FFF7FEFF 		bl	smtc_beacon_class_b_enable_service
 2596 000e FFF7FEFF 		bl	lorawan_api_isjoined
 2597 0012 0228     		cmp	r0, #2
 2598 0014 04D1     		bne	.L331
 2599 0016 002C     		cmp	r4, #0
 2600 0018 02D0     		beq	.L331
 2601 001a 2800     		movs	r0, r5
 2602 001c FFF7FEFF 		bl	smtc_beacon_sniff_start
 2603              	.L331:
 2604              		@ sp needed
 2605 0020 70BD     		pop	{r4, r5, r6, pc}
 2606              	.L337:
 2607 0022 C046     		.align	2
 2608              	.L336:
 2609 0024 880A0000 		.word	lr1mac_core_context+2696
 2611              		.section	.text.lorawan_api_beacon_sniff_start,"ax",%progbits
 2612              		.align	1
 2613              		.global	lorawan_api_beacon_sniff_start
 2614              		.syntax unified
 2615              		.code	16
 2616              		.thumb_func
 2618              	lorawan_api_beacon_sniff_start:
 2619              		@ args = 0, pretend = 0, frame = 0
 2620              		@ frame_needed = 0, uses_anonymous_args = 0
 2621 0000 10B5     		push	{r4, lr}
 2622 0002 0248     		ldr	r0, .L339
 2623 0004 FFF7FEFF 		bl	smtc_beacon_sniff_start
 2624              		@ sp needed
 2625 0008 10BD     		pop	{r4, pc}
 2626              	.L340:
 2627 000a C046     		.align	2
 2628              	.L339:
 2629 000c 880A0000 		.word	lr1mac_core_context+2696
 2631              		.section	.text.lorawan_api_beacon_sniff_stop,"ax",%progbits
 2632              		.align	1
 2633              		.global	lorawan_api_beacon_sniff_stop
 2634              		.syntax unified
 2635              		.code	16
 2636              		.thumb_func
 2638              	lorawan_api_beacon_sniff_stop:
 2639              		@ args = 0, pretend = 0, frame = 0
 2640              		@ frame_needed = 0, uses_anonymous_args = 0
 2641 0000 10B5     		push	{r4, lr}
 2642 0002 0248     		ldr	r0, .L342
 2643 0004 FFF7FEFF 		bl	smtc_beacon_sniff_stop
 2644              		@ sp needed
 2645 0008 10BD     		pop	{r4, pc}
 2646              	.L343:
 2647 000a C046     		.align	2
 2648              	.L342:
 2649 000c 880A0000 		.word	lr1mac_core_context+2696
 2651              		.section	.text.lorawan_api_beacon_get_metadata,"ax",%progbits
 2652              		.align	1
 2653              		.global	lorawan_api_beacon_get_metadata
 2654              		.syntax unified
 2655              		.code	16
ARM GAS  /tmp/ccCFG3OY.s 			page 44


 2656              		.thumb_func
 2658              	lorawan_api_beacon_get_metadata:
 2659              		@ args = 0, pretend = 0, frame = 0
 2660              		@ frame_needed = 0, uses_anonymous_args = 0
 2661 0000 10B5     		push	{r4, lr}
 2662 0002 034B     		ldr	r3, .L345
 2663 0004 0100     		movs	r1, r0
 2664              		@ sp needed
 2665 0006 1800     		movs	r0, r3
 2666 0008 FFF7FEFF 		bl	smtc_beacon_sniff_get_metadata
 2667 000c 10BD     		pop	{r4, pc}
 2668              	.L346:
 2669 000e C046     		.align	2
 2670              	.L345:
 2671 0010 880A0000 		.word	lr1mac_core_context+2696
 2673              		.section	.text.lorawan_api_get_ping_slot_info_req_status,"ax",%progbits
 2674              		.align	1
 2675              		.global	lorawan_api_get_ping_slot_info_req_status
 2676              		.syntax unified
 2677              		.code	16
 2678              		.thumb_func
 2680              	lorawan_api_get_ping_slot_info_req_status:
 2681              		@ args = 0, pretend = 0, frame = 0
 2682              		@ frame_needed = 0, uses_anonymous_args = 0
 2683 0000 10B5     		push	{r4, lr}
 2684 0002 0248     		ldr	r0, .L348
 2685 0004 FFF7FEFF 		bl	lr1_mac_core_get_ping_slot_info_req_status
 2686              		@ sp needed
 2687 0008 10BD     		pop	{r4, pc}
 2688              	.L349:
 2689 000a C046     		.align	2
 2690              	.L348:
 2691 000c 00000000 		.word	lr1mac_core_context
 2693              		.section	.text.lorawan_api_set_ping_slot_periodicity,"ax",%progbits
 2694              		.align	1
 2695              		.global	lorawan_api_set_ping_slot_periodicity
 2696              		.syntax unified
 2697              		.code	16
 2698              		.thumb_func
 2700              	lorawan_api_set_ping_slot_periodicity:
 2701              		@ args = 0, pretend = 0, frame = 0
 2702              		@ frame_needed = 0, uses_anonymous_args = 0
 2703 0000 10B5     		push	{r4, lr}
 2704 0002 034B     		ldr	r3, .L351
 2705 0004 0100     		movs	r1, r0
 2706              		@ sp needed
 2707 0006 1800     		movs	r0, r3
 2708 0008 FFF7FEFF 		bl	lr1mac_core_set_ping_slot_periodicity
 2709 000c 10BD     		pop	{r4, pc}
 2710              	.L352:
 2711 000e C046     		.align	2
 2712              	.L351:
 2713 0010 00000000 		.word	lr1mac_core_context
 2715              		.section	.text.lorawan_api_get_ping_slot_periodicity,"ax",%progbits
 2716              		.align	1
 2717              		.global	lorawan_api_get_ping_slot_periodicity
 2718              		.syntax unified
ARM GAS  /tmp/ccCFG3OY.s 			page 45


 2719              		.code	16
 2720              		.thumb_func
 2722              	lorawan_api_get_ping_slot_periodicity:
 2723              		@ args = 0, pretend = 0, frame = 0
 2724              		@ frame_needed = 0, uses_anonymous_args = 0
 2725 0000 10B5     		push	{r4, lr}
 2726 0002 0248     		ldr	r0, .L354
 2727 0004 FFF7FEFF 		bl	lr1mac_core_get_ping_slot_periodicity
 2728              		@ sp needed
 2729 0008 10BD     		pop	{r4, pc}
 2730              	.L355:
 2731 000a C046     		.align	2
 2732              	.L354:
 2733 000c 00000000 		.word	lr1mac_core_context
 2735              		.section	.text.lorawan_api_get_class_b_status,"ax",%progbits
 2736              		.align	1
 2737              		.global	lorawan_api_get_class_b_status
 2738              		.syntax unified
 2739              		.code	16
 2740              		.thumb_func
 2742              	lorawan_api_get_class_b_status:
 2743              		@ args = 0, pretend = 0, frame = 0
 2744              		@ frame_needed = 0, uses_anonymous_args = 0
 2745 0000 10B5     		push	{r4, lr}
 2746 0002 0248     		ldr	r0, .L357
 2747 0004 FFF7FEFF 		bl	lr1mac_core_get_class_b_status
 2748              		@ sp needed
 2749 0008 10BD     		pop	{r4, pc}
 2750              	.L358:
 2751 000a C046     		.align	2
 2752              	.L357:
 2753 000c 00000000 		.word	lr1mac_core_context
 2755              		.section	.text.lorawan_api_lora_dr_to_sf_bw,"ax",%progbits
 2756              		.align	1
 2757              		.global	lorawan_api_lora_dr_to_sf_bw
 2758              		.syntax unified
 2759              		.code	16
 2760              		.thumb_func
 2762              	lorawan_api_lora_dr_to_sf_bw:
 2763              		@ args = 0, pretend = 0, frame = 0
 2764              		@ frame_needed = 0, uses_anonymous_args = 0
 2765 0000 10B5     		push	{r4, lr}
 2766 0002 044C     		ldr	r4, .L360
 2767 0004 1300     		movs	r3, r2
 2768              		@ sp needed
 2769 0006 0A00     		movs	r2, r1
 2770 0008 0100     		movs	r1, r0
 2771 000a 2000     		movs	r0, r4
 2772 000c FFF7FEFF 		bl	smtc_real_lora_dr_to_sf_bw
 2773 0010 10BD     		pop	{r4, pc}
 2774              	.L361:
 2775 0012 C046     		.align	2
 2776              	.L360:
 2777 0014 00000000 		.word	lr1mac_core_context
 2779              		.section	.text.lorawan_api_get_frequency_factor,"ax",%progbits
 2780              		.align	1
 2781              		.global	lorawan_api_get_frequency_factor
ARM GAS  /tmp/ccCFG3OY.s 			page 46


 2782              		.syntax unified
 2783              		.code	16
 2784              		.thumb_func
 2786              	lorawan_api_get_frequency_factor:
 2787              		@ args = 0, pretend = 0, frame = 0
 2788              		@ frame_needed = 0, uses_anonymous_args = 0
 2789 0000 10B5     		push	{r4, lr}
 2790 0002 0248     		ldr	r0, .L363
 2791 0004 FFF7FEFF 		bl	smtc_real_get_frequency_factor
 2792              		@ sp needed
 2793 0008 10BD     		pop	{r4, pc}
 2794              	.L364:
 2795 000a C046     		.align	2
 2796              	.L363:
 2797 000c 00000000 		.word	lr1mac_core_context
 2799              		.section	.text.lorawan_api_get_status_push_network_downlink_to_user,"ax",%progbits
 2800              		.align	1
 2801              		.global	lorawan_api_get_status_push_network_downlink_to_user
 2802              		.syntax unified
 2803              		.code	16
 2804              		.thumb_func
 2806              	lorawan_api_get_status_push_network_downlink_to_user:
 2807              		@ args = 0, pretend = 0, frame = 0
 2808              		@ frame_needed = 0, uses_anonymous_args = 0
 2809 0000 10B5     		push	{r4, lr}
 2810 0002 0248     		ldr	r0, .L366
 2811 0004 FFF7FEFF 		bl	lr1mac_core_get_status_push_network_downlink_to_user
 2812              		@ sp needed
 2813 0008 10BD     		pop	{r4, pc}
 2814              	.L367:
 2815 000a C046     		.align	2
 2816              	.L366:
 2817 000c 00000000 		.word	lr1mac_core_context
 2819              		.section	.text.lorawan_api_set_status_push_network_downlink_to_user,"ax",%progbits
 2820              		.align	1
 2821              		.global	lorawan_api_set_status_push_network_downlink_to_user
 2822              		.syntax unified
 2823              		.code	16
 2824              		.thumb_func
 2826              	lorawan_api_set_status_push_network_downlink_to_user:
 2827              		@ args = 0, pretend = 0, frame = 0
 2828              		@ frame_needed = 0, uses_anonymous_args = 0
 2829 0000 10B5     		push	{r4, lr}
 2830 0002 034B     		ldr	r3, .L369
 2831 0004 0100     		movs	r1, r0
 2832              		@ sp needed
 2833 0006 1800     		movs	r0, r3
 2834 0008 FFF7FEFF 		bl	lr1mac_core_set_status_push_network_downlink_to_user
 2835 000c 10BD     		pop	{r4, pc}
 2836              	.L370:
 2837 000e C046     		.align	2
 2838              	.L369:
 2839 0010 00000000 		.word	lr1mac_core_context
 2841              		.section	.text.lorawan_api_modem_certification_set,"ax",%progbits
 2842              		.align	1
 2843              		.global	lorawan_api_modem_certification_set
 2844              		.syntax unified
ARM GAS  /tmp/ccCFG3OY.s 			page 47


 2845              		.code	16
 2846              		.thumb_func
 2848              	lorawan_api_modem_certification_set:
 2849              		@ args = 0, pretend = 0, frame = 0
 2850              		@ frame_needed = 0, uses_anonymous_args = 0
 2851 0000 10B5     		push	{r4, lr}
 2852 0002 0400     		movs	r4, r0
 2853              		@ sp needed
 2854 0004 2100     		movs	r1, r4
 2855 0006 631E     		subs	r3, r4, #1
 2856 0008 9C41     		sbcs	r4, r4, r3
 2857 000a 0648     		ldr	r0, .L372
 2858 000c E4B2     		uxtb	r4, r4
 2859 000e FFF7FEFF 		bl	lr1mac_core_certification_set
 2860 0012 2100     		movs	r1, r4
 2861 0014 0448     		ldr	r0, .L372+4
 2862 0016 FFF7FEFF 		bl	lorawan_certification_set_enabled
 2863 001a 2000     		movs	r0, r4
 2864 001c FFF7FEFF 		bl	lorawan_api_set_status_push_network_downlink_to_user
 2865 0020 10BD     		pop	{r4, pc}
 2866              	.L373:
 2867 0022 C046     		.align	2
 2868              	.L372:
 2869 0024 00000000 		.word	lr1mac_core_context
 2870 0028 740D0000 		.word	lr1mac_core_context+3444
 2872              		.section	.text.lorawan_api_set_adr_ack_limit_delay,"ax",%progbits
 2873              		.align	1
 2874              		.global	lorawan_api_set_adr_ack_limit_delay
 2875              		.syntax unified
 2876              		.code	16
 2877              		.thumb_func
 2879              	lorawan_api_set_adr_ack_limit_delay:
 2880              		@ args = 0, pretend = 0, frame = 0
 2881              		@ frame_needed = 0, uses_anonymous_args = 0
 2882 0000 10B5     		push	{r4, lr}
 2883 0002 034B     		ldr	r3, .L375
 2884 0004 0A00     		movs	r2, r1
 2885              		@ sp needed
 2886 0006 0100     		movs	r1, r0
 2887 0008 1800     		movs	r0, r3
 2888 000a FFF7FEFF 		bl	lr1mac_core_set_adr_ack_limit_delay
 2889 000e 10BD     		pop	{r4, pc}
 2890              	.L376:
 2891              		.align	2
 2892              	.L375:
 2893 0010 00000000 		.word	lr1mac_core_context
 2895              		.section	.text.lorawan_api_get_adr_ack_limit_delay,"ax",%progbits
 2896              		.align	1
 2897              		.global	lorawan_api_get_adr_ack_limit_delay
 2898              		.syntax unified
 2899              		.code	16
 2900              		.thumb_func
 2902              	lorawan_api_get_adr_ack_limit_delay:
 2903              		@ args = 0, pretend = 0, frame = 0
 2904              		@ frame_needed = 0, uses_anonymous_args = 0
 2905 0000 10B5     		push	{r4, lr}
 2906 0002 034B     		ldr	r3, .L378
ARM GAS  /tmp/ccCFG3OY.s 			page 48


 2907 0004 0A00     		movs	r2, r1
 2908              		@ sp needed
 2909 0006 0100     		movs	r1, r0
 2910 0008 1800     		movs	r0, r3
 2911 000a FFF7FEFF 		bl	lr1mac_core_get_adr_ack_limit_delay
 2912 000e 10BD     		pop	{r4, pc}
 2913              	.L379:
 2914              		.align	2
 2915              	.L378:
 2916 0010 00000000 		.word	lr1mac_core_context
 2918              		.section	.text.lorawan_api_class_b_d2d_request_tx,"ax",%progbits
 2919              		.align	1
 2920              		.global	lorawan_api_class_b_d2d_request_tx
 2921              		.syntax unified
 2922              		.code	16
 2923              		.thumb_func
 2925              	lorawan_api_class_b_d2d_request_tx:
 2926              		@ args = 20, pretend = 0, frame = 0
 2927              		@ frame_needed = 0, uses_anonymous_args = 0
 2928              		@ link register save eliminated.
 2929 0000 0020     		movs	r0, #0
 2930              		@ sp needed
 2931 0002 7047     		bx	lr
 2933              		.section	.text.lorawan_api_class_b_d2d_next_max_payload_length_get,"ax",%progbits
 2934              		.align	1
 2935              		.global	lorawan_api_class_b_d2d_next_max_payload_length_get
 2936              		.syntax unified
 2937              		.code	16
 2938              		.thumb_func
 2940              	lorawan_api_class_b_d2d_next_max_payload_length_get:
 2941              		@ args = 0, pretend = 0, frame = 0
 2942              		@ frame_needed = 0, uses_anonymous_args = 0
 2943              		@ link register save eliminated.
 2944 0000 0020     		movs	r0, #0
 2945              		@ sp needed
 2946 0002 7047     		bx	lr
 2948              		.section	.rodata.__func__.0,"a"
 2951              	__func__.0:
 2952 0000 6C6F7261 		.ascii	"lorawan_api_class_c_downlink_callback\000"
 2952      77616E5F 
 2952      6170695F 
 2952      636C6173 
 2952      735F635F 
 2953              		.section	.rodata.__func__.1,"a"
 2956              	__func__.1:
 2957 0000 6C6F7261 		.ascii	"lorawan_api_class_b_downlink_callback\000"
 2957      77616E5F 
 2957      6170695F 
 2957      636C6173 
 2957      735F625F 
 2958              		.section	.rodata.__func__.2,"a"
 2961              	__func__.2:
 2962 0000 6C6F7261 		.ascii	"lorawan_api_class_b_beacon_callback\000"
 2962      77616E5F 
 2962      6170695F 
 2962      636C6173 
 2962      735F625F 
ARM GAS  /tmp/ccCFG3OY.s 			page 49


 2963              		.global	fifo_buffer
 2964              		.section	.bss.fifo_buffer,"aw",%nobits
 2965              		.align	2
 2968              	fifo_buffer:
 2969 0000 00000000 		.space	512
 2969      00000000 
 2969      00000000 
 2969      00000000 
 2969      00000000 
 2970              		.section	.bss.lr1mac_core_context,"aw",%nobits
 2971              		.align	2
 2974              	lr1mac_core_context:
 2975 0000 00000000 		.space	3468
 2975      00000000 
 2975      00000000 
 2975      00000000 
 2975      00000000 
 2976              		.ident	"GCC: (Arch Repository) 13.2.0"
ARM GAS  /tmp/ccCFG3OY.s 			page 50

