ARM GAS  /tmp/cclzlq6b.s 			page 1


   1              		.cpu cortex-m0
   2              		.arch armv6s-m
   3              		.fpu softvfp
   4              		.eabi_attribute 23, 1
   5              		.eabi_attribute 24, 1
   6              		.eabi_attribute 25, 1
   7              		.eabi_attribute 26, 1
   8              		.eabi_attribute 30, 4
   9              		.eabi_attribute 34, 0
  10              		.eabi_attribute 18, 4
  11              		.file	"lr11xx_radio.c"
  12              		.text
  13              		.section	.text.lr11xx_radio_reset_stats,"ax",%progbits
  14              		.align	1
  15              		.global	lr11xx_radio_reset_stats
  16              		.syntax unified
  17              		.code	16
  18              		.thumb_func
  20              	lr11xx_radio_reset_stats:
  21              		@ args = 0, pretend = 0, frame = 8
  22              		@ frame_needed = 0, uses_anonymous_args = 0
  23 0000 1FB5     		push	{r0, r1, r2, r3, r4, lr}
  24 0002 0222     		movs	r2, #2
  25 0004 0023     		movs	r3, #0
  26 0006 03A9     		add	r1, sp, #12
  27 0008 0A80     		strh	r2, [r1]
  28 000a 0093     		str	r3, [sp]
  29 000c FFF7FEFF 		bl	lr11xx_hal_write
  30 0010 05B0     		add	sp, sp, #20
  31              		@ sp needed
  32 0012 00BD     		pop	{pc}
  34              		.section	.text.lr11xx_radio_get_gfsk_stats,"ax",%progbits
  35              		.align	1
  36              		.global	lr11xx_radio_get_gfsk_stats
  37              		.syntax unified
  38              		.code	16
  39              		.thumb_func
  41              	lr11xx_radio_get_gfsk_stats:
  42              		@ args = 0, pretend = 0, frame = 24
  43              		@ frame_needed = 0, uses_anonymous_args = 0
  44 0000 F0B5     		push	{r4, r5, r6, r7, lr}
  45 0002 8123     		movs	r3, #129
  46 0004 0627     		movs	r7, #6
  47 0006 89B0     		sub	sp, sp, #36
  48 0008 06AD     		add	r5, sp, #24
  49 000a 5B00     		lsls	r3, r3, #1
  50 000c 3A00     		movs	r2, r7
  51 000e 0390     		str	r0, [sp, #12]
  52 0010 05AE     		add	r6, sp, #20
  53 0012 0C00     		movs	r4, r1
  54 0014 2800     		movs	r0, r5
  55 0016 0021     		movs	r1, #0
  56 0018 3380     		strh	r3, [r6]
  57 001a FFF7FEFF 		bl	memset
  58 001e 2B00     		movs	r3, r5
  59 0020 0222     		movs	r2, #2
  60 0022 3100     		movs	r1, r6
ARM GAS  /tmp/cclzlq6b.s 			page 2


  61 0024 0398     		ldr	r0, [sp, #12]
  62 0026 0097     		str	r7, [sp]
  63 0028 FFF7FEFF 		bl	lr11xx_hal_read
  64 002c 0028     		cmp	r0, #0
  65 002e 08D1     		bne	.L3
  66 0030 2B88     		ldrh	r3, [r5]
  67 0032 5BBA     		rev16	r3, r3
  68 0034 2380     		strh	r3, [r4]
  69 0036 6B88     		ldrh	r3, [r5, #2]
  70 0038 5BBA     		rev16	r3, r3
  71 003a 6380     		strh	r3, [r4, #2]
  72 003c AB88     		ldrh	r3, [r5, #4]
  73 003e 5BBA     		rev16	r3, r3
  74 0040 A380     		strh	r3, [r4, #4]
  75              	.L3:
  76 0042 09B0     		add	sp, sp, #36
  77              		@ sp needed
  78 0044 F0BD     		pop	{r4, r5, r6, r7, pc}
  80              		.section	.text.lr11xx_radio_get_lora_stats,"ax",%progbits
  81              		.align	1
  82              		.global	lr11xx_radio_get_lora_stats
  83              		.syntax unified
  84              		.code	16
  85              		.thumb_func
  87              	lr11xx_radio_get_lora_stats:
  88              		@ args = 0, pretend = 0, frame = 24
  89              		@ frame_needed = 0, uses_anonymous_args = 0
  90 0000 F0B5     		push	{r4, r5, r6, r7, lr}
  91 0002 8123     		movs	r3, #129
  92 0004 0827     		movs	r7, #8
  93 0006 89B0     		sub	sp, sp, #36
  94 0008 06AD     		add	r5, sp, #24
  95 000a 5B00     		lsls	r3, r3, #1
  96 000c 3A00     		movs	r2, r7
  97 000e 0390     		str	r0, [sp, #12]
  98 0010 05AE     		add	r6, sp, #20
  99 0012 0C00     		movs	r4, r1
 100 0014 2800     		movs	r0, r5
 101 0016 0021     		movs	r1, #0
 102 0018 3380     		strh	r3, [r6]
 103 001a FFF7FEFF 		bl	memset
 104 001e 2B00     		movs	r3, r5
 105 0020 0222     		movs	r2, #2
 106 0022 3100     		movs	r1, r6
 107 0024 0398     		ldr	r0, [sp, #12]
 108 0026 0097     		str	r7, [sp]
 109 0028 FFF7FEFF 		bl	lr11xx_hal_read
 110 002c 0028     		cmp	r0, #0
 111 002e 0BD1     		bne	.L5
 112 0030 2B88     		ldrh	r3, [r5]
 113 0032 5BBA     		rev16	r3, r3
 114 0034 2380     		strh	r3, [r4]
 115 0036 6B88     		ldrh	r3, [r5, #2]
 116 0038 5BBA     		rev16	r3, r3
 117 003a 6380     		strh	r3, [r4, #2]
 118 003c AB88     		ldrh	r3, [r5, #4]
 119 003e 5BBA     		rev16	r3, r3
ARM GAS  /tmp/cclzlq6b.s 			page 3


 120 0040 A380     		strh	r3, [r4, #4]
 121 0042 EB88     		ldrh	r3, [r5, #6]
 122 0044 5BBA     		rev16	r3, r3
 123 0046 E380     		strh	r3, [r4, #6]
 124              	.L5:
 125 0048 09B0     		add	sp, sp, #36
 126              		@ sp needed
 127 004a F0BD     		pop	{r4, r5, r6, r7, pc}
 129              		.section	.text.lr11xx_radio_get_pkt_type,"ax",%progbits
 130              		.align	1
 131              		.global	lr11xx_radio_get_pkt_type
 132              		.syntax unified
 133              		.code	16
 134              		.thumb_func
 136              	lr11xx_radio_get_pkt_type:
 137              		@ args = 0, pretend = 0, frame = 8
 138              		@ frame_needed = 0, uses_anonymous_args = 0
 139 0000 1FB5     		push	{r0, r1, r2, r3, r4, lr}
 140 0002 0A4B     		ldr	r3, .L8
 141 0004 0C00     		movs	r4, r1
 142 0006 03A9     		add	r1, sp, #12
 143 0008 6A46     		mov	r2, sp
 144 000a 0B80     		strh	r3, [r1]
 145 000c 0023     		movs	r3, #0
 146 000e D372     		strb	r3, [r2, #11]
 147 0010 0133     		adds	r3, r3, #1
 148 0012 0093     		str	r3, [sp]
 149 0014 0A33     		adds	r3, r3, #10
 150 0016 0222     		movs	r2, #2
 151 0018 6B44     		add	r3, r3, sp
 152 001a FFF7FEFF 		bl	lr11xx_hal_read
 153 001e 0028     		cmp	r0, #0
 154 0020 02D1     		bne	.L7
 155 0022 6B46     		mov	r3, sp
 156 0024 DB7A     		ldrb	r3, [r3, #11]
 157 0026 2370     		strb	r3, [r4]
 158              	.L7:
 159 0028 04B0     		add	sp, sp, #16
 160              		@ sp needed
 161 002a 10BD     		pop	{r4, pc}
 162              	.L9:
 163              		.align	2
 164              	.L8:
 165 002c 02020000 		.word	514
 167              		.section	.text.lr11xx_radio_get_rx_buffer_status,"ax",%progbits
 168              		.align	1
 169              		.global	lr11xx_radio_get_rx_buffer_status
 170              		.syntax unified
 171              		.code	16
 172              		.thumb_func
 174              	lr11xx_radio_get_rx_buffer_status:
 175              		@ args = 0, pretend = 0, frame = 8
 176              		@ frame_needed = 0, uses_anonymous_args = 0
 177 0000 30B5     		push	{r4, r5, lr}
 178 0002 0A4B     		ldr	r3, .L12
 179 0004 85B0     		sub	sp, sp, #20
 180 0006 0C00     		movs	r4, r1
ARM GAS  /tmp/cclzlq6b.s 			page 4


 181 0008 02A9     		add	r1, sp, #8
 182 000a 0B80     		strh	r3, [r1]
 183 000c 0222     		movs	r2, #2
 184 000e 0023     		movs	r3, #0
 185 0010 03AD     		add	r5, sp, #12
 186 0012 2B80     		strh	r3, [r5]
 187 0014 2B00     		movs	r3, r5
 188 0016 0092     		str	r2, [sp]
 189 0018 FFF7FEFF 		bl	lr11xx_hal_read
 190 001c 0028     		cmp	r0, #0
 191 001e 03D1     		bne	.L11
 192 0020 2B78     		ldrb	r3, [r5]
 193 0022 2370     		strb	r3, [r4]
 194 0024 6B78     		ldrb	r3, [r5, #1]
 195 0026 6370     		strb	r3, [r4, #1]
 196              	.L11:
 197 0028 05B0     		add	sp, sp, #20
 198              		@ sp needed
 199 002a 30BD     		pop	{r4, r5, pc}
 200              	.L13:
 201              		.align	2
 202              	.L12:
 203 002c 02030000 		.word	770
 205              		.section	.text.lr11xx_radio_get_gfsk_pkt_status,"ax",%progbits
 206              		.align	1
 207              		.global	lr11xx_radio_get_gfsk_pkt_status
 208              		.syntax unified
 209              		.code	16
 210              		.thumb_func
 212              	lr11xx_radio_get_gfsk_pkt_status:
 213              		@ args = 0, pretend = 0, frame = 8
 214              		@ frame_needed = 0, uses_anonymous_args = 0
 215 0000 30B5     		push	{r4, r5, lr}
 216 0002 174B     		ldr	r3, .L16
 217 0004 85B0     		sub	sp, sp, #20
 218 0006 0C00     		movs	r4, r1
 219 0008 02A9     		add	r1, sp, #8
 220 000a 0B80     		strh	r3, [r1]
 221 000c 0023     		movs	r3, #0
 222 000e 03AD     		add	r5, sp, #12
 223 0010 0393     		str	r3, [sp, #12]
 224 0012 0433     		adds	r3, r3, #4
 225 0014 0093     		str	r3, [sp]
 226 0016 0222     		movs	r2, #2
 227 0018 2B00     		movs	r3, r5
 228 001a FFF7FEFF 		bl	lr11xx_hal_read
 229 001e 0028     		cmp	r0, #0
 230 0020 1CD1     		bne	.L15
 231 0022 0122     		movs	r2, #1
 232 0024 2B78     		ldrb	r3, [r5]
 233 0026 5B08     		lsrs	r3, r3, #1
 234 0028 5B42     		rsbs	r3, r3, #0
 235 002a 2370     		strb	r3, [r4]
 236 002c 6B78     		ldrb	r3, [r5, #1]
 237 002e 5B08     		lsrs	r3, r3, #1
 238 0030 5B42     		rsbs	r3, r3, #0
 239 0032 6370     		strb	r3, [r4, #1]
ARM GAS  /tmp/cclzlq6b.s 			page 5


 240 0034 AB78     		ldrb	r3, [r5, #2]
 241 0036 A370     		strb	r3, [r4, #2]
 242 0038 EB78     		ldrb	r3, [r5, #3]
 243 003a 5909     		lsrs	r1, r3, #5
 244 003c 1140     		ands	r1, r2
 245 003e E170     		strb	r1, [r4, #3]
 246 0040 1909     		lsrs	r1, r3, #4
 247 0042 1140     		ands	r1, r2
 248 0044 2171     		strb	r1, [r4, #4]
 249 0046 D908     		lsrs	r1, r3, #3
 250 0048 1140     		ands	r1, r2
 251 004a 6171     		strb	r1, [r4, #5]
 252 004c 9908     		lsrs	r1, r3, #2
 253 004e 1140     		ands	r1, r2
 254 0050 A171     		strb	r1, [r4, #6]
 255 0052 5908     		lsrs	r1, r3, #1
 256 0054 1140     		ands	r1, r2
 257 0056 1340     		ands	r3, r2
 258 0058 E171     		strb	r1, [r4, #7]
 259 005a 2372     		strb	r3, [r4, #8]
 260              	.L15:
 261 005c 05B0     		add	sp, sp, #20
 262              		@ sp needed
 263 005e 30BD     		pop	{r4, r5, pc}
 264              	.L17:
 265              		.align	2
 266              	.L16:
 267 0060 02040000 		.word	1026
 269              		.section	.text.lr11xx_radio_get_lora_pkt_status,"ax",%progbits
 270              		.align	1
 271              		.global	lr11xx_radio_get_lora_pkt_status
 272              		.syntax unified
 273              		.code	16
 274              		.thumb_func
 276              	lr11xx_radio_get_lora_pkt_status:
 277              		@ args = 0, pretend = 0, frame = 16
 278              		@ frame_needed = 0, uses_anonymous_args = 0
 279 0000 F0B5     		push	{r4, r5, r6, r7, lr}
 280 0002 0327     		movs	r7, #3
 281 0004 87B0     		sub	sp, sp, #28
 282 0006 114B     		ldr	r3, .L20
 283 0008 05AD     		add	r5, sp, #20
 284 000a 3A00     		movs	r2, r7
 285 000c 0390     		str	r0, [sp, #12]
 286 000e 04AE     		add	r6, sp, #16
 287 0010 0C00     		movs	r4, r1
 288 0012 2800     		movs	r0, r5
 289 0014 0021     		movs	r1, #0
 290 0016 3380     		strh	r3, [r6]
 291 0018 FFF7FEFF 		bl	memset
 292 001c 2B00     		movs	r3, r5
 293 001e 0222     		movs	r2, #2
 294 0020 3100     		movs	r1, r6
 295 0022 0398     		ldr	r0, [sp, #12]
 296 0024 0097     		str	r7, [sp]
 297 0026 FFF7FEFF 		bl	lr11xx_hal_read
 298 002a 0028     		cmp	r0, #0
ARM GAS  /tmp/cclzlq6b.s 			page 6


 299 002c 0CD1     		bne	.L19
 300 002e 2B78     		ldrb	r3, [r5]
 301 0030 5B08     		lsrs	r3, r3, #1
 302 0032 5B42     		rsbs	r3, r3, #0
 303 0034 2370     		strb	r3, [r4]
 304 0036 0123     		movs	r3, #1
 305 0038 EB56     		ldrsb	r3, [r5, r3]
 306 003a 0233     		adds	r3, r3, #2
 307 003c 9B10     		asrs	r3, r3, #2
 308 003e 6370     		strb	r3, [r4, #1]
 309 0040 AB78     		ldrb	r3, [r5, #2]
 310 0042 5B08     		lsrs	r3, r3, #1
 311 0044 5B42     		rsbs	r3, r3, #0
 312 0046 A370     		strb	r3, [r4, #2]
 313              	.L19:
 314 0048 07B0     		add	sp, sp, #28
 315              		@ sp needed
 316 004a F0BD     		pop	{r4, r5, r6, r7, pc}
 317              	.L21:
 318              		.align	2
 319              	.L20:
 320 004c 02040000 		.word	1026
 322              		.section	.text.lr11xx_radio_get_rssi_inst,"ax",%progbits
 323              		.align	1
 324              		.global	lr11xx_radio_get_rssi_inst
 325              		.syntax unified
 326              		.code	16
 327              		.thumb_func
 329              	lr11xx_radio_get_rssi_inst:
 330              		@ args = 0, pretend = 0, frame = 8
 331              		@ frame_needed = 0, uses_anonymous_args = 0
 332 0000 1FB5     		push	{r0, r1, r2, r3, r4, lr}
 333 0002 0B4B     		ldr	r3, .L24
 334 0004 0C00     		movs	r4, r1
 335 0006 03A9     		add	r1, sp, #12
 336 0008 6A46     		mov	r2, sp
 337 000a 0B80     		strh	r3, [r1]
 338 000c 0023     		movs	r3, #0
 339 000e D372     		strb	r3, [r2, #11]
 340 0010 0133     		adds	r3, r3, #1
 341 0012 0093     		str	r3, [sp]
 342 0014 0A33     		adds	r3, r3, #10
 343 0016 0222     		movs	r2, #2
 344 0018 6B44     		add	r3, r3, sp
 345 001a FFF7FEFF 		bl	lr11xx_hal_read
 346 001e 0028     		cmp	r0, #0
 347 0020 04D1     		bne	.L23
 348 0022 6B46     		mov	r3, sp
 349 0024 DB7A     		ldrb	r3, [r3, #11]
 350 0026 5B08     		lsrs	r3, r3, #1
 351 0028 5B42     		rsbs	r3, r3, #0
 352 002a 2370     		strb	r3, [r4]
 353              	.L23:
 354 002c 04B0     		add	sp, sp, #16
 355              		@ sp needed
 356 002e 10BD     		pop	{r4, pc}
 357              	.L25:
ARM GAS  /tmp/cclzlq6b.s 			page 7


 358              		.align	2
 359              	.L24:
 360 0030 02050000 		.word	1282
 362              		.section	.text.lr11xx_radio_set_gfsk_sync_word,"ax",%progbits
 363              		.align	1
 364              		.global	lr11xx_radio_set_gfsk_sync_word
 365              		.syntax unified
 366              		.code	16
 367              		.thumb_func
 369              	lr11xx_radio_set_gfsk_sync_word:
 370              		@ args = 0, pretend = 0, frame = 16
 371              		@ frame_needed = 0, uses_anonymous_args = 0
 372 0000 7FB5     		push	{r0, r1, r2, r3, r4, r5, r6, lr}
 373 0002 0B00     		movs	r3, r1
 374 0004 0C4A     		ldr	r2, .L27
 375 0006 03A9     		add	r1, sp, #12
 376 0008 0A80     		strh	r2, [r1]
 377 000a 1A78     		ldrb	r2, [r3]
 378 000c 8A70     		strb	r2, [r1, #2]
 379 000e 5A78     		ldrb	r2, [r3, #1]
 380 0010 CA70     		strb	r2, [r1, #3]
 381 0012 9A78     		ldrb	r2, [r3, #2]
 382 0014 0A71     		strb	r2, [r1, #4]
 383 0016 DA78     		ldrb	r2, [r3, #3]
 384 0018 4A71     		strb	r2, [r1, #5]
 385 001a 1A79     		ldrb	r2, [r3, #4]
 386 001c 8A71     		strb	r2, [r1, #6]
 387 001e 5A79     		ldrb	r2, [r3, #5]
 388 0020 CA71     		strb	r2, [r1, #7]
 389 0022 9A79     		ldrb	r2, [r3, #6]
 390 0024 DB79     		ldrb	r3, [r3, #7]
 391 0026 0A72     		strb	r2, [r1, #8]
 392 0028 4B72     		strb	r3, [r1, #9]
 393 002a 0023     		movs	r3, #0
 394 002c 0A22     		movs	r2, #10
 395 002e 0093     		str	r3, [sp]
 396 0030 FFF7FEFF 		bl	lr11xx_hal_write
 397 0034 07B0     		add	sp, sp, #28
 398              		@ sp needed
 399 0036 00BD     		pop	{pc}
 400              	.L28:
 401              		.align	2
 402              	.L27:
 403 0038 02060000 		.word	1538
 405              		.section	.text.lr11xx_radio_set_lora_sync_word,"ax",%progbits
 406              		.align	1
 407              		.global	lr11xx_radio_set_lora_sync_word
 408              		.syntax unified
 409              		.code	16
 410              		.thumb_func
 412              	lr11xx_radio_set_lora_sync_word:
 413              		@ args = 0, pretend = 0, frame = 8
 414              		@ frame_needed = 0, uses_anonymous_args = 0
 415 0000 1FB5     		push	{r0, r1, r2, r3, r4, lr}
 416 0002 6A46     		mov	r2, sp
 417 0004 054B     		ldr	r3, .L30
 418 0006 9173     		strb	r1, [r2, #14]
ARM GAS  /tmp/cclzlq6b.s 			page 8


 419 0008 9381     		strh	r3, [r2, #12]
 420 000a 0023     		movs	r3, #0
 421 000c 0322     		movs	r2, #3
 422 000e 0093     		str	r3, [sp]
 423 0010 03A9     		add	r1, sp, #12
 424 0012 FFF7FEFF 		bl	lr11xx_hal_write
 425 0016 05B0     		add	sp, sp, #20
 426              		@ sp needed
 427 0018 00BD     		pop	{pc}
 428              	.L31:
 429 001a C046     		.align	2
 430              	.L30:
 431 001c 022B0000 		.word	11010
 433              		.section	.text.lr11xx_radio_set_lora_public_network,"ax",%progbits
 434              		.align	1
 435              		.global	lr11xx_radio_set_lora_public_network
 436              		.syntax unified
 437              		.code	16
 438              		.thumb_func
 440              	lr11xx_radio_set_lora_public_network:
 441              		@ args = 0, pretend = 0, frame = 16
 442              		@ frame_needed = 0, uses_anonymous_args = 0
 443 0000 30B5     		push	{r4, r5, lr}
 444 0002 0400     		movs	r4, r0
 445 0004 0F20     		movs	r0, #15
 446 0006 87B0     		sub	sp, sp, #28
 447 0008 0D00     		movs	r5, r1
 448 000a 0722     		movs	r2, #7
 449 000c 0021     		movs	r1, #0
 450 000e 6844     		add	r0, r0, sp
 451 0010 FFF7FEFF 		bl	memset
 452 0014 6A46     		mov	r2, sp
 453 0016 064B     		ldr	r3, .L33
 454 0018 9573     		strb	r5, [r2, #14]
 455 001a 9381     		strh	r3, [r2, #12]
 456 001c 0023     		movs	r3, #0
 457 001e 0322     		movs	r2, #3
 458 0020 2000     		movs	r0, r4
 459 0022 0093     		str	r3, [sp]
 460 0024 03A9     		add	r1, sp, #12
 461 0026 FFF7FEFF 		bl	lr11xx_hal_write
 462 002a 07B0     		add	sp, sp, #28
 463              		@ sp needed
 464 002c 30BD     		pop	{r4, r5, pc}
 465              	.L34:
 466 002e C046     		.align	2
 467              	.L33:
 468 0030 02080000 		.word	2050
 470              		.section	.text.lr11xx_radio_set_rf_freq,"ax",%progbits
 471              		.align	1
 472              		.global	lr11xx_radio_set_rf_freq
 473              		.syntax unified
 474              		.code	16
 475              		.thumb_func
 477              	lr11xx_radio_set_rf_freq:
 478              		@ args = 0, pretend = 0, frame = 8
 479              		@ frame_needed = 0, uses_anonymous_args = 0
ARM GAS  /tmp/cclzlq6b.s 			page 9


 480 0000 1FB5     		push	{r0, r1, r2, r3, r4, lr}
 481 0002 0B00     		movs	r3, r1
 482 0004 074A     		ldr	r2, .L36
 483 0006 02A9     		add	r1, sp, #8
 484 0008 0A80     		strh	r2, [r1]
 485 000a 1A0E     		lsrs	r2, r3, #24
 486 000c 8A70     		strb	r2, [r1, #2]
 487 000e 1A0C     		lsrs	r2, r3, #16
 488 0010 5BBA     		rev16	r3, r3
 489 0012 8B80     		strh	r3, [r1, #4]
 490 0014 0023     		movs	r3, #0
 491 0016 CA70     		strb	r2, [r1, #3]
 492 0018 0622     		movs	r2, #6
 493 001a 0093     		str	r3, [sp]
 494 001c FFF7FEFF 		bl	lr11xx_hal_write
 495 0020 05B0     		add	sp, sp, #20
 496              		@ sp needed
 497 0022 00BD     		pop	{pc}
 498              	.L37:
 499              		.align	2
 500              	.L36:
 501 0024 020B0000 		.word	2818
 503              		.section	.text.lr11xx_radio_auto_tx_rx,"ax",%progbits
 504              		.align	1
 505              		.global	lr11xx_radio_auto_tx_rx
 506              		.syntax unified
 507              		.code	16
 508              		.thumb_func
 510              	lr11xx_radio_auto_tx_rx:
 511              		@ args = 0, pretend = 0, frame = 16
 512              		@ frame_needed = 0, uses_anonymous_args = 0
 513 0000 30B5     		push	{r4, r5, lr}
 514 0002 87B0     		sub	sp, sp, #28
 515 0004 0C00     		movs	r4, r1
 516 0006 03A9     		add	r1, sp, #12
 517 0008 4A71     		strb	r2, [r1, #5]
 518 000a 1A0C     		lsrs	r2, r3, #16
 519 000c 8A71     		strb	r2, [r1, #6]
 520 000e 0B72     		strb	r3, [r1, #8]
 521 0010 1A0A     		lsrs	r2, r3, #8
 522 0012 0023     		movs	r3, #0
 523 0014 064D     		ldr	r5, .L39
 524 0016 CA71     		strb	r2, [r1, #7]
 525 0018 0D80     		strh	r5, [r1]
 526 001a 250C     		lsrs	r5, r4, #16
 527 001c 8D70     		strb	r5, [r1, #2]
 528 001e 250A     		lsrs	r5, r4, #8
 529 0020 CD70     		strb	r5, [r1, #3]
 530 0022 0C71     		strb	r4, [r1, #4]
 531 0024 0922     		movs	r2, #9
 532 0026 0093     		str	r3, [sp]
 533 0028 FFF7FEFF 		bl	lr11xx_hal_write
 534 002c 07B0     		add	sp, sp, #28
 535              		@ sp needed
 536 002e 30BD     		pop	{r4, r5, pc}
 537              	.L40:
 538              		.align	2
ARM GAS  /tmp/cclzlq6b.s 			page 10


 539              	.L39:
 540 0030 020C0000 		.word	3074
 542              		.section	.text.lr11xx_radio_set_cad_params,"ax",%progbits
 543              		.align	1
 544              		.global	lr11xx_radio_set_cad_params
 545              		.syntax unified
 546              		.code	16
 547              		.thumb_func
 549              	lr11xx_radio_set_cad_params:
 550              		@ args = 0, pretend = 0, frame = 16
 551              		@ frame_needed = 0, uses_anonymous_args = 0
 552 0000 7FB5     		push	{r0, r1, r2, r3, r4, r5, r6, lr}
 553 0002 0B00     		movs	r3, r1
 554 0004 094A     		ldr	r2, .L42
 555 0006 03A9     		add	r1, sp, #12
 556 0008 0A80     		strh	r2, [r1]
 557 000a 1A88     		ldrh	r2, [r3]
 558 000c 4A80     		strh	r2, [r1, #2]
 559 000e 5A88     		ldrh	r2, [r3, #2]
 560 0010 5B68     		ldr	r3, [r3, #4]
 561 0012 8A80     		strh	r2, [r1, #4]
 562 0014 1A0C     		lsrs	r2, r3, #16
 563 0016 8A71     		strb	r2, [r1, #6]
 564 0018 0B72     		strb	r3, [r1, #8]
 565 001a 1A0A     		lsrs	r2, r3, #8
 566 001c 0023     		movs	r3, #0
 567 001e CA71     		strb	r2, [r1, #7]
 568 0020 0922     		movs	r2, #9
 569 0022 0093     		str	r3, [sp]
 570 0024 FFF7FEFF 		bl	lr11xx_hal_write
 571 0028 07B0     		add	sp, sp, #28
 572              		@ sp needed
 573 002a 00BD     		pop	{pc}
 574              	.L43:
 575              		.align	2
 576              	.L42:
 577 002c 020D0000 		.word	3330
 579              		.section	.text.lr11xx_radio_set_pkt_type,"ax",%progbits
 580              		.align	1
 581              		.global	lr11xx_radio_set_pkt_type
 582              		.syntax unified
 583              		.code	16
 584              		.thumb_func
 586              	lr11xx_radio_set_pkt_type:
 587              		@ args = 0, pretend = 0, frame = 8
 588              		@ frame_needed = 0, uses_anonymous_args = 0
 589 0000 1FB5     		push	{r0, r1, r2, r3, r4, lr}
 590 0002 6A46     		mov	r2, sp
 591 0004 054B     		ldr	r3, .L45
 592 0006 9173     		strb	r1, [r2, #14]
 593 0008 9381     		strh	r3, [r2, #12]
 594 000a 0023     		movs	r3, #0
 595 000c 0322     		movs	r2, #3
 596 000e 0093     		str	r3, [sp]
 597 0010 03A9     		add	r1, sp, #12
 598 0012 FFF7FEFF 		bl	lr11xx_hal_write
 599 0016 05B0     		add	sp, sp, #20
ARM GAS  /tmp/cclzlq6b.s 			page 11


 600              		@ sp needed
 601 0018 00BD     		pop	{pc}
 602              	.L46:
 603 001a C046     		.align	2
 604              	.L45:
 605 001c 020E0000 		.word	3586
 607              		.section	.text.lr11xx_radio_set_gfsk_mod_params,"ax",%progbits
 608              		.align	1
 609              		.global	lr11xx_radio_set_gfsk_mod_params
 610              		.syntax unified
 611              		.code	16
 612              		.thumb_func
 614              	lr11xx_radio_set_gfsk_mod_params:
 615              		@ args = 0, pretend = 0, frame = 16
 616              		@ frame_needed = 0, uses_anonymous_args = 0
 617 0000 0B00     		movs	r3, r1
 618 0002 30B5     		push	{r4, r5, lr}
 619 0004 0B4A     		ldr	r2, .L48
 620 0006 87B0     		sub	sp, sp, #28
 621 0008 03A9     		add	r1, sp, #12
 622 000a 0A80     		strh	r2, [r1]
 623 000c 1A68     		ldr	r2, [r3]
 624 000e 1C88     		ldrh	r4, [r3]
 625 0010 150E     		lsrs	r5, r2, #24
 626 0012 120C     		lsrs	r2, r2, #16
 627 0014 CA70     		strb	r2, [r1, #3]
 628 0016 9A88     		ldrh	r2, [r3, #4]
 629 0018 9B68     		ldr	r3, [r3, #8]
 630 001a 64BA     		rev16	r4, r4
 631 001c 1BBA     		rev	r3, r3
 632 001e 0593     		str	r3, [sp, #20]
 633 0020 0023     		movs	r3, #0
 634 0022 CA80     		strh	r2, [r1, #6]
 635 0024 8D70     		strb	r5, [r1, #2]
 636 0026 8C80     		strh	r4, [r1, #4]
 637 0028 0C22     		movs	r2, #12
 638 002a 0093     		str	r3, [sp]
 639 002c FFF7FEFF 		bl	lr11xx_hal_write
 640 0030 07B0     		add	sp, sp, #28
 641              		@ sp needed
 642 0032 30BD     		pop	{r4, r5, pc}
 643              	.L49:
 644              		.align	2
 645              	.L48:
 646 0034 020F0000 		.word	3842
 648              		.section	.text.lr11xx_radio_set_lora_mod_params,"ax",%progbits
 649              		.align	1
 650              		.global	lr11xx_radio_set_lora_mod_params
 651              		.syntax unified
 652              		.code	16
 653              		.thumb_func
 655              	lr11xx_radio_set_lora_mod_params:
 656              		@ args = 0, pretend = 0, frame = 8
 657              		@ frame_needed = 0, uses_anonymous_args = 0
 658 0000 1FB5     		push	{r0, r1, r2, r3, r4, lr}
 659 0002 0B00     		movs	r3, r1
 660 0004 084A     		ldr	r2, .L51
ARM GAS  /tmp/cclzlq6b.s 			page 12


 661 0006 02A9     		add	r1, sp, #8
 662 0008 0A80     		strh	r2, [r1]
 663 000a 1A78     		ldrb	r2, [r3]
 664 000c 8A70     		strb	r2, [r1, #2]
 665 000e 5A78     		ldrb	r2, [r3, #1]
 666 0010 CA70     		strb	r2, [r1, #3]
 667 0012 9A78     		ldrb	r2, [r3, #2]
 668 0014 0A71     		strb	r2, [r1, #4]
 669 0016 DB78     		ldrb	r3, [r3, #3]
 670 0018 0622     		movs	r2, #6
 671 001a 4B71     		strb	r3, [r1, #5]
 672 001c 0023     		movs	r3, #0
 673 001e 0093     		str	r3, [sp]
 674 0020 FFF7FEFF 		bl	lr11xx_hal_write
 675 0024 05B0     		add	sp, sp, #20
 676              		@ sp needed
 677 0026 00BD     		pop	{pc}
 678              	.L52:
 679              		.align	2
 680              	.L51:
 681 0028 020F0000 		.word	3842
 683              		.section	.text.lr11xx_radio_set_gfsk_pkt_params,"ax",%progbits
 684              		.align	1
 685              		.global	lr11xx_radio_set_gfsk_pkt_params
 686              		.syntax unified
 687              		.code	16
 688              		.thumb_func
 690              	lr11xx_radio_set_gfsk_pkt_params:
 691              		@ args = 0, pretend = 0, frame = 16
 692              		@ frame_needed = 0, uses_anonymous_args = 0
 693 0000 0B00     		movs	r3, r1
 694 0002 10B5     		push	{r4, lr}
 695 0004 0A4A     		ldr	r2, .L54
 696 0006 86B0     		sub	sp, sp, #24
 697 0008 03A9     		add	r1, sp, #12
 698 000a 0A80     		strh	r2, [r1]
 699 000c 1A88     		ldrh	r2, [r3]
 700 000e 5C88     		ldrh	r4, [r3, #2]
 701 0010 52BA     		rev16	r2, r2
 702 0012 4A80     		strh	r2, [r1, #2]
 703 0014 1A7A     		ldrb	r2, [r3, #8]
 704 0016 8C80     		strh	r4, [r1, #4]
 705 0018 9C88     		ldrh	r4, [r3, #4]
 706 001a DB88     		ldrh	r3, [r3, #6]
 707 001c 8A72     		strb	r2, [r1, #10]
 708 001e 0B81     		strh	r3, [r1, #8]
 709 0020 0023     		movs	r3, #0
 710 0022 CC80     		strh	r4, [r1, #6]
 711 0024 0B22     		movs	r2, #11
 712 0026 0093     		str	r3, [sp]
 713 0028 FFF7FEFF 		bl	lr11xx_hal_write
 714 002c 06B0     		add	sp, sp, #24
 715              		@ sp needed
 716 002e 10BD     		pop	{r4, pc}
 717              	.L55:
 718              		.align	2
 719              	.L54:
ARM GAS  /tmp/cclzlq6b.s 			page 13


 720 0030 02100000 		.word	4098
 722              		.section	.text.lr11xx_radio_set_lora_pkt_params,"ax",%progbits
 723              		.align	1
 724              		.global	lr11xx_radio_set_lora_pkt_params
 725              		.syntax unified
 726              		.code	16
 727              		.thumb_func
 729              	lr11xx_radio_set_lora_pkt_params:
 730              		@ args = 0, pretend = 0, frame = 8
 731              		@ frame_needed = 0, uses_anonymous_args = 0
 732 0000 1FB5     		push	{r0, r1, r2, r3, r4, lr}
 733 0002 0B00     		movs	r3, r1
 734 0004 084A     		ldr	r2, .L57
 735 0006 02A9     		add	r1, sp, #8
 736 0008 0A80     		strh	r2, [r1]
 737 000a 1A88     		ldrh	r2, [r3]
 738 000c 52BA     		rev16	r2, r2
 739 000e 4A80     		strh	r2, [r1, #2]
 740 0010 9A88     		ldrh	r2, [r3, #4]
 741 0012 5B88     		ldrh	r3, [r3, #2]
 742 0014 CA80     		strh	r2, [r1, #6]
 743 0016 8B80     		strh	r3, [r1, #4]
 744 0018 0023     		movs	r3, #0
 745 001a 0822     		movs	r2, #8
 746 001c 0093     		str	r3, [sp]
 747 001e FFF7FEFF 		bl	lr11xx_hal_write
 748 0022 05B0     		add	sp, sp, #20
 749              		@ sp needed
 750 0024 00BD     		pop	{pc}
 751              	.L58:
 752 0026 C046     		.align	2
 753              	.L57:
 754 0028 02100000 		.word	4098
 756              		.section	.text.lr11xx_radio_set_tx_params,"ax",%progbits
 757              		.align	1
 758              		.global	lr11xx_radio_set_tx_params
 759              		.syntax unified
 760              		.code	16
 761              		.thumb_func
 763              	lr11xx_radio_set_tx_params:
 764              		@ args = 0, pretend = 0, frame = 8
 765              		@ frame_needed = 0, uses_anonymous_args = 0
 766 0000 1FB5     		push	{r0, r1, r2, r3, r4, lr}
 767 0002 064B     		ldr	r3, .L60
 768 0004 03AC     		add	r4, sp, #12
 769 0006 2380     		strh	r3, [r4]
 770 0008 0023     		movs	r3, #0
 771 000a A170     		strb	r1, [r4, #2]
 772 000c E270     		strb	r2, [r4, #3]
 773 000e 2100     		movs	r1, r4
 774 0010 0422     		movs	r2, #4
 775 0012 0093     		str	r3, [sp]
 776 0014 FFF7FEFF 		bl	lr11xx_hal_write
 777 0018 04B0     		add	sp, sp, #16
 778              		@ sp needed
 779 001a 10BD     		pop	{r4, pc}
 780              	.L61:
ARM GAS  /tmp/cclzlq6b.s 			page 14


 781              		.align	2
 782              	.L60:
 783 001c 02110000 		.word	4354
 785              		.section	.text.lr11xx_radio_set_pkt_address,"ax",%progbits
 786              		.align	1
 787              		.global	lr11xx_radio_set_pkt_address
 788              		.syntax unified
 789              		.code	16
 790              		.thumb_func
 792              	lr11xx_radio_set_pkt_address:
 793              		@ args = 0, pretend = 0, frame = 8
 794              		@ frame_needed = 0, uses_anonymous_args = 0
 795 0000 1FB5     		push	{r0, r1, r2, r3, r4, lr}
 796 0002 064B     		ldr	r3, .L63
 797 0004 03AC     		add	r4, sp, #12
 798 0006 2380     		strh	r3, [r4]
 799 0008 0023     		movs	r3, #0
 800 000a A170     		strb	r1, [r4, #2]
 801 000c E270     		strb	r2, [r4, #3]
 802 000e 2100     		movs	r1, r4
 803 0010 0422     		movs	r2, #4
 804 0012 0093     		str	r3, [sp]
 805 0014 FFF7FEFF 		bl	lr11xx_hal_write
 806 0018 04B0     		add	sp, sp, #16
 807              		@ sp needed
 808 001a 10BD     		pop	{r4, pc}
 809              	.L64:
 810              		.align	2
 811              	.L63:
 812 001c 02120000 		.word	4610
 814              		.section	.text.lr11xx_radio_set_rx_tx_fallback_mode,"ax",%progbits
 815              		.align	1
 816              		.global	lr11xx_radio_set_rx_tx_fallback_mode
 817              		.syntax unified
 818              		.code	16
 819              		.thumb_func
 821              	lr11xx_radio_set_rx_tx_fallback_mode:
 822              		@ args = 0, pretend = 0, frame = 8
 823              		@ frame_needed = 0, uses_anonymous_args = 0
 824 0000 1FB5     		push	{r0, r1, r2, r3, r4, lr}
 825 0002 6A46     		mov	r2, sp
 826 0004 054B     		ldr	r3, .L66
 827 0006 9173     		strb	r1, [r2, #14]
 828 0008 9381     		strh	r3, [r2, #12]
 829 000a 0023     		movs	r3, #0
 830 000c 0322     		movs	r2, #3
 831 000e 0093     		str	r3, [sp]
 832 0010 03A9     		add	r1, sp, #12
 833 0012 FFF7FEFF 		bl	lr11xx_hal_write
 834 0016 05B0     		add	sp, sp, #20
 835              		@ sp needed
 836 0018 00BD     		pop	{pc}
 837              	.L67:
 838 001a C046     		.align	2
 839              	.L66:
 840 001c 02130000 		.word	4866
 842              		.section	.text.lr11xx_radio_set_rx_duty_cycle_with_timings_in_rtc_step,"ax",%progbits
ARM GAS  /tmp/cclzlq6b.s 			page 15


 843              		.align	1
 844              		.global	lr11xx_radio_set_rx_duty_cycle_with_timings_in_rtc_step
 845              		.syntax unified
 846              		.code	16
 847              		.thumb_func
 849              	lr11xx_radio_set_rx_duty_cycle_with_timings_in_rtc_step:
 850              		@ args = 0, pretend = 0, frame = 16
 851              		@ frame_needed = 0, uses_anonymous_args = 0
 852 0000 30B5     		push	{r4, r5, lr}
 853 0002 0C00     		movs	r4, r1
 854 0004 87B0     		sub	sp, sp, #28
 855 0006 03A9     		add	r1, sp, #12
 856 0008 0B72     		strb	r3, [r1, #8]
 857 000a 0023     		movs	r3, #0
 858 000c 084D     		ldr	r5, .L69
 859 000e 0C71     		strb	r4, [r1, #4]
 860 0010 0D80     		strh	r5, [r1]
 861 0012 250C     		lsrs	r5, r4, #16
 862 0014 8D70     		strb	r5, [r1, #2]
 863 0016 250A     		lsrs	r5, r4, #8
 864 0018 140C     		lsrs	r4, r2, #16
 865 001a 52BA     		rev16	r2, r2
 866 001c CA80     		strh	r2, [r1, #6]
 867 001e CD70     		strb	r5, [r1, #3]
 868 0020 4C71     		strb	r4, [r1, #5]
 869 0022 0922     		movs	r2, #9
 870 0024 0093     		str	r3, [sp]
 871 0026 FFF7FEFF 		bl	lr11xx_hal_write
 872 002a 07B0     		add	sp, sp, #28
 873              		@ sp needed
 874 002c 30BD     		pop	{r4, r5, pc}
 875              	.L70:
 876 002e C046     		.align	2
 877              	.L69:
 878 0030 02140000 		.word	5122
 880              		.global	__aeabi_uidiv
 881              		.section	.text.lr11xx_radio_set_rx_duty_cycle,"ax",%progbits
 882              		.align	1
 883              		.global	lr11xx_radio_set_rx_duty_cycle
 884              		.syntax unified
 885              		.code	16
 886              		.thumb_func
 888              	lr11xx_radio_set_rx_duty_cycle:
 889              		@ args = 0, pretend = 0, frame = 0
 890              		@ frame_needed = 0, uses_anonymous_args = 0
 891 0000 F8B5     		push	{r3, r4, r5, r6, r7, lr}
 892 0002 0C00     		movs	r4, r1
 893              		@ sp needed
 894 0004 FA21     		movs	r1, #250
 895 0006 0500     		movs	r5, r0
 896 0008 8900     		lsls	r1, r1, #2
 897 000a D003     		lsls	r0, r2, #15
 898 000c 1F00     		movs	r7, r3
 899 000e FFF7FEFF 		bl	__aeabi_uidiv
 900 0012 FA21     		movs	r1, #250
 901 0014 0600     		movs	r6, r0
 902 0016 8900     		lsls	r1, r1, #2
ARM GAS  /tmp/cclzlq6b.s 			page 16


 903 0018 E003     		lsls	r0, r4, #15
 904 001a FFF7FEFF 		bl	__aeabi_uidiv
 905 001e 3B00     		movs	r3, r7
 906 0020 0100     		movs	r1, r0
 907 0022 3200     		movs	r2, r6
 908 0024 2800     		movs	r0, r5
 909 0026 FFF7FEFF 		bl	lr11xx_radio_set_rx_duty_cycle_with_timings_in_rtc_step
 910 002a F8BD     		pop	{r3, r4, r5, r6, r7, pc}
 912              		.section	.text.lr11xx_radio_set_pa_cfg,"ax",%progbits
 913              		.align	1
 914              		.global	lr11xx_radio_set_pa_cfg
 915              		.syntax unified
 916              		.code	16
 917              		.thumb_func
 919              	lr11xx_radio_set_pa_cfg:
 920              		@ args = 0, pretend = 0, frame = 8
 921              		@ frame_needed = 0, uses_anonymous_args = 0
 922 0000 1FB5     		push	{r0, r1, r2, r3, r4, lr}
 923 0002 0B00     		movs	r3, r1
 924 0004 084A     		ldr	r2, .L73
 925 0006 02A9     		add	r1, sp, #8
 926 0008 0A80     		strh	r2, [r1]
 927 000a 1A78     		ldrb	r2, [r3]
 928 000c 8A70     		strb	r2, [r1, #2]
 929 000e 5A78     		ldrb	r2, [r3, #1]
 930 0010 CA70     		strb	r2, [r1, #3]
 931 0012 9A78     		ldrb	r2, [r3, #2]
 932 0014 0A71     		strb	r2, [r1, #4]
 933 0016 DB78     		ldrb	r3, [r3, #3]
 934 0018 0622     		movs	r2, #6
 935 001a 4B71     		strb	r3, [r1, #5]
 936 001c 0023     		movs	r3, #0
 937 001e 0093     		str	r3, [sp]
 938 0020 FFF7FEFF 		bl	lr11xx_hal_write
 939 0024 05B0     		add	sp, sp, #20
 940              		@ sp needed
 941 0026 00BD     		pop	{pc}
 942              	.L74:
 943              		.align	2
 944              	.L73:
 945 0028 02150000 		.word	5378
 947              		.section	.text.lr11xx_radio_stop_timeout_on_preamble,"ax",%progbits
 948              		.align	1
 949              		.global	lr11xx_radio_stop_timeout_on_preamble
 950              		.syntax unified
 951              		.code	16
 952              		.thumb_func
 954              	lr11xx_radio_stop_timeout_on_preamble:
 955              		@ args = 0, pretend = 0, frame = 8
 956              		@ frame_needed = 0, uses_anonymous_args = 0
 957 0000 1FB5     		push	{r0, r1, r2, r3, r4, lr}
 958 0002 6A46     		mov	r2, sp
 959 0004 054B     		ldr	r3, .L76
 960 0006 9173     		strb	r1, [r2, #14]
 961 0008 9381     		strh	r3, [r2, #12]
 962 000a 0023     		movs	r3, #0
 963 000c 0322     		movs	r2, #3
ARM GAS  /tmp/cclzlq6b.s 			page 17


 964 000e 0093     		str	r3, [sp]
 965 0010 03A9     		add	r1, sp, #12
 966 0012 FFF7FEFF 		bl	lr11xx_hal_write
 967 0016 05B0     		add	sp, sp, #20
 968              		@ sp needed
 969 0018 00BD     		pop	{pc}
 970              	.L77:
 971 001a C046     		.align	2
 972              	.L76:
 973 001c 02170000 		.word	5890
 975              		.section	.text.lr11xx_radio_set_tx_cw,"ax",%progbits
 976              		.align	1
 977              		.global	lr11xx_radio_set_tx_cw
 978              		.syntax unified
 979              		.code	16
 980              		.thumb_func
 982              	lr11xx_radio_set_tx_cw:
 983              		@ args = 0, pretend = 0, frame = 8
 984              		@ frame_needed = 0, uses_anonymous_args = 0
 985 0000 1FB5     		push	{r0, r1, r2, r3, r4, lr}
 986 0002 054B     		ldr	r3, .L79
 987 0004 03A9     		add	r1, sp, #12
 988 0006 0B80     		strh	r3, [r1]
 989 0008 0023     		movs	r3, #0
 990 000a 0222     		movs	r2, #2
 991 000c 0093     		str	r3, [sp]
 992 000e FFF7FEFF 		bl	lr11xx_hal_write
 993 0012 05B0     		add	sp, sp, #20
 994              		@ sp needed
 995 0014 00BD     		pop	{pc}
 996              	.L80:
 997 0016 C046     		.align	2
 998              	.L79:
 999 0018 02190000 		.word	6402
 1001              		.section	.text.lr11xx_radio_set_lora_sync_timeout,"ax",%progbits
 1002              		.align	1
 1003              		.global	lr11xx_radio_set_lora_sync_timeout
 1004              		.syntax unified
 1005              		.code	16
 1006              		.thumb_func
 1008              	lr11xx_radio_set_lora_sync_timeout:
 1009              		@ args = 0, pretend = 0, frame = 8
 1010              		@ frame_needed = 0, uses_anonymous_args = 0
 1011 0000 1FB5     		push	{r0, r1, r2, r3, r4, lr}
 1012 0002 6A46     		mov	r2, sp
 1013 0004 054B     		ldr	r3, .L82
 1014 0006 9173     		strb	r1, [r2, #14]
 1015 0008 9381     		strh	r3, [r2, #12]
 1016 000a 0023     		movs	r3, #0
 1017 000c 0322     		movs	r2, #3
 1018 000e 0093     		str	r3, [sp]
 1019 0010 03A9     		add	r1, sp, #12
 1020 0012 FFF7FEFF 		bl	lr11xx_hal_write
 1021 0016 05B0     		add	sp, sp, #20
 1022              		@ sp needed
 1023 0018 00BD     		pop	{pc}
 1024              	.L83:
ARM GAS  /tmp/cclzlq6b.s 			page 18


 1025 001a C046     		.align	2
 1026              	.L82:
 1027 001c 021B0000 		.word	6914
 1029              		.section	.text.lr11xx_radio_set_gfsk_crc_params,"ax",%progbits
 1030              		.align	1
 1031              		.global	lr11xx_radio_set_gfsk_crc_params
 1032              		.syntax unified
 1033              		.code	16
 1034              		.thumb_func
 1036              	lr11xx_radio_set_gfsk_crc_params:
 1037              		@ args = 0, pretend = 0, frame = 16
 1038              		@ frame_needed = 0, uses_anonymous_args = 0
 1039 0000 0B00     		movs	r3, r1
 1040 0002 10B5     		push	{r4, lr}
 1041 0004 0B4C     		ldr	r4, .L85
 1042 0006 86B0     		sub	sp, sp, #24
 1043 0008 03A9     		add	r1, sp, #12
 1044 000a 0C80     		strh	r4, [r1]
 1045 000c 1C0E     		lsrs	r4, r3, #24
 1046 000e 8C70     		strb	r4, [r1, #2]
 1047 0010 1C0C     		lsrs	r4, r3, #16
 1048 0012 5BBA     		rev16	r3, r3
 1049 0014 8B80     		strh	r3, [r1, #4]
 1050 0016 130E     		lsrs	r3, r2, #24
 1051 0018 8B71     		strb	r3, [r1, #6]
 1052 001a 130C     		lsrs	r3, r2, #16
 1053 001c CB71     		strb	r3, [r1, #7]
 1054 001e 0023     		movs	r3, #0
 1055 0020 52BA     		rev16	r2, r2
 1056 0022 0A81     		strh	r2, [r1, #8]
 1057 0024 CC70     		strb	r4, [r1, #3]
 1058 0026 0A22     		movs	r2, #10
 1059 0028 0093     		str	r3, [sp]
 1060 002a FFF7FEFF 		bl	lr11xx_hal_write
 1061 002e 06B0     		add	sp, sp, #24
 1062              		@ sp needed
 1063 0030 10BD     		pop	{r4, pc}
 1064              	.L86:
 1065 0032 C046     		.align	2
 1066              	.L85:
 1067 0034 02240000 		.word	9218
 1069              		.section	.text.lr11xx_radio_set_gfsk_whitening_seed,"ax",%progbits
 1070              		.align	1
 1071              		.global	lr11xx_radio_set_gfsk_whitening_seed
 1072              		.syntax unified
 1073              		.code	16
 1074              		.thumb_func
 1076              	lr11xx_radio_set_gfsk_whitening_seed:
 1077              		@ args = 0, pretend = 0, frame = 8
 1078              		@ frame_needed = 0, uses_anonymous_args = 0
 1079 0000 1FB5     		push	{r0, r1, r2, r3, r4, lr}
 1080 0002 6A46     		mov	r2, sp
 1081 0004 054B     		ldr	r3, .L88
 1082 0006 49BA     		rev16	r1, r1
 1083 0008 9381     		strh	r3, [r2, #12]
 1084 000a 0023     		movs	r3, #0
 1085 000c D181     		strh	r1, [r2, #14]
ARM GAS  /tmp/cclzlq6b.s 			page 19


 1086 000e 0422     		movs	r2, #4
 1087 0010 0093     		str	r3, [sp]
 1088 0012 03A9     		add	r1, sp, #12
 1089 0014 FFF7FEFF 		bl	lr11xx_hal_write
 1090 0018 05B0     		add	sp, sp, #20
 1091              		@ sp needed
 1092 001a 00BD     		pop	{pc}
 1093              	.L89:
 1094              		.align	2
 1095              	.L88:
 1096 001c 02250000 		.word	9474
 1098              		.section	.text.lr11xx_radio_cfg_rx_boosted,"ax",%progbits
 1099              		.align	1
 1100              		.global	lr11xx_radio_cfg_rx_boosted
 1101              		.syntax unified
 1102              		.code	16
 1103              		.thumb_func
 1105              	lr11xx_radio_cfg_rx_boosted:
 1106              		@ args = 0, pretend = 0, frame = 8
 1107              		@ frame_needed = 0, uses_anonymous_args = 0
 1108 0000 1FB5     		push	{r0, r1, r2, r3, r4, lr}
 1109 0002 6A46     		mov	r2, sp
 1110 0004 054B     		ldr	r3, .L91
 1111 0006 9173     		strb	r1, [r2, #14]
 1112 0008 9381     		strh	r3, [r2, #12]
 1113 000a 0023     		movs	r3, #0
 1114 000c 0322     		movs	r2, #3
 1115 000e 0093     		str	r3, [sp]
 1116 0010 03A9     		add	r1, sp, #12
 1117 0012 FFF7FEFF 		bl	lr11xx_hal_write
 1118 0016 05B0     		add	sp, sp, #20
 1119              		@ sp needed
 1120 0018 00BD     		pop	{pc}
 1121              	.L92:
 1122 001a C046     		.align	2
 1123              	.L91:
 1124 001c 02270000 		.word	9986
 1126              		.section	.text.lr11xx_radio_set_rssi_calibration,"ax",%progbits
 1127              		.align	1
 1128              		.global	lr11xx_radio_set_rssi_calibration
 1129              		.syntax unified
 1130              		.code	16
 1131              		.thumb_func
 1133              	lr11xx_radio_set_rssi_calibration:
 1134              		@ args = 0, pretend = 0, frame = 16
 1135              		@ frame_needed = 0, uses_anonymous_args = 0
 1136 0000 30B5     		push	{r4, r5, lr}
 1137 0002 0B00     		movs	r3, r1
 1138 0004 87B0     		sub	sp, sp, #28
 1139 0006 214A     		ldr	r2, .L94
 1140 0008 02A9     		add	r1, sp, #8
 1141 000a 0A80     		strh	r2, [r1]
 1142 000c 0F22     		movs	r2, #15
 1143 000e 5C78     		ldrb	r4, [r3, #1]
 1144 0010 1D78     		ldrb	r5, [r3]
 1145 0012 2401     		lsls	r4, r4, #4
 1146 0014 1540     		ands	r5, r2
ARM GAS  /tmp/cclzlq6b.s 			page 20


 1147 0016 6419     		adds	r4, r4, r5
 1148 0018 8C70     		strb	r4, [r1, #2]
 1149 001a DC78     		ldrb	r4, [r3, #3]
 1150 001c 9D78     		ldrb	r5, [r3, #2]
 1151 001e 2401     		lsls	r4, r4, #4
 1152 0020 1540     		ands	r5, r2
 1153 0022 6419     		adds	r4, r4, r5
 1154 0024 CC70     		strb	r4, [r1, #3]
 1155 0026 5C79     		ldrb	r4, [r3, #5]
 1156 0028 1D79     		ldrb	r5, [r3, #4]
 1157 002a 2401     		lsls	r4, r4, #4
 1158 002c 1540     		ands	r5, r2
 1159 002e 6419     		adds	r4, r4, r5
 1160 0030 0C71     		strb	r4, [r1, #4]
 1161 0032 DC79     		ldrb	r4, [r3, #7]
 1162 0034 9D79     		ldrb	r5, [r3, #6]
 1163 0036 2401     		lsls	r4, r4, #4
 1164 0038 1540     		ands	r5, r2
 1165 003a 6419     		adds	r4, r4, r5
 1166 003c 4C71     		strb	r4, [r1, #5]
 1167 003e 5C7A     		ldrb	r4, [r3, #9]
 1168 0040 1D7A     		ldrb	r5, [r3, #8]
 1169 0042 2401     		lsls	r4, r4, #4
 1170 0044 1540     		ands	r5, r2
 1171 0046 6419     		adds	r4, r4, r5
 1172 0048 8C71     		strb	r4, [r1, #6]
 1173 004a DC7A     		ldrb	r4, [r3, #11]
 1174 004c 9D7A     		ldrb	r5, [r3, #10]
 1175 004e 2401     		lsls	r4, r4, #4
 1176 0050 1540     		ands	r5, r2
 1177 0052 6419     		adds	r4, r4, r5
 1178 0054 CC71     		strb	r4, [r1, #7]
 1179 0056 5C7B     		ldrb	r4, [r3, #13]
 1180 0058 1D7B     		ldrb	r5, [r3, #12]
 1181 005a 2401     		lsls	r4, r4, #4
 1182 005c 1540     		ands	r5, r2
 1183 005e 6419     		adds	r4, r4, r5
 1184 0060 0C72     		strb	r4, [r1, #8]
 1185 0062 DC7B     		ldrb	r4, [r3, #15]
 1186 0064 9D7B     		ldrb	r5, [r3, #14]
 1187 0066 2401     		lsls	r4, r4, #4
 1188 0068 1540     		ands	r5, r2
 1189 006a 6419     		adds	r4, r4, r5
 1190 006c 4C72     		strb	r4, [r1, #9]
 1191 006e 1C7C     		ldrb	r4, [r3, #16]
 1192 0070 2240     		ands	r2, r4
 1193 0072 8A72     		strb	r2, [r1, #10]
 1194 0074 1222     		movs	r2, #18
 1195 0076 9B5E     		ldrsh	r3, [r3, r2]
 1196 0078 0B73     		strb	r3, [r1, #12]
 1197 007a 1A12     		asrs	r2, r3, #8
 1198 007c 0023     		movs	r3, #0
 1199 007e CA72     		strb	r2, [r1, #11]
 1200 0080 0D22     		movs	r2, #13
 1201 0082 0093     		str	r3, [sp]
 1202 0084 FFF7FEFF 		bl	lr11xx_hal_write
 1203 0088 07B0     		add	sp, sp, #28
ARM GAS  /tmp/cclzlq6b.s 			page 21


 1204              		@ sp needed
 1205 008a 30BD     		pop	{r4, r5, pc}
 1206              	.L95:
 1207              		.align	2
 1208              	.L94:
 1209 008c 02290000 		.word	10498
 1211              		.section	.text.lr11xx_radio_get_gfsk_rx_bandwidth,"ax",%progbits
 1212              		.align	1
 1213              		.global	lr11xx_radio_get_gfsk_rx_bandwidth
 1214              		.syntax unified
 1215              		.code	16
 1216              		.thumb_func
 1218              	lr11xx_radio_get_gfsk_rx_bandwidth:
 1219              		@ args = 0, pretend = 0, frame = 0
 1220              		@ frame_needed = 0, uses_anonymous_args = 0
 1221              		@ link register save eliminated.
 1222 0000 9622     		movs	r2, #150
 1223 0002 0300     		movs	r3, r0
 1224 0004 5201     		lsls	r2, r2, #5
 1225 0006 9042     		cmp	r0, r2
 1226 0008 03D8     		bhi	.L97
 1227 000a 1F23     		movs	r3, #31
 1228              	.L120:
 1229 000c 0020     		movs	r0, #0
 1230 000e 0B70     		strb	r3, [r1]
 1231              	.L98:
 1232              		@ sp needed
 1233 0010 7047     		bx	lr
 1234              	.L97:
 1235 0012 324A     		ldr	r2, .L121
 1236 0014 9042     		cmp	r0, r2
 1237 0016 01D8     		bhi	.L99
 1238 0018 1723     		movs	r3, #23
 1239 001a F7E7     		b	.L120
 1240              	.L99:
 1241 001c 304A     		ldr	r2, .L121+4
 1242 001e 9042     		cmp	r0, r2
 1243 0020 01D8     		bhi	.L101
 1244 0022 0F23     		movs	r3, #15
 1245 0024 F2E7     		b	.L120
 1246              	.L101:
 1247 0026 2F4A     		ldr	r2, .L121+8
 1248 0028 9042     		cmp	r0, r2
 1249 002a 01D8     		bhi	.L102
 1250 002c 1E23     		movs	r3, #30
 1251 002e EDE7     		b	.L120
 1252              	.L102:
 1253 0030 2D4A     		ldr	r2, .L121+12
 1254 0032 9042     		cmp	r0, r2
 1255 0034 01D8     		bhi	.L103
 1256 0036 1623     		movs	r3, #22
 1257 0038 E8E7     		b	.L120
 1258              	.L103:
 1259 003a 2C4A     		ldr	r2, .L121+16
 1260 003c 9042     		cmp	r0, r2
 1261 003e 01D8     		bhi	.L104
 1262 0040 0E23     		movs	r3, #14
ARM GAS  /tmp/cclzlq6b.s 			page 22


 1263 0042 E3E7     		b	.L120
 1264              	.L104:
 1265 0044 2A4A     		ldr	r2, .L121+20
 1266 0046 9042     		cmp	r0, r2
 1267 0048 01D8     		bhi	.L105
 1268 004a 1D23     		movs	r3, #29
 1269 004c DEE7     		b	.L120
 1270              	.L105:
 1271 004e 294A     		ldr	r2, .L121+24
 1272 0050 9042     		cmp	r0, r2
 1273 0052 01D8     		bhi	.L106
 1274 0054 1523     		movs	r3, #21
 1275 0056 D9E7     		b	.L120
 1276              	.L106:
 1277 0058 274A     		ldr	r2, .L121+28
 1278 005a 9042     		cmp	r0, r2
 1279 005c 01D8     		bhi	.L107
 1280 005e 0D23     		movs	r3, #13
 1281 0060 D4E7     		b	.L120
 1282              	.L107:
 1283 0062 264A     		ldr	r2, .L121+32
 1284 0064 9042     		cmp	r0, r2
 1285 0066 01D8     		bhi	.L108
 1286 0068 1C23     		movs	r3, #28
 1287 006a CFE7     		b	.L120
 1288              	.L108:
 1289 006c 244A     		ldr	r2, .L121+36
 1290 006e 9042     		cmp	r0, r2
 1291 0070 01D8     		bhi	.L109
 1292 0072 1423     		movs	r3, #20
 1293 0074 CAE7     		b	.L120
 1294              	.L109:
 1295 0076 234A     		ldr	r2, .L121+40
 1296 0078 9042     		cmp	r0, r2
 1297 007a 01D8     		bhi	.L110
 1298 007c 0C23     		movs	r3, #12
 1299 007e C5E7     		b	.L120
 1300              	.L110:
 1301 0080 214A     		ldr	r2, .L121+44
 1302 0082 9042     		cmp	r0, r2
 1303 0084 01D8     		bhi	.L111
 1304 0086 1B23     		movs	r3, #27
 1305 0088 C0E7     		b	.L120
 1306              	.L111:
 1307 008a 204A     		ldr	r2, .L121+48
 1308 008c 9042     		cmp	r0, r2
 1309 008e 01D8     		bhi	.L112
 1310 0090 1323     		movs	r3, #19
 1311 0092 BBE7     		b	.L120
 1312              	.L112:
 1313 0094 1E4A     		ldr	r2, .L121+52
 1314 0096 9042     		cmp	r0, r2
 1315 0098 01D8     		bhi	.L113
 1316 009a 0B23     		movs	r3, #11
 1317 009c B6E7     		b	.L120
 1318              	.L113:
 1319 009e 1D4A     		ldr	r2, .L121+56
ARM GAS  /tmp/cclzlq6b.s 			page 23


 1320 00a0 9042     		cmp	r0, r2
 1321 00a2 01D8     		bhi	.L114
 1322 00a4 1A23     		movs	r3, #26
 1323 00a6 B1E7     		b	.L120
 1324              	.L114:
 1325 00a8 1B4A     		ldr	r2, .L121+60
 1326 00aa 9042     		cmp	r0, r2
 1327 00ac 01D8     		bhi	.L115
 1328 00ae 1223     		movs	r3, #18
 1329 00b0 ACE7     		b	.L120
 1330              	.L115:
 1331 00b2 1A4A     		ldr	r2, .L121+64
 1332 00b4 9042     		cmp	r0, r2
 1333 00b6 01D8     		bhi	.L116
 1334 00b8 0A23     		movs	r3, #10
 1335 00ba A7E7     		b	.L120
 1336              	.L116:
 1337 00bc 184A     		ldr	r2, .L121+68
 1338 00be 9042     		cmp	r0, r2
 1339 00c0 01D8     		bhi	.L117
 1340 00c2 1923     		movs	r3, #25
 1341 00c4 A2E7     		b	.L120
 1342              	.L117:
 1343 00c6 174A     		ldr	r2, .L121+72
 1344 00c8 9042     		cmp	r0, r2
 1345 00ca 01D8     		bhi	.L118
 1346 00cc 1123     		movs	r3, #17
 1347 00ce 9DE7     		b	.L120
 1348              	.L118:
 1349 00d0 154A     		ldr	r2, .L121+76
 1350 00d2 0320     		movs	r0, #3
 1351 00d4 9342     		cmp	r3, r2
 1352 00d6 9BD8     		bhi	.L98
 1353 00d8 0923     		movs	r3, #9
 1354 00da 97E7     		b	.L120
 1355              	.L122:
 1356              		.align	2
 1357              	.L121:
 1358 00dc A8160000 		.word	5800
 1359 00e0 841C0000 		.word	7300
 1360 00e4 E4250000 		.word	9700
 1361 00e8 B42D0000 		.word	11700
 1362 00ec 08390000 		.word	14600
 1363 00f0 2C4C0000 		.word	19500
 1364 00f4 685B0000 		.word	23400
 1365 00f8 74720000 		.word	29300
 1366 00fc 58980000 		.word	39000
 1367 0100 34B70000 		.word	46900
 1368 0104 E8E40000 		.word	58600
 1369 0108 78310100 		.word	78200
 1370 010c 686E0100 		.word	93800
 1371 0110 34CA0100 		.word	117300
 1372 0114 28620200 		.word	156200
 1373 0118 40DB0200 		.word	187200
 1374 011c 3C930300 		.word	234300
 1375 0120 C0C20400 		.word	312000
 1376 0124 60B30500 		.word	373600
ARM GAS  /tmp/cclzlq6b.s 			page 24


 1377 0128 38200700 		.word	467000
 1379              		.global	__aeabi_idiv
 1380              		.section	.text.lr11xx_radio_get_lora_time_on_air_numerator,"ax",%progbits
 1381              		.align	1
 1382              		.global	lr11xx_radio_get_lora_time_on_air_numerator
 1383              		.syntax unified
 1384              		.code	16
 1385              		.thumb_func
 1387              	lr11xx_radio_get_lora_time_on_air_numerator:
 1388              		@ args = 0, pretend = 0, frame = 16
 1389              		@ frame_needed = 0, uses_anonymous_args = 0
 1390 0000 F0B5     		push	{r4, r5, r6, r7, lr}
 1391 0002 C378     		ldrb	r3, [r0, #3]
 1392 0004 85B0     		sub	sp, sp, #20
 1393 0006 0293     		str	r3, [sp, #8]
 1394 0008 8378     		ldrb	r3, [r0, #2]
 1395 000a 0600     		movs	r6, r0
 1396 000c 0193     		str	r3, [sp, #4]
 1397 000e 0379     		ldrb	r3, [r0, #4]
 1398 0010 0A78     		ldrb	r2, [r1]
 1399 0012 013B     		subs	r3, r3, #1
 1400 0014 5842     		rsbs	r0, r3, #0
 1401 0016 4341     		adcs	r3, r3, r0
 1402 0018 8D78     		ldrb	r5, [r1, #2]
 1403 001a 0298     		ldr	r0, [sp, #8]
 1404 001c C978     		ldrb	r1, [r1, #3]
 1405 001e 5B00     		lsls	r3, r3, #1
 1406 0020 1B18     		adds	r3, r3, r0
 1407 0022 481E     		subs	r0, r1, #1
 1408 0024 8141     		sbcs	r1, r1, r0
 1409 0026 901E     		subs	r0, r2, #2
 1410 0028 0627     		movs	r7, #6
 1411 002a 0390     		str	r0, [sp, #12]
 1412 002c 0020     		movs	r0, #0
 1413 002e D40F     		lsrs	r4, r2, #31
 1414 0030 9742     		cmp	r7, r2
 1415 0032 4441     		adcs	r4, r4, r0
 1416 0034 4900     		lsls	r1, r1, #1
 1417 0036 511A     		subs	r1, r2, r1
 1418 0038 6400     		lsls	r4, r4, #1
 1419 003a 042D     		cmp	r5, #4
 1420 003c 41D9     		bls	.L124
 1421 003e E81F     		subs	r0, r5, #7
 1422 0040 0700     		movs	r7, r0
 1423 0042 7842     		rsbs	r0, r7, #0
 1424 0044 7841     		adcs	r0, r0, r7
 1425 0046 019F     		ldr	r7, [sp, #4]
 1426 0048 4019     		adds	r0, r0, r5
 1427 004a 012F     		cmp	r7, #1
 1428 004c 23D1     		bne	.L125
 1429 004e 039A     		ldr	r2, [sp, #12]
 1430 0050 1B37     		adds	r7, r7, #27
 1431 0052 1219     		adds	r2, r2, r4
 1432 0054 5843     		muls	r0, r3
 1433 0056 5743     		muls	r7, r2
 1434 0058 C300     		lsls	r3, r0, #3
 1435 005a BB42     		cmp	r3, r7
ARM GAS  /tmp/cclzlq6b.s 			page 25


 1436 005c 14DC     		bgt	.L126
 1437 005e 9100     		lsls	r1, r2, #2
 1438              	.L127:
 1439 0060 5818     		adds	r0, r3, r1
 1440 0062 0138     		subs	r0, r0, #1
 1441 0064 FFF7FEFF 		bl	__aeabi_idiv
 1442 0068 042D     		cmp	r5, #4
 1443 006a 02D8     		bhi	.L133
 1444 006c 0435     		adds	r5, r5, #4
 1445 006e 6843     		muls	r0, r5
 1446 0070 0830     		adds	r0, r0, #8
 1447              	.L133:
 1448 0072 3388     		ldrh	r3, [r6]
 1449 0074 0433     		adds	r3, r3, #4
 1450 0076 1B19     		adds	r3, r3, r4
 1451 0078 1818     		adds	r0, r3, r0
 1452 007a 8000     		lsls	r0, r0, #2
 1453 007c 039B     		ldr	r3, [sp, #12]
 1454 007e 0130     		adds	r0, r0, #1
 1455 0080 9840     		lsls	r0, r0, r3
 1456 0082 0138     		subs	r0, r0, #1
 1457 0084 05B0     		add	sp, sp, #20
 1458              		@ sp needed
 1459 0086 F0BD     		pop	{r4, r5, r6, r7, pc}
 1460              	.L126:
 1461 0088 8900     		lsls	r1, r1, #2
 1462 008a 4018     		adds	r0, r0, r1
 1463 008c 4000     		lsls	r0, r0, #1
 1464 008e D200     		lsls	r2, r2, #3
 1465 0090 801A     		subs	r0, r0, r2
 1466 0092 8300     		lsls	r3, r0, #2
 1467 0094 E4E7     		b	.L127
 1468              	.L125:
 1469 0096 0727     		movs	r7, #7
 1470 0098 1219     		adds	r2, r2, r4
 1471 009a 073A     		subs	r2, r2, #7
 1472 009c 9200     		lsls	r2, r2, #2
 1473 009e BA43     		bics	r2, r7
 1474 00a0 DB00     		lsls	r3, r3, #3
 1475 00a2 9342     		cmp	r3, r2
 1476 00a4 04DD     		ble	.L128
 1477 00a6 029F     		ldr	r7, [sp, #8]
 1478 00a8 FF00     		lsls	r7, r7, #3
 1479 00aa BA42     		cmp	r2, r7
 1480 00ac 00DD     		ble	.L128
 1481 00ae 3A00     		movs	r2, r7
 1482              	.L128:
 1483 00b0 9B1A     		subs	r3, r3, r2
 1484 00b2 DA43     		mvns	r2, r3
 1485 00b4 D217     		asrs	r2, r2, #31
 1486 00b6 1340     		ands	r3, r2
 1487 00b8 5843     		muls	r0, r3
 1488 00ba 4B01     		lsls	r3, r1, #5
 1489 00bc C318     		adds	r3, r0, r3
 1490              	.L137:
 1491 00be 8900     		lsls	r1, r1, #2
 1492 00c0 CEE7     		b	.L127
ARM GAS  /tmp/cclzlq6b.s 			page 26


 1493              	.L124:
 1494 00c2 1219     		adds	r2, r2, r4
 1495 00c4 0198     		ldr	r0, [sp, #4]
 1496 00c6 023A     		subs	r2, r2, #2
 1497 00c8 9200     		lsls	r2, r2, #2
 1498 00ca 0128     		cmp	r0, #1
 1499 00cc 00D0     		beq	.L131
 1500 00ce 143A     		subs	r2, r2, #20
 1501              	.L131:
 1502 00d0 DB00     		lsls	r3, r3, #3
 1503 00d2 9B1A     		subs	r3, r3, r2
 1504 00d4 DA43     		mvns	r2, r3
 1505 00d6 D217     		asrs	r2, r2, #31
 1506 00d8 1340     		ands	r3, r2
 1507 00da F0E7     		b	.L137
 1509              		.section	.text.lr11xx_radio_get_lora_bw_in_hz,"ax",%progbits
 1510              		.align	1
 1511              		.global	lr11xx_radio_get_lora_bw_in_hz
 1512              		.syntax unified
 1513              		.code	16
 1514              		.thumb_func
 1516              	lr11xx_radio_get_lora_bw_in_hz:
 1517              		@ args = 0, pretend = 0, frame = 0
 1518              		@ frame_needed = 0, uses_anonymous_args = 0
 1519              		@ link register save eliminated.
 1520 0000 0138     		subs	r0, r0, #1
 1521 0002 C3B2     		uxtb	r3, r0
 1522 0004 0020     		movs	r0, #0
 1523 0006 0E2B     		cmp	r3, #14
 1524 0008 02D8     		bhi	.L138
 1525 000a 024A     		ldr	r2, .L141
 1526 000c 9B00     		lsls	r3, r3, #2
 1527 000e 9858     		ldr	r0, [r3, r2]
 1528              	.L138:
 1529              		@ sp needed
 1530 0010 7047     		bx	lr
 1531              	.L142:
 1532 0012 C046     		.align	2
 1533              	.L141:
 1534 0014 00000000 		.word	CSWTCH.42
 1536              		.section	.text.lr11xx_radio_get_lora_time_on_air_in_ms,"ax",%progbits
 1537              		.align	1
 1538              		.global	lr11xx_radio_get_lora_time_on_air_in_ms
 1539              		.syntax unified
 1540              		.code	16
 1541              		.thumb_func
 1543              	lr11xx_radio_get_lora_time_on_air_in_ms:
 1544              		@ args = 0, pretend = 0, frame = 0
 1545              		@ frame_needed = 0, uses_anonymous_args = 0
 1546 0000 70B5     		push	{r4, r5, r6, lr}
 1547 0002 0D00     		movs	r5, r1
 1548              		@ sp needed
 1549 0004 FFF7FEFF 		bl	lr11xx_radio_get_lora_time_on_air_numerator
 1550 0008 0400     		movs	r4, r0
 1551 000a 6878     		ldrb	r0, [r5, #1]
 1552 000c FFF7FEFF 		bl	lr11xx_radio_get_lora_bw_in_hz
 1553 0010 FA23     		movs	r3, #250
ARM GAS  /tmp/cclzlq6b.s 			page 27


 1554 0012 9B00     		lsls	r3, r3, #2
 1555 0014 6343     		muls	r3, r4
 1556 0016 0100     		movs	r1, r0
 1557 0018 0138     		subs	r0, r0, #1
 1558 001a 1818     		adds	r0, r3, r0
 1559 001c FFF7FEFF 		bl	__aeabi_uidiv
 1560 0020 70BD     		pop	{r4, r5, r6, pc}
 1562              		.section	.text.lr11xx_radio_get_gfsk_time_on_air_numerator,"ax",%progbits
 1563              		.align	1
 1564              		.global	lr11xx_radio_get_gfsk_time_on_air_numerator
 1565              		.syntax unified
 1566              		.code	16
 1567              		.thumb_func
 1569              	lr11xx_radio_get_gfsk_time_on_air_numerator:
 1570              		@ args = 0, pretend = 0, frame = 0
 1571              		@ frame_needed = 0, uses_anonymous_args = 0
 1572 0000 00B5     		push	{lr}
 1573 0002 4379     		ldrb	r3, [r0, #5]
 1574 0004 0200     		movs	r2, r0
 1575 0006 0020     		movs	r0, #0
 1576 0008 022B     		cmp	r3, #2
 1577 000a 17D8     		bhi	.L144
 1578 000c 0E48     		ldr	r0, .L152
 1579 000e 1188     		ldrh	r1, [r2]
 1580 0010 C35C     		ldrb	r3, [r0, r3]
 1581 0012 C918     		adds	r1, r1, r3
 1582 0014 D378     		ldrb	r3, [r2, #3]
 1583 0016 C918     		adds	r1, r1, r3
 1584 0018 1379     		ldrb	r3, [r2, #4]
 1585 001a 581E     		subs	r0, r3, #1
 1586 001c 8341     		sbcs	r3, r3, r0
 1587 001e 9079     		ldrb	r0, [r2, #6]
 1588 0020 1B18     		adds	r3, r3, r0
 1589 0022 D079     		ldrb	r0, [r2, #7]
 1590 0024 0628     		cmp	r0, #6
 1591 0026 05D8     		bhi	.L146
 1592 0028 FFF7FEFF 		bl	__gnu_thumb1_case_uqi
 1593              	.L148:
 1594 002c 0B       		.byte	(.L151-.L148)/2
 1595 002d 04       		.byte	(.L146-.L148)/2
 1596 002e 09       		.byte	(.L147-.L148)/2
 1597 002f 04       		.byte	(.L146-.L148)/2
 1598 0030 0B       		.byte	(.L151-.L148)/2
 1599 0031 04       		.byte	(.L146-.L148)/2
 1600 0032 09       		.byte	(.L147-.L148)/2
 1601 0033 00       		.p2align 1
 1602              	.L146:
 1603 0034 0020     		movs	r0, #0
 1604              	.L149:
 1605 0036 1818     		adds	r0, r3, r0
 1606 0038 C000     		lsls	r0, r0, #3
 1607 003a 4018     		adds	r0, r0, r1
 1608              	.L144:
 1609              		@ sp needed
 1610 003c 00BD     		pop	{pc}
 1611              	.L147:
 1612 003e 0220     		movs	r0, #2
ARM GAS  /tmp/cclzlq6b.s 			page 28


 1613 0040 F9E7     		b	.L149
 1614              	.L151:
 1615 0042 0120     		movs	r0, #1
 1616 0044 F7E7     		b	.L149
 1617              	.L153:
 1618 0046 C046     		.align	2
 1619              	.L152:
 1620 0048 00000000 		.word	CSWTCH.45
 1622              		.section	.text.lr11xx_radio_get_gfsk_time_on_air_in_ms,"ax",%progbits
 1623              		.align	1
 1624              		.global	lr11xx_radio_get_gfsk_time_on_air_in_ms
 1625              		.syntax unified
 1626              		.code	16
 1627              		.thumb_func
 1629              	lr11xx_radio_get_gfsk_time_on_air_in_ms:
 1630              		@ args = 0, pretend = 0, frame = 0
 1631              		@ frame_needed = 0, uses_anonymous_args = 0
 1632 0000 10B5     		push	{r4, lr}
 1633 0002 0C00     		movs	r4, r1
 1634              		@ sp needed
 1635 0004 FFF7FEFF 		bl	lr11xx_radio_get_gfsk_time_on_air_numerator
 1636 0008 FA23     		movs	r3, #250
 1637 000a 9B00     		lsls	r3, r3, #2
 1638 000c 4343     		muls	r3, r0
 1639 000e 2168     		ldr	r1, [r4]
 1640 0010 481E     		subs	r0, r1, #1
 1641 0012 1818     		adds	r0, r3, r0
 1642 0014 FFF7FEFF 		bl	__aeabi_uidiv
 1643 0018 10BD     		pop	{r4, pc}
 1645              		.section	.text.lr11xx_radio_convert_time_in_ms_to_rtc_step,"ax",%progbits
 1646              		.align	1
 1647              		.global	lr11xx_radio_convert_time_in_ms_to_rtc_step
 1648              		.syntax unified
 1649              		.code	16
 1650              		.thumb_func
 1652              	lr11xx_radio_convert_time_in_ms_to_rtc_step:
 1653              		@ args = 0, pretend = 0, frame = 0
 1654              		@ frame_needed = 0, uses_anonymous_args = 0
 1655 0000 FA21     		movs	r1, #250
 1656 0002 10B5     		push	{r4, lr}
 1657 0004 C003     		lsls	r0, r0, #15
 1658 0006 8900     		lsls	r1, r1, #2
 1659 0008 FFF7FEFF 		bl	__aeabi_uidiv
 1660              		@ sp needed
 1661 000c 10BD     		pop	{r4, pc}
 1663              		.section	.text.lr11xx_radio_get_lora_rx_info,"ax",%progbits
 1664              		.align	1
 1665              		.global	lr11xx_radio_get_lora_rx_info
 1666              		.syntax unified
 1667              		.code	16
 1668              		.thumb_func
 1670              	lr11xx_radio_get_lora_rx_info:
 1671              		@ args = 0, pretend = 0, frame = 8
 1672              		@ frame_needed = 0, uses_anonymous_args = 0
 1673 0000 F0B5     		push	{r4, r5, r6, r7, lr}
 1674 0002 0B27     		movs	r7, #11
 1675 0004 0126     		movs	r6, #1
ARM GAS  /tmp/cclzlq6b.s 			page 29


 1676 0006 85B0     		sub	sp, sp, #20
 1677 0008 0A4B     		ldr	r3, .L158
 1678 000a 0D00     		movs	r5, r1
 1679 000c 6F44     		add	r7, r7, sp
 1680 000e 03A9     		add	r1, sp, #12
 1681 0010 0B80     		strh	r3, [r1]
 1682 0012 1400     		movs	r4, r2
 1683 0014 3B00     		movs	r3, r7
 1684 0016 0222     		movs	r2, #2
 1685 0018 0096     		str	r6, [sp]
 1686 001a FFF7FEFF 		bl	lr11xx_hal_read
 1687 001e 0028     		cmp	r0, #0
 1688 0020 06D1     		bne	.L157
 1689 0022 3B78     		ldrb	r3, [r7]
 1690 0024 1A09     		lsrs	r2, r3, #4
 1691 0026 3240     		ands	r2, r6
 1692 0028 2A70     		strb	r2, [r5]
 1693 002a 0722     		movs	r2, #7
 1694 002c 1340     		ands	r3, r2
 1695 002e 2370     		strb	r3, [r4]
 1696              	.L157:
 1697 0030 05B0     		add	sp, sp, #20
 1698              		@ sp needed
 1699 0032 F0BD     		pop	{r4, r5, r6, r7, pc}
 1700              	.L159:
 1701              		.align	2
 1702              	.L158:
 1703 0034 02300000 		.word	12290
 1705              		.section	.text.lr11xx_radio_apply_high_acp_workaround,"ax",%progbits
 1706              		.align	1
 1707              		.global	lr11xx_radio_apply_high_acp_workaround
 1708              		.syntax unified
 1709              		.code	16
 1710              		.thumb_func
 1712              	lr11xx_radio_apply_high_acp_workaround:
 1713              		@ args = 0, pretend = 0, frame = 0
 1714              		@ frame_needed = 0, uses_anonymous_args = 0
 1715 0000 8022     		movs	r2, #128
 1716 0002 10B5     		push	{r4, lr}
 1717 0004 0023     		movs	r3, #0
 1718              		@ sp needed
 1719 0006 0249     		ldr	r1, .L161
 1720 0008 D205     		lsls	r2, r2, #23
 1721 000a FFF7FEFF 		bl	lr11xx_regmem_write_regmem32_mask
 1722 000e 10BD     		pop	{r4, pc}
 1723              	.L162:
 1724              		.align	2
 1725              	.L161:
 1726 0010 5400F300 		.word	15925332
 1728              		.section	.text.lr11xx_radio_set_rx_with_timeout_in_rtc_step,"ax",%progbits
 1729              		.align	1
 1730              		.global	lr11xx_radio_set_rx_with_timeout_in_rtc_step
 1731              		.syntax unified
 1732              		.code	16
 1733              		.thumb_func
 1735              	lr11xx_radio_set_rx_with_timeout_in_rtc_step:
 1736              		@ args = 0, pretend = 0, frame = 8
ARM GAS  /tmp/cclzlq6b.s 			page 30


 1737              		@ frame_needed = 0, uses_anonymous_args = 0
 1738 0000 30B5     		push	{r4, r5, lr}
 1739 0002 0B4B     		ldr	r3, .L165
 1740 0004 85B0     		sub	sp, sp, #20
 1741 0006 02AC     		add	r4, sp, #8
 1742 0008 2380     		strh	r3, [r4]
 1743 000a 0B0C     		lsrs	r3, r1, #16
 1744 000c A370     		strb	r3, [r4, #2]
 1745 000e 0B0A     		lsrs	r3, r1, #8
 1746 0010 0500     		movs	r5, r0
 1747 0012 E370     		strb	r3, [r4, #3]
 1748 0014 2171     		strb	r1, [r4, #4]
 1749 0016 FFF7FEFF 		bl	lr11xx_radio_apply_high_acp_workaround
 1750 001a 0028     		cmp	r0, #0
 1751 001c 06D1     		bne	.L164
 1752 001e 0300     		movs	r3, r0
 1753 0020 0090     		str	r0, [sp]
 1754 0022 0522     		movs	r2, #5
 1755 0024 2100     		movs	r1, r4
 1756 0026 2800     		movs	r0, r5
 1757 0028 FFF7FEFF 		bl	lr11xx_hal_write
 1758              	.L164:
 1759 002c 05B0     		add	sp, sp, #20
 1760              		@ sp needed
 1761 002e 30BD     		pop	{r4, r5, pc}
 1762              	.L166:
 1763              		.align	2
 1764              	.L165:
 1765 0030 02090000 		.word	2306
 1767              		.section	.text.lr11xx_radio_set_rx,"ax",%progbits
 1768              		.align	1
 1769              		.global	lr11xx_radio_set_rx
 1770              		.syntax unified
 1771              		.code	16
 1772              		.thumb_func
 1774              	lr11xx_radio_set_rx:
 1775              		@ args = 0, pretend = 0, frame = 0
 1776              		@ frame_needed = 0, uses_anonymous_args = 0
 1777 0000 10B5     		push	{r4, lr}
 1778 0002 0400     		movs	r4, r0
 1779              		@ sp needed
 1780 0004 C803     		lsls	r0, r1, #15
 1781 0006 FA21     		movs	r1, #250
 1782 0008 8900     		lsls	r1, r1, #2
 1783 000a FFF7FEFF 		bl	__aeabi_uidiv
 1784 000e 0100     		movs	r1, r0
 1785 0010 2000     		movs	r0, r4
 1786 0012 FFF7FEFF 		bl	lr11xx_radio_set_rx_with_timeout_in_rtc_step
 1787 0016 10BD     		pop	{r4, pc}
 1789              		.section	.text.lr11xx_radio_set_tx_with_timeout_in_rtc_step,"ax",%progbits
 1790              		.align	1
 1791              		.global	lr11xx_radio_set_tx_with_timeout_in_rtc_step
 1792              		.syntax unified
 1793              		.code	16
 1794              		.thumb_func
 1796              	lr11xx_radio_set_tx_with_timeout_in_rtc_step:
 1797              		@ args = 0, pretend = 0, frame = 8
ARM GAS  /tmp/cclzlq6b.s 			page 31


 1798              		@ frame_needed = 0, uses_anonymous_args = 0
 1799 0000 30B5     		push	{r4, r5, lr}
 1800 0002 0B4B     		ldr	r3, .L170
 1801 0004 85B0     		sub	sp, sp, #20
 1802 0006 02AC     		add	r4, sp, #8
 1803 0008 2380     		strh	r3, [r4]
 1804 000a 0B0C     		lsrs	r3, r1, #16
 1805 000c A370     		strb	r3, [r4, #2]
 1806 000e 0B0A     		lsrs	r3, r1, #8
 1807 0010 0500     		movs	r5, r0
 1808 0012 E370     		strb	r3, [r4, #3]
 1809 0014 2171     		strb	r1, [r4, #4]
 1810 0016 FFF7FEFF 		bl	lr11xx_radio_apply_high_acp_workaround
 1811 001a 0028     		cmp	r0, #0
 1812 001c 06D1     		bne	.L169
 1813 001e 0300     		movs	r3, r0
 1814 0020 0090     		str	r0, [sp]
 1815 0022 0522     		movs	r2, #5
 1816 0024 2100     		movs	r1, r4
 1817 0026 2800     		movs	r0, r5
 1818 0028 FFF7FEFF 		bl	lr11xx_hal_write
 1819              	.L169:
 1820 002c 05B0     		add	sp, sp, #20
 1821              		@ sp needed
 1822 002e 30BD     		pop	{r4, r5, pc}
 1823              	.L171:
 1824              		.align	2
 1825              	.L170:
 1826 0030 020A0000 		.word	2562
 1828              		.section	.text.lr11xx_radio_set_tx,"ax",%progbits
 1829              		.align	1
 1830              		.global	lr11xx_radio_set_tx
 1831              		.syntax unified
 1832              		.code	16
 1833              		.thumb_func
 1835              	lr11xx_radio_set_tx:
 1836              		@ args = 0, pretend = 0, frame = 0
 1837              		@ frame_needed = 0, uses_anonymous_args = 0
 1838 0000 10B5     		push	{r4, lr}
 1839 0002 0400     		movs	r4, r0
 1840              		@ sp needed
 1841 0004 C803     		lsls	r0, r1, #15
 1842 0006 FA21     		movs	r1, #250
 1843 0008 8900     		lsls	r1, r1, #2
 1844 000a FFF7FEFF 		bl	__aeabi_uidiv
 1845 000e 0100     		movs	r1, r0
 1846 0010 2000     		movs	r0, r4
 1847 0012 FFF7FEFF 		bl	lr11xx_radio_set_tx_with_timeout_in_rtc_step
 1848 0016 10BD     		pop	{r4, pc}
 1850              		.section	.text.lr11xx_radio_set_cad,"ax",%progbits
 1851              		.align	1
 1852              		.global	lr11xx_radio_set_cad
 1853              		.syntax unified
 1854              		.code	16
 1855              		.thumb_func
 1857              	lr11xx_radio_set_cad:
 1858              		@ args = 0, pretend = 0, frame = 8
ARM GAS  /tmp/cclzlq6b.s 			page 32


 1859              		@ frame_needed = 0, uses_anonymous_args = 0
 1860 0000 30B5     		push	{r4, r5, lr}
 1861 0002 094B     		ldr	r3, .L175
 1862 0004 85B0     		sub	sp, sp, #20
 1863 0006 03AD     		add	r5, sp, #12
 1864 0008 0400     		movs	r4, r0
 1865 000a 2B80     		strh	r3, [r5]
 1866 000c FFF7FEFF 		bl	lr11xx_radio_apply_high_acp_workaround
 1867 0010 0028     		cmp	r0, #0
 1868 0012 06D1     		bne	.L174
 1869 0014 0300     		movs	r3, r0
 1870 0016 0090     		str	r0, [sp]
 1871 0018 0222     		movs	r2, #2
 1872 001a 2900     		movs	r1, r5
 1873 001c 2000     		movs	r0, r4
 1874 001e FFF7FEFF 		bl	lr11xx_hal_write
 1875              	.L174:
 1876 0022 05B0     		add	sp, sp, #20
 1877              		@ sp needed
 1878 0024 30BD     		pop	{r4, r5, pc}
 1879              	.L176:
 1880 0026 C046     		.align	2
 1881              	.L175:
 1882 0028 02180000 		.word	6146
 1884              		.section	.text.lr11xx_radio_set_tx_infinite_preamble,"ax",%progbits
 1885              		.align	1
 1886              		.global	lr11xx_radio_set_tx_infinite_preamble
 1887              		.syntax unified
 1888              		.code	16
 1889              		.thumb_func
 1891              	lr11xx_radio_set_tx_infinite_preamble:
 1892              		@ args = 0, pretend = 0, frame = 8
 1893              		@ frame_needed = 0, uses_anonymous_args = 0
 1894 0000 30B5     		push	{r4, r5, lr}
 1895 0002 094B     		ldr	r3, .L179
 1896 0004 85B0     		sub	sp, sp, #20
 1897 0006 03AD     		add	r5, sp, #12
 1898 0008 0400     		movs	r4, r0
 1899 000a 2B80     		strh	r3, [r5]
 1900 000c FFF7FEFF 		bl	lr11xx_radio_apply_high_acp_workaround
 1901 0010 0028     		cmp	r0, #0
 1902 0012 06D1     		bne	.L178
 1903 0014 0300     		movs	r3, r0
 1904 0016 0090     		str	r0, [sp]
 1905 0018 0222     		movs	r2, #2
 1906 001a 2900     		movs	r1, r5
 1907 001c 2000     		movs	r0, r4
 1908 001e FFF7FEFF 		bl	lr11xx_hal_write
 1909              	.L178:
 1910 0022 05B0     		add	sp, sp, #20
 1911              		@ sp needed
 1912 0024 30BD     		pop	{r4, r5, pc}
 1913              	.L180:
 1914 0026 C046     		.align	2
 1915              	.L179:
 1916 0028 021A0000 		.word	6658
 1918              		.section	.rodata.CSWTCH.45,"a"
ARM GAS  /tmp/cclzlq6b.s 			page 33


 1921              	CSWTCH.45:
 1922 0000 00       		.byte	0
 1923 0001 08       		.byte	8
 1924 0002 09       		.byte	9
 1925              		.section	.rodata.CSWTCH.42,"a"
 1926              		.align	2
 1929              	CSWTCH.42:
 1930 0000 093D0000 		.word	15625
 1931 0004 127A0000 		.word	31250
 1932 0008 24F40000 		.word	62500
 1933 000c 48E80100 		.word	125000
 1934 0010 90D00300 		.word	250000
 1935 0014 20A10700 		.word	500000
 1936 0018 00000000 		.word	0
 1937 001c B1280000 		.word	10417
 1938 0020 61510000 		.word	20833
 1939 0024 C3A20000 		.word	41667
 1940 0028 00000000 		.word	0
 1941 002c 00000000 		.word	0
 1942 0030 F8180300 		.word	203000
 1943 0034 F0310600 		.word	406000
 1944 0038 E0630C00 		.word	812000
 1945              		.ident	"GCC: (Arch Repository) 13.2.0"
ARM GAS  /tmp/cclzlq6b.s 			page 34

