ARM GAS  /tmp/ccbwv3yu.s 			page 1


   1              		.cpu cortex-m0
   2              		.arch armv6s-m
   3              		.fpu softvfp
   4              		.eabi_attribute 23, 1
   5              		.eabi_attribute 24, 1
   6              		.eabi_attribute 25, 1
   7              		.eabi_attribute 26, 1
   8              		.eabi_attribute 30, 4
   9              		.eabi_attribute 34, 0
  10              		.eabi_attribute 18, 4
  11              		.file	"lr11xx_gnss.c"
  12              		.text
  13              		.section	.text.lr11xx_gnss_uint8_to_uint32,"ax",%progbits
  14              		.align	1
  15              		.syntax unified
  16              		.code	16
  17              		.thumb_func
  19              	lr11xx_gnss_uint8_to_uint32:
  20              		@ args = 0, pretend = 0, frame = 0
  21              		@ frame_needed = 0, uses_anonymous_args = 0
  22              		@ link register save eliminated.
  23 0000 4278     		ldrb	r2, [r0, #1]
  24 0002 0378     		ldrb	r3, [r0]
  25 0004 1202     		lsls	r2, r2, #8
  26 0006 1A43     		orrs	r2, r3
  27 0008 8378     		ldrb	r3, [r0, #2]
  28 000a C078     		ldrb	r0, [r0, #3]
  29 000c 1B04     		lsls	r3, r3, #16
  30 000e 1343     		orrs	r3, r2
  31 0010 0006     		lsls	r0, r0, #24
  32 0012 1843     		orrs	r0, r3
  33 0014 00BA     		rev	r0, r0
  34              		@ sp needed
  35 0016 7047     		bx	lr
  37              		.section	.text.lr11xx_gnss_get_almanac_address_size.constprop.0,"ax",%progbits
  38              		.align	1
  39              		.syntax unified
  40              		.code	16
  41              		.thumb_func
  43              	lr11xx_gnss_get_almanac_address_size.constprop.0:
  44              		@ args = 0, pretend = 0, frame = 24
  45              		@ frame_needed = 0, uses_anonymous_args = 0
  46 0000 F0B5     		push	{r4, r5, r6, r7, lr}
  47 0002 0627     		movs	r7, #6
  48 0004 89B0     		sub	sp, sp, #36
  49 0006 104B     		ldr	r3, .L4
  50 0008 06AC     		add	r4, sp, #24
  51 000a 05AE     		add	r6, sp, #20
  52 000c 0290     		str	r0, [sp, #8]
  53 000e 0392     		str	r2, [sp, #12]
  54 0010 0D00     		movs	r5, r1
  55 0012 3A00     		movs	r2, r7
  56 0014 0021     		movs	r1, #0
  57 0016 2000     		movs	r0, r4
  58 0018 3380     		strh	r3, [r6]
  59 001a FFF7FEFF 		bl	memset
  60 001e 3100     		movs	r1, r6
ARM GAS  /tmp/ccbwv3yu.s 			page 2


  61 0020 2300     		movs	r3, r4
  62 0022 0222     		movs	r2, #2
  63 0024 0298     		ldr	r0, [sp, #8]
  64 0026 0097     		str	r7, [sp]
  65 0028 FFF7FEFF 		bl	lr11xx_hal_read
  66 002c 061E     		subs	r6, r0, #0
  67 002e 07D1     		bne	.L3
  68 0030 2000     		movs	r0, r4
  69 0032 FFF7FEFF 		bl	lr11xx_gnss_uint8_to_uint32
  70 0036 A388     		ldrh	r3, [r4, #4]
  71 0038 039A     		ldr	r2, [sp, #12]
  72 003a 5BBA     		rev16	r3, r3
  73 003c 2860     		str	r0, [r5]
  74 003e 1380     		strh	r3, [r2]
  75              	.L3:
  76 0040 3000     		movs	r0, r6
  77 0042 09B0     		add	sp, sp, #36
  78              		@ sp needed
  79 0044 F0BD     		pop	{r4, r5, r6, r7, pc}
  80              	.L5:
  81 0046 C046     		.align	2
  82              	.L4:
  83 0048 040F0000 		.word	3844
  85              		.section	.text.lr11xx_gnss_get_result_size,"ax",%progbits
  86              		.align	1
  87              		.global	lr11xx_gnss_get_result_size
  88              		.syntax unified
  89              		.code	16
  90              		.thumb_func
  92              	lr11xx_gnss_get_result_size:
  93              		@ args = 0, pretend = 0, frame = 8
  94              		@ frame_needed = 0, uses_anonymous_args = 0
  95 0000 1FB5     		push	{r0, r1, r2, r3, r4, lr}
  96 0002 0A4B     		ldr	r3, .L8
  97 0004 0C00     		movs	r4, r1
  98 0006 02A9     		add	r1, sp, #8
  99 0008 6A46     		mov	r2, sp
 100 000a 0B80     		strh	r3, [r1]
 101 000c 0023     		movs	r3, #0
 102 000e 9381     		strh	r3, [r2, #12]
 103 0010 0222     		movs	r2, #2
 104 0012 03AB     		add	r3, sp, #12
 105 0014 0092     		str	r2, [sp]
 106 0016 FFF7FEFF 		bl	lr11xx_hal_read
 107 001a 0028     		cmp	r0, #0
 108 001c 03D1     		bne	.L7
 109 001e 6B46     		mov	r3, sp
 110 0020 9B89     		ldrh	r3, [r3, #12]
 111 0022 5BBA     		rev16	r3, r3
 112 0024 2380     		strh	r3, [r4]
 113              	.L7:
 114 0026 04B0     		add	sp, sp, #16
 115              		@ sp needed
 116 0028 10BD     		pop	{r4, pc}
 117              	.L9:
 118 002a C046     		.align	2
 119              	.L8:
ARM GAS  /tmp/ccbwv3yu.s 			page 3


 120 002c 040C0000 		.word	3076
 122              		.section	.text.lr11xx_gnss_read_results,"ax",%progbits
 123              		.align	1
 124              		.global	lr11xx_gnss_read_results
 125              		.syntax unified
 126              		.code	16
 127              		.thumb_func
 129              	lr11xx_gnss_read_results:
 130              		@ args = 0, pretend = 0, frame = 8
 131              		@ frame_needed = 0, uses_anonymous_args = 0
 132 0000 1FB5     		push	{r0, r1, r2, r3, r4, lr}
 133 0002 054C     		ldr	r4, .L11
 134 0004 0B00     		movs	r3, r1
 135 0006 03A9     		add	r1, sp, #12
 136 0008 0C80     		strh	r4, [r1]
 137 000a 0092     		str	r2, [sp]
 138 000c 0222     		movs	r2, #2
 139 000e FFF7FEFF 		bl	lr11xx_hal_read
 140 0012 04B0     		add	sp, sp, #16
 141              		@ sp needed
 142 0014 10BD     		pop	{r4, pc}
 143              	.L12:
 144 0016 C046     		.align	2
 145              	.L11:
 146 0018 040D0000 		.word	3332
 148              		.global	__aeabi_uidiv
 149              		.section	.text.lr11xx_gnss_get_timings,"ax",%progbits
 150              		.align	1
 151              		.global	lr11xx_gnss_get_timings
 152              		.syntax unified
 153              		.code	16
 154              		.thumb_func
 156              	lr11xx_gnss_get_timings:
 157              		@ args = 0, pretend = 0, frame = 16
 158              		@ frame_needed = 0, uses_anonymous_args = 0
 159 0000 F0B5     		push	{r4, r5, r6, r7, lr}
 160 0002 0827     		movs	r7, #8
 161 0004 0500     		movs	r5, r0
 162 0006 87B0     		sub	sp, sp, #28
 163 0008 114B     		ldr	r3, .L14
 164 000a 0C00     		movs	r4, r1
 165 000c 3A00     		movs	r2, r7
 166 000e 03AE     		add	r6, sp, #12
 167 0010 0021     		movs	r1, #0
 168 0012 04A8     		add	r0, sp, #16
 169 0014 3380     		strh	r3, [r6]
 170 0016 FFF7FEFF 		bl	memset
 171 001a 0222     		movs	r2, #2
 172 001c 04AB     		add	r3, sp, #16
 173 001e 3100     		movs	r1, r6
 174 0020 2800     		movs	r0, r5
 175 0022 0097     		str	r7, [sp]
 176 0024 FFF7FEFF 		bl	lr11xx_hal_read
 177 0028 0500     		movs	r5, r0
 178 002a 04A8     		add	r0, sp, #16
 179 002c FFF7FEFF 		bl	lr11xx_gnss_uint8_to_uint32
 180 0030 FA21     		movs	r1, #250
ARM GAS  /tmp/ccbwv3yu.s 			page 4


 181 0032 8900     		lsls	r1, r1, #2
 182 0034 FFF7FEFF 		bl	__aeabi_uidiv
 183 0038 6060     		str	r0, [r4, #4]
 184 003a 05A8     		add	r0, sp, #20
 185 003c FFF7FEFF 		bl	lr11xx_gnss_uint8_to_uint32
 186 0040 FA21     		movs	r1, #250
 187 0042 8900     		lsls	r1, r1, #2
 188 0044 FFF7FEFF 		bl	__aeabi_uidiv
 189 0048 2060     		str	r0, [r4]
 190 004a 2800     		movs	r0, r5
 191 004c 07B0     		add	sp, sp, #28
 192              		@ sp needed
 193 004e F0BD     		pop	{r4, r5, r6, r7, pc}
 194              	.L15:
 195              		.align	2
 196              	.L14:
 197 0050 04190000 		.word	6404
 199              		.section	.text.lr11xx_gnss_almanac_update,"ax",%progbits
 200              		.align	1
 201              		.global	lr11xx_gnss_almanac_update
 202              		.syntax unified
 203              		.code	16
 204              		.thumb_func
 206              	lr11xx_gnss_almanac_update:
 207              		@ args = 0, pretend = 0, frame = 16
 208              		@ frame_needed = 0, uses_anonymous_args = 0
 209 0000 F0B5     		push	{r4, r5, r6, r7, lr}
 210 0002 1600     		movs	r6, r2
 211 0004 1427     		movs	r7, #20
 212 0006 3400     		movs	r4, r6
 213 0008 87B0     		sub	sp, sp, #28
 214 000a 104A     		ldr	r2, .L21
 215 000c 05AB     		add	r3, sp, #20
 216 000e 0290     		str	r0, [sp, #8]
 217 0010 0391     		str	r1, [sp, #12]
 218 0012 1A80     		strh	r2, [r3]
 219              	.L17:
 220 0014 002C     		cmp	r4, #0
 221 0016 02D1     		bne	.L20
 222 0018 2000     		movs	r0, r4
 223              	.L19:
 224 001a 07B0     		add	sp, sp, #28
 225              		@ sp needed
 226 001c F0BD     		pop	{r4, r5, r6, r7, pc}
 227              	.L20:
 228 001e 251C     		adds	r5, r4, #0
 229 0020 192C     		cmp	r4, #25
 230 0022 00D9     		bls	.L18
 231 0024 1925     		movs	r5, #25
 232              	.L18:
 233 0026 331B     		subs	r3, r6, r4
 234 0028 7B43     		muls	r3, r7
 235 002a 039A     		ldr	r2, [sp, #12]
 236 002c ADB2     		uxth	r5, r5
 237 002e D318     		adds	r3, r2, r3
 238 0030 3A00     		movs	r2, r7
 239 0032 6A43     		muls	r2, r5
ARM GAS  /tmp/ccbwv3yu.s 			page 5


 240 0034 92B2     		uxth	r2, r2
 241 0036 0092     		str	r2, [sp]
 242 0038 0298     		ldr	r0, [sp, #8]
 243 003a 0222     		movs	r2, #2
 244 003c 05A9     		add	r1, sp, #20
 245 003e FFF7FEFF 		bl	lr11xx_hal_write
 246 0042 0028     		cmp	r0, #0
 247 0044 E9D1     		bne	.L19
 248 0046 641B     		subs	r4, r4, r5
 249 0048 A4B2     		uxth	r4, r4
 250 004a E3E7     		b	.L17
 251              	.L22:
 252              		.align	2
 253              	.L21:
 254 004c 040E0000 		.word	3588
 256              		.section	.text.lr11xx_gnss_read_almanac,"ax",%progbits
 257              		.align	1
 258              		.global	lr11xx_gnss_read_almanac
 259              		.syntax unified
 260              		.code	16
 261              		.thumb_func
 263              	lr11xx_gnss_read_almanac:
 264              		@ args = 0, pretend = 0, frame = 208
 265              		@ frame_needed = 0, uses_anonymous_args = 0
 266 0000 0023     		movs	r3, #0
 267 0002 F0B5     		push	{r4, r5, r6, r7, lr}
 268 0004 B5B0     		sub	sp, sp, #212
 269 0006 02AA     		add	r2, sp, #8
 270 0008 0C00     		movs	r4, r1
 271 000a 0632     		adds	r2, r2, #6
 272 000c 04A9     		add	r1, sp, #16
 273 000e 0500     		movs	r5, r0
 274 0010 0493     		str	r3, [sp, #16]
 275 0012 1380     		strh	r3, [r2]
 276 0014 FFF7FEFF 		bl	lr11xx_gnss_get_almanac_address_size.constprop.0
 277 0018 0028     		cmp	r0, #0
 278 001a 25D1     		bne	.L24
 279 001c 134B     		ldr	r3, .L30
 280 001e E318     		adds	r3, r4, r3
 281 0020 0193     		str	r3, [sp, #4]
 282              	.L27:
 283 0022 05AF     		add	r7, sp, #20
 284 0024 BC22     		movs	r2, #188
 285 0026 0021     		movs	r1, #0
 286 0028 3800     		movs	r0, r7
 287 002a FFF7FEFF 		bl	memset
 288 002e 049E     		ldr	r6, [sp, #16]
 289 0030 2F23     		movs	r3, #47
 290 0032 3A00     		movs	r2, r7
 291 0034 3100     		movs	r1, r6
 292 0036 2800     		movs	r0, r5
 293 0038 FFF7FEFF 		bl	lr11xx_regmem_read_regmem32
 294 003c 0028     		cmp	r0, #0
 295 003e 13D1     		bne	.L24
 296 0040 2300     		movs	r3, r4
 297 0042 0100     		movs	r1, r0
 298 0044 BC36     		adds	r6, r6, #188
ARM GAS  /tmp/ccbwv3yu.s 			page 6


 299 0046 0496     		str	r6, [sp, #16]
 300              	.L26:
 301 0048 7A58     		ldr	r2, [r7, r1]
 302 004a 0431     		adds	r1, r1, #4
 303 004c 160A     		lsrs	r6, r2, #8
 304 004e 1A70     		strb	r2, [r3]
 305 0050 5E70     		strb	r6, [r3, #1]
 306 0052 160C     		lsrs	r6, r2, #16
 307 0054 120E     		lsrs	r2, r2, #24
 308 0056 9E70     		strb	r6, [r3, #2]
 309 0058 DA70     		strb	r2, [r3, #3]
 310 005a 0433     		adds	r3, r3, #4
 311 005c BC29     		cmp	r1, #188
 312 005e F3D1     		bne	.L26
 313 0060 019B     		ldr	r3, [sp, #4]
 314 0062 BC34     		adds	r4, r4, #188
 315 0064 9C42     		cmp	r4, r3
 316 0066 DCD1     		bne	.L27
 317              	.L24:
 318 0068 35B0     		add	sp, sp, #212
 319              		@ sp needed
 320 006a F0BD     		pop	{r4, r5, r6, r7, pc}
 321              	.L31:
 322              		.align	2
 323              	.L30:
 324 006c 040B0000 		.word	2820
 326              		.section	.text.lr11xx_gnss_get_almanac_age_for_satellite,"ax",%progbits
 327              		.align	1
 328              		.global	lr11xx_gnss_get_almanac_age_for_satellite
 329              		.syntax unified
 330              		.code	16
 331              		.thumb_func
 333              	lr11xx_gnss_get_almanac_age_for_satellite:
 334              		@ args = 0, pretend = 0, frame = 8
 335              		@ frame_needed = 0, uses_anonymous_args = 0
 336 0000 73B5     		push	{r0, r1, r4, r5, r6, lr}
 337 0002 1500     		movs	r5, r2
 338 0004 6A46     		mov	r2, sp
 339 0006 0023     		movs	r3, #0
 340 0008 0E00     		movs	r6, r1
 341 000a 0232     		adds	r2, r2, #2
 342 000c 01A9     		add	r1, sp, #4
 343 000e 0400     		movs	r4, r0
 344 0010 0193     		str	r3, [sp, #4]
 345 0012 1380     		strh	r3, [r2]
 346 0014 FFF7FEFF 		bl	lr11xx_gnss_get_almanac_address_size.constprop.0
 347 0018 0028     		cmp	r0, #0
 348 001a 10D1     		bne	.L33
 349 001c 1621     		movs	r1, #22
 350 001e 6B46     		mov	r3, sp
 351 0020 7143     		muls	r1, r6
 352 0022 1880     		strh	r0, [r3]
 353 0024 019B     		ldr	r3, [sp, #4]
 354 0026 0131     		adds	r1, r1, #1
 355 0028 C918     		adds	r1, r1, r3
 356 002a 6A46     		mov	r2, sp
 357 002c 0223     		movs	r3, #2
ARM GAS  /tmp/ccbwv3yu.s 			page 7


 358 002e 2000     		movs	r0, r4
 359 0030 FFF7FEFF 		bl	lr11xx_regmem_read_mem8
 360 0034 0028     		cmp	r0, #0
 361 0036 02D1     		bne	.L33
 362 0038 6B46     		mov	r3, sp
 363 003a 1B88     		ldrh	r3, [r3]
 364 003c 2B80     		strh	r3, [r5]
 365              	.L33:
 366              		@ sp needed
 367 003e 76BD     		pop	{r1, r2, r4, r5, r6, pc}
 369              		.section	.text.lr11xx_gnss_push_solver_msg,"ax",%progbits
 370              		.align	1
 371              		.global	lr11xx_gnss_push_solver_msg
 372              		.syntax unified
 373              		.code	16
 374              		.thumb_func
 376              	lr11xx_gnss_push_solver_msg:
 377              		@ args = 0, pretend = 0, frame = 8
 378              		@ frame_needed = 0, uses_anonymous_args = 0
 379 0000 1FB5     		push	{r0, r1, r2, r3, r4, lr}
 380 0002 054C     		ldr	r4, .L37
 381 0004 0B00     		movs	r3, r1
 382 0006 03A9     		add	r1, sp, #12
 383 0008 0C80     		strh	r4, [r1]
 384 000a 0092     		str	r2, [sp]
 385 000c 0222     		movs	r2, #2
 386 000e FFF7FEFF 		bl	lr11xx_hal_write
 387 0012 04B0     		add	sp, sp, #16
 388              		@ sp needed
 389 0014 10BD     		pop	{r4, pc}
 390              	.L38:
 391 0016 C046     		.align	2
 392              	.L37:
 393 0018 04140000 		.word	5124
 395              		.section	.text.lr11xx_gnss_set_constellations_to_use,"ax",%progbits
 396              		.align	1
 397              		.global	lr11xx_gnss_set_constellations_to_use
 398              		.syntax unified
 399              		.code	16
 400              		.thumb_func
 402              	lr11xx_gnss_set_constellations_to_use:
 403              		@ args = 0, pretend = 0, frame = 8
 404              		@ frame_needed = 0, uses_anonymous_args = 0
 405 0000 1FB5     		push	{r0, r1, r2, r3, r4, lr}
 406 0002 0423     		movs	r3, #4
 407 0004 6A46     		mov	r2, sp
 408 0006 9381     		strh	r3, [r2, #12]
 409 0008 0023     		movs	r3, #0
 410 000a 9173     		strb	r1, [r2, #14]
 411 000c 0322     		movs	r2, #3
 412 000e 0093     		str	r3, [sp]
 413 0010 03A9     		add	r1, sp, #12
 414 0012 FFF7FEFF 		bl	lr11xx_hal_write
 415 0016 05B0     		add	sp, sp, #20
 416              		@ sp needed
 417 0018 00BD     		pop	{pc}
 419              		.section	.text.lr11xx_gnss_read_used_constellations,"ax",%progbits
ARM GAS  /tmp/ccbwv3yu.s 			page 8


 420              		.align	1
 421              		.global	lr11xx_gnss_read_used_constellations
 422              		.syntax unified
 423              		.code	16
 424              		.thumb_func
 426              	lr11xx_gnss_read_used_constellations:
 427              		@ args = 0, pretend = 0, frame = 8
 428              		@ frame_needed = 0, uses_anonymous_args = 0
 429 0000 1FB5     		push	{r0, r1, r2, r3, r4, lr}
 430 0002 8222     		movs	r2, #130
 431 0004 0B00     		movs	r3, r1
 432 0006 5200     		lsls	r2, r2, #1
 433 0008 03A9     		add	r1, sp, #12
 434 000a 0A80     		strh	r2, [r1]
 435 000c 043A     		subs	r2, r2, #4
 436 000e FF3A     		subs	r2, r2, #255
 437 0010 0092     		str	r2, [sp]
 438 0012 0132     		adds	r2, r2, #1
 439 0014 FFF7FEFF 		bl	lr11xx_hal_read
 440 0018 05B0     		add	sp, sp, #20
 441              		@ sp needed
 442 001a 00BD     		pop	{pc}
 444              		.section	.text.lr11xx_gnss_set_almanac_update,"ax",%progbits
 445              		.align	1
 446              		.global	lr11xx_gnss_set_almanac_update
 447              		.syntax unified
 448              		.code	16
 449              		.thumb_func
 451              	lr11xx_gnss_set_almanac_update:
 452              		@ args = 0, pretend = 0, frame = 8
 453              		@ frame_needed = 0, uses_anonymous_args = 0
 454 0000 1FB5     		push	{r0, r1, r2, r3, r4, lr}
 455 0002 8123     		movs	r3, #129
 456 0004 6A46     		mov	r2, sp
 457 0006 9B00     		lsls	r3, r3, #2
 458 0008 9381     		strh	r3, [r2, #12]
 459 000a 0023     		movs	r3, #0
 460 000c 9173     		strb	r1, [r2, #14]
 461 000e 0322     		movs	r2, #3
 462 0010 0093     		str	r3, [sp]
 463 0012 03A9     		add	r1, sp, #12
 464 0014 FFF7FEFF 		bl	lr11xx_hal_write
 465 0018 05B0     		add	sp, sp, #20
 466              		@ sp needed
 467 001a 00BD     		pop	{pc}
 469              		.section	.text.lr11xx_gnss_read_almanac_update,"ax",%progbits
 470              		.align	1
 471              		.global	lr11xx_gnss_read_almanac_update
 472              		.syntax unified
 473              		.code	16
 474              		.thumb_func
 476              	lr11xx_gnss_read_almanac_update:
 477              		@ args = 0, pretend = 0, frame = 8
 478              		@ frame_needed = 0, uses_anonymous_args = 0
 479 0000 1FB5     		push	{r0, r1, r2, r3, r4, lr}
 480 0002 C122     		movs	r2, #193
 481 0004 0B00     		movs	r3, r1
ARM GAS  /tmp/ccbwv3yu.s 			page 9


 482 0006 9200     		lsls	r2, r2, #2
 483 0008 03A9     		add	r1, sp, #12
 484 000a 0A80     		strh	r2, [r1]
 485 000c 0122     		movs	r2, #1
 486 000e 0092     		str	r2, [sp]
 487 0010 9218     		adds	r2, r2, r2
 488 0012 FFF7FEFF 		bl	lr11xx_hal_read
 489 0016 05B0     		add	sp, sp, #20
 490              		@ sp needed
 491 0018 00BD     		pop	{pc}
 493              		.section	.text.lr11xx_gnss_read_firmware_version,"ax",%progbits
 494              		.align	1
 495              		.global	lr11xx_gnss_read_firmware_version
 496              		.syntax unified
 497              		.code	16
 498              		.thumb_func
 500              	lr11xx_gnss_read_firmware_version:
 501              		@ args = 0, pretend = 0, frame = 8
 502              		@ frame_needed = 0, uses_anonymous_args = 0
 503 0000 30B5     		push	{r4, r5, lr}
 504 0002 094B     		ldr	r3, .L44
 505 0004 85B0     		sub	sp, sp, #20
 506 0006 0C00     		movs	r4, r1
 507 0008 02A9     		add	r1, sp, #8
 508 000a 0B80     		strh	r3, [r1]
 509 000c 0222     		movs	r2, #2
 510 000e 0023     		movs	r3, #0
 511 0010 03AD     		add	r5, sp, #12
 512 0012 2B80     		strh	r3, [r5]
 513 0014 2B00     		movs	r3, r5
 514 0016 0092     		str	r2, [sp]
 515 0018 FFF7FEFF 		bl	lr11xx_hal_read
 516 001c 2B78     		ldrb	r3, [r5]
 517 001e 2370     		strb	r3, [r4]
 518 0020 6B78     		ldrb	r3, [r5, #1]
 519 0022 6370     		strb	r3, [r4, #1]
 520 0024 05B0     		add	sp, sp, #20
 521              		@ sp needed
 522 0026 30BD     		pop	{r4, r5, pc}
 523              	.L45:
 524              		.align	2
 525              	.L44:
 526 0028 04060000 		.word	1540
 528              		.section	.text.lr11xx_gnss_read_supported_constellations,"ax",%progbits
 529              		.align	1
 530              		.global	lr11xx_gnss_read_supported_constellations
 531              		.syntax unified
 532              		.code	16
 533              		.thumb_func
 535              	lr11xx_gnss_read_supported_constellations:
 536              		@ args = 0, pretend = 0, frame = 8
 537              		@ frame_needed = 0, uses_anonymous_args = 0
 538 0000 1FB5     		push	{r0, r1, r2, r3, r4, lr}
 539 0002 054A     		ldr	r2, .L47
 540 0004 0B00     		movs	r3, r1
 541 0006 03A9     		add	r1, sp, #12
 542 0008 0A80     		strh	r2, [r1]
ARM GAS  /tmp/ccbwv3yu.s 			page 10


 543 000a 0122     		movs	r2, #1
 544 000c 0092     		str	r2, [sp]
 545 000e 9218     		adds	r2, r2, r2
 546 0010 FFF7FEFF 		bl	lr11xx_hal_read
 547 0014 05B0     		add	sp, sp, #20
 548              		@ sp needed
 549 0016 00BD     		pop	{pc}
 550              	.L48:
 551              		.align	2
 552              	.L47:
 553 0018 04070000 		.word	1796
 555              		.section	.text.lr11xx_gnss_set_scan_mode,"ax",%progbits
 556              		.align	1
 557              		.global	lr11xx_gnss_set_scan_mode
 558              		.syntax unified
 559              		.code	16
 560              		.thumb_func
 562              	lr11xx_gnss_set_scan_mode:
 563              		@ args = 0, pretend = 0, frame = 8
 564              		@ frame_needed = 0, uses_anonymous_args = 0
 565 0000 1FB5     		push	{r0, r1, r2, r3, r4, lr}
 566 0002 6A46     		mov	r2, sp
 567 0004 054B     		ldr	r3, .L50
 568 0006 9173     		strb	r1, [r2, #14]
 569 0008 9381     		strh	r3, [r2, #12]
 570 000a 0023     		movs	r3, #0
 571 000c 0322     		movs	r2, #3
 572 000e 0093     		str	r3, [sp]
 573 0010 03A9     		add	r1, sp, #12
 574 0012 FFF7FEFF 		bl	lr11xx_hal_write
 575 0016 05B0     		add	sp, sp, #20
 576              		@ sp needed
 577 0018 00BD     		pop	{pc}
 578              	.L51:
 579 001a C046     		.align	2
 580              	.L50:
 581 001c 04080000 		.word	2052
 583              		.section	.text.lr11xx_gnss_scan_autonomous,"ax",%progbits
 584              		.align	1
 585              		.global	lr11xx_gnss_scan_autonomous
 586              		.syntax unified
 587              		.code	16
 588              		.thumb_func
 590              	lr11xx_gnss_scan_autonomous:
 591              		@ args = 4, pretend = 0, frame = 16
 592              		@ frame_needed = 0, uses_anonymous_args = 0
 593 0000 70B5     		push	{r4, r5, r6, lr}
 594 0002 86B0     		sub	sp, sp, #24
 595 0004 0C00     		movs	r4, r1
 596 0006 0AA9     		add	r1, sp, #40
 597 0008 0D78     		ldrb	r5, [r1]
 598 000a 03A9     		add	r1, sp, #12
 599 000c CB71     		strb	r3, [r1, #7]
 600 000e 0023     		movs	r3, #0
 601 0010 074E     		ldr	r6, .L53
 602 0012 8A71     		strb	r2, [r1, #6]
 603 0014 0E80     		strh	r6, [r1]
ARM GAS  /tmp/ccbwv3yu.s 			page 11


 604 0016 260E     		lsrs	r6, r4, #24
 605 0018 8E70     		strb	r6, [r1, #2]
 606 001a 260C     		lsrs	r6, r4, #16
 607 001c 64BA     		rev16	r4, r4
 608 001e CE70     		strb	r6, [r1, #3]
 609 0020 8C80     		strh	r4, [r1, #4]
 610 0022 0D72     		strb	r5, [r1, #8]
 611 0024 0922     		movs	r2, #9
 612 0026 0093     		str	r3, [sp]
 613 0028 FFF7FEFF 		bl	lr11xx_hal_write
 614 002c 06B0     		add	sp, sp, #24
 615              		@ sp needed
 616 002e 70BD     		pop	{r4, r5, r6, pc}
 617              	.L54:
 618              		.align	2
 619              	.L53:
 620 0030 04090000 		.word	2308
 622              		.section	.text.lr11xx_gnss_scan_assisted,"ax",%progbits
 623              		.align	1
 624              		.global	lr11xx_gnss_scan_assisted
 625              		.syntax unified
 626              		.code	16
 627              		.thumb_func
 629              	lr11xx_gnss_scan_assisted:
 630              		@ args = 4, pretend = 0, frame = 16
 631              		@ frame_needed = 0, uses_anonymous_args = 0
 632 0000 70B5     		push	{r4, r5, r6, lr}
 633 0002 86B0     		sub	sp, sp, #24
 634 0004 0C00     		movs	r4, r1
 635 0006 0AA9     		add	r1, sp, #40
 636 0008 0D78     		ldrb	r5, [r1]
 637 000a 03A9     		add	r1, sp, #12
 638 000c CB71     		strb	r3, [r1, #7]
 639 000e 0023     		movs	r3, #0
 640 0010 074E     		ldr	r6, .L56
 641 0012 8A71     		strb	r2, [r1, #6]
 642 0014 0E80     		strh	r6, [r1]
 643 0016 260E     		lsrs	r6, r4, #24
 644 0018 8E70     		strb	r6, [r1, #2]
 645 001a 260C     		lsrs	r6, r4, #16
 646 001c 64BA     		rev16	r4, r4
 647 001e CE70     		strb	r6, [r1, #3]
 648 0020 8C80     		strh	r4, [r1, #4]
 649 0022 0D72     		strb	r5, [r1, #8]
 650 0024 0922     		movs	r2, #9
 651 0026 0093     		str	r3, [sp]
 652 0028 FFF7FEFF 		bl	lr11xx_hal_write
 653 002c 06B0     		add	sp, sp, #24
 654              		@ sp needed
 655 002e 70BD     		pop	{r4, r5, r6, pc}
 656              	.L57:
 657              		.align	2
 658              	.L56:
 659 0030 040A0000 		.word	2564
 661              		.global	__aeabi_fmul
 662              		.global	__aeabi_f2iz
 663              		.section	.text.lr11xx_gnss_set_assistance_position,"ax",%progbits
ARM GAS  /tmp/ccbwv3yu.s 			page 12


 664              		.align	1
 665              		.global	lr11xx_gnss_set_assistance_position
 666              		.syntax unified
 667              		.code	16
 668              		.thumb_func
 670              	lr11xx_gnss_set_assistance_position:
 671              		@ args = 0, pretend = 0, frame = 8
 672              		@ frame_needed = 0, uses_anonymous_args = 0
 673 0000 7FB5     		push	{r0, r1, r2, r3, r4, r5, r6, lr}
 674 0002 0D00     		movs	r5, r1
 675 0004 0600     		movs	r6, r0
 676 0006 0E49     		ldr	r1, .L59
 677 0008 2868     		ldr	r0, [r5]
 678 000a FFF7FEFF 		bl	__aeabi_fmul
 679 000e FFF7FEFF 		bl	__aeabi_f2iz
 680 0012 0C49     		ldr	r1, .L59+4
 681 0014 04B2     		sxth	r4, r0
 682 0016 6868     		ldr	r0, [r5, #4]
 683 0018 FFF7FEFF 		bl	__aeabi_fmul
 684 001c FFF7FEFF 		bl	__aeabi_f2iz
 685 0020 094B     		ldr	r3, .L59+8
 686 0022 02A9     		add	r1, sp, #8
 687 0024 0B80     		strh	r3, [r1]
 688 0026 0023     		movs	r3, #0
 689 0028 64BA     		rev16	r4, r4
 690 002a 40BA     		rev16	r0, r0
 691 002c 8880     		strh	r0, [r1, #4]
 692 002e 4C80     		strh	r4, [r1, #2]
 693 0030 0622     		movs	r2, #6
 694 0032 3000     		movs	r0, r6
 695 0034 0093     		str	r3, [sp]
 696 0036 FFF7FEFF 		bl	lr11xx_hal_write
 697 003a 04B0     		add	sp, sp, #16
 698              		@ sp needed
 699 003c 70BD     		pop	{r4, r5, r6, pc}
 700              	.L60:
 701 003e C046     		.align	2
 702              	.L59:
 703 0040 610BB641 		.word	1102449505
 704 0044 610B3641 		.word	1094060897
 705 0048 04100000 		.word	4100
 707              		.global	__aeabi_i2f
 708              		.section	.text.lr11xx_gnss_read_assistance_position,"ax",%progbits
 709              		.align	1
 710              		.global	lr11xx_gnss_read_assistance_position
 711              		.syntax unified
 712              		.code	16
 713              		.thumb_func
 715              	lr11xx_gnss_read_assistance_position:
 716              		@ args = 0, pretend = 0, frame = 8
 717              		@ frame_needed = 0, uses_anonymous_args = 0
 718 0000 0023     		movs	r3, #0
 719 0002 30B5     		push	{r4, r5, lr}
 720 0004 85B0     		sub	sp, sp, #20
 721 0006 0393     		str	r3, [sp, #12]
 722 0008 0F4B     		ldr	r3, .L62
 723 000a 0C00     		movs	r4, r1
ARM GAS  /tmp/ccbwv3yu.s 			page 13


 724 000c 02A9     		add	r1, sp, #8
 725 000e 0B80     		strh	r3, [r1]
 726 0010 0423     		movs	r3, #4
 727 0012 0222     		movs	r2, #2
 728 0014 0093     		str	r3, [sp]
 729 0016 03AB     		add	r3, sp, #12
 730 0018 FFF7FEFF 		bl	lr11xx_hal_read
 731 001c 6B46     		mov	r3, sp
 732 001e 0500     		movs	r5, r0
 733 0020 9889     		ldrh	r0, [r3, #12]
 734 0022 C0BA     		revsh	r0, r0
 735 0024 FFF7FEFF 		bl	__aeabi_i2f
 736 0028 0849     		ldr	r1, .L62+4
 737 002a FFF7FEFF 		bl	__aeabi_fmul
 738 002e 6B46     		mov	r3, sp
 739 0030 2060     		str	r0, [r4]
 740 0032 D889     		ldrh	r0, [r3, #14]
 741 0034 C0BA     		revsh	r0, r0
 742 0036 FFF7FEFF 		bl	__aeabi_i2f
 743 003a 0549     		ldr	r1, .L62+8
 744 003c FFF7FEFF 		bl	__aeabi_fmul
 745 0040 6060     		str	r0, [r4, #4]
 746 0042 2800     		movs	r0, r5
 747 0044 05B0     		add	sp, sp, #20
 748              		@ sp needed
 749 0046 30BD     		pop	{r4, r5, pc}
 750              	.L63:
 751              		.align	2
 752              	.L62:
 753 0048 04110000 		.word	4356
 754 004c 0000343D 		.word	1026818048
 755 0050 0000B43D 		.word	1035206656
 757              		.section	.text.lr11xx_gnss_push_dmc_msg,"ax",%progbits
 758              		.align	1
 759              		.global	lr11xx_gnss_push_dmc_msg
 760              		.syntax unified
 761              		.code	16
 762              		.thumb_func
 764              	lr11xx_gnss_push_dmc_msg:
 765              		@ args = 0, pretend = 0, frame = 8
 766              		@ frame_needed = 0, uses_anonymous_args = 0
 767 0000 1FB5     		push	{r0, r1, r2, r3, r4, lr}
 768 0002 054C     		ldr	r4, .L65
 769 0004 0B00     		movs	r3, r1
 770 0006 03A9     		add	r1, sp, #12
 771 0008 0C80     		strh	r4, [r1]
 772 000a 0092     		str	r2, [sp]
 773 000c 0222     		movs	r2, #2
 774 000e FFF7FEFF 		bl	lr11xx_hal_write
 775 0012 04B0     		add	sp, sp, #16
 776              		@ sp needed
 777 0014 10BD     		pop	{r4, pc}
 778              	.L66:
 779 0016 C046     		.align	2
 780              	.L65:
 781 0018 04150000 		.word	5380
 783              		.section	.text.lr11xx_gnss_get_context_status,"ax",%progbits
ARM GAS  /tmp/ccbwv3yu.s 			page 14


 784              		.align	1
 785              		.global	lr11xx_gnss_get_context_status
 786              		.syntax unified
 787              		.code	16
 788              		.thumb_func
 790              	lr11xx_gnss_get_context_status:
 791              		@ args = 0, pretend = 0, frame = 8
 792              		@ frame_needed = 0, uses_anonymous_args = 0
 793 0000 1FB5     		push	{r0, r1, r2, r3, r4, lr}
 794 0002 054A     		ldr	r2, .L68
 795 0004 0B00     		movs	r3, r1
 796 0006 03A9     		add	r1, sp, #12
 797 0008 0A80     		strh	r2, [r1]
 798 000a 0922     		movs	r2, #9
 799 000c 0092     		str	r2, [sp]
 800 000e 073A     		subs	r2, r2, #7
 801 0010 FFF7FEFF 		bl	lr11xx_hal_read
 802 0014 05B0     		add	sp, sp, #20
 803              		@ sp needed
 804 0016 00BD     		pop	{pc}
 805              	.L69:
 806              		.align	2
 807              	.L68:
 808 0018 04160000 		.word	5636
 810              		.section	.text.lr11xx_gnss_get_nb_detected_satellites,"ax",%progbits
 811              		.align	1
 812              		.global	lr11xx_gnss_get_nb_detected_satellites
 813              		.syntax unified
 814              		.code	16
 815              		.thumb_func
 817              	lr11xx_gnss_get_nb_detected_satellites:
 818              		@ args = 0, pretend = 0, frame = 8
 819              		@ frame_needed = 0, uses_anonymous_args = 0
 820 0000 1FB5     		push	{r0, r1, r2, r3, r4, lr}
 821 0002 054A     		ldr	r2, .L71
 822 0004 0B00     		movs	r3, r1
 823 0006 03A9     		add	r1, sp, #12
 824 0008 0A80     		strh	r2, [r1]
 825 000a 0122     		movs	r2, #1
 826 000c 0092     		str	r2, [sp]
 827 000e 9218     		adds	r2, r2, r2
 828 0010 FFF7FEFF 		bl	lr11xx_hal_read
 829 0014 05B0     		add	sp, sp, #20
 830              		@ sp needed
 831 0016 00BD     		pop	{pc}
 832              	.L72:
 833              		.align	2
 834              	.L71:
 835 0018 04170000 		.word	5892
 837              		.section	.text.lr11xx_gnss_get_detected_satellites,"ax",%progbits
 838              		.align	1
 839              		.global	lr11xx_gnss_get_detected_satellites
 840              		.syntax unified
 841              		.code	16
 842              		.thumb_func
 844              	lr11xx_gnss_get_detected_satellites:
 845              		@ args = 0, pretend = 0, frame = 136
ARM GAS  /tmp/ccbwv3yu.s 			page 15


 846              		@ frame_needed = 0, uses_anonymous_args = 0
 847 0000 F0B5     		push	{r4, r5, r6, r7, lr}
 848 0002 0700     		movs	r7, r0
 849 0004 1400     		movs	r4, r2
 850 0006 A5B0     		sub	sp, sp, #148
 851 0008 0E1C     		adds	r6, r1, #0
 852 000a 2029     		cmp	r1, #32
 853 000c 00D9     		bls	.L74
 854 000e 2026     		movs	r6, #32
 855              	.L74:
 856 0010 8022     		movs	r2, #128
 857 0012 0021     		movs	r1, #0
 858 0014 04A8     		add	r0, sp, #16
 859 0016 FFF7FEFF 		bl	memset
 860 001a F6B2     		uxtb	r6, r6
 861 001c 0F4B     		ldr	r3, .L79
 862 001e 03A9     		add	r1, sp, #12
 863 0020 B500     		lsls	r5, r6, #2
 864 0022 0B80     		strh	r3, [r1]
 865 0024 0222     		movs	r2, #2
 866 0026 3800     		movs	r0, r7
 867 0028 0095     		str	r5, [sp]
 868 002a 04AB     		add	r3, sp, #16
 869 002c FFF7FEFF 		bl	lr11xx_hal_read
 870 0030 0028     		cmp	r0, #0
 871 0032 04D1     		bne	.L78
 872 0034 2200     		movs	r2, r4
 873 0036 04AB     		add	r3, sp, #16
 874 0038 6519     		adds	r5, r4, r5
 875              	.L76:
 876 003a AA42     		cmp	r2, r5
 877 003c 01D1     		bne	.L77
 878              	.L78:
 879 003e 25B0     		add	sp, sp, #148
 880              		@ sp needed
 881 0040 F0BD     		pop	{r4, r5, r6, r7, pc}
 882              	.L77:
 883 0042 1978     		ldrb	r1, [r3]
 884 0044 9C78     		ldrb	r4, [r3, #2]
 885 0046 1170     		strb	r1, [r2]
 886 0048 5978     		ldrb	r1, [r3, #1]
 887 004a 2402     		lsls	r4, r4, #8
 888 004c 1F31     		adds	r1, r1, #31
 889 004e 5170     		strb	r1, [r2, #1]
 890 0050 D978     		ldrb	r1, [r3, #3]
 891 0052 0433     		adds	r3, r3, #4
 892 0054 0919     		adds	r1, r1, r4
 893 0056 5180     		strh	r1, [r2, #2]
 894 0058 0432     		adds	r2, r2, #4
 895 005a EEE7     		b	.L76
 896              	.L80:
 897              		.align	2
 898              	.L79:
 899 005c 04180000 		.word	6148
 901              		.section	.text.lr11xx_gnss_parse_context_status_buffer,"ax",%progbits
 902              		.align	1
 903              		.global	lr11xx_gnss_parse_context_status_buffer
ARM GAS  /tmp/ccbwv3yu.s 			page 16


 904              		.syntax unified
 905              		.code	16
 906              		.thumb_func
 908              	lr11xx_gnss_parse_context_status_buffer:
 909              		@ args = 0, pretend = 0, frame = 0
 910              		@ frame_needed = 0, uses_anonymous_args = 0
 911 0000 10B5     		push	{r4, lr}
 912 0002 0478     		ldrb	r4, [r0]
 913 0004 0300     		movs	r3, r0
 914 0006 0320     		movs	r0, #3
 915 0008 022C     		cmp	r4, #2
 916 000a 23D1     		bne	.L82
 917 000c 5A78     		ldrb	r2, [r3, #1]
 918 000e 182A     		cmp	r2, #24
 919 0010 20D1     		bne	.L82
 920 0012 9A78     		ldrb	r2, [r3, #2]
 921 0014 0A70     		strb	r2, [r1]
 922 0016 1A79     		ldrb	r2, [r3, #4]
 923 0018 D878     		ldrb	r0, [r3, #3]
 924 001a 1202     		lsls	r2, r2, #8
 925 001c 0243     		orrs	r2, r0
 926 001e 5879     		ldrb	r0, [r3, #5]
 927 0020 0004     		lsls	r0, r0, #16
 928 0022 1043     		orrs	r0, r2
 929 0024 9A79     		ldrb	r2, [r3, #6]
 930 0026 1206     		lsls	r2, r2, #24
 931 0028 0243     		orrs	r2, r0
 932 002a 0120     		movs	r0, #1
 933 002c 4A60     		str	r2, [r1, #4]
 934 002e DA79     		ldrb	r2, [r3, #7]
 935 0030 1209     		lsrs	r2, r2, #4
 936 0032 0A72     		strb	r2, [r1, #8]
 937 0034 DA79     		ldrb	r2, [r3, #7]
 938 0036 5208     		lsrs	r2, r2, #1
 939 0038 0240     		ands	r2, r0
 940 003a 4A72     		strb	r2, [r1, #9]
 941 003c DA79     		ldrb	r2, [r3, #7]
 942 003e 9208     		lsrs	r2, r2, #2
 943 0040 0240     		ands	r2, r0
 944 0042 8A72     		strb	r2, [r1, #10]
 945 0044 DA79     		ldrb	r2, [r3, #7]
 946 0046 1B7A     		ldrb	r3, [r3, #8]
 947 0048 8240     		lsls	r2, r2, r0
 948 004a 0020     		movs	r0, #0
 949 004c 2240     		ands	r2, r4
 950 004e DB09     		lsrs	r3, r3, #7
 951 0050 D318     		adds	r3, r2, r3
 952 0052 CB72     		strb	r3, [r1, #11]
 953              	.L82:
 954              		@ sp needed
 955 0054 10BD     		pop	{r4, pc}
 957              		.section	.text.lr11xx_gnss_get_result_destination,"ax",%progbits
 958              		.align	1
 959              		.global	lr11xx_gnss_get_result_destination
 960              		.syntax unified
 961              		.code	16
 962              		.thumb_func
ARM GAS  /tmp/ccbwv3yu.s 			page 17


 964              	lr11xx_gnss_get_result_destination:
 965              		@ args = 0, pretend = 0, frame = 0
 966              		@ frame_needed = 0, uses_anonymous_args = 0
 967              		@ link register save eliminated.
 968 0000 0300     		movs	r3, r0
 969 0002 0320     		movs	r0, #3
 970 0004 0029     		cmp	r1, #0
 971 0006 08D0     		beq	.L86
 972 0008 1B78     		ldrb	r3, [r3]
 973 000a 012B     		cmp	r3, #1
 974 000c 03D0     		beq	.L87
 975 000e 022B     		cmp	r3, #2
 976 0010 01D0     		beq	.L87
 977 0012 002B     		cmp	r3, #0
 978 0014 01D1     		bne	.L86
 979              	.L87:
 980 0016 0020     		movs	r0, #0
 981 0018 1370     		strb	r3, [r2]
 982              	.L86:
 983              		@ sp needed
 984 001a 7047     		bx	lr
 986              		.section	.text.lr11xx_gnss_compute_almanac_age,"ax",%progbits
 987              		.align	1
 988              		.global	lr11xx_gnss_compute_almanac_age
 989              		.syntax unified
 990              		.code	16
 991              		.thumb_func
 993              	lr11xx_gnss_compute_almanac_age:
 994              		@ args = 0, pretend = 0, frame = 0
 995              		@ frame_needed = 0, uses_anonymous_args = 0
 996              		@ link register save eliminated.
 997 0000 521A     		subs	r2, r2, r1
 998 0002 101A     		subs	r0, r2, r0
 999 0004 80B2     		uxth	r0, r0
 1000              		@ sp needed
 1001 0006 7047     		bx	lr
 1003              		.section	.text.lr11xx_gnss_get_consumption,"ax",%progbits
 1004              		.align	1
 1005              		.global	lr11xx_gnss_get_consumption
 1006              		.syntax unified
 1007              		.code	16
 1008              		.thumb_func
 1010              	lr11xx_gnss_get_consumption:
 1011              		@ args = 0, pretend = 0, frame = 8
 1012              		@ frame_needed = 0, uses_anonymous_args = 0
 1013 0000 37B5     		push	{r0, r1, r2, r4, r5, lr}
 1014 0002 0128     		cmp	r0, #1
 1015 0004 0CD1     		bne	.L98
 1016 0006 0E4D     		ldr	r5, .L100
 1017 0008 0E4C     		ldr	r4, .L100+4
 1018 000a 0F48     		ldr	r0, .L100+8
 1019              	.L94:
 1020 000c 5043     		muls	r0, r2
 1021 000e 022B     		cmp	r3, #2
 1022 0010 0AD0     		beq	.L95
 1023 0012 032B     		cmp	r3, #3
 1024 0014 10D0     		beq	.L96
ARM GAS  /tmp/ccbwv3yu.s 			page 18


 1025 0016 012B     		cmp	r3, #1
 1026 0018 08D1     		bne	.L97
 1027              	.L99:
 1028 001a 4C43     		muls	r4, r1
 1029 001c 0019     		adds	r0, r0, r4
 1030 001e 05E0     		b	.L97
 1031              	.L98:
 1032 0020 0A4D     		ldr	r5, .L100+12
 1033 0022 0B4C     		ldr	r4, .L100+16
 1034 0024 0B48     		ldr	r0, .L100+20
 1035 0026 F1E7     		b	.L94
 1036              	.L95:
 1037 0028 4D43     		muls	r5, r1
 1038 002a 4019     		adds	r0, r0, r5
 1039              	.L97:
 1040 002c 0A4B     		ldr	r3, .L100+24
 1041 002e 8918     		adds	r1, r1, r2
 1042 0030 591A     		subs	r1, r3, r1
 1043 0032 FFF7FEFF 		bl	__aeabi_uidiv
 1044              		@ sp needed
 1045 0036 3EBD     		pop	{r1, r2, r3, r4, r5, pc}
 1046              	.L96:
 1047 0038 6419     		adds	r4, r4, r5
 1048 003a 6410     		asrs	r4, r4, #1
 1049 003c EDE7     		b	.L99
 1050              	.L101:
 1051 003e C046     		.align	2
 1052              	.L100:
 1053 0040 74400000 		.word	16500
 1054 0044 983A0000 		.word	15000
 1055 0048 1C0C0000 		.word	3100
 1056 004c A46A0000 		.word	27300
 1057 0050 B45F0000 		.word	24500
 1058 0054 88130000 		.word	5000
 1059 0058 80EE3600 		.word	3600000
 1061              		.ident	"GCC: (Arch Repository) 13.2.0"
ARM GAS  /tmp/ccbwv3yu.s 			page 19

