ARM GAS  /tmp/cc2Yojzh.s 			page 1


   1              		.cpu cortex-m0
   2              		.arch armv6s-m
   3              		.fpu softvfp
   4              		.eabi_attribute 23, 1
   5              		.eabi_attribute 24, 1
   6              		.eabi_attribute 25, 1
   7              		.eabi_attribute 26, 1
   8              		.eabi_attribute 30, 4
   9              		.eabi_attribute 34, 0
  10              		.eabi_attribute 18, 4
  11              		.file	"lr1_stack_mac_layer.c"
  12              		.text
  13              		.section	.text.ral_compute_lora_ldro,"ax",%progbits
  14              		.align	1
  15              		.syntax unified
  16              		.code	16
  17              		.thumb_func
  19              	ral_compute_lora_ldro:
  20              		@ args = 0, pretend = 0, frame = 0
  21              		@ frame_needed = 0, uses_anonymous_args = 0
  22 0000 0300     		movs	r3, r0
  23 0002 00B5     		push	{lr}
  24 0004 0800     		movs	r0, r1
  25 0006 0C29     		cmp	r1, #12
  26 0008 08D8     		bhi	.L2
  27 000a FFF7FEFF 		bl	__gnu_thumb1_case_uqi
  28              	.L4:
  29 000e 20       		.byte	(.L9-.L4)/2
  30 000f 20       		.byte	(.L9-.L4)/2
  31 0010 20       		.byte	(.L9-.L4)/2
  32 0011 20       		.byte	(.L9-.L4)/2
  33 0012 20       		.byte	(.L9-.L4)/2
  34 0013 1B       		.byte	(.L7-.L4)/2
  35 0014 16       		.byte	(.L6-.L4)/2
  36 0015 0E       		.byte	(.L3-.L4)/2
  37 0016 0E       		.byte	(.L3-.L4)/2
  38 0017 09       		.byte	(.L5-.L4)/2
  39 0018 0E       		.byte	(.L3-.L4)/2
  40 0019 07       		.byte	(.L2-.L4)/2
  41 001a 0E       		.byte	(.L3-.L4)/2
  42 001b 00       		.p2align 1
  43              	.L2:
  44 001c 0020     		movs	r0, #0
  45              	.L8:
  46              		@ sp needed
  47 001e 00BD     		pop	{pc}
  48              	.L5:
  49 0020 0C3B     		subs	r3, r3, #12
  50 0022 5A42     		rsbs	r2, r3, #0
  51 0024 5341     		adcs	r3, r3, r2
  52 0026 D8B2     		uxtb	r0, r3
  53 0028 F9E7     		b	.L8
  54              	.L3:
  55 002a 0020     		movs	r0, #0
  56 002c 0122     		movs	r2, #1
  57 002e 0B3B     		subs	r3, r3, #11
  58 0030 DBB2     		uxtb	r3, r3
ARM GAS  /tmp/cc2Yojzh.s 			page 2


  59              	.L10:
  60 0032 9A42     		cmp	r2, r3
  61 0034 4041     		adcs	r0, r0, r0
  62 0036 C0B2     		uxtb	r0, r0
  63 0038 F1E7     		b	.L8
  64              	.L6:
  65 003a 0A3B     		subs	r3, r3, #10
  66 003c 0020     		movs	r0, #0
  67 003e 0222     		movs	r2, #2
  68 0040 DBB2     		uxtb	r3, r3
  69 0042 F6E7     		b	.L10
  70              	.L7:
  71 0044 093B     		subs	r3, r3, #9
  72 0046 0020     		movs	r0, #0
  73 0048 0322     		movs	r2, #3
  74 004a DBB2     		uxtb	r3, r3
  75 004c F1E7     		b	.L10
  76              	.L9:
  77 004e 0120     		movs	r0, #1
  78 0050 E5E7     		b	.L8
  80              		.section	.text.ral_set_dio_irq_params,"ax",%progbits
  81              		.align	1
  82              		.syntax unified
  83              		.code	16
  84              		.thumb_func
  86              	ral_set_dio_irq_params:
  87              		@ args = 0, pretend = 0, frame = 0
  88              		@ frame_needed = 0, uses_anonymous_args = 0
  89 0000 10B5     		push	{r4, lr}
  90 0002 036E     		ldr	r3, [r0, #96]
  91 0004 0068     		ldr	r0, [r0]
  92 0006 9847     		blx	r3
  93              		@ sp needed
  94 0008 10BD     		pop	{r4, pc}
  96              		.section	.text.lr1_stack_mac_tx_lora_launch_callback_for_rp,"ax",%progbits
  97              		.align	1
  98              		.global	lr1_stack_mac_tx_lora_launch_callback_for_rp
  99              		.syntax unified
 100              		.code	16
 101              		.thumb_func
 103              	lr1_stack_mac_tx_lora_launch_callback_for_rp:
 104              		@ args = 0, pretend = 0, frame = 0
 105              		@ frame_needed = 0, uses_anonymous_args = 0
 106 0000 70B5     		push	{r4, r5, r6, lr}
 107 0002 9C25     		movs	r5, #156
 108 0004 294B     		ldr	r3, .L31
 109 0006 8421     		movs	r1, #132
 110 0008 2D01     		lsls	r5, r5, #4
 111 000a C65C     		ldrb	r6, [r0, r3]
 112 000c 0400     		movs	r4, r0
 113 000e 4059     		ldr	r0, [r0, r5]
 114 0010 7143     		muls	r1, r6
 115 0012 0300     		movs	r3, r0
 116 0014 2031     		adds	r1, r1, #32
 117 0016 F433     		adds	r3, r3, #244
 118 0018 1B68     		ldr	r3, [r3]
 119 001a 6118     		adds	r1, r4, r1
ARM GAS  /tmp/cc2Yojzh.s 			page 3


 120 001c 9847     		blx	r3
 121 001e 0028     		cmp	r0, #0
 122 0020 03D0     		beq	.L13
 123 0022 EE21     		movs	r1, #238
 124 0024 2248     		ldr	r0, .L31+4
 125 0026 FFF7FEFF 		bl	smtc_modem_hal_assert_fail
 126              	.L13:
 127 002a 0221     		movs	r1, #2
 128 002c 6059     		ldr	r0, [r4, r5]
 129 002e FFF7FEFF 		bl	ral_set_dio_irq_params
 130 0032 0028     		cmp	r0, #0
 131 0034 03D0     		beq	.L14
 132 0036 EF21     		movs	r1, #239
 133 0038 1D48     		ldr	r0, .L31+4
 134 003a FFF7FEFF 		bl	smtc_modem_hal_assert_fail
 135              	.L14:
 136 003e 9C23     		movs	r3, #156
 137 0040 1B01     		lsls	r3, r3, #4
 138 0042 E058     		ldr	r0, [r4, r3]
 139 0044 E523     		movs	r3, #229
 140 0046 9B00     		lsls	r3, r3, #2
 141 0048 F318     		adds	r3, r6, r3
 142 004a 5B00     		lsls	r3, r3, #1
 143 004c 1A5B     		ldrh	r2, [r3, r4]
 144 004e 3300     		movs	r3, r6
 145 0050 BF33     		adds	r3, r3, #191
 146 0052 FF33     		adds	r3, r3, #255
 147 0054 9B00     		lsls	r3, r3, #2
 148 0056 E318     		adds	r3, r4, r3
 149 0058 C56C     		ldr	r5, [r0, #76]
 150 005a 5968     		ldr	r1, [r3, #4]
 151 005c 0068     		ldr	r0, [r0]
 152 005e A847     		blx	r5
 153 0060 0028     		cmp	r0, #0
 154 0062 03D0     		beq	.L15
 155 0064 F021     		movs	r1, #240
 156 0066 1248     		ldr	r0, .L31+4
 157 0068 FFF7FEFF 		bl	smtc_modem_hal_assert_fail
 158              	.L15:
 159 006c 1C25     		movs	r5, #28
 160 006e 7543     		muls	r5, r6
 161 0070 104B     		ldr	r3, .L31+8
 162 0072 6519     		adds	r5, r4, r5
 163 0074 ED18     		adds	r5, r5, r3
 164              	.L16:
 165 0076 2E68     		ldr	r6, [r5]
 166 0078 FFF7FEFF 		bl	smtc_modem_hal_get_time_in_ms
 167 007c 361A     		subs	r6, r6, r0
 168 007e 002E     		cmp	r6, #0
 169 0080 F9DC     		bgt	.L16
 170 0082 FFF7FEFF 		bl	smtc_modem_hal_start_radio_tcxo
 171 0086 9C23     		movs	r3, #156
 172 0088 1B01     		lsls	r3, r3, #4
 173 008a E358     		ldr	r3, [r4, r3]
 174 008c 1A6A     		ldr	r2, [r3, #32]
 175 008e 1868     		ldr	r0, [r3]
 176 0090 9047     		blx	r2
ARM GAS  /tmp/cc2Yojzh.s 			page 4


 177 0092 0028     		cmp	r0, #0
 178 0094 03D0     		beq	.L17
 179 0096 F921     		movs	r1, #249
 180 0098 0548     		ldr	r0, .L31+4
 181 009a FFF7FEFF 		bl	smtc_modem_hal_assert_fail
 182              	.L17:
 183              		@ sp needed
 184 009e FFF7FEFF 		bl	smtc_modem_hal_get_time_in_ms
 185 00a2 8F23     		movs	r3, #143
 186 00a4 1B01     		lsls	r3, r3, #4
 187 00a6 E418     		adds	r4, r4, r3
 188 00a8 2065     		str	r0, [r4, #80]
 189 00aa 70BD     		pop	{r4, r5, r6, pc}
 190              	.L32:
 191              		.align	2
 192              	.L31:
 193 00ac 84090000 		.word	2436
 194 00b0 00000000 		.word	__func__.12
 195 00b4 D4050000 		.word	1492
 197              		.section	.text.lr1_stack_mac_rx_lora_launch_callback_for_rp,"ax",%progbits
 198              		.align	1
 199              		.global	lr1_stack_mac_rx_lora_launch_callback_for_rp
 200              		.syntax unified
 201              		.code	16
 202              		.thumb_func
 204              	lr1_stack_mac_rx_lora_launch_callback_for_rp:
 205              		@ args = 0, pretend = 0, frame = 0
 206              		@ frame_needed = 0, uses_anonymous_args = 0
 207 0000 F8B5     		push	{r3, r4, r5, r6, r7, lr}
 208 0002 9C25     		movs	r5, #156
 209 0004 214B     		ldr	r3, .L48
 210 0006 8421     		movs	r1, #132
 211 0008 2D01     		lsls	r5, r5, #4
 212 000a C65C     		ldrb	r6, [r0, r3]
 213 000c 0400     		movs	r4, r0
 214 000e 4059     		ldr	r0, [r0, r5]
 215 0010 7143     		muls	r1, r6
 216 0012 0300     		movs	r3, r0
 217 0014 4C31     		adds	r1, r1, #76
 218 0016 F433     		adds	r3, r3, #244
 219 0018 1B68     		ldr	r3, [r3]
 220 001a 6118     		adds	r1, r4, r1
 221 001c 9847     		blx	r3
 222 001e 0028     		cmp	r0, #0
 223 0020 04D0     		beq	.L34
 224 0022 9921     		movs	r1, #153
 225 0024 1A48     		ldr	r0, .L48+4
 226 0026 4900     		lsls	r1, r1, #1
 227 0028 FFF7FEFF 		bl	smtc_modem_hal_assert_fail
 228              	.L34:
 229 002c CC21     		movs	r1, #204
 230 002e 6059     		ldr	r0, [r4, r5]
 231 0030 FFF7FEFF 		bl	ral_set_dio_irq_params
 232 0034 0028     		cmp	r0, #0
 233 0036 04D0     		beq	.L35
 234 0038 3421     		movs	r1, #52
 235 003a 1548     		ldr	r0, .L48+4
ARM GAS  /tmp/cc2Yojzh.s 			page 5


 236 003c FF31     		adds	r1, r1, #255
 237 003e FFF7FEFF 		bl	smtc_modem_hal_assert_fail
 238              	.L35:
 239 0042 1C25     		movs	r5, #28
 240 0044 7543     		muls	r5, r6
 241 0046 134B     		ldr	r3, .L48+8
 242 0048 6519     		adds	r5, r4, r5
 243 004a ED18     		adds	r5, r5, r3
 244              	.L36:
 245 004c 2F68     		ldr	r7, [r5]
 246 004e FFF7FEFF 		bl	smtc_modem_hal_get_time_in_ms
 247 0052 3F1A     		subs	r7, r7, r0
 248 0054 002F     		cmp	r7, #0
 249 0056 F9DC     		bgt	.L36
 250 0058 FFF7FEFF 		bl	smtc_modem_hal_start_radio_tcxo
 251 005c 9C23     		movs	r3, #156
 252 005e 1B01     		lsls	r3, r3, #4
 253 0060 E258     		ldr	r2, [r4, r3]
 254 0062 8423     		movs	r3, #132
 255 0064 7343     		muls	r3, r6
 256 0066 E318     		adds	r3, r4, r3
 257 0068 556A     		ldr	r5, [r2, #36]
 258 006a 996F     		ldr	r1, [r3, #120]
 259 006c 1068     		ldr	r0, [r2]
 260 006e A847     		blx	r5
 261 0070 0028     		cmp	r0, #0
 262 0072 04D0     		beq	.L37
 263 0074 9E21     		movs	r1, #158
 264 0076 0648     		ldr	r0, .L48+4
 265 0078 4900     		lsls	r1, r1, #1
 266 007a FFF7FEFF 		bl	smtc_modem_hal_assert_fail
 267              	.L37:
 268              		@ sp needed
 269 007e FFF7FEFF 		bl	smtc_modem_hal_get_time_in_ms
 270 0082 8F23     		movs	r3, #143
 271 0084 1B01     		lsls	r3, r3, #4
 272 0086 E418     		adds	r4, r4, r3
 273 0088 6065     		str	r0, [r4, #84]
 274 008a F8BD     		pop	{r3, r4, r5, r6, r7, pc}
 275              	.L49:
 276              		.align	2
 277              	.L48:
 278 008c 84090000 		.word	2436
 279 0090 00000000 		.word	__func__.9
 280 0094 D4050000 		.word	1492
 282              		.section	.text.lr1_stack_mac_rx_gfsk_launch_callback_for_rp,"ax",%progbits
 283              		.align	1
 284              		.global	lr1_stack_mac_rx_gfsk_launch_callback_for_rp
 285              		.syntax unified
 286              		.code	16
 287              		.thumb_func
 289              	lr1_stack_mac_rx_gfsk_launch_callback_for_rp:
 290              		@ args = 0, pretend = 0, frame = 0
 291              		@ frame_needed = 0, uses_anonymous_args = 0
 292 0000 F8B5     		push	{r3, r4, r5, r6, r7, lr}
 293 0002 9C25     		movs	r5, #156
 294 0004 214B     		ldr	r3, .L65
ARM GAS  /tmp/cc2Yojzh.s 			page 6


 295 0006 8421     		movs	r1, #132
 296 0008 2D01     		lsls	r5, r5, #4
 297 000a C65C     		ldrb	r6, [r0, r3]
 298 000c 0400     		movs	r4, r0
 299 000e 4059     		ldr	r0, [r0, r5]
 300 0010 7143     		muls	r1, r6
 301 0012 0300     		movs	r3, r0
 302 0014 4C31     		adds	r1, r1, #76
 303 0016 F033     		adds	r3, r3, #240
 304 0018 1B68     		ldr	r3, [r3]
 305 001a 6118     		adds	r1, r4, r1
 306 001c 9847     		blx	r3
 307 001e 0028     		cmp	r0, #0
 308 0020 04D0     		beq	.L51
 309 0022 4621     		movs	r1, #70
 310 0024 1A48     		ldr	r0, .L65+4
 311 0026 FF31     		adds	r1, r1, #255
 312 0028 FFF7FEFF 		bl	smtc_modem_hal_assert_fail
 313              	.L51:
 314 002c 8C21     		movs	r1, #140
 315 002e 6059     		ldr	r0, [r4, r5]
 316 0030 FFF7FEFF 		bl	ral_set_dio_irq_params
 317 0034 0028     		cmp	r0, #0
 318 0036 04D0     		beq	.L52
 319 0038 A321     		movs	r1, #163
 320 003a 1548     		ldr	r0, .L65+4
 321 003c 4900     		lsls	r1, r1, #1
 322 003e FFF7FEFF 		bl	smtc_modem_hal_assert_fail
 323              	.L52:
 324 0042 1C25     		movs	r5, #28
 325 0044 7543     		muls	r5, r6
 326 0046 134B     		ldr	r3, .L65+8
 327 0048 6519     		adds	r5, r4, r5
 328 004a ED18     		adds	r5, r5, r3
 329              	.L53:
 330 004c 2F68     		ldr	r7, [r5]
 331 004e FFF7FEFF 		bl	smtc_modem_hal_get_time_in_ms
 332 0052 3F1A     		subs	r7, r7, r0
 333 0054 002F     		cmp	r7, #0
 334 0056 F9DC     		bgt	.L53
 335 0058 FFF7FEFF 		bl	smtc_modem_hal_start_radio_tcxo
 336 005c 9C23     		movs	r3, #156
 337 005e 1B01     		lsls	r3, r3, #4
 338 0060 E258     		ldr	r2, [r4, r3]
 339 0062 8423     		movs	r3, #132
 340 0064 7343     		muls	r3, r6
 341 0066 E318     		adds	r3, r4, r3
 342 0068 556A     		ldr	r5, [r2, #36]
 343 006a 996F     		ldr	r1, [r3, #120]
 344 006c 1068     		ldr	r0, [r2]
 345 006e A847     		blx	r5
 346 0070 0028     		cmp	r0, #0
 347 0072 04D0     		beq	.L54
 348 0074 A721     		movs	r1, #167
 349 0076 0648     		ldr	r0, .L65+4
 350 0078 4900     		lsls	r1, r1, #1
 351 007a FFF7FEFF 		bl	smtc_modem_hal_assert_fail
ARM GAS  /tmp/cc2Yojzh.s 			page 7


 352              	.L54:
 353              		@ sp needed
 354 007e FFF7FEFF 		bl	smtc_modem_hal_get_time_in_ms
 355 0082 8F23     		movs	r3, #143
 356 0084 1B01     		lsls	r3, r3, #4
 357 0086 E418     		adds	r4, r4, r3
 358 0088 6065     		str	r0, [r4, #84]
 359 008a F8BD     		pop	{r3, r4, r5, r6, r7, pc}
 360              	.L66:
 361              		.align	2
 362              	.L65:
 363 008c 84090000 		.word	2436
 364 0090 00000000 		.word	__func__.8
 365 0094 D4050000 		.word	1492
 367              		.section	.text.lr1_stack_mac_tx_lr_fhss_launch_callback_for_rp,"ax",%progbits
 368              		.align	1
 369              		.global	lr1_stack_mac_tx_lr_fhss_launch_callback_for_rp
 370              		.syntax unified
 371              		.code	16
 372              		.thumb_func
 374              	lr1_stack_mac_tx_lr_fhss_launch_callback_for_rp:
 375              		@ args = 0, pretend = 0, frame = 8
 376              		@ frame_needed = 0, uses_anonymous_args = 0
 377 0000 8422     		movs	r2, #132
 378 0002 F0B5     		push	{r4, r5, r6, r7, lr}
 379 0004 9C27     		movs	r7, #156
 380 0006 3D4B     		ldr	r3, .L90
 381 0008 3F01     		lsls	r7, r7, #4
 382 000a C55C     		ldrb	r5, [r0, r3]
 383 000c C359     		ldr	r3, [r0, r7]
 384 000e 6A43     		muls	r2, r5
 385 0010 85B0     		sub	sp, sp, #20
 386 0012 1600     		movs	r6, r2
 387 0014 0392     		str	r2, [sp, #12]
 388 0016 1A00     		movs	r2, r3
 389 0018 2036     		adds	r6, r6, #32
 390 001a 8619     		adds	r6, r0, r6
 391 001c C432     		adds	r2, r2, #196
 392 001e 0400     		movs	r4, r0
 393 0020 3100     		movs	r1, r6
 394 0022 1268     		ldr	r2, [r2]
 395 0024 1868     		ldr	r0, [r3]
 396 0026 9047     		blx	r2
 397 0028 0028     		cmp	r0, #0
 398 002a 04D0     		beq	.L68
 399 002c 8B21     		movs	r1, #139
 400 002e 3448     		ldr	r0, .L90+4
 401 0030 4900     		lsls	r1, r1, #1
 402 0032 FFF7FEFF 		bl	smtc_modem_hal_assert_fail
 403              	.L68:
 404 0036 8422     		movs	r2, #132
 405 0038 3421     		movs	r1, #52
 406 003a 6A43     		muls	r2, r5
 407 003c E059     		ldr	r0, [r4, r7]
 408 003e A218     		adds	r2, r4, r2
 409 0040 5156     		ldrsb	r1, [r2, r1]
 410 0042 836C     		ldr	r3, [r0, #72]
ARM GAS  /tmp/cc2Yojzh.s 			page 8


 411 0044 D26A     		ldr	r2, [r2, #44]
 412 0046 0068     		ldr	r0, [r0]
 413 0048 9847     		blx	r3
 414 004a 0028     		cmp	r0, #0
 415 004c 04D0     		beq	.L69
 416 004e 8C21     		movs	r1, #140
 417 0050 2B48     		ldr	r0, .L90+4
 418 0052 4900     		lsls	r1, r1, #1
 419 0054 FFF7FEFF 		bl	smtc_modem_hal_assert_fail
 420              	.L69:
 421 0058 9C27     		movs	r7, #156
 422 005a 3F01     		lsls	r7, r7, #4
 423 005c 2949     		ldr	r1, .L90+8
 424 005e E059     		ldr	r0, [r4, r7]
 425 0060 FFF7FEFF 		bl	ral_set_dio_irq_params
 426 0064 0028     		cmp	r0, #0
 427 0066 04D0     		beq	.L70
 428 0068 1C21     		movs	r1, #28
 429 006a 2548     		ldr	r0, .L90+4
 430 006c FF31     		adds	r1, r1, #255
 431 006e FFF7FEFF 		bl	smtc_modem_hal_assert_fail
 432              	.L70:
 433 0072 8423     		movs	r3, #132
 434 0074 E521     		movs	r1, #229
 435 0076 6B43     		muls	r3, r5
 436 0078 8900     		lsls	r1, r1, #2
 437 007a 6918     		adds	r1, r5, r1
 438 007c 4900     		lsls	r1, r1, #1
 439 007e 095B     		ldrh	r1, [r1, r4]
 440 0080 E318     		adds	r3, r4, r3
 441 0082 E059     		ldr	r0, [r4, r7]
 442 0084 DB8E     		ldrh	r3, [r3, #54]
 443 0086 0191     		str	r1, [sp, #4]
 444 0088 2900     		movs	r1, r5
 445 008a 0700     		movs	r7, r0
 446 008c BF31     		adds	r1, r1, #191
 447 008e FF31     		adds	r1, r1, #255
 448 0090 8900     		lsls	r1, r1, #2
 449 0092 6118     		adds	r1, r4, r1
 450 0094 4968     		ldr	r1, [r1, #4]
 451 0096 039A     		ldr	r2, [sp, #12]
 452 0098 0091     		str	r1, [sp]
 453 009a 8632     		adds	r2, r2, #134
 454 009c C837     		adds	r7, r7, #200
 455 009e 3100     		movs	r1, r6
 456 00a0 3F68     		ldr	r7, [r7]
 457 00a2 0068     		ldr	r0, [r0]
 458 00a4 A218     		adds	r2, r4, r2
 459 00a6 B847     		blx	r7
 460 00a8 0028     		cmp	r0, #0
 461 00aa 04D0     		beq	.L71
 462 00ac 1E21     		movs	r1, #30
 463 00ae 1448     		ldr	r0, .L90+4
 464 00b0 FF31     		adds	r1, r1, #255
 465 00b2 FFF7FEFF 		bl	smtc_modem_hal_assert_fail
 466              	.L71:
 467 00b6 1C23     		movs	r3, #28
ARM GAS  /tmp/cc2Yojzh.s 			page 9


 468 00b8 5D43     		muls	r5, r3
 469 00ba 134B     		ldr	r3, .L90+12
 470 00bc 6519     		adds	r5, r4, r5
 471 00be ED18     		adds	r5, r5, r3
 472              	.L72:
 473 00c0 2E68     		ldr	r6, [r5]
 474 00c2 FFF7FEFF 		bl	smtc_modem_hal_get_time_in_ms
 475 00c6 361A     		subs	r6, r6, r0
 476 00c8 002E     		cmp	r6, #0
 477 00ca F9DC     		bgt	.L72
 478 00cc FFF7FEFF 		bl	smtc_modem_hal_start_radio_tcxo
 479 00d0 9C23     		movs	r3, #156
 480 00d2 1B01     		lsls	r3, r3, #4
 481 00d4 E358     		ldr	r3, [r4, r3]
 482 00d6 1A6A     		ldr	r2, [r3, #32]
 483 00d8 1868     		ldr	r0, [r3]
 484 00da 9047     		blx	r2
 485 00dc 0028     		cmp	r0, #0
 486 00de 04D0     		beq	.L73
 487 00e0 2A21     		movs	r1, #42
 488 00e2 0748     		ldr	r0, .L90+4
 489 00e4 FF31     		adds	r1, r1, #255
 490 00e6 FFF7FEFF 		bl	smtc_modem_hal_assert_fail
 491              	.L73:
 492 00ea FFF7FEFF 		bl	smtc_modem_hal_get_time_in_ms
 493 00ee 8F23     		movs	r3, #143
 494 00f0 1B01     		lsls	r3, r3, #4
 495 00f2 E418     		adds	r4, r4, r3
 496 00f4 2065     		str	r0, [r4, #80]
 497 00f6 05B0     		add	sp, sp, #20
 498              		@ sp needed
 499 00f8 F0BD     		pop	{r4, r5, r6, r7, pc}
 500              	.L91:
 501 00fa C046     		.align	2
 502              	.L90:
 503 00fc 84090000 		.word	2436
 504 0100 00000000 		.word	__func__.10
 505 0104 02040000 		.word	1026
 506 0108 D4050000 		.word	1492
 508              		.section	.text.lr1_stack_mac_tx_gfsk_launch_callback_for_rp,"ax",%progbits
 509              		.align	1
 510              		.global	lr1_stack_mac_tx_gfsk_launch_callback_for_rp
 511              		.syntax unified
 512              		.code	16
 513              		.thumb_func
 515              	lr1_stack_mac_tx_gfsk_launch_callback_for_rp:
 516              		@ args = 0, pretend = 0, frame = 0
 517              		@ frame_needed = 0, uses_anonymous_args = 0
 518 0000 70B5     		push	{r4, r5, r6, lr}
 519 0002 9C25     		movs	r5, #156
 520 0004 2B4B     		ldr	r3, .L111
 521 0006 8421     		movs	r1, #132
 522 0008 2D01     		lsls	r5, r5, #4
 523 000a C65C     		ldrb	r6, [r0, r3]
 524 000c 0400     		movs	r4, r0
 525 000e 4059     		ldr	r0, [r0, r5]
 526 0010 7143     		muls	r1, r6
ARM GAS  /tmp/cc2Yojzh.s 			page 10


 527 0012 0300     		movs	r3, r0
 528 0014 2031     		adds	r1, r1, #32
 529 0016 F033     		adds	r3, r3, #240
 530 0018 1B68     		ldr	r3, [r3]
 531 001a 6118     		adds	r1, r4, r1
 532 001c 9847     		blx	r3
 533 001e 0028     		cmp	r0, #0
 534 0020 04D0     		beq	.L93
 535 0022 8121     		movs	r1, #129
 536 0024 2448     		ldr	r0, .L111+4
 537 0026 4900     		lsls	r1, r1, #1
 538 0028 FFF7FEFF 		bl	smtc_modem_hal_assert_fail
 539              	.L93:
 540 002c 0221     		movs	r1, #2
 541 002e 6059     		ldr	r0, [r4, r5]
 542 0030 FFF7FEFF 		bl	ral_set_dio_irq_params
 543 0034 0028     		cmp	r0, #0
 544 0036 04D0     		beq	.L94
 545 0038 0421     		movs	r1, #4
 546 003a 1F48     		ldr	r0, .L111+4
 547 003c FF31     		adds	r1, r1, #255
 548 003e FFF7FEFF 		bl	smtc_modem_hal_assert_fail
 549              	.L94:
 550 0042 9C23     		movs	r3, #156
 551 0044 1B01     		lsls	r3, r3, #4
 552 0046 E058     		ldr	r0, [r4, r3]
 553 0048 E523     		movs	r3, #229
 554 004a 9B00     		lsls	r3, r3, #2
 555 004c F318     		adds	r3, r6, r3
 556 004e 5B00     		lsls	r3, r3, #1
 557 0050 1A5B     		ldrh	r2, [r3, r4]
 558 0052 3300     		movs	r3, r6
 559 0054 BF33     		adds	r3, r3, #191
 560 0056 FF33     		adds	r3, r3, #255
 561 0058 9B00     		lsls	r3, r3, #2
 562 005a E318     		adds	r3, r4, r3
 563 005c C56C     		ldr	r5, [r0, #76]
 564 005e 5968     		ldr	r1, [r3, #4]
 565 0060 0068     		ldr	r0, [r0]
 566 0062 A847     		blx	r5
 567 0064 0028     		cmp	r0, #0
 568 0066 04D0     		beq	.L95
 569 0068 8221     		movs	r1, #130
 570 006a 1348     		ldr	r0, .L111+4
 571 006c 4900     		lsls	r1, r1, #1
 572 006e FFF7FEFF 		bl	smtc_modem_hal_assert_fail
 573              	.L95:
 574 0072 1C25     		movs	r5, #28
 575 0074 7543     		muls	r5, r6
 576 0076 114B     		ldr	r3, .L111+8
 577 0078 6519     		adds	r5, r4, r5
 578 007a ED18     		adds	r5, r5, r3
 579              	.L96:
 580 007c 2E68     		ldr	r6, [r5]
 581 007e FFF7FEFF 		bl	smtc_modem_hal_get_time_in_ms
 582 0082 361A     		subs	r6, r6, r0
 583 0084 002E     		cmp	r6, #0
ARM GAS  /tmp/cc2Yojzh.s 			page 11


 584 0086 F9DC     		bgt	.L96
 585 0088 FFF7FEFF 		bl	smtc_modem_hal_start_radio_tcxo
 586 008c 9C23     		movs	r3, #156
 587 008e 1B01     		lsls	r3, r3, #4
 588 0090 E358     		ldr	r3, [r4, r3]
 589 0092 1A6A     		ldr	r2, [r3, #32]
 590 0094 1868     		ldr	r0, [r3]
 591 0096 9047     		blx	r2
 592 0098 0028     		cmp	r0, #0
 593 009a 04D0     		beq	.L97
 594 009c 8621     		movs	r1, #134
 595 009e 0648     		ldr	r0, .L111+4
 596 00a0 4900     		lsls	r1, r1, #1
 597 00a2 FFF7FEFF 		bl	smtc_modem_hal_assert_fail
 598              	.L97:
 599              		@ sp needed
 600 00a6 FFF7FEFF 		bl	smtc_modem_hal_get_time_in_ms
 601 00aa 8F23     		movs	r3, #143
 602 00ac 1B01     		lsls	r3, r3, #4
 603 00ae E418     		adds	r4, r4, r3
 604 00b0 2065     		str	r0, [r4, #80]
 605 00b2 70BD     		pop	{r4, r5, r6, pc}
 606              	.L112:
 607              		.align	2
 608              	.L111:
 609 00b4 84090000 		.word	2436
 610 00b8 00000000 		.word	__func__.11
 611 00bc D4050000 		.word	1492
 613              		.section	.text.lr1_stack_mac_session_init,"ax",%progbits
 614              		.align	1
 615              		.global	lr1_stack_mac_session_init
 616              		.syntax unified
 617              		.code	16
 618              		.thumb_func
 620              	lr1_stack_mac_session_init:
 621              		@ args = 0, pretend = 0, frame = 0
 622              		@ frame_needed = 0, uses_anonymous_args = 0
 623 0000 0123     		movs	r3, #1
 624 0002 5B42     		rsbs	r3, r3, #0
 625 0004 70B5     		push	{r4, r5, r6, lr}
 626 0006 8366     		str	r3, [r0, #104]
 627 0008 9523     		movs	r3, #149
 628              		@ sp needed
 629 000a 0025     		movs	r5, #0
 630 000c DB00     		lsls	r3, r3, #3
 631 000e 4566     		str	r5, [r0, #100]
 632 0010 C550     		str	r5, [r0, r3]
 633 0012 083B     		subs	r3, r3, #8
 634 0014 C552     		strh	r5, [r0, r3]
 635 0016 134B     		ldr	r3, .L114
 636 0018 0400     		movs	r4, r0
 637 001a C552     		strh	r5, [r0, r3]
 638 001c 163B     		subs	r3, r3, #22
 639 001e C550     		str	r5, [r0, r3]
 640 0020 F523     		movs	r3, #245
 641 0022 5B00     		lsls	r3, r3, #1
 642 0024 C554     		strb	r5, [r0, r3]
ARM GAS  /tmp/cc2Yojzh.s 			page 12


 643 0026 7A23     		movs	r3, #122
 644 0028 FF33     		adds	r3, r3, #255
 645 002a C554     		strb	r5, [r0, r3]
 646 002c 6133     		adds	r3, r3, #97
 647 002e C554     		strb	r5, [r0, r3]
 648 0030 0D4B     		ldr	r3, .L114+4
 649 0032 C554     		strb	r5, [r0, r3]
 650 0034 0D4B     		ldr	r3, .L114+8
 651 0036 C554     		strb	r5, [r0, r3]
 652 0038 0D4B     		ldr	r3, .L114+12
 653 003a C554     		strb	r5, [r0, r3]
 654 003c FE3B     		subs	r3, r3, #254
 655 003e FF3B     		subs	r3, r3, #255
 656 0040 0566     		str	r5, [r0, #96]
 657 0042 C550     		str	r5, [r0, r3]
 658 0044 FFF7FEFF 		bl	smtc_modem_hal_get_time_in_ms
 659 0048 C623     		movs	r3, #198
 660 004a 9B00     		lsls	r3, r3, #2
 661 004c E050     		str	r0, [r4, r3]
 662 004e 094B     		ldr	r3, .L114+16
 663 0050 E554     		strb	r5, [r4, r3]
 664 0052 094B     		ldr	r3, .L114+20
 665 0054 E552     		strh	r5, [r4, r3]
 666 0056 094B     		ldr	r3, .L114+24
 667 0058 E554     		strb	r5, [r4, r3]
 668 005a 263B     		subs	r3, r3, #38
 669 005c E552     		strh	r5, [r4, r3]
 670 005e 7634     		adds	r4, r4, #118
 671 0060 2580     		strh	r5, [r4]
 672 0062 70BD     		pop	{r4, r5, r6, pc}
 673              	.L115:
 674              		.align	2
 675              	.L114:
 676 0064 9E040000 		.word	1182
 677 0068 87040000 		.word	1159
 678 006c 26040000 		.word	1062
 679 0070 11050000 		.word	1297
 680 0074 19050000 		.word	1305
 681 0078 44050000 		.word	1348
 682 007c 46050000 		.word	1350
 684              		.section	.text.lr1_stack_mac_init,"ax",%progbits
 685              		.align	1
 686              		.global	lr1_stack_mac_init
 687              		.syntax unified
 688              		.code	16
 689              		.thumb_func
 691              	lr1_stack_mac_init:
 692              		@ args = 0, pretend = 0, frame = 0
 693              		@ frame_needed = 0, uses_anonymous_args = 0
 694 0000 0023     		movs	r3, #0
 695 0002 10B5     		push	{r4, lr}
 696 0004 0400     		movs	r4, r0
 697              		@ sp needed
 698 0006 7430     		adds	r0, r0, #116
 699 0008 0370     		strb	r3, [r0]
 700 000a 2348     		ldr	r0, .L117
 701 000c 2354     		strb	r3, [r4, r0]
ARM GAS  /tmp/cc2Yojzh.s 			page 13


 702 000e 2348     		ldr	r0, .L117+4
 703 0010 2350     		str	r3, [r4, r0]
 704 0012 2348     		ldr	r0, .L117+8
 705 0014 2354     		strb	r3, [r4, r0]
 706 0016 4230     		adds	r0, r0, #66
 707 0018 2354     		strb	r3, [r4, r0]
 708 001a 2000     		movs	r0, r4
 709 001c 7030     		adds	r0, r0, #112
 710 001e 0170     		strb	r1, [r0]
 711 0020 2100     		movs	r1, r4
 712 0022 0120     		movs	r0, #1
 713 0024 5131     		adds	r1, r1, #81
 714 0026 0870     		strb	r0, [r1]
 715 0028 C421     		movs	r1, #196
 716 002a 8900     		lsls	r1, r1, #2
 717 002c 6354     		strb	r3, [r4, r1]
 718 002e A16B     		ldr	r1, [r4, #56]
 719 0030 0A70     		strb	r2, [r1]
 720 0032 1C4A     		ldr	r2, .L117+12
 721 0034 8021     		movs	r1, #128
 722 0036 A354     		strb	r3, [r4, r2]
 723 0038 1B4A     		ldr	r2, .L117+16
 724 003a 4905     		lsls	r1, r1, #21
 725 003c A350     		str	r3, [r4, r2]
 726 003e C93A     		subs	r2, r2, #201
 727 0040 FF3A     		subs	r2, r2, #255
 728 0042 A352     		strh	r3, [r4, r2]
 729 0044 2200     		movs	r2, r4
 730 0046 4C32     		adds	r2, r2, #76
 731 0048 1380     		strh	r3, [r2]
 732 004a 184A     		ldr	r2, .L117+20
 733 004c A352     		strh	r3, [r4, r2]
 734 004e 184A     		ldr	r2, .L117+24
 735 0050 A150     		str	r1, [r4, r2]
 736 0052 0432     		adds	r2, r2, #4
 737 0054 A350     		str	r3, [r4, r2]
 738 0056 174A     		ldr	r2, .L117+28
 739 0058 1900     		movs	r1, r3
 740 005a A354     		strb	r3, [r4, r2]
 741 005c 164A     		ldr	r2, .L117+32
 742 005e A350     		str	r3, [r4, r2]
 743 0060 0432     		adds	r2, r2, #4
 744 0062 A350     		str	r3, [r4, r2]
 745 0064 154A     		ldr	r2, .L117+36
 746 0066 A350     		str	r3, [r4, r2]
 747 0068 154A     		ldr	r2, .L117+40
 748 006a A350     		str	r3, [r4, r2]
 749 006c 0432     		adds	r2, r2, #4
 750 006e A350     		str	r3, [r4, r2]
 751 0070 0832     		adds	r2, r2, #8
 752 0072 A350     		str	r3, [r4, r2]
 753 0074 134A     		ldr	r2, .L117+44
 754 0076 A350     		str	r3, [r4, r2]
 755 0078 543A     		subs	r2, r2, #84
 756 007a A018     		adds	r0, r4, r2
 757 007c 2022     		movs	r2, #32
 758 007e FFF7FEFF 		bl	memset
ARM GAS  /tmp/cc2Yojzh.s 			page 14


 759 0082 114B     		ldr	r3, .L117+48
 760 0084 0622     		movs	r2, #6
 761 0086 FF21     		movs	r1, #255
 762 0088 E018     		adds	r0, r4, r3
 763 008a FFF7FEFF 		bl	memset
 764 008e 2000     		movs	r0, r4
 765 0090 FFF7FEFF 		bl	lr1_stack_mac_session_init
 766 0094 10BD     		pop	{r4, pc}
 767              	.L118:
 768 0096 C046     		.align	2
 769              	.L117:
 770 0098 BB040000 		.word	1211
 771 009c A4040000 		.word	1188
 772 00a0 CE040000 		.word	1230
 773 00a4 1A050000 		.word	1306
 774 00a8 E4040000 		.word	1252
 775 00ac 92040000 		.word	1170
 776 00b0 94040000 		.word	1172
 777 00b4 BA040000 		.word	1210
 778 00b8 24050000 		.word	1316
 779 00bc 34050000 		.word	1332
 780 00c0 2C050000 		.word	1324
 781 00c4 3C050000 		.word	1340
 782 00c8 1E030000 		.word	798
 784              		.section	.text.lr1_stack_mac_tx_frame_build,"ax",%progbits
 785              		.align	1
 786              		.global	lr1_stack_mac_tx_frame_build
 787              		.syntax unified
 788              		.code	16
 789              		.thumb_func
 791              	lr1_stack_mac_tx_frame_build:
 792              		@ args = 0, pretend = 0, frame = 0
 793              		@ frame_needed = 0, uses_anonymous_args = 0
 794 0000 0300     		movs	r3, r0
 795 0002 0022     		movs	r2, #0
 796 0004 F0B5     		push	{r4, r5, r6, r7, lr}
 797 0006 7133     		adds	r3, r3, #113
 798 0008 1978     		ldrb	r1, [r3]
 799 000a 9142     		cmp	r1, r2
 800 000c 02D0     		beq	.L120
 801 000e F523     		movs	r3, #245
 802 0010 5B00     		lsls	r3, r3, #1
 803 0012 C25C     		ldrb	r2, [r0, r3]
 804              	.L120:
 805 0014 9224     		movs	r4, #146
 806 0016 2F4B     		ldr	r3, .L130
 807 0018 E400     		lsls	r4, r4, #3
 808 001a C35C     		ldrb	r3, [r0, r3]
 809 001c 045D     		ldrb	r4, [r0, r4]
 810 001e DB01     		lsls	r3, r3, #7
 811 0020 A401     		lsls	r4, r4, #6
 812 0022 1B19     		adds	r3, r3, r4
 813 0024 0400     		movs	r4, r0
 814 0026 7634     		adds	r4, r4, #118
 815 0028 2578     		ldrb	r5, [r4]
 816 002a 0600     		movs	r6, r0
 817 002c 6D01     		lsls	r5, r5, #5
ARM GAS  /tmp/cc2Yojzh.s 			page 15


 818 002e 5B19     		adds	r3, r3, r5
 819 0030 0500     		movs	r5, r0
 820 0032 7735     		adds	r5, r5, #119
 821 0034 2D78     		ldrb	r5, [r5]
 822 0036 0327     		movs	r7, #3
 823 0038 2D01     		lsls	r5, r5, #4
 824 003a 5B19     		adds	r3, r3, r5
 825 003c 0F25     		movs	r5, #15
 826 003e 1540     		ands	r5, r2
 827 0040 5B19     		adds	r3, r3, r5
 828 0042 0500     		movs	r5, r0
 829 0044 DBB2     		uxtb	r3, r3
 830 0046 7535     		adds	r5, r5, #117
 831 0048 2B70     		strb	r3, [r5]
 832 004a 0025     		movs	r5, #0
 833 004c 033C     		subs	r4, r4, #3
 834 004e E570     		strb	r5, [r4, #3]
 835 0050 7436     		adds	r6, r6, #116
 836 0052 2478     		ldrb	r4, [r4]
 837 0054 3678     		ldrb	r6, [r6]
 838 0056 6401     		lsls	r4, r4, #5
 839 0058 3E40     		ands	r6, r7
 840 005a A419     		adds	r4, r4, r6
 841 005c 0600     		movs	r6, r0
 842 005e 7A36     		adds	r6, r6, #122
 843 0060 3470     		strb	r4, [r6]
 844 0062 C46E     		ldr	r4, [r0, #108]
 845 0064 270A     		lsrs	r7, r4, #8
 846 0066 7470     		strb	r4, [r6, #1]
 847 0068 B770     		strb	r7, [r6, #2]
 848 006a 270C     		lsrs	r7, r4, #16
 849 006c 240E     		lsrs	r4, r4, #24
 850 006e 3471     		strb	r4, [r6, #4]
 851 0070 0400     		movs	r4, r0
 852 0072 7F34     		adds	r4, r4, #127
 853 0074 F770     		strb	r7, [r6, #3]
 854 0076 2370     		strb	r3, [r4]
 855 0078 0300     		movs	r3, r0
 856 007a 6433     		adds	r3, r3, #100
 857 007c 1C88     		ldrh	r4, [r3]
 858 007e 0436     		adds	r6, r6, #4
 859 0080 9C83     		strh	r4, [r3, #28]
 860 0082 A942     		cmp	r1, r5
 861 0084 12D0     		beq	.L121
 862 0086 F523     		movs	r3, #245
 863 0088 5B00     		lsls	r3, r3, #1
 864 008a C45C     		ldrb	r4, [r0, r3]
 865 008c 2B00     		movs	r3, r5
 866 008e 0500     		movs	r5, r0
 867 0090 EC35     		adds	r5, r5, #236
 868 0092 FF35     		adds	r5, r5, #255
 869 0094 0436     		adds	r6, r6, #4
 870              	.L122:
 871 0096 A342     		cmp	r3, r4
 872 0098 17DB     		blt	.L124
 873 009a 0300     		movs	r3, r0
 874 009c 7233     		adds	r3, r3, #114
ARM GAS  /tmp/cc2Yojzh.s 			page 16


 875 009e 1B78     		ldrb	r3, [r3]
 876 00a0 002B     		cmp	r3, #0
 877 00a2 06D0     		beq	.L123
 878 00a4 0419     		adds	r4, r0, r4
 879 00a6 8234     		adds	r4, r4, #130
 880 00a8 2170     		strb	r1, [r4]
 881 00aa 02E0     		b	.L123
 882              	.L121:
 883 00ac 0300     		movs	r3, r0
 884 00ae 8233     		adds	r3, r3, #130
 885 00b0 1970     		strb	r1, [r3]
 886              	.L123:
 887 00b2 0300     		movs	r3, r0
 888              		@ sp needed
 889 00b4 0100     		movs	r1, r0
 890 00b6 7833     		adds	r3, r3, #120
 891 00b8 1B78     		ldrb	r3, [r3]
 892 00ba 7231     		adds	r1, r1, #114
 893 00bc 0978     		ldrb	r1, [r1]
 894 00be 0833     		adds	r3, r3, #8
 895 00c0 5B18     		adds	r3, r3, r1
 896 00c2 D218     		adds	r2, r2, r3
 897 00c4 7930     		adds	r0, r0, #121
 898 00c6 0270     		strb	r2, [r0]
 899 00c8 F0BD     		pop	{r4, r5, r6, r7, pc}
 900              	.L124:
 901 00ca EF5C     		ldrb	r7, [r5, r3]
 902 00cc F754     		strb	r7, [r6, r3]
 903 00ce 0133     		adds	r3, r3, #1
 904 00d0 E1E7     		b	.L122
 905              	.L131:
 906 00d2 C046     		.align	2
 907              	.L130:
 908 00d4 91040000 		.word	1169
 910              		.section	.rodata.lr1_stack_mac_tx_frame_encrypt.str1.1,"aMS",%progbits,1
 911              	.LC6:
 912 0000 1B5B303B 		.ascii	"\033[0;31mERROR: crash log :%s\012\000"
 912      33316D45 
 912      52524F52 
 912      3A206372 
 912      61736820 
 913              	.LC8:
 914 001d 1B5B306D 		.ascii	"\033[0m\000"
 914      00
 915              	.LC10:
 916 0022 1B5B303B 		.ascii	"\033[0;31mERROR: -> Crypto error during payload enc"
 916      33316D45 
 916      52524F52 
 916      3A202D3E 
 916      20437279 
 917 0052 72797074 		.ascii	"ryption\012\000"
 917      696F6E0A 
 917      00
 918              	.LC12:
 919 005b 1B5B303B 		.ascii	"\033[0;31mERROR: -> Crypto error during mic computa"
 919      33316D45 
 919      52524F52 
ARM GAS  /tmp/cc2Yojzh.s 			page 17


 919      3A202D3E 
 919      20437279 
 920 008b 74696F6E 		.ascii	"tion\012\000"
 920      0A00
 921              		.section	.text.lr1_stack_mac_tx_frame_encrypt,"ax",%progbits
 922              		.align	1
 923              		.global	lr1_stack_mac_tx_frame_encrypt
 924              		.syntax unified
 925              		.code	16
 926              		.thumb_func
 928              	lr1_stack_mac_tx_frame_encrypt:
 929              		@ args = 0, pretend = 0, frame = 0
 930              		@ frame_needed = 0, uses_anonymous_args = 0
 931 0000 0300     		movs	r3, r0
 932 0002 30B5     		push	{r4, r5, lr}
 933 0004 0400     		movs	r4, r0
 934 0006 0020     		movs	r0, #0
 935 0008 7133     		adds	r3, r3, #113
 936 000a 1A78     		ldrb	r2, [r3]
 937 000c 85B0     		sub	sp, sp, #20
 938 000e 8242     		cmp	r2, r0
 939 0010 02D0     		beq	.L133
 940 0012 F523     		movs	r3, #245
 941 0014 5B00     		lsls	r3, r3, #1
 942 0016 E05C     		ldrb	r0, [r4, r3]
 943              	.L133:
 944 0018 2300     		movs	r3, r4
 945 001a 7233     		adds	r3, r3, #114
 946 001c 1B78     		ldrb	r3, [r3]
 947 001e C018     		adds	r0, r0, r3
 948 0020 2300     		movs	r3, r4
 949 0022 8230     		adds	r0, r0, #130
 950 0024 7833     		adds	r3, r3, #120
 951 0026 2018     		adds	r0, r4, r0
 952 0028 1978     		ldrb	r1, [r3]
 953 002a 0290     		str	r0, [sp, #8]
 954 002c 531E     		subs	r3, r2, #1
 955 002e 9A41     		sbcs	r2, r2, r3
 956 0030 636E     		ldr	r3, [r4, #100]
 957 0032 0632     		adds	r2, r2, #6
 958 0034 0193     		str	r3, [sp, #4]
 959 0036 0023     		movs	r3, #0
 960 0038 0093     		str	r3, [sp]
 961 003a E36E     		ldr	r3, [r4, #108]
 962 003c FFF7FEFF 		bl	smtc_modem_crypto_payload_encrypt
 963 0040 0028     		cmp	r0, #0
 964 0042 16D0     		beq	.L135
 965 0044 204D     		ldr	r5, .L146
 966 0046 2800     		movs	r0, r5
 967 0048 FFF7FEFF 		bl	smtc_modem_hal_store_crashlog
 968 004c 0120     		movs	r0, #1
 969 004e FFF7FEFF 		bl	smtc_modem_hal_set_crashlog_status
 970 0052 2900     		movs	r1, r5
 971 0054 1D48     		ldr	r0, .L146+4
 972 0056 FFF7FEFF 		bl	smtc_modem_hal_print_trace
 973 005a 1D4D     		ldr	r5, .L146+8
 974 005c 2800     		movs	r0, r5
ARM GAS  /tmp/cc2Yojzh.s 			page 18


 975 005e FFF7FEFF 		bl	smtc_modem_hal_print_trace
 976 0062 1C48     		ldr	r0, .L146+12
 977 0064 FFF7FEFF 		bl	smtc_modem_hal_print_trace
 978 0068 2800     		movs	r0, r5
 979 006a FFF7FEFF 		bl	smtc_modem_hal_print_trace
 980 006e FFF7FEFF 		bl	smtc_modem_hal_reset_mcu
 981              	.L135:
 982 0072 2500     		movs	r5, r4
 983 0074 636E     		ldr	r3, [r4, #100]
 984 0076 7935     		adds	r5, r5, #121
 985 0078 2978     		ldrb	r1, [r5]
 986 007a 0193     		str	r3, [sp, #4]
 987 007c 0023     		movs	r3, #0
 988 007e 2000     		movs	r0, r4
 989 0080 0093     		str	r3, [sp]
 990 0082 0622     		movs	r2, #6
 991 0084 E36E     		ldr	r3, [r4, #108]
 992 0086 7A30     		adds	r0, r0, #122
 993 0088 FFF7FEFF 		bl	smtc_modem_crypto_compute_and_add_mic
 994 008c 0028     		cmp	r0, #0
 995 008e 16D0     		beq	.L136
 996 0090 0D4C     		ldr	r4, .L146
 997 0092 2000     		movs	r0, r4
 998 0094 FFF7FEFF 		bl	smtc_modem_hal_store_crashlog
 999 0098 0120     		movs	r0, #1
 1000 009a FFF7FEFF 		bl	smtc_modem_hal_set_crashlog_status
 1001 009e 2100     		movs	r1, r4
 1002 00a0 0A48     		ldr	r0, .L146+4
 1003 00a2 FFF7FEFF 		bl	smtc_modem_hal_print_trace
 1004 00a6 0A4C     		ldr	r4, .L146+8
 1005 00a8 2000     		movs	r0, r4
 1006 00aa FFF7FEFF 		bl	smtc_modem_hal_print_trace
 1007 00ae 0A48     		ldr	r0, .L146+16
 1008 00b0 FFF7FEFF 		bl	smtc_modem_hal_print_trace
 1009 00b4 2000     		movs	r0, r4
 1010 00b6 FFF7FEFF 		bl	smtc_modem_hal_print_trace
 1011 00ba FFF7FEFF 		bl	smtc_modem_hal_reset_mcu
 1012              	.L136:
 1013 00be 2B78     		ldrb	r3, [r5]
 1014 00c0 0433     		adds	r3, r3, #4
 1015 00c2 2B70     		strb	r3, [r5]
 1016 00c4 05B0     		add	sp, sp, #20
 1017              		@ sp needed
 1018 00c6 30BD     		pop	{r4, r5, pc}
 1019              	.L147:
 1020              		.align	2
 1021              	.L146:
 1022 00c8 00000000 		.word	__func__.13
 1023 00cc 00000000 		.word	.LC6
 1024 00d0 1D000000 		.word	.LC8
 1025 00d4 22000000 		.word	.LC10
 1026 00d8 5B000000 		.word	.LC12
 1028              		.section	.text.lr1_stack_mac_radio_busy_lbt,"ax",%progbits
 1029              		.align	1
 1030              		.global	lr1_stack_mac_radio_busy_lbt
 1031              		.syntax unified
 1032              		.code	16
ARM GAS  /tmp/cc2Yojzh.s 			page 19


 1033              		.thumb_func
 1035              	lr1_stack_mac_radio_busy_lbt:
 1036              		@ args = 0, pretend = 0, frame = 0
 1037              		@ frame_needed = 0, uses_anonymous_args = 0
 1038 0000 0022     		movs	r2, #0
 1039 0002 10B5     		push	{r4, lr}
 1040 0004 0400     		movs	r4, r0
 1041              		@ sp needed
 1042 0006 074B     		ldr	r3, .L149
 1043 0008 C254     		strb	r2, [r0, r3]
 1044 000a FFF7FEFF 		bl	smtc_modem_hal_get_time_in_ms
 1045 000e 064B     		ldr	r3, .L149+4
 1046 0010 E258     		ldr	r2, [r4, r3]
 1047 0012 064B     		ldr	r3, .L149+8
 1048 0014 D358     		ldr	r3, [r2, r3]
 1049 0016 064A     		ldr	r2, .L149+12
 1050 0018 1B18     		adds	r3, r3, r0
 1051 001a A350     		str	r3, [r4, r2]
 1052 001c 2000     		movs	r0, r4
 1053 001e FFF7FEFF 		bl	smtc_real_get_next_channel
 1054 0022 10BD     		pop	{r4, pc}
 1055              	.L150:
 1056              		.align	2
 1057              	.L149:
 1058 0024 BB040000 		.word	1211
 1059 0028 BC040000 		.word	1212
 1060 002c C4090000 		.word	2500
 1061 0030 14050000 		.word	1300
 1063              		.section	.text.lr1_stack_mac_radio_abort_lbt,"ax",%progbits
 1064              		.align	1
 1065              		.global	lr1_stack_mac_radio_abort_lbt
 1066              		.syntax unified
 1067              		.code	16
 1068              		.thumb_func
 1070              	lr1_stack_mac_radio_abort_lbt:
 1071              		@ args = 0, pretend = 0, frame = 0
 1072              		@ frame_needed = 0, uses_anonymous_args = 0
 1073              		@ link register save eliminated.
 1074 0000 0622     		movs	r2, #6
 1075              		@ sp needed
 1076 0002 014B     		ldr	r3, .L152
 1077 0004 C254     		strb	r2, [r0, r3]
 1078 0006 7047     		bx	lr
 1079              	.L153:
 1080              		.align	2
 1081              	.L152:
 1082 0008 BB040000 		.word	1211
 1084              		.section	.rodata.lr1_stack_mac_tx_radio_start.str1.1,"aMS",%progbits,1
 1085              	.LC20:
 1086 0000 1B5B303B 		.ascii	"\033[0;31mERROR: -> TX MODULATION NOT SUPPORTED\012"
 1086      33316D45 
 1086      52524F52 
 1086      3A202D3E 
 1086      20545820 
 1087 002d 00       		.ascii	"\000"
 1088              	.LC22:
 1089 002e 1B5B303B 		.ascii	"\033[0;31mERROR: -> \000"
ARM GAS  /tmp/cc2Yojzh.s 			page 20


 1089      33316D45 
 1089      52524F52 
 1089      3A202D3E 
 1089      2000
 1090              	.LC24:
 1091 0040 52616469 		.ascii	"Radio planner hook %d is busy\012\000"
 1091      6F20706C 
 1091      616E6E65 
 1091      7220686F 
 1091      6F6B2025 
 1092              		.section	.text.lr1_stack_mac_tx_radio_start,"ax",%progbits
 1093              		.align	1
 1094              		.global	lr1_stack_mac_tx_radio_start
 1095              		.syntax unified
 1096              		.code	16
 1097              		.thumb_func
 1099              	lr1_stack_mac_tx_radio_start:
 1100              		@ args = 0, pretend = 0, frame = 224
 1101              		@ frame_needed = 0, uses_anonymous_args = 0
 1102 0000 F0B5     		push	{r4, r5, r6, r7, lr}
 1103 0002 0400     		movs	r4, r0
 1104 0004 BBB0     		sub	sp, sp, #236
 1105 0006 8422     		movs	r2, #132
 1106 0008 0021     		movs	r1, #0
 1107 000a 19A8     		add	r0, sp, #100
 1108 000c 07AE     		add	r6, sp, #28
 1109 000e FFF7FEFF 		bl	memset
 1110 0012 1C22     		movs	r2, #28
 1111 0014 0021     		movs	r1, #0
 1112 0016 3000     		movs	r0, r6
 1113 0018 FFF7FEFF 		bl	memset
 1114 001c 2700     		movs	r7, r4
 1115 001e 0023     		movs	r3, #0
 1116 0020 4E37     		adds	r7, r7, #78
 1117 0022 0693     		str	r3, [sp, #24]
 1118 0024 2000     		movs	r0, r4
 1119 0026 3978     		ldrb	r1, [r7]
 1120 0028 FFF7FEFF 		bl	smtc_real_get_modulation_type_from_datarate
 1121 002c 031E     		subs	r3, r0, #0
 1122 002e 0390     		str	r0, [sp, #12]
 1123 0030 00D0     		beq	.LCB1165
 1124 0032 AAE0     		b	.L155	@long jump
 1125              	.LCB1165:
 1126 0034 02AA     		add	r2, sp, #8
 1127 0036 0F33     		adds	r3, r3, #15
 1128 0038 9B18     		adds	r3, r3, r2
 1129 003a 0E22     		movs	r2, #14
 1130 003c 02A8     		add	r0, sp, #8
 1131 003e 0EAD     		add	r5, sp, #56
 1132 0040 3978     		ldrb	r1, [r7]
 1133 0042 1218     		adds	r2, r2, r0
 1134 0044 2000     		movs	r0, r4
 1135 0046 FFF7FEFF 		bl	smtc_real_lora_dr_to_sf_bw
 1136 004a 1422     		movs	r2, #20
 1137 004c 0399     		ldr	r1, [sp, #12]
 1138 004e 2800     		movs	r0, r5
 1139 0050 FFF7FEFF 		bl	memset
ARM GAS  /tmp/cc2Yojzh.s 			page 21


 1140 0054 9623     		movs	r3, #150
 1141 0056 DB00     		lsls	r3, r3, #3
 1142 0058 E358     		ldr	r3, [r4, r3]
 1143 005a 2000     		movs	r0, r4
 1144 005c 1193     		str	r3, [sp, #68]
 1145 005e FFF7FEFF 		bl	smtc_real_get_sync_word
 1146 0062 9622     		movs	r2, #150
 1147 0064 5021     		movs	r1, #80
 1148 0066 6874     		strb	r0, [r5, #17]
 1149 0068 D200     		lsls	r2, r2, #3
 1150 006a A258     		ldr	r2, [r4, r2]
 1151 006c 3B78     		ldrb	r3, [r7]
 1152 006e 6156     		ldrsb	r1, [r4, r1]
 1153 0070 2000     		movs	r0, r4
 1154 0072 FFF7FEFF 		bl	smtc_real_clamp_output_power_eirp_vs_freq_and_dr
 1155 0076 02AB     		add	r3, sp, #8
 1156 0078 9B7B     		ldrb	r3, [r3, #14]
 1157 007a 2874     		strb	r0, [r5, #16]
 1158 007c 2B70     		strb	r3, [r5]
 1159 007e 02AB     		add	r3, sp, #8
 1160 0080 DB7B     		ldrb	r3, [r3, #15]
 1161 0082 2000     		movs	r0, r4
 1162 0084 6B70     		strb	r3, [r5, #1]
 1163 0086 FFF7FEFF 		bl	smtc_real_get_coding_rate
 1164 008a 2F78     		ldrb	r7, [r5]
 1165 008c 6978     		ldrb	r1, [r5, #1]
 1166 008e A870     		strb	r0, [r5, #2]
 1167 0090 3800     		movs	r0, r7
 1168 0092 FFF7FEFF 		bl	ral_compute_lora_ldro
 1169 0096 3900     		movs	r1, r7
 1170 0098 E870     		strb	r0, [r5, #3]
 1171 009a 2000     		movs	r0, r4
 1172 009c FFF7FEFF 		bl	smtc_real_get_preamble_len
 1173 00a0 039B     		ldr	r3, [sp, #12]
 1174 00a2 A880     		strh	r0, [r5, #4]
 1175 00a4 AB71     		strb	r3, [r5, #6]
 1176 00a6 2300     		movs	r3, r4
 1177 00a8 7933     		adds	r3, r3, #121
 1178 00aa 1B78     		ldrb	r3, [r3]
 1179 00ac 5C21     		movs	r1, #92
 1180 00ae EB71     		strb	r3, [r5, #7]
 1181 00b0 0123     		movs	r3, #1
 1182 00b2 02AA     		add	r2, sp, #8
 1183 00b4 5218     		adds	r2, r2, r1
 1184 00b6 1370     		strb	r3, [r2]
 1185 00b8 2A00     		movs	r2, r5
 1186 00ba 2B81     		strh	r3, [r5, #8]
 1187 00bc 1AAB     		add	r3, sp, #104
 1188 00be 83CA     		ldmia	r2!, {r0, r1, r7}
 1189 00c0 83C3     		stmia	r3!, {r0, r1, r7}
 1190 00c2 03CA     		ldmia	r2!, {r0, r1}
 1191 00c4 03C3     		stmia	r3!, {r0, r1}
 1192 00c6 A14B     		ldr	r3, .L170
 1193 00c8 2900     		movs	r1, r5
 1194 00ca E258     		ldr	r2, [r4, r3]
 1195 00cc 9C23     		movs	r3, #156
 1196 00ce 1B01     		lsls	r3, r3, #4
ARM GAS  /tmp/cc2Yojzh.s 			page 22


 1197 00d0 D358     		ldr	r3, [r2, r3]
 1198 00d2 0FA8     		add	r0, sp, #60
 1199 00d4 A033     		adds	r3, r3, #160
 1200 00d6 1B68     		ldr	r3, [r3]
 1201 00d8 9847     		blx	r3
 1202 00da 0223     		movs	r3, #2
 1203 00dc 7370     		strb	r3, [r6, #1]
 1204 00de 9C4B     		ldr	r3, .L170+4
 1205 00e0 0690     		str	r0, [sp, #24]
 1206              	.L169:
 1207 00e2 7360     		str	r3, [r6, #4]
 1208              	.L156:
 1209 00e4 994B     		ldr	r3, .L170
 1210 00e6 2100     		movs	r1, r4
 1211 00e8 E058     		ldr	r0, [r4, r3]
 1212 00ea 0EAA     		add	r2, sp, #56
 1213 00ec FFF7FEFF 		bl	rp_hook_get_id
 1214 00f0 0028     		cmp	r0, #0
 1215 00f2 16D0     		beq	.L159
 1216 00f4 974D     		ldr	r5, .L170+8
 1217 00f6 2800     		movs	r0, r5
 1218 00f8 FFF7FEFF 		bl	smtc_modem_hal_store_crashlog
 1219 00fc 0120     		movs	r0, #1
 1220 00fe FFF7FEFF 		bl	smtc_modem_hal_set_crashlog_status
 1221 0102 2900     		movs	r1, r5
 1222 0104 9448     		ldr	r0, .L170+12
 1223 0106 FFF7FEFF 		bl	smtc_modem_hal_print_trace
 1224 010a 944D     		ldr	r5, .L170+16
 1225 010c 2800     		movs	r0, r5
 1226 010e FFF7FEFF 		bl	smtc_modem_hal_print_trace
 1227 0112 9348     		ldr	r0, .L170+20
 1228 0114 FFF7FEFF 		bl	smtc_modem_hal_print_trace
 1229 0118 2800     		movs	r0, r5
 1230 011a FFF7FEFF 		bl	smtc_modem_hal_print_trace
 1231 011e FFF7FEFF 		bl	smtc_modem_hal_reset_mcu
 1232              	.L159:
 1233 0122 3022     		movs	r2, #48
 1234 0124 02AB     		add	r3, sp, #8
 1235 0126 9B18     		adds	r3, r3, r2
 1236 0128 1B78     		ldrb	r3, [r3]
 1237 012a 02AA     		add	r2, sp, #8
 1238 012c 1375     		strb	r3, [r2, #20]
 1239 012e 069B     		ldr	r3, [sp, #24]
 1240 0130 0D93     		str	r3, [sp, #52]
 1241 0132 8C4B     		ldr	r3, .L170+24
 1242 0134 E558     		ldr	r5, [r4, r3]
 1243 0136 FFF7FEFF 		bl	smtc_modem_hal_get_radio_tcxo_startup_delay_ms
 1244 013a A322     		movs	r2, #163
 1245 013c 0123     		movs	r3, #1
 1246 013e 2D1A     		subs	r5, r5, r0
 1247 0140 0A95     		str	r5, [sp, #40]
 1248 0142 D200     		lsls	r2, r2, #3
 1249 0144 A15C     		ldrb	r1, [r4, r2]
 1250 0146 9942     		cmp	r1, r3
 1251 0148 01D1     		bne	.L160
 1252 014a 0023     		movs	r3, #0
 1253 014c A354     		strb	r3, [r4, r2]
ARM GAS  /tmp/cc2Yojzh.s 			page 23


 1254              	.L160:
 1255 014e 02AA     		add	r2, sp, #8
 1256 0150 9377     		strb	r3, [r2, #30]
 1257 0152 0223     		movs	r3, #2
 1258 0154 844D     		ldr	r5, .L170+28
 1259 0156 19AA     		add	r2, sp, #100
 1260 0158 6355     		strb	r3, [r4, r5]
 1261 015a 2300     		movs	r3, r4
 1262 015c 7933     		adds	r3, r3, #121
 1263 015e 1B78     		ldrb	r3, [r3]
 1264 0160 0092     		str	r2, [sp]
 1265 0162 2200     		movs	r2, r4
 1266 0164 7948     		ldr	r0, .L170
 1267 0166 7A32     		adds	r2, r2, #122
 1268 0168 2058     		ldr	r0, [r4, r0]
 1269 016a 07A9     		add	r1, sp, #28
 1270 016c FFF7FEFF 		bl	rp_task_enqueue
 1271 0170 0028     		cmp	r0, #0
 1272 0172 08D0     		beq	.L154
 1273 0174 0623     		movs	r3, #6
 1274 0176 3022     		movs	r2, #48
 1275 0178 6355     		strb	r3, [r4, r5]
 1276 017a 02AB     		add	r3, sp, #8
 1277 017c 9B18     		adds	r3, r3, r2
 1278 017e 1978     		ldrb	r1, [r3]
 1279 0180 7A48     		ldr	r0, .L170+32
 1280 0182 FFF7FEFF 		bl	smtc_modem_hal_print_trace
 1281              	.L154:
 1282 0186 3BB0     		add	sp, sp, #236
 1283              		@ sp needed
 1284 0188 F0BD     		pop	{r4, r5, r6, r7, pc}
 1285              	.L155:
 1286 018a 039B     		ldr	r3, [sp, #12]
 1287 018c 012B     		cmp	r3, #1
 1288 018e 62D1     		bne	.L157
 1289 0190 02AA     		add	r2, sp, #8
 1290 0192 0E33     		adds	r3, r3, #14
 1291 0194 9B18     		adds	r3, r3, r2
 1292 0196 0EAD     		add	r5, sp, #56
 1293 0198 3978     		ldrb	r1, [r7]
 1294 019a 1A00     		movs	r2, r3
 1295 019c 2000     		movs	r0, r4
 1296 019e FFF7FEFF 		bl	smtc_real_fsk_dr_to_bitrate
 1297 01a2 0021     		movs	r1, #0
 1298 01a4 2C22     		movs	r2, #44
 1299 01a6 2800     		movs	r0, r5
 1300 01a8 FFF7FEFF 		bl	memset
 1301 01ac 5A23     		movs	r3, #90
 1302 01ae 02AA     		add	r2, sp, #8
 1303 01b0 9B18     		adds	r3, r3, r2
 1304 01b2 039A     		ldr	r2, [sp, #12]
 1305 01b4 2000     		movs	r0, r4
 1306 01b6 1A70     		strb	r2, [r3]
 1307 01b8 6D4B     		ldr	r3, .L170+36
 1308 01ba 2B85     		strh	r3, [r5, #40]
 1309 01bc 6D4B     		ldr	r3, .L170+40
 1310 01be 1793     		str	r3, [sp, #92]
ARM GAS  /tmp/cc2Yojzh.s 			page 24


 1311 01c0 9623     		movs	r3, #150
 1312 01c2 DB00     		lsls	r3, r3, #3
 1313 01c4 E358     		ldr	r3, [r4, r3]
 1314 01c6 1693     		str	r3, [sp, #88]
 1315 01c8 FFF7FEFF 		bl	smtc_real_get_gfsk_sync_word
 1316 01cc 9622     		movs	r2, #150
 1317 01ce 5021     		movs	r1, #80
 1318 01d0 1590     		str	r0, [sp, #84]
 1319 01d2 D200     		lsls	r2, r2, #3
 1320 01d4 3B78     		ldrb	r3, [r7]
 1321 01d6 6156     		ldrsb	r1, [r4, r1]
 1322 01d8 A258     		ldr	r2, [r4, r2]
 1323 01da 2000     		movs	r0, r4
 1324 01dc FFF7FEFF 		bl	smtc_real_clamp_output_power_eirp_vs_freq_and_dr
 1325 01e0 5B23     		movs	r3, #91
 1326 01e2 02AA     		add	r2, sp, #8
 1327 01e4 9B18     		adds	r3, r3, r2
 1328 01e6 1870     		strb	r0, [r3]
 1329 01e8 039B     		ldr	r3, [sp, #12]
 1330 01ea 0422     		movs	r2, #4
 1331 01ec 6B75     		strb	r3, [r5, #21]
 1332 01ee 2300     		movs	r3, r4
 1333 01f0 7933     		adds	r3, r3, #121
 1334 01f2 1B78     		ldrb	r3, [r3]
 1335 01f4 EA75     		strb	r2, [r5, #23]
 1336 01f6 AB75     		strb	r3, [r5, #22]
 1337 01f8 2823     		movs	r3, #40
 1338 01fa 2B82     		strh	r3, [r5, #16]
 1339 01fc 103B     		subs	r3, r3, #16
 1340 01fe EB74     		strb	r3, [r5, #19]
 1341 0200 039B     		ldr	r3, [sp, #12]
 1342 0202 2B76     		strb	r3, [r5, #24]
 1343 0204 5C4B     		ldr	r3, .L170+44
 1344 0206 0F93     		str	r3, [sp, #60]
 1345 0208 02AB     		add	r3, sp, #8
 1346 020a D97B     		ldrb	r1, [r3, #15]
 1347 020c FA23     		movs	r3, #250
 1348 020e 9B00     		lsls	r3, r3, #2
 1349 0210 4B43     		muls	r3, r1
 1350 0212 0E93     		str	r3, [sp, #56]
 1351 0214 594B     		ldr	r3, .L170+48
 1352 0216 1093     		str	r3, [sp, #64]
 1353 0218 2A73     		strb	r2, [r5, #12]
 1354 021a 02AB     		add	r3, sp, #8
 1355 021c 5832     		adds	r2, r2, #88
 1356 021e 9B18     		adds	r3, r3, r2
 1357 0220 0022     		movs	r2, #0
 1358 0222 1A70     		strb	r2, [r3]
 1359 0224 2A00     		movs	r2, r5
 1360 0226 1AAB     		add	r3, sp, #104
 1361 0228 83CA     		ldmia	r2!, {r0, r1, r7}
 1362 022a 83C3     		stmia	r3!, {r0, r1, r7}
 1363 022c 83CA     		ldmia	r2!, {r0, r1, r7}
 1364 022e 83C3     		stmia	r3!, {r0, r1, r7}
 1365 0230 83CA     		ldmia	r2!, {r0, r1, r7}
 1366 0232 83C3     		stmia	r3!, {r0, r1, r7}
 1367 0234 03CA     		ldmia	r2!, {r0, r1}
ARM GAS  /tmp/cc2Yojzh.s 			page 25


 1368 0236 03C3     		stmia	r3!, {r0, r1}
 1369 0238 444B     		ldr	r3, .L170
 1370 023a 2900     		movs	r1, r5
 1371 023c E258     		ldr	r2, [r4, r3]
 1372 023e 9C23     		movs	r3, #156
 1373 0240 1B01     		lsls	r3, r3, #4
 1374 0242 D358     		ldr	r3, [r2, r3]
 1375 0244 12A8     		add	r0, sp, #72
 1376 0246 A433     		adds	r3, r3, #164
 1377 0248 1B68     		ldr	r3, [r3]
 1378 024a 9847     		blx	r3
 1379 024c 0323     		movs	r3, #3
 1380 024e 0690     		str	r0, [sp, #24]
 1381 0250 7370     		strb	r3, [r6, #1]
 1382 0252 4B4B     		ldr	r3, .L170+52
 1383 0254 45E7     		b	.L169
 1384              	.L157:
 1385 0256 039B     		ldr	r3, [sp, #12]
 1386 0258 022B     		cmp	r3, #2
 1387 025a 5ED1     		bne	.L158
 1388 025c 02AA     		add	r2, sp, #8
 1389 025e 0D33     		adds	r3, r3, #13
 1390 0260 9B18     		adds	r3, r3, r2
 1391 0262 0E22     		movs	r2, #14
 1392 0264 02A8     		add	r0, sp, #8
 1393 0266 0EAD     		add	r5, sp, #56
 1394 0268 3978     		ldrb	r1, [r7]
 1395 026a 1218     		adds	r2, r2, r0
 1396 026c 2000     		movs	r0, r4
 1397 026e FFF7FEFF 		bl	smtc_real_lr_fhss_dr_to_cr_bw
 1398 0272 1822     		movs	r2, #24
 1399 0274 0021     		movs	r1, #0
 1400 0276 2800     		movs	r0, r5
 1401 0278 FFF7FEFF 		bl	memset
 1402 027c 9622     		movs	r2, #150
 1403 027e 5021     		movs	r1, #80
 1404 0280 D200     		lsls	r2, r2, #3
 1405 0282 3B78     		ldrb	r3, [r7]
 1406 0284 6156     		ldrsb	r1, [r4, r1]
 1407 0286 A258     		ldr	r2, [r4, r2]
 1408 0288 2000     		movs	r0, r4
 1409 028a FFF7FEFF 		bl	smtc_real_clamp_output_power_eirp_vs_freq_and_dr
 1410 028e 9C22     		movs	r2, #156
 1411 0290 2E4B     		ldr	r3, .L170
 1412 0292 2875     		strb	r0, [r5, #20]
 1413 0294 E358     		ldr	r3, [r4, r3]
 1414 0296 1201     		lsls	r2, r2, #4
 1415 0298 9B58     		ldr	r3, [r3, r2]
 1416 029a 1900     		movs	r1, r3
 1417 029c D831     		adds	r1, r1, #216
 1418 029e 0A68     		ldr	r2, [r1]
 1419 02a0 1868     		ldr	r0, [r3]
 1420 02a2 2900     		movs	r1, r5
 1421 02a4 9047     		blx	r2
 1422 02a6 0100     		movs	r1, r0
 1423 02a8 0020     		movs	r0, #0
 1424 02aa FFF7FEFF 		bl	smtc_modem_hal_get_random_nb_in_range
ARM GAS  /tmp/cc2Yojzh.s 			page 26


 1425 02ae 0021     		movs	r1, #0
 1426 02b0 E882     		strh	r0, [r5, #22]
 1427 02b2 02A8     		add	r0, sp, #8
 1428 02b4 837B     		ldrb	r3, [r0, #14]
 1429 02b6 2971     		strb	r1, [r5, #4]
 1430 02b8 6B71     		strb	r3, [r5, #5]
 1431 02ba 2000     		movs	r0, r4
 1432 02bc 0F00     		movs	r7, r1
 1433 02be FFF7FEFF 		bl	smtc_real_lr_fhss_get_grid
 1434 02c2 0123     		movs	r3, #1
 1435 02c4 A871     		strb	r0, [r5, #6]
 1436 02c6 02A8     		add	r0, sp, #8
 1437 02c8 2B72     		strb	r3, [r5, #8]
 1438 02ca C37B     		ldrb	r3, [r0, #15]
 1439 02cc 807B     		ldrb	r0, [r0, #14]
 1440 02ce EB71     		strb	r3, [r5, #7]
 1441 02d0 FFF7FEFF 		bl	smtc_real_lr_fhss_get_header_count
 1442 02d4 6872     		strb	r0, [r5, #9]
 1443 02d6 2000     		movs	r0, r4
 1444 02d8 FFF7FEFF 		bl	smtc_real_get_lr_fhss_sync_word
 1445 02dc 9622     		movs	r2, #150
 1446 02de D200     		lsls	r2, r2, #3
 1447 02e0 A358     		ldr	r3, [r4, r2]
 1448 02e2 2A00     		movs	r2, r5
 1449 02e4 0E90     		str	r0, [sp, #56]
 1450 02e6 1193     		str	r3, [sp, #68]
 1451 02e8 2F74     		strb	r7, [r5, #16]
 1452 02ea 1AAB     		add	r3, sp, #104
 1453 02ec 83CA     		ldmia	r2!, {r0, r1, r7}
 1454 02ee 83C3     		stmia	r3!, {r0, r1, r7}
 1455 02f0 83CA     		ldmia	r2!, {r0, r1, r7}
 1456 02f2 83C3     		stmia	r3!, {r0, r1, r7}
 1457 02f4 9C22     		movs	r2, #156
 1458 02f6 154B     		ldr	r3, .L170
 1459 02f8 1201     		lsls	r2, r2, #4
 1460 02fa E358     		ldr	r3, [r4, r3]
 1461 02fc 2900     		movs	r1, r5
 1462 02fe 9858     		ldr	r0, [r3, r2]
 1463 0300 2300     		movs	r3, r4
 1464 0302 7933     		adds	r3, r3, #121
 1465 0304 1A78     		ldrb	r2, [r3]
 1466 0306 0300     		movs	r3, r0
 1467 0308 D433     		adds	r3, r3, #212
 1468 030a 1F68     		ldr	r7, [r3]
 1469 030c 0068     		ldr	r0, [r0]
 1470 030e 06AB     		add	r3, sp, #24
 1471 0310 B847     		blx	r7
 1472 0312 0423     		movs	r3, #4
 1473 0314 7370     		strb	r3, [r6, #1]
 1474 0316 1B4B     		ldr	r3, .L170+56
 1475 0318 E3E6     		b	.L169
 1476              	.L158:
 1477 031a 0E4D     		ldr	r5, .L170+8
 1478 031c 2800     		movs	r0, r5
 1479 031e FFF7FEFF 		bl	smtc_modem_hal_store_crashlog
 1480 0322 0120     		movs	r0, #1
 1481 0324 FFF7FEFF 		bl	smtc_modem_hal_set_crashlog_status
ARM GAS  /tmp/cc2Yojzh.s 			page 27


 1482 0328 2900     		movs	r1, r5
 1483 032a 0B48     		ldr	r0, .L170+12
 1484 032c FFF7FEFF 		bl	smtc_modem_hal_print_trace
 1485 0330 0A4D     		ldr	r5, .L170+16
 1486 0332 2800     		movs	r0, r5
 1487 0334 FFF7FEFF 		bl	smtc_modem_hal_print_trace
 1488 0338 1348     		ldr	r0, .L170+60
 1489 033a FFF7FEFF 		bl	smtc_modem_hal_print_trace
 1490 033e 2800     		movs	r0, r5
 1491 0340 FFF7FEFF 		bl	smtc_modem_hal_print_trace
 1492 0344 FFF7FEFF 		bl	smtc_modem_hal_reset_mcu
 1493 0348 CCE6     		b	.L156
 1494              	.L171:
 1495 034a C046     		.align	2
 1496              	.L170:
 1497 034c BC040000 		.word	1212
 1498 0350 00000000 		.word	lr1_stack_mac_tx_lora_launch_callback_for_rp
 1499 0354 00000000 		.word	__func__.7
 1500 0358 00000000 		.word	.LC6
 1501 035c 1D000000 		.word	.LC8
 1502 0360 2E000000 		.word	.LC22
 1503 0364 14050000 		.word	1300
 1504 0368 BB040000 		.word	1211
 1505 036c 40000000 		.word	.LC24
 1506 0370 FF010000 		.word	511
 1507 0374 0F1D2110 		.word	270605583
 1508 0378 A8610000 		.word	25000
 1509 037c A0860100 		.word	100000
 1510 0380 00000000 		.word	lr1_stack_mac_tx_gfsk_launch_callback_for_rp
 1511 0384 00000000 		.word	lr1_stack_mac_tx_lr_fhss_launch_callback_for_rp
 1512 0388 00000000 		.word	.LC20
 1514              		.section	.text.lr1_stack_mac_tx_radio_free_lbt,"ax",%progbits
 1515              		.align	1
 1516              		.global	lr1_stack_mac_tx_radio_free_lbt
 1517              		.syntax unified
 1518              		.code	16
 1519              		.thumb_func
 1521              	lr1_stack_mac_tx_radio_free_lbt:
 1522              		@ args = 0, pretend = 0, frame = 0
 1523              		@ frame_needed = 0, uses_anonymous_args = 0
 1524 0000 0222     		movs	r2, #2
 1525 0002 10B5     		push	{r4, lr}
 1526 0004 0400     		movs	r4, r0
 1527              		@ sp needed
 1528 0006 094B     		ldr	r3, .L173
 1529 0008 C254     		strb	r2, [r0, r3]
 1530 000a FFF7FEFF 		bl	smtc_modem_hal_get_time_in_ms
 1531 000e 084B     		ldr	r3, .L173+4
 1532 0010 E258     		ldr	r2, [r4, r3]
 1533 0012 084B     		ldr	r3, .L173+8
 1534 0014 D358     		ldr	r3, [r2, r3]
 1535 0016 084A     		ldr	r2, .L173+12
 1536 0018 1B18     		adds	r3, r3, r0
 1537 001a A350     		str	r3, [r4, r2]
 1538 001c A323     		movs	r3, #163
 1539 001e 0122     		movs	r2, #1
 1540 0020 DB00     		lsls	r3, r3, #3
ARM GAS  /tmp/cc2Yojzh.s 			page 28


 1541 0022 2000     		movs	r0, r4
 1542 0024 E254     		strb	r2, [r4, r3]
 1543 0026 FFF7FEFF 		bl	lr1_stack_mac_tx_radio_start
 1544 002a 10BD     		pop	{r4, pc}
 1545              	.L174:
 1546              		.align	2
 1547              	.L173:
 1548 002c BB040000 		.word	1211
 1549 0030 BC040000 		.word	1212
 1550 0034 C4090000 		.word	2500
 1551 0038 14050000 		.word	1300
 1553              		.section	.rodata.lr1_stack_mac_rx_radio_start.str1.1,"aMS",%progbits,1
 1554              	.LC31:
 1555 0000 1B5B303B 		.ascii	"\033[0;31mERROR: -> RX windows unknow\012\000"
 1555      33316D45 
 1555      52524F52 
 1555      3A202D3E 
 1555      20525820 
 1556              	.LC33:
 1557 0024 1B5B303B 		.ascii	"\033[0;31mERROR: -> MODULATION NOT SUPPORTED\012\000"
 1557      33316D45 
 1557      52524F52 
 1557      3A202D3E 
 1557      204D4F44 
 1558              	.LC36:
 1559 004f 0A20204F 		.ascii	"\012  Open RX%d for Hook Id = %d\000"
 1559      70656E20 
 1559      52582564 
 1559      20666F72 
 1559      20486F6F 
 1560              	.LC40:
 1561 006d 20202573 		.ascii	"  %s LoRa at %u ms: freq:%u, SF%u, %s, sync word = "
 1561      204C6F52 
 1561      61206174 
 1561      20257520 
 1561      6D733A20 
 1562 00a0 30782530 		.ascii	"0x%02x\012\000"
 1562      32780A00 
 1563              	.LC42:
 1564 00a8 20202573 		.ascii	"  %s FSK freq:%d\012\000"
 1564      2046534B 
 1564      20667265 
 1564      713A2564 
 1564      0A00
 1565              		.section	.text.lr1_stack_mac_rx_radio_start,"ax",%progbits
 1566              		.align	1
 1567              		.global	lr1_stack_mac_rx_radio_start
 1568              		.syntax unified
 1569              		.code	16
 1570              		.thumb_func
 1572              	lr1_stack_mac_rx_radio_start:
 1573              		@ args = 0, pretend = 0, frame = 200
 1574              		@ frame_needed = 0, uses_anonymous_args = 0
 1575 0000 9723     		movs	r3, #151
 1576 0002 F0B5     		push	{r4, r5, r6, r7, lr}
 1577 0004 B7B0     		sub	sp, sp, #220
 1578 0006 DB00     		lsls	r3, r3, #3
ARM GAS  /tmp/cc2Yojzh.s 			page 29


 1579 0008 0591     		str	r1, [sp, #20]
 1580 000a 0692     		str	r2, [sp, #24]
 1581 000c C55C     		ldrb	r5, [r0, r3]
 1582 000e 0400     		movs	r4, r0
 1583 0010 2900     		movs	r1, r5
 1584 0012 FFF7FEFF 		bl	smtc_real_get_modulation_type_from_datarate
 1585 0016 8422     		movs	r2, #132
 1586 0018 0600     		movs	r6, r0
 1587 001a 0021     		movs	r1, #0
 1588 001c 15A8     		add	r0, sp, #84
 1589 001e FFF7FEFF 		bl	memset
 1590 0022 A24B     		ldr	r3, .L194
 1591 0024 059A     		ldr	r2, [sp, #20]
 1592 0026 E254     		strb	r2, [r4, r3]
 1593 0028 002A     		cmp	r2, #0
 1594 002a 1BD0     		beq	.L176
 1595 002c 012A     		cmp	r2, #1
 1596 002e 00D1     		bne	.LCB1688
 1597 0030 D5E0     		b	.L177	@long jump
 1598              	.LCB1688:
 1599 0032 9F4F     		ldr	r7, .L194+4
 1600 0034 3800     		movs	r0, r7
 1601 0036 FFF7FEFF 		bl	smtc_modem_hal_store_crashlog
 1602 003a 0120     		movs	r0, #1
 1603 003c FFF7FEFF 		bl	smtc_modem_hal_set_crashlog_status
 1604 0040 3900     		movs	r1, r7
 1605 0042 9C48     		ldr	r0, .L194+8
 1606 0044 FFF7FEFF 		bl	smtc_modem_hal_print_trace
 1607 0048 9B4F     		ldr	r7, .L194+12
 1608 004a 3800     		movs	r0, r7
 1609 004c FFF7FEFF 		bl	smtc_modem_hal_print_trace
 1610 0050 9A48     		ldr	r0, .L194+16
 1611 0052 FFF7FEFF 		bl	smtc_modem_hal_print_trace
 1612 0056 3800     		movs	r0, r7
 1613 0058 FFF7FEFF 		bl	smtc_modem_hal_print_trace
 1614 005c 0027     		movs	r7, #0
 1615 005e FFF7FEFF 		bl	smtc_modem_hal_reset_mcu
 1616 0062 01E0     		b	.L179
 1617              	.L176:
 1618 0064 964B     		ldr	r3, .L194+20
 1619 0066 E758     		ldr	r7, [r4, r3]
 1620              	.L179:
 1621 0068 002E     		cmp	r6, #0
 1622 006a 00D0     		beq	.LCB1716
 1623 006c B9E0     		b	.L180	@long jump
 1624              	.LCB1716:
 1625 006e 1723     		movs	r3, #23
 1626 0070 04AA     		add	r2, sp, #16
 1627 0072 9B18     		adds	r3, r3, r2
 1628 0074 1622     		movs	r2, #22
 1629 0076 04A9     		add	r1, sp, #16
 1630 0078 5218     		adds	r2, r2, r1
 1631 007a 2000     		movs	r0, r4
 1632 007c 2900     		movs	r1, r5
 1633 007e 0AAD     		add	r5, sp, #40
 1634 0080 FFF7FEFF 		bl	smtc_real_lora_dr_to_sf_bw
 1635 0084 1422     		movs	r2, #20
ARM GAS  /tmp/cc2Yojzh.s 			page 30


 1636 0086 3100     		movs	r1, r6
 1637 0088 2800     		movs	r0, r5
 1638 008a FFF7FEFF 		bl	memset
 1639 008e 2000     		movs	r0, r4
 1640 0090 FFF7FEFF 		bl	smtc_real_get_sync_word
 1641 0094 8B4B     		ldr	r3, .L194+24
 1642 0096 6874     		strb	r0, [r5, #17]
 1643 0098 E35A     		ldrh	r3, [r4, r3]
 1644 009a 2000     		movs	r0, r4
 1645 009c AB74     		strb	r3, [r5, #18]
 1646 009e 0D97     		str	r7, [sp, #52]
 1647 00a0 FFF7FEFF 		bl	smtc_real_get_coding_rate
 1648 00a4 04AB     		add	r3, sp, #16
 1649 00a6 9F7D     		ldrb	r7, [r3, #22]
 1650 00a8 DE7D     		ldrb	r6, [r3, #23]
 1651 00aa 0790     		str	r0, [sp, #28]
 1652 00ac 3100     		movs	r1, r6
 1653 00ae 3800     		movs	r0, r7
 1654 00b0 FFF7FEFF 		bl	ral_compute_lora_ldro
 1655 00b4 079B     		ldr	r3, [sp, #28]
 1656 00b6 3602     		lsls	r6, r6, #8
 1657 00b8 1B04     		lsls	r3, r3, #16
 1658 00ba 3E43     		orrs	r6, r7
 1659 00bc 1E43     		orrs	r6, r3
 1660 00be 3602     		lsls	r6, r6, #8
 1661 00c0 814B     		ldr	r3, .L194+28
 1662 00c2 0006     		lsls	r0, r0, #24
 1663 00c4 360A     		lsrs	r6, r6, #8
 1664 00c6 0643     		orrs	r6, r0
 1665 00c8 0A96     		str	r6, [sp, #40]
 1666 00ca EB80     		strh	r3, [r5, #6]
 1667 00cc 8023     		movs	r3, #128
 1668 00ce 5B00     		lsls	r3, r3, #1
 1669 00d0 3900     		movs	r1, r7
 1670 00d2 2B81     		strh	r3, [r5, #8]
 1671 00d4 2000     		movs	r0, r4
 1672 00d6 FFF7FEFF 		bl	smtc_real_get_preamble_len
 1673 00da 0123     		movs	r3, #1
 1674 00dc 15AA     		add	r2, sp, #84
 1675 00de 1370     		strb	r3, [r2]
 1676 00e0 A880     		strh	r0, [r5, #4]
 1677 00e2 21AB     		add	r3, sp, #132
 1678 00e4 43CD     		ldmia	r5!, {r0, r1, r6}
 1679 00e6 43C3     		stmia	r3!, {r0, r1, r6}
 1680 00e8 03CD     		ldmia	r5!, {r0, r1}
 1681 00ea 03C3     		stmia	r3!, {r0, r1}
 1682 00ec 774B     		ldr	r3, .L194+32
 1683              	.L193:
 1684 00ee E358     		ldr	r3, [r4, r3]
 1685 00f0 2C93     		str	r3, [sp, #176]
 1686              	.L181:
 1687 00f2 1725     		movs	r5, #23
 1688 00f4 764F     		ldr	r7, .L194+36
 1689 00f6 04AB     		add	r3, sp, #16
 1690 00f8 ED18     		adds	r5, r5, r3
 1691 00fa 2A00     		movs	r2, r5
 1692 00fc 2100     		movs	r1, r4
ARM GAS  /tmp/cc2Yojzh.s 			page 31


 1693 00fe E059     		ldr	r0, [r4, r7]
 1694 0100 FFF7FEFF 		bl	rp_hook_get_id
 1695 0104 0028     		cmp	r0, #0
 1696 0106 16D0     		beq	.L183
 1697 0108 694E     		ldr	r6, .L194+4
 1698 010a 3000     		movs	r0, r6
 1699 010c FFF7FEFF 		bl	smtc_modem_hal_store_crashlog
 1700 0110 0120     		movs	r0, #1
 1701 0112 FFF7FEFF 		bl	smtc_modem_hal_set_crashlog_status
 1702 0116 3100     		movs	r1, r6
 1703 0118 6648     		ldr	r0, .L194+8
 1704 011a FFF7FEFF 		bl	smtc_modem_hal_print_trace
 1705 011e 664E     		ldr	r6, .L194+12
 1706 0120 3000     		movs	r0, r6
 1707 0122 FFF7FEFF 		bl	smtc_modem_hal_print_trace
 1708 0126 6B48     		ldr	r0, .L194+40
 1709 0128 FFF7FEFF 		bl	smtc_modem_hal_print_trace
 1710 012c 3000     		movs	r0, r6
 1711 012e FFF7FEFF 		bl	smtc_modem_hal_print_trace
 1712 0132 FFF7FEFF 		bl	smtc_modem_hal_reset_mcu
 1713              	.L183:
 1714 0136 1A20     		movs	r0, #26
 1715 0138 04AB     		add	r3, sp, #16
 1716 013a 0021     		movs	r1, #0
 1717 013c 1622     		movs	r2, #22
 1718 013e C018     		adds	r0, r0, r3
 1719 0140 FFF7FEFF 		bl	memset
 1720 0144 2B78     		ldrb	r3, [r5]
 1721 0146 04AA     		add	r2, sp, #16
 1722 0148 1376     		strb	r3, [r2, #24]
 1723 014a 15AB     		add	r3, sp, #84
 1724 014c 1A78     		ldrb	r2, [r3]
 1725 014e 531E     		subs	r3, r2, #1
 1726 0150 591E     		subs	r1, r3, #1
 1727 0152 8B41     		sbcs	r3, r3, r1
 1728 0154 04A9     		add	r1, sp, #16
 1729 0156 4B76     		strb	r3, [r1, #25]
 1730 0158 5F4B     		ldr	r3, .L194+44
 1731 015a 012A     		cmp	r2, #1
 1732 015c 00D1     		bne	.L184
 1733 015e 5F4B     		ldr	r3, .L194+48
 1734              	.L184:
 1735 0160 0B93     		str	r3, [sp, #44]
 1736 0162 069B     		ldr	r3, [sp, #24]
 1737 0164 8422     		movs	r2, #132
 1738 0166 0D93     		str	r3, [sp, #52]
 1739 0168 9923     		movs	r3, #153
 1740 016a DB00     		lsls	r3, r3, #3
 1741 016c E358     		ldr	r3, [r4, r3]
 1742 016e 15AE     		add	r6, sp, #84
 1743 0170 0096     		str	r6, [sp]
 1744 0172 9200     		lsls	r2, r2, #2
 1745 0174 1093     		str	r3, [sp, #64]
 1746 0176 E059     		ldr	r0, [r4, r7]
 1747 0178 FF23     		movs	r3, #255
 1748 017a A218     		adds	r2, r4, r2
 1749 017c 0AA9     		add	r1, sp, #40
ARM GAS  /tmp/cc2Yojzh.s 			page 32


 1750 017e FFF7FEFF 		bl	rp_task_enqueue
 1751 0182 574B     		ldr	r3, .L194+52
 1752 0184 0028     		cmp	r0, #0
 1753 0186 00D0     		beq	.LCB1857
 1754 0188 88E0     		b	.L185	@long jump
 1755              	.LCB1857:
 1756 018a 0422     		movs	r2, #4
 1757 018c E254     		strb	r2, [r4, r3]
 1758 018e 059B     		ldr	r3, [sp, #20]
 1759 0190 2A78     		ldrb	r2, [r5]
 1760 0192 591C     		adds	r1, r3, #1
 1761 0194 5348     		ldr	r0, .L194+56
 1762 0196 FFF7FEFF 		bl	smtc_modem_hal_print_trace
 1763 019a 059B     		ldr	r3, [sp, #20]
 1764 019c 3278     		ldrb	r2, [r6]
 1765 019e 5249     		ldr	r1, .L194+60
 1766 01a0 9B00     		lsls	r3, r3, #2
 1767 01a2 012A     		cmp	r2, #1
 1768 01a4 00D0     		beq	.LCB1870
 1769 01a6 73E0     		b	.L186	@long jump
 1770              	.LCB1870:
 1771 01a8 CB58     		ldr	r3, [r1, r3]
 1772 01aa 7432     		adds	r2, r2, #116
 1773 01ac 04A9     		add	r1, sp, #16
 1774 01ae 0593     		str	r3, [sp, #20]
 1775 01b0 5218     		adds	r2, r2, r1
 1776 01b2 1278     		ldrb	r2, [r2]
 1777 01b4 21AB     		add	r3, sp, #132
 1778 01b6 F56B     		ldr	r5, [r6, #60]
 1779 01b8 1E78     		ldrb	r6, [r3]
 1780 01ba 4C4B     		ldr	r3, .L194+64
 1781 01bc 9200     		lsls	r2, r2, #2
 1782 01be 2000     		movs	r0, r4
 1783 01c0 D758     		ldr	r7, [r2, r3]
 1784 01c2 FFF7FEFF 		bl	smtc_real_get_sync_word
 1785 01c6 4A4C     		ldr	r4, .L194+68
 1786 01c8 0290     		str	r0, [sp, #8]
 1787 01ca 2B00     		movs	r3, r5
 1788 01cc 2000     		movs	r0, r4
 1789 01ce 069A     		ldr	r2, [sp, #24]
 1790 01d0 0599     		ldr	r1, [sp, #20]
 1791 01d2 0197     		str	r7, [sp, #4]
 1792 01d4 0096     		str	r6, [sp]
 1793 01d6 FFF7FEFF 		bl	smtc_modem_hal_print_trace
 1794              	.L175:
 1795 01da 37B0     		add	sp, sp, #220
 1796              		@ sp needed
 1797 01dc F0BD     		pop	{r4, r5, r6, r7, pc}
 1798              	.L177:
 1799 01de 676D     		ldr	r7, [r4, #84]
 1800 01e0 42E7     		b	.L179
 1801              	.L180:
 1802 01e2 012E     		cmp	r6, #1
 1803 01e4 3CD1     		bne	.L182
 1804 01e6 1723     		movs	r3, #23
 1805 01e8 04AA     		add	r2, sp, #16
 1806 01ea 9B18     		adds	r3, r3, r2
ARM GAS  /tmp/cc2Yojzh.s 			page 33


 1807 01ec 1A00     		movs	r2, r3
 1808 01ee 2900     		movs	r1, r5
 1809 01f0 2000     		movs	r0, r4
 1810 01f2 0AAD     		add	r5, sp, #40
 1811 01f4 FFF7FEFF 		bl	smtc_real_fsk_dr_to_bitrate
 1812 01f8 0021     		movs	r1, #0
 1813 01fa 2C22     		movs	r2, #44
 1814 01fc 2800     		movs	r0, r5
 1815 01fe FFF7FEFF 		bl	memset
 1816 0202 2000     		movs	r0, r4
 1817 0204 1297     		str	r7, [sp, #72]
 1818 0206 FFF7FEFF 		bl	smtc_real_get_gfsk_sync_word
 1819 020a 4223     		movs	r3, #66
 1820 020c 04AA     		add	r2, sp, #16
 1821 020e 9B18     		adds	r3, r3, r2
 1822 0210 1190     		str	r0, [sp, #68]
 1823 0212 1E70     		strb	r6, [r3]
 1824 0214 374B     		ldr	r3, .L194+72
 1825 0216 D27D     		ldrb	r2, [r2, #23]
 1826 0218 2B85     		strh	r3, [r5, #40]
 1827 021a 374B     		ldr	r3, .L194+76
 1828 021c 1393     		str	r3, [sp, #76]
 1829 021e 2823     		movs	r3, #40
 1830 0220 2B82     		strh	r3, [r5, #16]
 1831 0222 103B     		subs	r3, r3, #16
 1832 0224 EB74     		strb	r3, [r5, #19]
 1833 0226 354B     		ldr	r3, .L194+80
 1834 0228 6E75     		strb	r6, [r5, #21]
 1835 022a EB82     		strh	r3, [r5, #22]
 1836 022c 344B     		ldr	r3, .L194+84
 1837 022e 2E76     		strb	r6, [r5, #24]
 1838 0230 0B93     		str	r3, [sp, #44]
 1839 0232 344B     		ldr	r3, .L194+88
 1840 0234 0C93     		str	r3, [sp, #48]
 1841 0236 0423     		movs	r3, #4
 1842 0238 2B73     		strb	r3, [r5, #12]
 1843 023a FA23     		movs	r3, #250
 1844 023c 9B00     		lsls	r3, r3, #2
 1845 023e 5343     		muls	r3, r2
 1846 0240 0A93     		str	r3, [sp, #40]
 1847 0242 0023     		movs	r3, #0
 1848 0244 15AA     		add	r2, sp, #84
 1849 0246 1370     		strb	r3, [r2]
 1850 0248 21AB     		add	r3, sp, #132
 1851 024a 43CD     		ldmia	r5!, {r0, r1, r6}
 1852 024c 43C3     		stmia	r3!, {r0, r1, r6}
 1853 024e 43CD     		ldmia	r5!, {r0, r1, r6}
 1854 0250 43C3     		stmia	r3!, {r0, r1, r6}
 1855 0252 43CD     		ldmia	r5!, {r0, r1, r6}
 1856 0254 43C3     		stmia	r3!, {r0, r1, r6}
 1857 0256 03CD     		ldmia	r5!, {r0, r1}
 1858 0258 03C3     		stmia	r3!, {r0, r1}
 1859 025a 9923     		movs	r3, #153
 1860 025c DB00     		lsls	r3, r3, #3
 1861 025e 46E7     		b	.L193
 1862              	.L182:
 1863 0260 134D     		ldr	r5, .L194+4
ARM GAS  /tmp/cc2Yojzh.s 			page 34


 1864 0262 2800     		movs	r0, r5
 1865 0264 FFF7FEFF 		bl	smtc_modem_hal_store_crashlog
 1866 0268 0120     		movs	r0, #1
 1867 026a FFF7FEFF 		bl	smtc_modem_hal_set_crashlog_status
 1868 026e 2900     		movs	r1, r5
 1869 0270 1048     		ldr	r0, .L194+8
 1870 0272 FFF7FEFF 		bl	smtc_modem_hal_print_trace
 1871 0276 104D     		ldr	r5, .L194+12
 1872 0278 2800     		movs	r0, r5
 1873 027a FFF7FEFF 		bl	smtc_modem_hal_print_trace
 1874 027e 2248     		ldr	r0, .L194+92
 1875 0280 FFF7FEFF 		bl	smtc_modem_hal_print_trace
 1876 0284 2800     		movs	r0, r5
 1877 0286 FFF7FEFF 		bl	smtc_modem_hal_print_trace
 1878 028a FFF7FEFF 		bl	smtc_modem_hal_reset_mcu
 1879 028e 30E7     		b	.L181
 1880              	.L186:
 1881 0290 1E48     		ldr	r0, .L194+96
 1882 0292 326D     		ldr	r2, [r6, #80]
 1883 0294 C958     		ldr	r1, [r1, r3]
 1884 0296 FFF7FEFF 		bl	smtc_modem_hal_print_trace
 1885 029a 9EE7     		b	.L175
 1886              	.L185:
 1887 029c 0622     		movs	r2, #6
 1888 029e 2978     		ldrb	r1, [r5]
 1889 02a0 1B48     		ldr	r0, .L194+100
 1890 02a2 E254     		strb	r2, [r4, r3]
 1891 02a4 FFF7FEFF 		bl	smtc_modem_hal_print_trace
 1892 02a8 97E7     		b	.L175
 1893              	.L195:
 1894 02aa C046     		.align	2
 1895              	.L194:
 1896 02ac BA040000 		.word	1210
 1897 02b0 00000000 		.word	__func__.6
 1898 02b4 00000000 		.word	.LC6
 1899 02b8 1D000000 		.word	.LC8
 1900 02bc 00000000 		.word	.LC31
 1901 02c0 B4040000 		.word	1204
 1902 02c4 CC040000 		.word	1228
 1903 02c8 00FFFFFF 		.word	-256
 1904 02cc C4040000 		.word	1220
 1905 02d0 BC040000 		.word	1212
 1906 02d4 2E000000 		.word	.LC22
 1907 02d8 00000000 		.word	lr1_stack_mac_rx_gfsk_launch_callback_for_rp
 1908 02dc 00000000 		.word	lr1_stack_mac_rx_lora_launch_callback_for_rp
 1909 02e0 BB040000 		.word	1211
 1910 02e4 4F000000 		.word	.LC36
 1911 02e8 00000000 		.word	smtc_name_rx_windows
 1912 02ec 00000000 		.word	smtc_name_bw
 1913 02f0 6D000000 		.word	.LC40
 1914 02f4 FF010000 		.word	511
 1915 02f8 0F1D2110 		.word	270605583
 1916 02fc FF040000 		.word	1279
 1917 0300 A8610000 		.word	25000
 1918 0304 A0860100 		.word	100000
 1919 0308 24000000 		.word	.LC33
 1920 030c A8000000 		.word	.LC42
ARM GAS  /tmp/cc2Yojzh.s 			page 35


 1921 0310 40000000 		.word	.LC24
 1923              		.section	.rodata.lr1_stack_mac_rp_callback.str1.1,"aMS",%progbits,1
 1924              	.LC45:
 1925 0000 20424144 		.ascii	" BAD Ftype = %u for RX Frame\012\000"
 1925      20467479 
 1925      7065203D 
 1925      20257520 
 1925      666F7220 
 1926              	.LC47:
 1927 001e 1B5B303B 		.ascii	"\033[0;32mINFO:  BAD DevAddr = %x for RX Frame and "
 1927      33326D49 
 1927      4E464F3A 
 1927      20204241 
 1927      44204465 
 1928 004e 25780A0A 		.ascii	"%x\012\012\000"
 1928      00
 1929              	.LC50:
 1930 0053 52656365 		.ascii	"Receive a packet But rejected and too late to resta"
 1930      69766520 
 1930      61207061 
 1930      636B6574 
 1930      20427574 
 1931 0086 72740A00 		.ascii	"rt\012\000"
 1932              	.LC52:
 1933 008a 25732573 		.ascii	"%s%s\000"
 1933      00
 1934              	.LC54:
 1935 008f 52505F53 		.ascii	"RP_STATUS_RX_CRC_ERROR\012\000"
 1935      54415455 
 1935      535F5258 
 1935      5F435243 
 1935      5F455252 
 1936              	.LC56:
 1937 00a7 6C72316D 		.ascii	"lr1mac task aborted by the radioplanner\012\000"
 1937      61632074 
 1937      61736B20 
 1937      61626F72 
 1937      74656420 
 1938              	.LC58:
 1939 00d0 72656365 		.ascii	"receive It RADIO error %u\012\000"
 1939      69766520 
 1939      49742052 
 1939      4144494F 
 1939      20657272 
 1940              	.LC60:
 1941 00eb 1B5B303B 		.ascii	"\033[0;31mERROR: lr1_mac->planner_status %d\000"
 1941      33316D45 
 1941      52524F52 
 1941      3A206C72 
 1941      315F6D61 
 1942              		.section	.text.lr1_stack_mac_rp_callback,"ax",%progbits
 1943              		.align	1
 1944              		.global	lr1_stack_mac_rp_callback
 1945              		.syntax unified
 1946              		.code	16
 1947              		.thumb_func
 1949              	lr1_stack_mac_rp_callback:
ARM GAS  /tmp/cc2Yojzh.s 			page 36


 1950              		@ args = 0, pretend = 0, frame = 16
 1951              		@ frame_needed = 0, uses_anonymous_args = 0
 1952 0000 F0B5     		push	{r4, r5, r6, r7, lr}
 1953 0002 0400     		movs	r4, r0
 1954 0004 85B0     		sub	sp, sp, #20
 1955 0006 794D     		ldr	r5, .L228
 1956 0008 02AB     		add	r3, sp, #8
 1957 000a 0100     		movs	r1, r0
 1958 000c DA1C     		adds	r2, r3, #3
 1959 000e 4059     		ldr	r0, [r0, r5]
 1960 0010 FFF7FEFF 		bl	rp_hook_get_id
 1961 0014 764B     		ldr	r3, .L228+4
 1962 0016 02AA     		add	r2, sp, #8
 1963 0018 754E     		ldr	r6, .L228+4
 1964 001a D178     		ldrb	r1, [r2, #3]
 1965 001c 6059     		ldr	r0, [r4, r5]
 1966 001e E318     		adds	r3, r4, r3
 1967 0020 03AA     		add	r2, sp, #12
 1968 0022 FFF7FEFF 		bl	rp_get_status
 1969 0026 A15D     		ldrb	r1, [r4, r6]
 1970 0028 0A29     		cmp	r1, #10
 1971 002a 00D9     		bls	.LCB2065
 1972 002c ABE0     		b	.L197	@long jump
 1973              	.LCB2065:
 1974 002e 0800     		movs	r0, r1
 1975 0030 FFF7FEFF 		bl	__gnu_thumb1_case_uqi
 1976              	.L199:
 1977 0034 64       		.byte	(.L203-.L199)/2
 1978 0035 A9       		.byte	(.L197-.L199)/2
 1979 0036 A9       		.byte	(.L197-.L199)/2
 1980 0037 06       		.byte	(.L202-.L199)/2
 1981 0038 19       		.byte	(.L201-.L199)/2
 1982 0039 68       		.byte	(.L200-.L199)/2
 1983 003a A9       		.byte	(.L197-.L199)/2
 1984 003b A9       		.byte	(.L197-.L199)/2
 1985 003c A9       		.byte	(.L197-.L199)/2
 1986 003d A9       		.byte	(.L197-.L199)/2
 1987 003e A7       		.byte	(.L198-.L199)/2
 1988 003f 00       		.p2align 1
 1989              	.L202:
 1990 0040 039A     		ldr	r2, [sp, #12]
 1991 0042 6C4B     		ldr	r3, .L228+8
 1992 0044 E250     		str	r2, [r4, r3]
 1993              	.L204:
 1994 0046 6C4D     		ldr	r5, .L228+12
 1995 0048 A15D     		ldrb	r1, [r4, r6]
 1996 004a 635D     		ldrb	r3, [r4, r5]
 1997 004c 022B     		cmp	r3, #2
 1998 004e 00D1     		bne	.LCB2082
 1999 0050 9EE0     		b	.L212	@long jump
 2000              	.LCB2082:
 2001 0052 042B     		cmp	r3, #4
 2002 0054 00D1     		bne	.LCB2084
 2003 0056 A6E0     		b	.L213	@long jump
 2004              	.LCB2084:
 2005 0058 0A29     		cmp	r1, #10
 2006 005a 00D0     		beq	.LCB2086
ARM GAS  /tmp/cc2Yojzh.s 			page 37


 2007 005c A6E0     		b	.L216	@long jump
 2008              	.LCB2086:
 2009              	.L218:
 2010 005e 0623     		movs	r3, #6
 2011 0060 6355     		strb	r3, [r4, r5]
 2012              	.L196:
 2013 0062 05B0     		add	sp, sp, #20
 2014              		@ sp needed
 2015 0064 F0BD     		pop	{r4, r5, r6, r7, pc}
 2016              	.L201:
 2017 0066 9A23     		movs	r3, #154
 2018 0068 039A     		ldr	r2, [sp, #12]
 2019 006a DB00     		lsls	r3, r3, #3
 2020 006c E250     		str	r2, [r4, r3]
 2021 006e 02AB     		add	r3, sp, #8
 2022 0070 DA78     		ldrb	r2, [r3, #3]
 2023 0072 8423     		movs	r3, #132
 2024 0074 5343     		muls	r3, r2
 2025 0076 6159     		ldr	r1, [r4, r5]
 2026 0078 CB18     		adds	r3, r1, r3
 2027 007a 1800     		movs	r0, r3
 2028 007c 7E30     		adds	r0, r0, #126
 2029 007e 0588     		ldrh	r5, [r0]
 2030 0080 5E48     		ldr	r0, .L228+16
 2031 0082 7C33     		adds	r3, r3, #124
 2032 0084 2552     		strh	r5, [r4, r0]
 2033 0086 1888     		ldrh	r0, [r3]
 2034 0088 5D4B     		ldr	r3, .L228+20
 2035 008a 5E4D     		ldr	r5, .L228+24
 2036 008c E052     		strh	r0, [r4, r3]
 2037 008e 433B     		subs	r3, r3, #67
 2038 0090 FF3B     		subs	r3, r3, #255
 2039 0092 D218     		adds	r2, r2, r3
 2040 0094 5200     		lsls	r2, r2, #1
 2041 0096 535A     		ldrh	r3, [r2, r1]
 2042 0098 6355     		strb	r3, [r4, r5]
 2043 009a 8423     		movs	r3, #132
 2044 009c 9B00     		lsls	r3, r3, #2
 2045 009e E15C     		ldrb	r1, [r4, r3]
 2046 00a0 3C3B     		subs	r3, r3, #60
 2047 00a2 4909     		lsrs	r1, r1, #5
 2048 00a4 FF3B     		subs	r3, r3, #255
 2049 00a6 CB40     		lsrs	r3, r3, r1
 2050 00a8 DB07     		lsls	r3, r3, #31
 2051 00aa 0CD5     		bpl	.L205
 2052 00ac 5648     		ldr	r0, .L228+28
 2053 00ae FFF7FEFF 		bl	smtc_modem_hal_print_trace
 2054              	.L206:
 2055 00b2 564A     		ldr	r2, .L228+32
 2056 00b4 5649     		ldr	r1, .L228+36
 2057 00b6 5748     		ldr	r0, .L228+40
 2058 00b8 FFF7FEFF 		bl	smtc_modem_hal_print_trace
 2059 00bc 0523     		movs	r3, #5
 2060 00be A355     		strb	r3, [r4, r6]
 2061 00c0 0023     		movs	r3, #0
 2062 00c2 6355     		strb	r3, [r4, r5]
 2063 00c4 BFE7     		b	.L204
ARM GAS  /tmp/cc2Yojzh.s 			page 38


 2064              	.L205:
 2065 00c6 544B     		ldr	r3, .L228+44
 2066 00c8 E35C     		ldrb	r3, [r4, r3]
 2067 00ca 022B     		cmp	r3, #2
 2068 00cc BBD1     		bne	.L204
 2069 00ce 534A     		ldr	r2, .L228+48
 2070 00d0 524B     		ldr	r3, .L228+48
 2071 00d2 A118     		adds	r1, r4, r2
 2072 00d4 4A78     		ldrb	r2, [r1, #1]
 2073 00d6 E35C     		ldrb	r3, [r4, r3]
 2074 00d8 1202     		lsls	r2, r2, #8
 2075 00da 1A43     		orrs	r2, r3
 2076 00dc 8B78     		ldrb	r3, [r1, #2]
 2077 00de 1B04     		lsls	r3, r3, #16
 2078 00e0 1343     		orrs	r3, r2
 2079 00e2 CA78     		ldrb	r2, [r1, #3]
 2080 00e4 E16E     		ldr	r1, [r4, #108]
 2081 00e6 1206     		lsls	r2, r2, #24
 2082 00e8 1A43     		orrs	r2, r3
 2083 00ea 9142     		cmp	r1, r2
 2084 00ec ABD0     		beq	.L204
 2085 00ee 4C48     		ldr	r0, .L228+52
 2086 00f0 FFF7FEFF 		bl	smtc_modem_hal_print_trace
 2087 00f4 4648     		ldr	r0, .L228+36
 2088 00f6 FFF7FEFF 		bl	smtc_modem_hal_print_trace
 2089 00fa DAE7     		b	.L206
 2090              	.L203:
 2091 00fc 4948     		ldr	r0, .L228+56
 2092              	.L227:
 2093 00fe FFF7FEFF 		bl	smtc_modem_hal_print_trace
 2094 0102 A0E7     		b	.L204
 2095              	.L200:
 2096 0104 2300     		movs	r3, r4
 2097 0106 484A     		ldr	r2, .L228+60
 2098 0108 5933     		adds	r3, r3, #89
 2099 010a 1B78     		ldrb	r3, [r3]
 2100 010c A25C     		ldrb	r2, [r4, r2]
 2101 010e 591C     		adds	r1, r3, #1
 2102 0110 039D     		ldr	r5, [sp, #12]
 2103 0112 0191     		str	r1, [sp, #4]
 2104 0114 002A     		cmp	r2, #0
 2105 0116 00D1     		bne	.L210
 2106 0118 0193     		str	r3, [sp, #4]
 2107              	.L210:
 2108 011a 9922     		movs	r2, #153
 2109 011c 354B     		ldr	r3, .L228+8
 2110 011e D200     		lsls	r2, r2, #3
 2111 0120 A258     		ldr	r2, [r4, r2]
 2112 0122 E358     		ldr	r3, [r4, r3]
 2113 0124 9727     		movs	r7, #151
 2114 0126 9B18     		adds	r3, r3, r2
 2115 0128 ED1A     		subs	r5, r5, r3
 2116 012a A123     		movs	r3, #161
 2117 012c 9D22     		movs	r2, #157
 2118 012e DB00     		lsls	r3, r3, #3
 2119 0130 E358     		ldr	r3, [r4, r3]
 2120 0132 FF00     		lsls	r7, r7, #3
ARM GAS  /tmp/cc2Yojzh.s 			page 39


 2121 0134 ED1A     		subs	r5, r5, r3
 2122 0136 E35D     		ldrb	r3, [r4, r7]
 2123 0138 9200     		lsls	r2, r2, #2
 2124 013a 9B18     		adds	r3, r3, r2
 2125 013c 5B00     		lsls	r3, r3, #1
 2126 013e 1B5F     		ldrsh	r3, [r3, r4]
 2127 0140 ED1A     		subs	r5, r5, r3
 2128 0142 FFF7FEFF 		bl	smtc_modem_hal_get_radio_tcxo_startup_delay_ms
 2129 0146 FA23     		movs	r3, #250
 2130 0148 019A     		ldr	r2, [sp, #4]
 2131 014a 9B00     		lsls	r3, r3, #2
 2132 014c 5343     		muls	r3, r2
 2133 014e 2D1A     		subs	r5, r5, r0
 2134 0150 ED1A     		subs	r5, r5, r3
 2135 0152 FFF7FEFF 		bl	smtc_modem_hal_get_board_delay_ms
 2136 0156 281A     		subs	r0, r5, r0
 2137 0158 08D5     		bpl	.L211
 2138 015a 9D21     		movs	r1, #157
 2139 015c E35D     		ldrb	r3, [r4, r7]
 2140 015e C900     		lsls	r1, r1, #3
 2141 0160 5B00     		lsls	r3, r3, #1
 2142 0162 E318     		adds	r3, r4, r3
 2143 0164 5A5A     		ldrh	r2, [r3, r1]
 2144 0166 013A     		subs	r2, r2, #1
 2145              	.L226:
 2146 0168 5A52     		strh	r2, [r3, r1]
 2147 016a 6CE7     		b	.L204
 2148              	.L211:
 2149 016c 0028     		cmp	r0, #0
 2150 016e 00D1     		bne	.LCB2256
 2151 0170 69E7     		b	.L204	@long jump
 2152              	.LCB2256:
 2153 0172 9D21     		movs	r1, #157
 2154 0174 E35D     		ldrb	r3, [r4, r7]
 2155 0176 C900     		lsls	r1, r1, #3
 2156 0178 5B00     		lsls	r3, r3, #1
 2157 017a E318     		adds	r3, r4, r3
 2158 017c 5A5A     		ldrh	r2, [r3, r1]
 2159 017e 0132     		adds	r2, r2, #1
 2160 0180 F2E7     		b	.L226
 2161              	.L198:
 2162 0182 2A48     		ldr	r0, .L228+64
 2163 0184 BBE7     		b	.L227
 2164              	.L197:
 2165 0186 2A4B     		ldr	r3, .L228+68
 2166 0188 1800     		movs	r0, r3
 2167 018a FFF7FEFF 		bl	smtc_modem_hal_print_trace
 2168 018e 5AE7     		b	.L204
 2169              	.L212:
 2170 0190 0323     		movs	r3, #3
 2171 0192 6355     		strb	r3, [r4, r5]
 2172 0194 C423     		movs	r3, #196
 2173 0196 0022     		movs	r2, #0
 2174 0198 9B00     		lsls	r3, r3, #2
 2175 019a E254     		strb	r2, [r4, r3]
 2176              	.L215:
 2177 019c A35D     		ldrb	r3, [r4, r6]
ARM GAS  /tmp/cc2Yojzh.s 			page 40


 2178 019e 0A2B     		cmp	r3, #10
 2179 01a0 00D0     		beq	.LCB2290
 2180 01a2 5EE7     		b	.L196	@long jump
 2181              	.LCB2290:
 2182 01a4 5BE7     		b	.L218
 2183              	.L213:
 2184 01a6 0523     		movs	r3, #5
 2185 01a8 6355     		strb	r3, [r4, r5]
 2186 01aa F7E7     		b	.L215
 2187              	.L216:
 2188 01ac 2148     		ldr	r0, .L228+72
 2189 01ae FFF7FEFF 		bl	smtc_modem_hal_print_trace
 2190 01b2 174F     		ldr	r7, .L228+36
 2191 01b4 3800     		movs	r0, r7
 2192 01b6 FFF7FEFF 		bl	smtc_modem_hal_print_trace
 2193 01ba 1F4B     		ldr	r3, .L228+76
 2194 01bc 1800     		movs	r0, r3
 2195 01be 0193     		str	r3, [sp, #4]
 2196 01c0 FFF7FEFF 		bl	smtc_modem_hal_store_crashlog
 2197 01c4 0120     		movs	r0, #1
 2198 01c6 FFF7FEFF 		bl	smtc_modem_hal_set_crashlog_status
 2199 01ca 0199     		ldr	r1, [sp, #4]
 2200 01cc 1B48     		ldr	r0, .L228+80
 2201 01ce FFF7FEFF 		bl	smtc_modem_hal_print_trace
 2202 01d2 3800     		movs	r0, r7
 2203 01d4 FFF7FEFF 		bl	smtc_modem_hal_print_trace
 2204 01d8 1948     		ldr	r0, .L228+84
 2205 01da FFF7FEFF 		bl	smtc_modem_hal_print_trace
 2206 01de 3800     		movs	r0, r7
 2207 01e0 FFF7FEFF 		bl	smtc_modem_hal_print_trace
 2208 01e4 FFF7FEFF 		bl	smtc_modem_hal_reset_mcu
 2209 01e8 D8E7     		b	.L215
 2210              	.L229:
 2211 01ea C046     		.align	2
 2212              	.L228:
 2213 01ec BC040000 		.word	1212
 2214 01f0 CF040000 		.word	1231
 2215 01f4 E4040000 		.word	1252
 2216 01f8 BB040000 		.word	1211
 2217 01fc D4040000 		.word	1236
 2218 0200 D6040000 		.word	1238
 2219 0204 0F020000 		.word	527
 2220 0208 00000000 		.word	.LC45
 2221 020c 53000000 		.word	.LC50
 2222 0210 1D000000 		.word	.LC8
 2223 0214 8A000000 		.word	.LC52
 2224 0218 CE040000 		.word	1230
 2225 021c 11020000 		.word	529
 2226 0220 1E000000 		.word	.LC47
 2227 0224 8F000000 		.word	.LC54
 2228 0228 BA040000 		.word	1210
 2229 022c A7000000 		.word	.LC56
 2230 0230 D0000000 		.word	.LC58
 2231 0234 EB000000 		.word	.LC60
 2232 0238 00000000 		.word	__func__.5
 2233 023c 00000000 		.word	.LC6
 2234 0240 2E000000 		.word	.LC22
ARM GAS  /tmp/cc2Yojzh.s 			page 41


 2236              		.section	.rodata.lr1_stack_mac_rx_timer_configure.str1.1,"aMS",%progbits,1
 2237              	.LC70:
 2238 0000 20205469 		.ascii	"  Timer will expire in %d ms\012\000"
 2238      6D657220 
 2238      77696C6C 
 2238      20657870 
 2238      69726520 
 2239              		.section	.text.lr1_stack_mac_rx_timer_configure,"ax",%progbits
 2240              		.align	1
 2241              		.global	lr1_stack_mac_rx_timer_configure
 2242              		.syntax unified
 2243              		.code	16
 2244              		.thumb_func
 2246              	lr1_stack_mac_rx_timer_configure:
 2247              		@ args = 0, pretend = 0, frame = 16
 2248              		@ frame_needed = 0, uses_anonymous_args = 0
 2249 0000 F0B5     		push	{r4, r5, r6, r7, lr}
 2250 0002 89B0     		sub	sp, sp, #36
 2251 0004 0D00     		movs	r5, r1
 2252 0006 0400     		movs	r4, r0
 2253 0008 FFF7FEFF 		bl	smtc_modem_hal_get_time_in_ms
 2254 000c 2900     		movs	r1, r5
 2255 000e 0590     		str	r0, [sp, #20]
 2256 0010 2000     		movs	r0, r4
 2257 0012 FFF7FEFF 		bl	smtc_real_set_rx_config
 2258 0016 002D     		cmp	r5, #0
 2259 0018 1BD0     		beq	.L231
 2260 001a 012D     		cmp	r5, #1
 2261 001c 00D1     		bne	.LCB2368
 2262 001e 68E0     		b	.L232	@long jump
 2263              	.LCB2368:
 2264 0020 4D4C     		ldr	r4, .L242
 2265 0022 2000     		movs	r0, r4
 2266 0024 FFF7FEFF 		bl	smtc_modem_hal_store_crashlog
 2267 0028 0120     		movs	r0, #1
 2268 002a FFF7FEFF 		bl	smtc_modem_hal_set_crashlog_status
 2269 002e 2100     		movs	r1, r4
 2270 0030 4A48     		ldr	r0, .L242+4
 2271 0032 FFF7FEFF 		bl	smtc_modem_hal_print_trace
 2272 0036 4A4C     		ldr	r4, .L242+8
 2273 0038 2000     		movs	r0, r4
 2274 003a FFF7FEFF 		bl	smtc_modem_hal_print_trace
 2275 003e 4948     		ldr	r0, .L242+12
 2276 0040 FFF7FEFF 		bl	smtc_modem_hal_print_trace
 2277 0044 2000     		movs	r0, r4
 2278 0046 FFF7FEFF 		bl	smtc_modem_hal_print_trace
 2279 004a FFF7FEFF 		bl	smtc_modem_hal_reset_mcu
 2280              	.L230:
 2281 004e 09B0     		add	sp, sp, #36
 2282              		@ sp needed
 2283 0050 F0BD     		pop	{r4, r5, r6, r7, pc}
 2284              	.L231:
 2285 0052 2300     		movs	r3, r4
 2286 0054 5933     		adds	r3, r3, #89
 2287 0056 1E78     		ldrb	r6, [r3]
 2288              	.L234:
 2289 0058 9727     		movs	r7, #151
ARM GAS  /tmp/cc2Yojzh.s 			page 42


 2290 005a FF00     		lsls	r7, r7, #3
 2291 005c 2000     		movs	r0, r4
 2292 005e E15D     		ldrb	r1, [r4, r7]
 2293 0060 FFF7FEFF 		bl	smtc_real_get_modulation_type_from_datarate
 2294 0064 0028     		cmp	r0, #0
 2295 0066 49D1     		bne	.L236
 2296 0068 1623     		movs	r3, #22
 2297 006a 02AA     		add	r2, sp, #8
 2298 006c 9B18     		adds	r3, r3, r2
 2299 006e 1522     		movs	r2, #21
 2300 0070 02A8     		add	r0, sp, #8
 2301 0072 1218     		adds	r2, r2, r0
 2302 0074 E15D     		ldrb	r1, [r4, r7]
 2303 0076 2000     		movs	r0, r4
 2304 0078 FFF7FEFF 		bl	smtc_real_lora_dr_to_sf_bw
 2305              	.L237:
 2306 007c FA23     		movs	r3, #250
 2307 007e 9B00     		lsls	r3, r3, #2
 2308 0080 7343     		muls	r3, r6
 2309 0082 0493     		str	r3, [sp, #16]
 2310 0084 FFF7FEFF 		bl	smtc_modem_hal_get_radio_tcxo_startup_delay_ms
 2311 0088 9727     		movs	r7, #151
 2312 008a 0600     		movs	r6, r0
 2313 008c FFF7FEFF 		bl	smtc_modem_hal_get_board_delay_ms
 2314 0090 9D23     		movs	r3, #157
 2315 0092 FF00     		lsls	r7, r7, #3
 2316 0094 E15D     		ldrb	r1, [r4, r7]
 2317 0096 9B00     		lsls	r3, r3, #2
 2318 0098 CB18     		adds	r3, r1, r3
 2319 009a 5B00     		lsls	r3, r3, #1
 2320 009c 1B5F     		ldrsh	r3, [r3, r4]
 2321 009e 049A     		ldr	r2, [sp, #16]
 2322 00a0 9E19     		adds	r6, r3, r6
 2323 00a2 0023     		movs	r3, #0
 2324 00a4 0293     		str	r3, [sp, #8]
 2325 00a6 304B     		ldr	r3, .L242+16
 2326 00a8 3618     		adds	r6, r6, r0
 2327 00aa E318     		adds	r3, r4, r3
 2328 00ac 0193     		str	r3, [sp, #4]
 2329 00ae 9923     		movs	r3, #153
 2330 00b0 DB00     		lsls	r3, r3, #3
 2331 00b2 E318     		adds	r3, r4, r3
 2332 00b4 0093     		str	r3, [sp]
 2333 00b6 2D4B     		ldr	r3, .L242+20
 2334 00b8 2000     		movs	r0, r4
 2335 00ba E318     		adds	r3, r4, r3
 2336 00bc FFF7FEFF 		bl	smtc_real_get_rx_window_parameters
 2337 00c0 A120     		movs	r0, #161
 2338 00c2 2A4B     		ldr	r3, .L242+20
 2339 00c4 C000     		lsls	r0, r0, #3
 2340 00c6 2018     		adds	r0, r4, r0
 2341 00c8 E15D     		ldrb	r1, [r4, r7]
 2342 00ca E35A     		ldrh	r3, [r4, r3]
 2343 00cc 72B2     		sxtb	r2, r6
 2344 00ce 0090     		str	r0, [sp]
 2345 00d0 2000     		movs	r0, r4
 2346 00d2 FFF7FEFF 		bl	smtc_real_get_rx_start_time_offset_ms
ARM GAS  /tmp/cc2Yojzh.s 			page 43


 2347 00d6 264B     		ldr	r3, .L242+24
 2348 00d8 5037     		adds	r7, r7, #80
 2349 00da E258     		ldr	r2, [r4, r3]
 2350 00dc 049B     		ldr	r3, [sp, #16]
 2351 00de 9A18     		adds	r2, r3, r2
 2352 00e0 059B     		ldr	r3, [sp, #20]
 2353 00e2 D61A     		subs	r6, r2, r3
 2354 00e4 E359     		ldr	r3, [r4, r7]
 2355 00e6 F11A     		subs	r1, r6, r3
 2356 00e8 2AD5     		bpl	.L239
 2357 00ea 0522     		movs	r2, #5
 2358 00ec 214B     		ldr	r3, .L242+28
 2359 00ee E254     		strb	r2, [r4, r3]
 2360 00f0 ADE7     		b	.L230
 2361              	.L232:
 2362 00f2 2300     		movs	r3, r4
 2363 00f4 5933     		adds	r3, r3, #89
 2364 00f6 1E78     		ldrb	r6, [r3]
 2365 00f8 0136     		adds	r6, r6, #1
 2366 00fa ADE7     		b	.L234
 2367              	.L236:
 2368 00fc 0128     		cmp	r0, #1
 2369 00fe 07D1     		bne	.L238
 2370 0100 1722     		movs	r2, #23
 2371 0102 02AB     		add	r3, sp, #8
 2372 0104 2000     		movs	r0, r4
 2373 0106 E15D     		ldrb	r1, [r4, r7]
 2374 0108 D218     		adds	r2, r2, r3
 2375 010a FFF7FEFF 		bl	smtc_real_fsk_dr_to_bitrate
 2376 010e B5E7     		b	.L237
 2377              	.L238:
 2378 0110 114F     		ldr	r7, .L242
 2379 0112 3800     		movs	r0, r7
 2380 0114 FFF7FEFF 		bl	smtc_modem_hal_store_crashlog
 2381 0118 0120     		movs	r0, #1
 2382 011a FFF7FEFF 		bl	smtc_modem_hal_set_crashlog_status
 2383 011e 3900     		movs	r1, r7
 2384 0120 0E48     		ldr	r0, .L242+4
 2385 0122 FFF7FEFF 		bl	smtc_modem_hal_print_trace
 2386 0126 0E4F     		ldr	r7, .L242+8
 2387 0128 3800     		movs	r0, r7
 2388 012a FFF7FEFF 		bl	smtc_modem_hal_print_trace
 2389 012e 1248     		ldr	r0, .L242+32
 2390 0130 FFF7FEFF 		bl	smtc_modem_hal_print_trace
 2391 0134 3800     		movs	r0, r7
 2392 0136 FFF7FEFF 		bl	smtc_modem_hal_print_trace
 2393 013a FFF7FEFF 		bl	smtc_modem_hal_reset_mcu
 2394 013e 9DE7     		b	.L237
 2395              	.L239:
 2396 0140 2900     		movs	r1, r5
 2397 0142 2000     		movs	r0, r4
 2398 0144 D218     		adds	r2, r2, r3
 2399 0146 FFF7FEFF 		bl	lr1_stack_mac_rx_radio_start
 2400 014a E159     		ldr	r1, [r4, r7]
 2401 014c 0B48     		ldr	r0, .L242+36
 2402 014e 7118     		adds	r1, r6, r1
 2403 0150 FFF7FEFF 		bl	smtc_modem_hal_print_trace
ARM GAS  /tmp/cc2Yojzh.s 			page 44


 2404 0154 7BE7     		b	.L230
 2405              	.L243:
 2406 0156 C046     		.align	2
 2407              	.L242:
 2408 0158 00000000 		.word	__func__.4
 2409 015c 00000000 		.word	.LC6
 2410 0160 1D000000 		.word	.LC8
 2411 0164 00000000 		.word	.LC31
 2412 0168 C4040000 		.word	1220
 2413 016c CC040000 		.word	1228
 2414 0170 E4040000 		.word	1252
 2415 0174 BB040000 		.word	1211
 2416 0178 24000000 		.word	.LC33
 2417 017c 00000000 		.word	.LC70
 2419              		.section	.text.lr1_stack_mac_update_tx_done,"ax",%progbits
 2420              		.align	1
 2421              		.global	lr1_stack_mac_update_tx_done
 2422              		.syntax unified
 2423              		.code	16
 2424              		.thumb_func
 2426              	lr1_stack_mac_update_tx_done:
 2427              		@ args = 0, pretend = 0, frame = 0
 2428              		@ frame_needed = 0, uses_anonymous_args = 0
 2429 0000 9422     		movs	r2, #148
 2430 0002 D200     		lsls	r2, r2, #3
 2431 0004 835A     		ldrh	r3, [r0, r2]
 2432 0006 1349     		ldr	r1, .L253
 2433 0008 10B5     		push	{r4, lr}
 2434 000a 8B42     		cmp	r3, r1
 2435 000c 05D0     		beq	.L245
 2436 000e 124C     		ldr	r4, .L253+4
 2437 0010 045D     		ldrb	r4, [r0, r4]
 2438 0012 002C     		cmp	r4, #0
 2439 0014 01D0     		beq	.L245
 2440 0016 0133     		adds	r3, r3, #1
 2441 0018 8352     		strh	r3, [r0, r2]
 2442              	.L245:
 2443 001a 104A     		ldr	r2, .L253+8
 2444 001c 835A     		ldrh	r3, [r0, r2]
 2445 001e 8B42     		cmp	r3, r1
 2446 0020 01D0     		beq	.L246
 2447 0022 0133     		adds	r3, r3, #1
 2448 0024 8352     		strh	r3, [r0, r2]
 2449              	.L246:
 2450 0026 0E4B     		ldr	r3, .L253+12
 2451 0028 C25C     		ldrb	r2, [r0, r3]
 2452 002a 012A     		cmp	r2, #1
 2453 002c 01D1     		bne	.L247
 2454 002e 0132     		adds	r2, r2, #1
 2455 0030 C254     		strb	r2, [r0, r3]
 2456              	.L247:
 2457 0032 0C4B     		ldr	r3, .L253+16
 2458 0034 C25C     		ldrb	r2, [r0, r3]
 2459 0036 012A     		cmp	r2, #1
 2460 0038 05D1     		bne	.L248
 2461 003a 0132     		adds	r2, r2, #1
 2462 003c C254     		strb	r2, [r0, r3]
ARM GAS  /tmp/cc2Yojzh.s 			page 45


 2463 003e 0A4B     		ldr	r3, .L253+20
 2464 0040 C258     		ldr	r2, [r0, r3]
 2465 0042 4C33     		adds	r3, r3, #76
 2466 0044 C250     		str	r2, [r0, r3]
 2467              	.L248:
 2468 0046 094B     		ldr	r3, .L253+24
 2469 0048 C25C     		ldrb	r2, [r0, r3]
 2470 004a 012A     		cmp	r2, #1
 2471 004c 01D1     		bne	.L244
 2472 004e 0132     		adds	r2, r2, #1
 2473 0050 C254     		strb	r2, [r0, r3]
 2474              	.L244:
 2475              		@ sp needed
 2476 0052 10BD     		pop	{r4, pc}
 2477              	.L254:
 2478              		.align	2
 2479              	.L253:
 2480 0054 FFFF0000 		.word	65535
 2481 0058 92040000 		.word	1170
 2482 005c 9E040000 		.word	1182
 2483 0060 44050000 		.word	1348
 2484 0064 45050000 		.word	1349
 2485 0068 E4040000 		.word	1252
 2486 006c 46050000 		.word	1350
 2488              		.section	.rodata.lr1_stack_mac_cmd_parse.str1.1,"aMS",%progbits,1
 2489              	.LC72:
 2490 0000 1B5B303B 		.ascii	"\033[0;33mWARN: too much cmd in the payload\012\000"
 2490      33336D57 
 2490      41524E3A 
 2490      20746F6F 
 2490      206D7563 
 2491              	.LC75:
 2492 002a 204D6172 		.ascii	" Margin = %d, GwCnt = %d\012\000"
 2492      67696E20 
 2492      3D202564 
 2492      2C204777 
 2492      436E7420 
 2493              	.LC77:
 2494 0044 25752F25 		.ascii	"%u/%u - Cmd link_adr_parser = %02x %02x %02x %02x\012"
 2494      75202D20 
 2494      436D6420 
 2494      6C696E6B 
 2494      5F616472 
 2495 0076 00       		.ascii	"\000"
 2496              	.LC79:
 2497 0077 2575202D 		.ascii	"%u - MULTIPLE LINK ADR REQ , channel mask = 0x%x , "
 2497      204D554C 
 2497      5449504C 
 2497      45204C49 
 2497      4E4B2041 
 2498 00aa 43684D41 		.ascii	"ChMAstCntl = 0x%x\012\000"
 2498      7374436E 
 2498      746C203D 
 2498      20307825 
 2498      780A00
 2499              	.LC81:
 2500 00bd 1B5B303B 		.ascii	"\033[0;33mWARN: INVALID CHANNEL CNTL\012\000"
ARM GAS  /tmp/cc2Yojzh.s 			page 46


 2500      33336D57 
 2500      41524E3A 
 2500      20494E56 
 2500      414C4944 
 2501              	.LC83:
 2502 00e0 1B5B303B 		.ascii	"\033[0;33mWARN: INVALID CHANNEL MASK in Mobile Mode"
 2502      33336D57 
 2502      41524E3A 
 2502      20494E56 
 2502      414C4944 
 2503 0110 0A00     		.ascii	"\012\000"
 2504              	.LC85:
 2505 0112 1B5B303B 		.ascii	"\033[0;33mWARN: INVALID CHANNEL MASK\012\000"
 2505      33336D57 
 2505      41524E3A 
 2505      20494E56 
 2505      414C4944 
 2506              	.LC87:
 2507 0135 1B5B303B 		.ascii	"\033[0;33mWARN: INVALID DATARATE\012\000"
 2507      33336D57 
 2507      41524E3A 
 2507      20494E56 
 2507      414C4944 
 2508              	.LC89:
 2509 0154 1B5B303B 		.ascii	"\033[0;33mWARN: INVALID TXPOWER\012\000"
 2509      33336D57 
 2509      41524E3A 
 2509      20494E56 
 2509      414C4944 
 2510              	.LC91:
 2511 0172 4D616354 		.ascii	"MacTxDataRateAdr = %d\012\000"
 2511      78446174 
 2511      61526174 
 2511      65416472 
 2511      203D2025 
 2512              	.LC93:
 2513 0189 4D616354 		.ascii	"MacTxPower = %d\012\000"
 2513      78506F77 
 2513      6572203D 
 2513      2025640A 
 2513      00
 2514              	.LC95:
 2515 019a 4D61634E 		.ascii	"MacNbTrans = %d\012\000"
 2515      62547261 
 2515      6E73203D 
 2515      2025640A 
 2515      00
 2516              	.LC97:
 2517 01ab 436D6420 		.ascii	"Cmd duty_cycle_parser %x\012\000"
 2517      64757479 
 2517      5F637963 
 2517      6C655F70 
 2517      61727365 
 2518              	.LC99:
 2519 01c5 20436D64 		.ascii	" Cmd rx_param_setup_parser = %x %x %x %x\012\000"
 2519      2072785F 
 2519      70617261 
ARM GAS  /tmp/cc2Yojzh.s 			page 47


 2519      6D5F7365 
 2519      7475705F 
 2520              	.LC101:
 2521 01ef 494E5641 		.ascii	"INVALID RX1DROFFSET\012\000"
 2521      4C494420 
 2521      52583144 
 2521      524F4646 
 2521      5345540A 
 2522              	.LC104:
 2523 0204 494E5641 		.ascii	"INVALID RX2DR\012\000"
 2523      4C494420 
 2523      52583244 
 2523      520A00
 2524              	.LC106:
 2525 0213 494E5641 		.ascii	"INVALID RX2 FREQUENCY\012\000"
 2525      4C494420 
 2525      52583220 
 2525      46524551 
 2525      55454E43 
 2526              	.LC108:
 2527 022a 4D616352 		.ascii	"MacRx1DataRateOffset = %d\012\000"
 2527      78314461 
 2527      74615261 
 2527      74654F66 
 2527      66736574 
 2528              	.LC110:
 2529 0245 4D616352 		.ascii	"MacRx2DataRate = %d\012\000"
 2529      78324461 
 2529      74615261 
 2529      7465203D 
 2529      2025640A 
 2530              	.LC112:
 2531 025a 4D616352 		.ascii	"MacRx2Frequency = %d\012\000"
 2531      78324672 
 2531      65717565 
 2531      6E637920 
 2531      3D202564 
 2532              	.LC114:
 2533 0270 52656365 		.ascii	"Receive a dev status req\012\000"
 2533      69766520 
 2533      61206465 
 2533      76207374 
 2533      61747573 
 2534              	.LC116:
 2535 028a 20436D64 		.ascii	" Cmd new_channel_parser = %x %x %x %x %x\012\000"
 2535      206E6577 
 2535      5F636861 
 2535      6E6E656C 
 2535      5F706172 
 2536              	.LC118:
 2537 02b4 1B5B303B 		.ascii	"\033[0;33mWARN: NewChannelReq is not supported for "
 2537      33336D57 
 2537      41524E3A 
 2537      204E6577 
 2537      4368616E 
 2538 02e4 74686973 		.ascii	"this region\012\000"
 2538      20726567 
ARM GAS  /tmp/cc2Yojzh.s 			page 48


 2538      696F6E0A 
 2538      00
 2539              	.LC120:
 2540 02f1 494E5641 		.ascii	"INVALID CHANNEL INDEX\012\000"
 2540      4C494420 
 2540      4348414E 
 2540      4E454C20 
 2540      494E4445 
 2541              	.LC122:
 2542 0308 494E5641 		.ascii	"INVALID FREQUENCY\012\000"
 2542      4C494420 
 2542      46524551 
 2542      55454E43 
 2542      590A00
 2543              	.LC124:
 2544 031b 494E5641 		.ascii	"INVALID DR MIN\012\000"
 2544      4C494420 
 2544      4452204D 
 2544      494E0A00 
 2545              	.LC126:
 2546 032b 494E5641 		.ascii	"INVALID DR MAX\012\000"
 2546      4C494420 
 2546      4452204D 
 2546      41580A00 
 2547              	.LC128:
 2548 033b 494E5641 		.ascii	"INVALID DR MAX < DR MIN\012\000"
 2548      4C494420 
 2548      4452204D 
 2548      4158203C 
 2548      20445220 
 2549              	.LC130:
 2550 0354 4D616354 		.ascii	"MacTxFrequency [ %d ] = %d, DrMin = %d, DrMax = %d\012"
 2550      78467265 
 2550      7175656E 
 2550      6379205B 
 2550      20256420 
 2551 0387 00       		.ascii	"\000"
 2552              	.LC132:
 2553 0388 436D6420 		.ascii	"Cmd rx_timing_setup_parser = %x\012\000"
 2553      72785F74 
 2553      696D696E 
 2553      675F7365 
 2553      7475705F 
 2554              	.LC134:
 2555 03a9 436D6420 		.ascii	"Cmd tx_param_setup_parser = %x\012\000"
 2555      74785F70 
 2555      6172616D 
 2555      5F736574 
 2555      75705F70 
 2556              	.LC136:
 2557 03c9 1B5B303B 		.ascii	"\033[0;33mWARN: TxParamSetupReq is not supported fo"
 2557      33336D57 
 2557      41524E3A 
 2557      20547850 
 2557      6172616D 
 2558 03f9 72207468 		.ascii	"r this region\012\000"
 2558      69732072 
ARM GAS  /tmp/cc2Yojzh.s 			page 49


 2558      6567696F 
 2558      6E0A00
 2559              	.LC139:
 2560 0408 436D6420 		.ascii	"Cmd dl_channel_parser = %x %x %x %x \012\000"
 2560      646C5F63 
 2560      68616E6E 
 2560      656C5F70 
 2560      61727365 
 2561              	.LC141:
 2562 042e 1B5B303B 		.ascii	"\033[0;33mWARN: DlChannelReq is not supported for t"
 2562      33336D57 
 2562      41524E3A 
 2562      20446C43 
 2562      68616E6E 
 2563 045e 68697320 		.ascii	"his region\012\000"
 2563      72656769 
 2563      6F6E0A00 
 2564              	.LC143:
 2565 046a 4D616352 		.ascii	"MacRx1Frequency [ %u ] = %d\012\000"
 2565      78314672 
 2565      65717565 
 2565      6E637920 
 2565      5B202575 
 2566              	.LC145:
 2567 0487 436D6420 		.ascii	"Cmd device_time_ans_parser = %x %x %x %x %x\012\000"
 2567      64657669 
 2567      63655F74 
 2567      696D655F 
 2567      616E735F 
 2568              	.LC147:
 2569 04b4 5365636F 		.ascii	"SecondsSinceEpoch %u, FractionalSecond %u\012\000"
 2569      6E647353 
 2569      696E6365 
 2569      45706F63 
 2569      68202575 
 2570              	.LC149:
 2571 04df 2050696E 		.ascii	" PingSlotInfoAns\012\000"
 2571      67536C6F 
 2571      74496E66 
 2571      6F416E73 
 2571      0A00
 2572              	.LC151:
 2573 04f1 20436D64 		.ascii	" Cmd ping_slot_channel_req_parser = %x %x %x %x\012"
 2573      2070696E 
 2573      675F736C 
 2573      6F745F63 
 2573      68616E6E 
 2574 0521 00       		.ascii	"\000"
 2575              	.LC153:
 2576 0522 494E5641 		.ascii	"INVALID PING SLOT FREQUENCY\012\000"
 2576      4C494420 
 2576      50494E47 
 2576      20534C4F 
 2576      54204652 
 2577              	.LC155:
 2578 053f 494E5641 		.ascii	"INVALID PING SLOT DR\012\000"
 2578      4C494420 
ARM GAS  /tmp/cc2Yojzh.s 			page 50


 2578      50494E47 
 2578      20534C4F 
 2578      54204452 
 2579              	.LC157:
 2580 0555 4D616350 		.ascii	"MacPingSlotDataRate = %d\012\000"
 2580      696E6753 
 2580      6C6F7444 
 2580      61746152 
 2580      61746520 
 2581              	.LC159:
 2582 056f 4D616350 		.ascii	"MacPingSlotFrequency = %d\012\000"
 2582      696E6753 
 2582      6C6F7446 
 2582      72657175 
 2582      656E6379 
 2583              	.LC161:
 2584 058a 436D6420 		.ascii	"Cmd beacon_freq_req_parser = %x %x %x %x\012\000"
 2584      62656163 
 2584      6F6E5F66 
 2584      7265715F 
 2584      7265715F 
 2585              	.LC163:
 2586 05b4 494E5641 		.ascii	"INVALID BEACON FREQUENCY\012\000"
 2586      4C494420 
 2586      42454143 
 2586      4F4E2046 
 2586      52455155 
 2587              	.LC165:
 2588 05ce 4D616342 		.ascii	"MacBeaconFrequency %d\012\000"
 2588      6561636F 
 2588      6E467265 
 2588      7175656E 
 2588      63792025 
 2589              	.LC167:
 2590 05e5 20556E6B 		.ascii	" Unknown mac command %02x\012\000"
 2590      6E6F776E 
 2590      206D6163 
 2590      20636F6D 
 2590      6D616E64 
 2591              		.section	.text.lr1_stack_mac_cmd_parse,"ax",%progbits
 2592              		.align	1
 2593              		.global	lr1_stack_mac_cmd_parse
 2594              		.syntax unified
 2595              		.code	16
 2596              		.thumb_func
 2598              	lr1_stack_mac_cmd_parse:
 2599              		@ args = 0, pretend = 0, frame = 24
 2600              		@ frame_needed = 0, uses_anonymous_args = 0
 2601 0000 0023     		movs	r3, #0
 2602 0002 F0B5     		push	{r4, r5, r6, r7, lr}
 2603 0004 BD4A     		ldr	r2, .L385
 2604 0006 BE4F     		ldr	r7, .L385+4
 2605 0008 0500     		movs	r5, r0
 2606 000a C355     		strb	r3, [r0, r7]
 2607 000c 8354     		strb	r3, [r0, r2]
 2608 000e 7A22     		movs	r2, #122
 2609 0010 FF32     		adds	r2, r2, #255
ARM GAS  /tmp/cc2Yojzh.s 			page 51


 2610 0012 8354     		strb	r3, [r0, r2]
 2611 0014 8BB0     		sub	sp, sp, #44
 2612 0016 6132     		adds	r2, r2, #97
 2613              	.L373:
 2614 0018 AB54     		strb	r3, [r5, r2]
 2615              	.L256:
 2616 001a BA4B     		ldr	r3, .L385+8
 2617 001c EC5D     		ldrb	r4, [r5, r7]
 2618 001e EB5C     		ldrb	r3, [r5, r3]
 2619 0020 A342     		cmp	r3, r4
 2620 0022 01D8     		bhi	.L333
 2621 0024 0020     		movs	r0, #0
 2622 0026 0CE0     		b	.L258
 2623              	.L333:
 2624 0028 7A22     		movs	r2, #122
 2625 002a FF32     		adds	r2, r2, #255
 2626 002c AA5C     		ldrb	r2, [r5, r2]
 2627 002e 602A     		cmp	r2, #96
 2628 0030 09D9     		bls	.L257
 2629 0032 B548     		ldr	r0, .L385+12
 2630 0034 FFF7FEFF 		bl	smtc_modem_hal_print_trace
 2631 0038 B448     		ldr	r0, .L385+16
 2632 003a FFF7FEFF 		bl	smtc_modem_hal_print_trace
 2633 003e 0120     		movs	r0, #1
 2634 0040 4042     		rsbs	r0, r0, #0
 2635              	.L258:
 2636 0042 0BB0     		add	sp, sp, #44
 2637              		@ sp needed
 2638 0044 F0BD     		pop	{r4, r5, r6, r7, pc}
 2639              	.L257:
 2640 0046 CD22     		movs	r2, #205
 2641 0048 2E19     		adds	r6, r5, r4
 2642 004a 9200     		lsls	r2, r2, #2
 2643 004c B218     		adds	r2, r6, r2
 2644 004e 1178     		ldrb	r1, [r2]
 2645 0050 881E     		subs	r0, r1, #2
 2646 0052 1128     		cmp	r0, #17
 2647 0054 01D9     		bls	.LCB2688
 2648 0056 00F0DFFD 		bl	.L259	@far jump
 2649              	.LCB2688:
 2650 005a FFF7FEFF 		bl	__gnu_thumb1_case_uhi
 2651              	.L261:
 2652 005e 1200     		.2byte	(.L273-.L261)/2
 2653 0060 B800     		.2byte	(.L334-.L261)/2
 2654 0062 7D01     		.2byte	(.L271-.L261)/2
 2655 0064 A401     		.2byte	(.L270-.L261)/2
 2656 0066 3802     		.2byte	(.L269-.L261)/2
 2657 0068 7402     		.2byte	(.L268-.L261)/2
 2658 006a 6F03     		.2byte	(.L267-.L261)/2
 2659 006c A403     		.2byte	(.L266-.L261)/2
 2660 006e EE03     		.2byte	(.L265-.L261)/2
 2661 0070 DD05     		.2byte	(.L259-.L261)/2
 2662 0072 DD05     		.2byte	(.L259-.L261)/2
 2663 0074 6204     		.2byte	(.L264-.L261)/2
 2664 0076 DD05     		.2byte	(.L259-.L261)/2
 2665 0078 DD05     		.2byte	(.L259-.L261)/2
 2666 007a C404     		.2byte	(.L263-.L261)/2
ARM GAS  /tmp/cc2Yojzh.s 			page 52


 2667 007c D804     		.2byte	(.L262-.L261)/2
 2668 007e DD05     		.2byte	(.L259-.L261)/2
 2669 0080 8505     		.2byte	(.L260-.L261)/2
 2670              		.p2align 1
 2671              	.L273:
 2672 0082 A34A     		ldr	r2, .L385+20
 2673 0084 A95C     		ldrb	r1, [r5, r2]
 2674 0086 0229     		cmp	r1, #2
 2675 0088 C7D1     		bne	.L256
 2676 008a 0131     		adds	r1, r1, #1
 2677 008c 0234     		adds	r4, r4, #2
 2678 008e A954     		strb	r1, [r5, r2]
 2679 0090 9C42     		cmp	r4, r3
 2680 0092 02DB     		blt	.L276
 2681              	.L279:
 2682 0094 0023     		movs	r3, #0
 2683 0096 9B4A     		ldr	r2, .L385+8
 2684 0098 BEE7     		b	.L373
 2685              	.L276:
 2686 009a CD23     		movs	r3, #205
 2687 009c 2C19     		adds	r4, r5, r4
 2688 009e 9B00     		lsls	r3, r3, #2
 2689 00a0 E418     		adds	r4, r4, r3
 2690 00a2 2278     		ldrb	r2, [r4]
 2691 00a4 9B4C     		ldr	r4, .L385+24
 2692 00a6 9C48     		ldr	r0, .L385+28
 2693 00a8 3619     		adds	r6, r6, r4
 2694 00aa 3178     		ldrb	r1, [r6]
 2695 00ac FFF7FEFF 		bl	smtc_modem_hal_print_trace
 2696 00b0 EB5D     		ldrb	r3, [r5, r7]
 2697 00b2 EA18     		adds	r2, r5, r3
 2698 00b4 1119     		adds	r1, r2, r4
 2699 00b6 0878     		ldrb	r0, [r1]
 2700 00b8 A421     		movs	r1, #164
 2701 00ba C900     		lsls	r1, r1, #3
 2702 00bc 6854     		strb	r0, [r5, r1]
 2703 00be 9749     		ldr	r1, .L385+32
 2704 00c0 0333     		adds	r3, r3, #3
 2705 00c2 5218     		adds	r2, r2, r1
 2706 00c4 1178     		ldrb	r1, [r2]
 2707 00c6 964A     		ldr	r2, .L385+36
 2708 00c8 A954     		strb	r1, [r5, r2]
 2709              	.L374:
 2710 00ca EB55     		strb	r3, [r5, r7]
 2711 00cc A5E7     		b	.L256
 2712              	.L278:
 2713 00ce 059A     		ldr	r2, [sp, #20]
 2714 00d0 0132     		adds	r2, r2, #1
 2715 00d2 D2B2     		uxtb	r2, r2
 2716 00d4 0592     		str	r2, [sp, #20]
 2717              	.L272:
 2718 00d6 6146     		mov	r1, ip
 2719 00d8 CD20     		movs	r0, #205
 2720 00da 059A     		ldr	r2, [sp, #20]
 2721 00dc 8000     		lsls	r0, r0, #2
 2722 00de 4A43     		muls	r2, r1
 2723 00e0 B118     		adds	r1, r6, r2
ARM GAS  /tmp/cc2Yojzh.s 			page 53


 2724 00e2 0918     		adds	r1, r1, r0
 2725 00e4 0978     		ldrb	r1, [r1]
 2726 00e6 0329     		cmp	r1, #3
 2727 00e8 03D1     		bne	.L277
 2728 00ea 0532     		adds	r2, r2, #5
 2729 00ec 1219     		adds	r2, r2, r4
 2730 00ee 9A42     		cmp	r2, r3
 2731 00f0 EDDD     		ble	.L278
 2732              	.L277:
 2733 00f2 059B     		ldr	r3, [sp, #20]
 2734 00f4 002B     		cmp	r3, #0
 2735 00f6 CDD0     		beq	.L279
 2736 00f8 0024     		movs	r4, #0
 2737 00fa 0526     		movs	r6, #5
 2738              	.L280:
 2739 00fc 3300     		movs	r3, r6
 2740 00fe CE21     		movs	r1, #206
 2741 0100 6343     		muls	r3, r4
 2742 0102 EA5D     		ldrb	r2, [r5, r7]
 2743 0104 8900     		lsls	r1, r1, #2
 2744 0106 D218     		adds	r2, r2, r3
 2745 0108 AA18     		adds	r2, r5, r2
 2746 010a 5118     		adds	r1, r2, r1
 2747 010c 814B     		ldr	r3, .L385+24
 2748 010e 0978     		ldrb	r1, [r1]
 2749 0110 D318     		adds	r3, r2, r3
 2750 0112 1B78     		ldrb	r3, [r3]
 2751 0114 0291     		str	r1, [sp, #8]
 2752 0116 8349     		ldr	r1, .L385+40
 2753 0118 8348     		ldr	r0, .L385+44
 2754 011a 5118     		adds	r1, r2, r1
 2755 011c 0978     		ldrb	r1, [r1]
 2756 011e 0191     		str	r1, [sp, #4]
 2757 0120 7E49     		ldr	r1, .L385+32
 2758 0122 5218     		adds	r2, r2, r1
 2759 0124 1278     		ldrb	r2, [r2]
 2760 0126 2100     		movs	r1, r4
 2761 0128 0092     		str	r2, [sp]
 2762 012a 059A     		ldr	r2, [sp, #20]
 2763 012c FFF7FEFF 		bl	smtc_modem_hal_print_trace
 2764 0130 0134     		adds	r4, r4, #1
 2765 0132 059A     		ldr	r2, [sp, #20]
 2766 0134 E3B2     		uxtb	r3, r4
 2767 0136 9A42     		cmp	r2, r3
 2768 0138 E0D8     		bhi	.L280
 2769 013a 0023     		movs	r3, #0
 2770 013c 0726     		movs	r6, #7
 2771 013e 0693     		str	r3, [sp, #24]
 2772              	.L282:
 2773 0140 0522     		movs	r2, #5
 2774 0142 0699     		ldr	r1, [sp, #24]
 2775 0144 EB5D     		ldrb	r3, [r5, r7]
 2776 0146 4A43     		muls	r2, r1
 2777 0148 9B18     		adds	r3, r3, r2
 2778 014a 764A     		ldr	r2, .L385+40
 2779 014c EB18     		adds	r3, r5, r3
 2780 014e 9A18     		adds	r2, r3, r2
ARM GAS  /tmp/cc2Yojzh.s 			page 54


 2781 0150 1178     		ldrb	r1, [r2]
 2782 0152 724A     		ldr	r2, .L385+32
 2783 0154 0902     		lsls	r1, r1, #8
 2784 0156 9A18     		adds	r2, r3, r2
 2785 0158 1278     		ldrb	r2, [r2]
 2786 015a 7448     		ldr	r0, .L385+48
 2787 015c 5218     		adds	r2, r2, r1
 2788 015e 92B2     		uxth	r2, r2
 2789 0160 0792     		str	r2, [sp, #28]
 2790 0162 CE22     		movs	r2, #206
 2791 0164 9200     		lsls	r2, r2, #2
 2792 0166 9B18     		adds	r3, r3, r2
 2793 0168 1C78     		ldrb	r4, [r3]
 2794 016a 0723     		movs	r3, #7
 2795 016c 2411     		asrs	r4, r4, #4
 2796 016e 1C40     		ands	r4, r3
 2797 0170 079A     		ldr	r2, [sp, #28]
 2798 0172 0699     		ldr	r1, [sp, #24]
 2799 0174 2300     		movs	r3, r4
 2800 0176 FFF7FEFF 		bl	smtc_modem_hal_print_trace
 2801 017a 2100     		movs	r1, r4
 2802 017c 2800     		movs	r0, r5
 2803 017e 079A     		ldr	r2, [sp, #28]
 2804 0180 FFF7FEFF 		bl	smtc_real_build_channel_mask
 2805 0184 0230     		adds	r0, r0, #2
 2806 0186 06D1     		bne	.L281
 2807 0188 6948     		ldr	r0, .L385+52
 2808 018a FFF7FEFF 		bl	smtc_modem_hal_print_trace
 2809 018e 5F48     		ldr	r0, .L385+16
 2810 0190 FFF7FEFF 		bl	smtc_modem_hal_print_trace
 2811 0194 0626     		movs	r6, #6
 2812              	.L281:
 2813 0196 069B     		ldr	r3, [sp, #24]
 2814 0198 059A     		ldr	r2, [sp, #20]
 2815 019a 0133     		adds	r3, r3, #1
 2816 019c 0693     		str	r3, [sp, #24]
 2817 019e 6B46     		mov	r3, sp
 2818 01a0 1B7E     		ldrb	r3, [r3, #24]
 2819 01a2 9A42     		cmp	r2, r3
 2820 01a4 CCD8     		bhi	.L282
 2821 01a6 634B     		ldr	r3, .L385+56
 2822 01a8 EB5C     		ldrb	r3, [r5, r3]
 2823 01aa 002B     		cmp	r3, #0
 2824 01ac 3DD0     		beq	.L283
 2825 01ae 6248     		ldr	r0, .L385+60
 2826 01b0 072E     		cmp	r6, #7
 2827 01b2 05D1     		bne	.L370
 2828 01b4 2800     		movs	r0, r5
 2829 01b6 FFF7FEFF 		bl	smtc_real_is_channel_mask_for_mobile_mode
 2830 01ba 0130     		adds	r0, r0, #1
 2831 01bc 0CD1     		bne	.L285
 2832 01be 5F48     		ldr	r0, .L385+64
 2833              	.L370:
 2834 01c0 FFF7FEFF 		bl	smtc_modem_hal_print_trace
 2835 01c4 5148     		ldr	r0, .L385+16
 2836 01c6 FFF7FEFF 		bl	smtc_modem_hal_print_trace
 2837 01ca 0026     		movs	r6, #0
ARM GAS  /tmp/cc2Yojzh.s 			page 55


 2838 01cc 0AE0     		b	.L287
 2839              	.L334:
 2840 01ce 0022     		movs	r2, #0
 2841 01d0 0592     		str	r2, [sp, #20]
 2842 01d2 0532     		adds	r2, r2, #5
 2843 01d4 9446     		mov	ip, r2
 2844 01d6 7EE7     		b	.L272
 2845              	.L285:
 2846 01d8 0126     		movs	r6, #1
 2847 01da 2800     		movs	r0, r5
 2848 01dc FFF7FEFF 		bl	smtc_real_set_channel_mask
 2849 01e0 574A     		ldr	r2, .L385+68
 2850 01e2 AE54     		strb	r6, [r5, r2]
 2851              	.L287:
 2852 01e4 0522     		movs	r2, #5
 2853 01e6 059B     		ldr	r3, [sp, #20]
 2854 01e8 5A43     		muls	r2, r3
 2855 01ea EB5D     		ldrb	r3, [r5, r7]
 2856 01ec 9B18     		adds	r3, r3, r2
 2857 01ee DBB2     		uxtb	r3, r3
 2858 01f0 444A     		ldr	r2, .L385+8
 2859 01f2 EB55     		strb	r3, [r5, r7]
 2860 01f4 AA5C     		ldrb	r2, [r5, r2]
 2861 01f6 9A42     		cmp	r2, r3
 2862 01f8 00D2     		bcs	.LCB2906
 2863 01fa 0EE7     		b	.L256	@long jump
 2864              	.LCB2906:
 2865 01fc 7A23     		movs	r3, #122
 2866 01fe FF33     		adds	r3, r3, #255
 2867 0200 E95C     		ldrb	r1, [r5, r3]
 2868 0202 0022     		movs	r2, #0
 2869 0204 0B00     		movs	r3, r1
 2870 0206 0320     		movs	r0, #3
 2871 0208 7B33     		adds	r3, r3, #123
 2872 020a FF33     		adds	r3, r3, #255
 2873 020c EB18     		adds	r3, r5, r3
 2874              	.L298:
 2875 020e 0132     		adds	r2, r2, #1
 2876 0210 059C     		ldr	r4, [sp, #20]
 2877 0212 D2B2     		uxtb	r2, r2
 2878 0214 1870     		strb	r0, [r3]
 2879 0216 5E70     		strb	r6, [r3, #1]
 2880 0218 0233     		adds	r3, r3, #2
 2881 021a 9442     		cmp	r4, r2
 2882 021c F7D1     		bne	.L298
 2883 021e 6300     		lsls	r3, r4, #1
 2884 0220 C918     		adds	r1, r1, r3
 2885 0222 7A23     		movs	r3, #122
 2886 0224 FF33     		adds	r3, r3, #255
 2887 0226 E954     		strb	r1, [r5, r3]
 2888 0228 F7E6     		b	.L256
 2889              	.L283:
 2890 022a 0524     		movs	r4, #5
 2891 022c 059B     		ldr	r3, [sp, #20]
 2892 022e 5A1E     		subs	r2, r3, #1
 2893 0230 6243     		muls	r2, r4
 2894 0232 EB5D     		ldrb	r3, [r5, r7]
ARM GAS  /tmp/cc2Yojzh.s 			page 56


 2895 0234 AA18     		adds	r2, r5, r2
 2896 0236 D318     		adds	r3, r2, r3
 2897 0238 0792     		str	r2, [sp, #28]
 2898 023a 364A     		ldr	r2, .L385+24
 2899 023c 9B18     		adds	r3, r3, r2
 2900 023e 1B78     		ldrb	r3, [r3]
 2901 0240 1B09     		lsrs	r3, r3, #4
 2902 0242 0693     		str	r3, [sp, #24]
 2903 0244 0F2B     		cmp	r3, #15
 2904 0246 0DD0     		beq	.L290
 2905 0248 0122     		movs	r2, #1
 2906 024a 1900     		movs	r1, r3
 2907 024c 2800     		movs	r0, r5
 2908 024e FFF7FEFF 		bl	smtc_real_is_tx_dr_acceptable
 2909 0252 0130     		adds	r0, r0, #1
 2910 0254 06D1     		bne	.L290
 2911 0256 3B48     		ldr	r0, .L385+72
 2912 0258 FFF7FEFF 		bl	smtc_modem_hal_print_trace
 2913 025c 2B48     		ldr	r0, .L385+16
 2914 025e 2640     		ands	r6, r4
 2915 0260 FFF7FEFF 		bl	smtc_modem_hal_print_trace
 2916              	.L290:
 2917 0264 079A     		ldr	r2, [sp, #28]
 2918 0266 EB5D     		ldrb	r3, [r5, r7]
 2919 0268 D318     		adds	r3, r2, r3
 2920 026a 2A4A     		ldr	r2, .L385+24
 2921 026c 9B18     		adds	r3, r3, r2
 2922 026e 1C78     		ldrb	r4, [r3]
 2923 0270 0F23     		movs	r3, #15
 2924 0272 1C40     		ands	r4, r3
 2925 0274 9C42     		cmp	r4, r3
 2926 0276 05D0     		beq	.L291
 2927 0278 2100     		movs	r1, r4
 2928 027a 2800     		movs	r0, r5
 2929 027c FFF7FEFF 		bl	smtc_real_is_tx_power_valid
 2930 0280 0130     		adds	r0, r0, #1
 2931 0282 31D0     		beq	.L292
 2932              	.L291:
 2933 0284 072E     		cmp	r6, #7
 2934 0286 ADD1     		bne	.L287
 2935 0288 079A     		ldr	r2, [sp, #28]
 2936 028a EB5D     		ldrb	r3, [r5, r7]
 2937 028c 2800     		movs	r0, r5
 2938 028e D318     		adds	r3, r2, r3
 2939 0290 CE22     		movs	r2, #206
 2940 0292 9200     		lsls	r2, r2, #2
 2941 0294 9B18     		adds	r3, r3, r2
 2942 0296 1B78     		ldrb	r3, [r3]
 2943 0298 0793     		str	r3, [sp, #28]
 2944 029a FFF7FEFF 		bl	smtc_real_set_channel_mask
 2945 029e 0F2C     		cmp	r4, #15
 2946 02a0 03D0     		beq	.L294
 2947 02a2 2100     		movs	r1, r4
 2948 02a4 2800     		movs	r0, r5
 2949 02a6 FFF7FEFF 		bl	smtc_real_set_power
 2950              	.L294:
 2951 02aa 0F22     		movs	r2, #15
ARM GAS  /tmp/cc2Yojzh.s 			page 57


 2952 02ac 079B     		ldr	r3, [sp, #28]
 2953 02ae 1340     		ands	r3, r2
 2954 02b0 00D1     		bne	.L295
 2955 02b2 0123     		movs	r3, #1
 2956              	.L295:
 2957 02b4 2C00     		movs	r4, r5
 2958 02b6 5134     		adds	r4, r4, #81
 2959 02b8 2370     		strb	r3, [r4]
 2960 02ba 2B00     		movs	r3, r5
 2961 02bc 069A     		ldr	r2, [sp, #24]
 2962 02be 4F33     		adds	r3, r3, #79
 2963 02c0 0F2A     		cmp	r2, #15
 2964 02c2 00D0     		beq	.L296
 2965 02c4 1A70     		strb	r2, [r3]
 2966              	.L296:
 2967 02c6 0121     		movs	r1, #1
 2968 02c8 1D4A     		ldr	r2, .L385+68
 2969 02ca 1F48     		ldr	r0, .L385+76
 2970 02cc A954     		strb	r1, [r5, r2]
 2971 02ce 1978     		ldrb	r1, [r3]
 2972 02d0 FFF7FEFF 		bl	smtc_modem_hal_print_trace
 2973 02d4 5021     		movs	r1, #80
 2974 02d6 1D48     		ldr	r0, .L385+80
 2975 02d8 6956     		ldrsb	r1, [r5, r1]
 2976 02da FFF7FEFF 		bl	smtc_modem_hal_print_trace
 2977 02de 2178     		ldrb	r1, [r4]
 2978 02e0 1B48     		ldr	r0, .L385+84
 2979 02e2 FFF7FEFF 		bl	smtc_modem_hal_print_trace
 2980 02e6 7DE7     		b	.L287
 2981              	.L292:
 2982 02e8 0323     		movs	r3, #3
 2983 02ea 1A48     		ldr	r0, .L385+88
 2984 02ec 1E40     		ands	r6, r3
 2985 02ee FFF7FEFF 		bl	smtc_modem_hal_print_trace
 2986 02f2 0648     		ldr	r0, .L385+16
 2987 02f4 FFF7FEFF 		bl	smtc_modem_hal_print_trace
 2988 02f8 74E7     		b	.L287
 2989              	.L386:
 2990 02fa C046     		.align	2
 2991              	.L385:
 2992 02fc 87040000 		.word	1159
 2993 0300 11050000 		.word	1297
 2994 0304 26040000 		.word	1062
 2995 0308 00000000 		.word	.LC72
 2996 030c 1D000000 		.word	.LC8
 2997 0310 44050000 		.word	1348
 2998 0314 35030000 		.word	821
 2999 0318 2A000000 		.word	.LC75
 3000 031c 36030000 		.word	822
 3001 0320 21050000 		.word	1313
 3002 0324 37030000 		.word	823
 3003 0328 44000000 		.word	.LC77
 3004 032c 77000000 		.word	.LC79
 3005 0330 BD000000 		.word	.LC81
 3006 0334 92040000 		.word	1170
 3007 0338 12010000 		.word	.LC85
 3008 033c E0000000 		.word	.LC83
ARM GAS  /tmp/cc2Yojzh.s 			page 58


 3009 0340 19050000 		.word	1305
 3010 0344 35010000 		.word	.LC87
 3011 0348 72010000 		.word	.LC91
 3012 034c 89010000 		.word	.LC93
 3013 0350 9A010000 		.word	.LC95
 3014 0354 54010000 		.word	.LC89
 3015              	.L271:
 3016 0358 0134     		adds	r4, r4, #1
 3017 035a 9C42     		cmp	r4, r3
 3018 035c 00DB     		blt	.LCB3081
 3019 035e 99E6     		b	.L279	@long jump
 3020              	.LCB3081:
 3021 0360 CD23     		movs	r3, #205
 3022 0362 2C19     		adds	r4, r5, r4
 3023 0364 9B00     		lsls	r3, r3, #2
 3024 0366 E418     		adds	r4, r4, r3
 3025 0368 2178     		ldrb	r1, [r4]
 3026 036a DB48     		ldr	r0, .L387
 3027 036c FFF7FEFF 		bl	smtc_modem_hal_print_trace
 3028 0370 EB5D     		ldrb	r3, [r5, r7]
 3029 0372 DA49     		ldr	r1, .L387+4
 3030 0374 EA18     		adds	r2, r5, r3
 3031 0376 5218     		adds	r2, r2, r1
 3032 0378 0F21     		movs	r1, #15
 3033 037a 1278     		ldrb	r2, [r2]
 3034 037c 0233     		adds	r3, r3, #2
 3035 037e 0A40     		ands	r2, r1
 3036 0380 2A66     		str	r2, [r5, #96]
 3037 0382 DBB2     		uxtb	r3, r3
 3038 0384 D64A     		ldr	r2, .L387+8
 3039 0386 EB55     		strb	r3, [r5, r7]
 3040 0388 AA5C     		ldrb	r2, [r5, r2]
 3041 038a 9A42     		cmp	r2, r3
 3042 038c 00D2     		bcs	.LCB3104
 3043 038e 44E6     		b	.L256	@long jump
 3044              	.LCB3104:
 3045 0390 7A20     		movs	r0, #122
 3046 0392 FF30     		adds	r0, r0, #255
 3047 0394 2B5C     		ldrb	r3, [r5, r0]
 3048 0396 0B39     		subs	r1, r1, #11
 3049 0398 EA18     		adds	r2, r5, r3
 3050 039a 7B32     		adds	r2, r2, #123
 3051 039c FF32     		adds	r2, r2, #255
 3052              	.L381:
 3053 039e 1170     		strb	r1, [r2]
 3054 03a0 0133     		adds	r3, r3, #1
 3055              	.L375:
 3056 03a2 2B54     		strb	r3, [r5, r0]
 3057 03a4 39E6     		b	.L256
 3058              	.L270:
 3059 03a6 0434     		adds	r4, r4, #4
 3060 03a8 9C42     		cmp	r4, r3
 3061 03aa 00DB     		blt	.LCB3125
 3062 03ac 72E6     		b	.L279	@long jump
 3063              	.LCB3125:
 3064 03ae CB49     		ldr	r1, .L387+4
 3065 03b0 CC4B     		ldr	r3, .L387+12
ARM GAS  /tmp/cc2Yojzh.s 			page 59


 3066 03b2 CD4A     		ldr	r2, .L387+16
 3067 03b4 F318     		adds	r3, r6, r3
 3068 03b6 B218     		adds	r2, r6, r2
 3069 03b8 7618     		adds	r6, r6, r1
 3070 03ba 3178     		ldrb	r1, [r6]
 3071 03bc CD26     		movs	r6, #205
 3072 03be 2C19     		adds	r4, r5, r4
 3073 03c0 B600     		lsls	r6, r6, #2
 3074 03c2 A419     		adds	r4, r4, r6
 3075 03c4 2478     		ldrb	r4, [r4]
 3076 03c6 1B78     		ldrb	r3, [r3]
 3077 03c8 1278     		ldrb	r2, [r2]
 3078 03ca 0094     		str	r4, [sp]
 3079 03cc 0724     		movs	r4, #7
 3080 03ce C748     		ldr	r0, .L387+20
 3081 03d0 FFF7FEFF 		bl	smtc_modem_hal_print_trace
 3082 03d4 EB5D     		ldrb	r3, [r5, r7]
 3083 03d6 C149     		ldr	r1, .L387+4
 3084 03d8 EB18     		adds	r3, r5, r3
 3085 03da 5B18     		adds	r3, r3, r1
 3086 03dc 1E78     		ldrb	r6, [r3]
 3087 03de 2800     		movs	r0, r5
 3088 03e0 3611     		asrs	r6, r6, #4
 3089 03e2 2640     		ands	r6, r4
 3090 03e4 3100     		movs	r1, r6
 3091 03e6 FFF7FEFF 		bl	smtc_real_is_rx1_dr_offset_valid
 3092 03ea 0130     		adds	r0, r0, #1
 3093 03ec 05D1     		bne	.L299
 3094 03ee C04A     		ldr	r2, .L387+24
 3095 03f0 C049     		ldr	r1, .L387+28
 3096 03f2 C148     		ldr	r0, .L387+32
 3097 03f4 FFF7FEFF 		bl	smtc_modem_hal_print_trace
 3098 03f8 013C     		subs	r4, r4, #1
 3099              	.L299:
 3100 03fa EB5D     		ldrb	r3, [r5, r7]
 3101 03fc B74A     		ldr	r2, .L387+4
 3102 03fe EB18     		adds	r3, r5, r3
 3103 0400 9B18     		adds	r3, r3, r2
 3104 0402 1A78     		ldrb	r2, [r3]
 3105 0404 0F23     		movs	r3, #15
 3106 0406 1A40     		ands	r2, r3
 3107 0408 1100     		movs	r1, r2
 3108 040a 2800     		movs	r0, r5
 3109 040c 0592     		str	r2, [sp, #20]
 3110 040e FFF7FEFF 		bl	smtc_real_is_rx_dr_valid
 3111 0412 0130     		adds	r0, r0, #1
 3112 0414 06D1     		bne	.L300
 3113 0416 0523     		movs	r3, #5
 3114 0418 B84A     		ldr	r2, .L387+36
 3115 041a B649     		ldr	r1, .L387+28
 3116 041c B648     		ldr	r0, .L387+32
 3117 041e 1C40     		ands	r4, r3
 3118 0420 FFF7FEFF 		bl	smtc_modem_hal_print_trace
 3119              	.L300:
 3120 0424 E95D     		ldrb	r1, [r5, r7]
 3121 0426 B04B     		ldr	r3, .L387+16
 3122 0428 2800     		movs	r0, r5
ARM GAS  /tmp/cc2Yojzh.s 			page 60


 3123 042a C918     		adds	r1, r1, r3
 3124 042c 6918     		adds	r1, r5, r1
 3125 042e FFF7FEFF 		bl	smtc_real_decode_freq_from_buf
 3126 0432 0100     		movs	r1, r0
 3127 0434 0690     		str	r0, [sp, #24]
 3128 0436 2800     		movs	r0, r5
 3129 0438 FFF7FEFF 		bl	smtc_real_is_frequency_valid
 3130 043c 0130     		adds	r0, r0, #1
 3131 043e 2DD1     		bne	.L301
 3132 0440 0323     		movs	r3, #3
 3133 0442 AF4A     		ldr	r2, .L387+40
 3134 0444 AB49     		ldr	r1, .L387+28
 3135 0446 AC48     		ldr	r0, .L387+32
 3136 0448 1C40     		ands	r4, r3
 3137 044a FFF7FEFF 		bl	smtc_modem_hal_print_trace
 3138              	.L302:
 3139 044e EB5D     		ldrb	r3, [r5, r7]
 3140 0450 A34A     		ldr	r2, .L387+8
 3141 0452 0533     		adds	r3, r3, #5
 3142 0454 DBB2     		uxtb	r3, r3
 3143 0456 EB55     		strb	r3, [r5, r7]
 3144 0458 AA5C     		ldrb	r2, [r5, r2]
 3145 045a 9A42     		cmp	r2, r3
 3146 045c 00D2     		bcs	.LCB3224
 3147 045e DCE5     		b	.L256	@long jump
 3148              	.LCB3224:
 3149 0460 7A26     		movs	r6, #122
 3150 0462 FF36     		adds	r6, r6, #255
 3151 0464 AB5D     		ldrb	r3, [r5, r6]
 3152 0466 0521     		movs	r1, #5
 3153 0468 EA18     		adds	r2, r5, r3
 3154 046a 1000     		movs	r0, r2
 3155 046c 7B30     		adds	r0, r0, #123
 3156 046e FF30     		adds	r0, r0, #255
 3157              	.L379:
 3158 0470 0170     		strb	r1, [r0]
 3159 0472 ED20     		movs	r0, #237
 3160 0474 7C32     		adds	r2, r2, #124
 3161 0476 0233     		adds	r3, r3, #2
 3162 0478 FF32     		adds	r2, r2, #255
 3163 047a 1470     		strb	r4, [r2]
 3164 047c 4000     		lsls	r0, r0, #1
 3165 047e AB55     		strb	r3, [r5, r6]
 3166 0480 2B5C     		ldrb	r3, [r5, r0]
 3167 0482 0D2B     		cmp	r3, #13
 3168 0484 00D9     		bls	.LCB3246
 3169 0486 C8E5     		b	.L256	@long jump
 3170              	.LCB3246:
 3171 0488 EA18     		adds	r2, r5, r3
 3172 048a 1600     		movs	r6, r2
 3173 048c DD32     		adds	r2, r2, #221
 3174 048e DC36     		adds	r6, r6, #220
 3175 0490 FF36     		adds	r6, r6, #255
 3176 0492 FF32     		adds	r2, r2, #255
 3177 0494 3170     		strb	r1, [r6]
 3178 0496 0233     		adds	r3, r3, #2
 3179 0498 1470     		strb	r4, [r2]
ARM GAS  /tmp/cc2Yojzh.s 			page 61


 3180 049a 82E7     		b	.L375
 3181              	.L301:
 3182 049c 072C     		cmp	r4, #7
 3183 049e D6D1     		bne	.L302
 3184 04a0 2B00     		movs	r3, r5
 3185 04a2 059A     		ldr	r2, [sp, #20]
 3186 04a4 5833     		adds	r3, r3, #88
 3187 04a6 1E70     		strb	r6, [r3]
 3188 04a8 053B     		subs	r3, r3, #5
 3189 04aa 1A70     		strb	r2, [r3]
 3190 04ac 0793     		str	r3, [sp, #28]
 3191 04ae 069B     		ldr	r3, [sp, #24]
 3192 04b0 3100     		movs	r1, r6
 3193 04b2 6B65     		str	r3, [r5, #84]
 3194 04b4 9348     		ldr	r0, .L387+44
 3195 04b6 FFF7FEFF 		bl	smtc_modem_hal_print_trace
 3196 04ba 079B     		ldr	r3, [sp, #28]
 3197 04bc 9248     		ldr	r0, .L387+48
 3198 04be 1978     		ldrb	r1, [r3]
 3199 04c0 FFF7FEFF 		bl	smtc_modem_hal_print_trace
 3200 04c4 9148     		ldr	r0, .L387+52
 3201 04c6 696D     		ldr	r1, [r5, #84]
 3202 04c8 FFF7FEFF 		bl	smtc_modem_hal_print_trace
 3203 04cc BFE7     		b	.L302
 3204              	.L269:
 3205 04ce 1723     		movs	r3, #23
 3206 04d0 04AA     		add	r2, sp, #16
 3207 04d2 8F4E     		ldr	r6, .L387+56
 3208 04d4 9B18     		adds	r3, r3, r2
 3209 04d6 1A00     		movs	r2, r3
 3210 04d8 2900     		movs	r1, r5
 3211 04da A859     		ldr	r0, [r5, r6]
 3212 04dc FFF7FEFF 		bl	rp_hook_get_id
 3213 04e0 8C4A     		ldr	r2, .L387+60
 3214 04e2 8449     		ldr	r1, .L387+28
 3215 04e4 8448     		ldr	r0, .L387+32
 3216 04e6 FFF7FEFF 		bl	smtc_modem_hal_print_trace
 3217 04ea EB5D     		ldrb	r3, [r5, r7]
 3218 04ec 7C4A     		ldr	r2, .L387+8
 3219 04ee 0133     		adds	r3, r3, #1
 3220 04f0 DBB2     		uxtb	r3, r3
 3221 04f2 EB55     		strb	r3, [r5, r7]
 3222 04f4 AA5C     		ldrb	r2, [r5, r2]
 3223 04f6 9A42     		cmp	r2, r3
 3224 04f8 00D2     		bcs	.LCB3305
 3225 04fa 8EE5     		b	.L256	@long jump
 3226              	.LCB3305:
 3227 04fc 7A23     		movs	r3, #122
 3228 04fe FF33     		adds	r3, r3, #255
 3229 0500 EC5C     		ldrb	r4, [r5, r3]
 3230 0502 2C19     		adds	r4, r5, r4
 3231 0504 2200     		movs	r2, r4
 3232 0506 7B32     		adds	r2, r2, #123
 3233 0508 FF32     		adds	r2, r2, #255
 3234 050a 1300     		movs	r3, r2
 3235 050c 0622     		movs	r2, #6
 3236 050e 1A70     		strb	r2, [r3]
ARM GAS  /tmp/cc2Yojzh.s 			page 62


 3237 0510 FFF7FEFF 		bl	smtc_modem_hal_get_battery_level
 3238 0514 7C34     		adds	r4, r4, #124
 3239 0516 FF34     		adds	r4, r4, #255
 3240 0518 2070     		strb	r0, [r4]
 3241 051a 04A8     		add	r0, sp, #16
 3242 051c C47D     		ldrb	r4, [r0, #23]
 3243 051e 8420     		movs	r0, #132
 3244 0520 7A23     		movs	r3, #122
 3245 0522 6043     		muls	r0, r4
 3246 0524 FF33     		adds	r3, r3, #255
 3247 0526 EA5C     		ldrb	r2, [r5, r3]
 3248 0528 AB59     		ldr	r3, [r5, r6]
 3249 052a A918     		adds	r1, r5, r2
 3250 052c 1B18     		adds	r3, r3, r0
 3251 052e 3F20     		movs	r0, #63
 3252 0530 7E33     		adds	r3, r3, #126
 3253 0532 1B88     		ldrh	r3, [r3]
 3254 0534 7D31     		adds	r1, r1, #125
 3255 0536 0340     		ands	r3, r0
 3256 0538 FF31     		adds	r1, r1, #255
 3257 053a 0B70     		strb	r3, [r1]
 3258 053c 7A23     		movs	r3, #122
 3259 053e 0332     		adds	r2, r2, #3
 3260 0540 FF33     		adds	r3, r3, #255
 3261 0542 EA54     		strb	r2, [r5, r3]
 3262 0544 69E5     		b	.L256
 3263              	.L268:
 3264 0546 0534     		adds	r4, r4, #5
 3265 0548 9C42     		cmp	r4, r3
 3266 054a 00DB     		blt	.LCB3360
 3267 054c A2E5     		b	.L279	@long jump
 3268              	.LCB3360:
 3269 054e 654B     		ldr	r3, .L387+12
 3270 0550 2C19     		adds	r4, r5, r4
 3271 0552 F318     		adds	r3, r6, r3
 3272 0554 1B78     		ldrb	r3, [r3]
 3273 0556 644A     		ldr	r2, .L387+16
 3274 0558 9C46     		mov	ip, r3
 3275 055a CD23     		movs	r3, #205
 3276 055c 9B00     		lsls	r3, r3, #2
 3277 055e E418     		adds	r4, r4, r3
 3278 0560 5E49     		ldr	r1, .L387+4
 3279 0562 2478     		ldrb	r4, [r4]
 3280 0564 B218     		adds	r2, r6, r2
 3281 0566 7118     		adds	r1, r6, r1
 3282 0568 0433     		adds	r3, r3, #4
 3283 056a 1278     		ldrb	r2, [r2]
 3284 056c 0978     		ldrb	r1, [r1]
 3285 056e F618     		adds	r6, r6, r3
 3286 0570 0194     		str	r4, [sp, #4]
 3287 0572 3478     		ldrb	r4, [r6]
 3288 0574 6848     		ldr	r0, .L387+64
 3289 0576 6346     		mov	r3, ip
 3290 0578 0094     		str	r4, [sp]
 3291 057a FFF7FEFF 		bl	smtc_modem_hal_print_trace
 3292 057e 2800     		movs	r0, r5
 3293 0580 FFF7FEFF 		bl	smtc_real_is_new_channel_req_supported
ARM GAS  /tmp/cc2Yojzh.s 			page 63


 3294 0584 0028     		cmp	r0, #0
 3295 0586 08D1     		bne	.L306
 3296 0588 6448     		ldr	r0, .L387+68
 3297 058a FFF7FEFF 		bl	smtc_modem_hal_print_trace
 3298 058e 5948     		ldr	r0, .L387+28
 3299 0590 FFF7FEFF 		bl	smtc_modem_hal_print_trace
 3300 0594 EB5D     		ldrb	r3, [r5, r7]
 3301 0596 0633     		adds	r3, r3, #6
 3302 0598 97E5     		b	.L374
 3303              	.L306:
 3304 059a EB5D     		ldrb	r3, [r5, r7]
 3305 059c 4F4A     		ldr	r2, .L387+4
 3306 059e EB18     		adds	r3, r5, r3
 3307 05a0 9B18     		adds	r3, r3, r2
 3308 05a2 1B78     		ldrb	r3, [r3]
 3309 05a4 2800     		movs	r0, r5
 3310 05a6 1900     		movs	r1, r3
 3311 05a8 0593     		str	r3, [sp, #20]
 3312 05aa FFF7FEFF 		bl	smtc_real_is_channel_index_valid
 3313 05ae 0324     		movs	r4, #3
 3314 05b0 0130     		adds	r0, r0, #1
 3315 05b2 05D1     		bne	.L307
 3316 05b4 5A4A     		ldr	r2, .L387+72
 3317 05b6 4F49     		ldr	r1, .L387+28
 3318 05b8 4F48     		ldr	r0, .L387+32
 3319 05ba FFF7FEFF 		bl	smtc_modem_hal_print_trace
 3320 05be 0024     		movs	r4, #0
 3321              	.L307:
 3322 05c0 E95D     		ldrb	r1, [r5, r7]
 3323 05c2 494B     		ldr	r3, .L387+16
 3324 05c4 2800     		movs	r0, r5
 3325 05c6 C918     		adds	r1, r1, r3
 3326 05c8 6918     		adds	r1, r5, r1
 3327 05ca FFF7FEFF 		bl	smtc_real_decode_freq_from_buf
 3328 05ce 0600     		movs	r6, r0
 3329 05d0 0100     		movs	r1, r0
 3330 05d2 2800     		movs	r0, r5
 3331 05d4 FFF7FEFF 		bl	smtc_real_is_nwk_received_tx_frequency_valid
 3332 05d8 0130     		adds	r0, r0, #1
 3333 05da 06D1     		bne	.L308
 3334 05dc 0223     		movs	r3, #2
 3335 05de 514A     		ldr	r2, .L387+76
 3336 05e0 4449     		ldr	r1, .L387+28
 3337 05e2 4548     		ldr	r0, .L387+32
 3338 05e4 1C40     		ands	r4, r3
 3339 05e6 FFF7FEFF 		bl	smtc_modem_hal_print_trace
 3340              	.L308:
 3341 05ea EB5D     		ldrb	r3, [r5, r7]
 3342 05ec 4E4A     		ldr	r2, .L387+80
 3343 05ee EB18     		adds	r3, r5, r3
 3344 05f0 9B18     		adds	r3, r3, r2
 3345 05f2 1A78     		ldrb	r2, [r3]
 3346 05f4 0F23     		movs	r3, #15
 3347 05f6 1A40     		ands	r2, r3
 3348 05f8 1100     		movs	r1, r2
 3349 05fa 2800     		movs	r0, r5
 3350 05fc 0692     		str	r2, [sp, #24]
ARM GAS  /tmp/cc2Yojzh.s 			page 64


 3351 05fe FFF7FEFF 		bl	smtc_real_is_tx_dr_valid
 3352 0602 0130     		adds	r0, r0, #1
 3353 0604 06D1     		bne	.L309
 3354 0606 0123     		movs	r3, #1
 3355 0608 484A     		ldr	r2, .L387+84
 3356 060a 3A49     		ldr	r1, .L387+28
 3357 060c 3A48     		ldr	r0, .L387+32
 3358 060e 1C40     		ands	r4, r3
 3359 0610 FFF7FEFF 		bl	smtc_modem_hal_print_trace
 3360              	.L309:
 3361 0614 EB5D     		ldrb	r3, [r5, r7]
 3362 0616 444A     		ldr	r2, .L387+80
 3363 0618 EB18     		adds	r3, r5, r3
 3364 061a 9B18     		adds	r3, r3, r2
 3365 061c 1B78     		ldrb	r3, [r3]
 3366 061e 2800     		movs	r0, r5
 3367 0620 1B09     		lsrs	r3, r3, #4
 3368 0622 1900     		movs	r1, r3
 3369 0624 0793     		str	r3, [sp, #28]
 3370 0626 FFF7FEFF 		bl	smtc_real_is_tx_dr_valid
 3371 062a 0130     		adds	r0, r0, #1
 3372 062c 29D1     		bne	.L310
 3373 062e 0123     		movs	r3, #1
 3374 0630 3F4A     		ldr	r2, .L387+88
 3375 0632 3049     		ldr	r1, .L387+28
 3376 0634 3048     		ldr	r0, .L387+32
 3377 0636 1C40     		ands	r4, r3
 3378 0638 FFF7FEFF 		bl	smtc_modem_hal_print_trace
 3379 063c 069B     		ldr	r3, [sp, #24]
 3380 063e 079A     		ldr	r2, [sp, #28]
 3381 0640 9342     		cmp	r3, r2
 3382 0642 06D9     		bls	.L312
 3383              	.L311:
 3384 0644 0123     		movs	r3, #1
 3385 0646 3B4A     		ldr	r2, .L387+92
 3386 0648 2A49     		ldr	r1, .L387+28
 3387 064a 2B48     		ldr	r0, .L387+32
 3388 064c 1C40     		ands	r4, r3
 3389 064e FFF7FEFF 		bl	smtc_modem_hal_print_trace
 3390              	.L312:
 3391 0652 EB5D     		ldrb	r3, [r5, r7]
 3392 0654 224A     		ldr	r2, .L387+8
 3393 0656 0633     		adds	r3, r3, #6
 3394 0658 DBB2     		uxtb	r3, r3
 3395 065a EB55     		strb	r3, [r5, r7]
 3396 065c AA5C     		ldrb	r2, [r5, r2]
 3397 065e 9A42     		cmp	r2, r3
 3398 0660 00D2     		bcs	.LCB3507
 3399 0662 DAE4     		b	.L256	@long jump
 3400              	.LCB3507:
 3401 0664 7A26     		movs	r6, #122
 3402 0666 FF36     		adds	r6, r6, #255
 3403 0668 AB5D     		ldrb	r3, [r5, r6]
 3404 066a 0720     		movs	r0, #7
 3405 066c EA18     		adds	r2, r5, r3
 3406 066e 1100     		movs	r1, r2
 3407 0670 7C32     		adds	r2, r2, #124
ARM GAS  /tmp/cc2Yojzh.s 			page 65


 3408 0672 7B31     		adds	r1, r1, #123
 3409 0674 FF31     		adds	r1, r1, #255
 3410 0676 FF32     		adds	r2, r2, #255
 3411 0678 0870     		strb	r0, [r1]
 3412 067a 1470     		strb	r4, [r2]
 3413              	.L377:
 3414 067c 0233     		adds	r3, r3, #2
 3415 067e AB55     		strb	r3, [r5, r6]
 3416 0680 CBE4     		b	.L256
 3417              	.L310:
 3418 0682 069B     		ldr	r3, [sp, #24]
 3419 0684 079A     		ldr	r2, [sp, #28]
 3420 0686 9342     		cmp	r3, r2
 3421 0688 DCD8     		bhi	.L311
 3422 068a 032C     		cmp	r4, #3
 3423 068c E1D1     		bne	.L312
 3424 068e 3100     		movs	r1, r6
 3425 0690 2800     		movs	r0, r5
 3426 0692 059A     		ldr	r2, [sp, #20]
 3427 0694 FFF7FEFF 		bl	smtc_real_set_tx_frequency_channel
 3428 0698 3100     		movs	r1, r6
 3429 069a 059A     		ldr	r2, [sp, #20]
 3430 069c 2800     		movs	r0, r5
 3431 069e FFF7FEFF 		bl	smtc_real_set_rx1_frequency_channel
 3432 06a2 069A     		ldr	r2, [sp, #24]
 3433 06a4 0599     		ldr	r1, [sp, #20]
 3434 06a6 2800     		movs	r0, r5
 3435 06a8 079B     		ldr	r3, [sp, #28]
 3436 06aa FFF7FEFF 		bl	smtc_real_set_channel_dr
 3437 06ae 311E     		subs	r1, r6, #0
 3438 06b0 059A     		ldr	r2, [sp, #20]
 3439 06b2 00D0     		beq	.L371
 3440 06b4 0121     		movs	r1, #1
 3441              	.L371:
 3442 06b6 2800     		movs	r0, r5
 3443 06b8 FFF7FEFF 		bl	smtc_real_set_channel_enabled
 3444 06bc 0599     		ldr	r1, [sp, #20]
 3445 06be 2800     		movs	r0, r5
 3446 06c0 FFF7FEFF 		bl	smtc_real_get_tx_channel_frequency
 3447 06c4 079B     		ldr	r3, [sp, #28]
 3448 06c6 1C4E     		ldr	r6, .L387+96
 3449 06c8 0200     		movs	r2, r0
 3450 06ca 0093     		str	r3, [sp]
 3451 06cc 3000     		movs	r0, r6
 3452 06ce 069B     		ldr	r3, [sp, #24]
 3453 06d0 0599     		ldr	r1, [sp, #20]
 3454 06d2 FFF7FEFF 		bl	smtc_modem_hal_print_trace
 3455 06d6 BCE7     		b	.L312
 3456              	.L388:
 3457              		.align	2
 3458              	.L387:
 3459 06d8 AB010000 		.word	.LC97
 3460 06dc 35030000 		.word	821
 3461 06e0 26040000 		.word	1062
 3462 06e4 37030000 		.word	823
 3463 06e8 36030000 		.word	822
 3464 06ec C5010000 		.word	.LC99
ARM GAS  /tmp/cc2Yojzh.s 			page 66


 3465 06f0 EF010000 		.word	.LC101
 3466 06f4 1D000000 		.word	.LC8
 3467 06f8 8A000000 		.word	.LC52
 3468 06fc 04020000 		.word	.LC104
 3469 0700 13020000 		.word	.LC106
 3470 0704 2A020000 		.word	.LC108
 3471 0708 45020000 		.word	.LC110
 3472 070c 5A020000 		.word	.LC112
 3473 0710 BC040000 		.word	1212
 3474 0714 70020000 		.word	.LC114
 3475 0718 8A020000 		.word	.LC116
 3476 071c B4020000 		.word	.LC118
 3477 0720 F1020000 		.word	.LC120
 3478 0724 08030000 		.word	.LC122
 3479 0728 39030000 		.word	825
 3480 072c 1B030000 		.word	.LC124
 3481 0730 2B030000 		.word	.LC126
 3482 0734 3B030000 		.word	.LC128
 3483 0738 54030000 		.word	.LC130
 3484              	.L267:
 3485 073c 0134     		adds	r4, r4, #1
 3486 073e 9C42     		cmp	r4, r3
 3487 0740 00DB     		blt	.LCB3604
 3488 0742 A7E4     		b	.L279	@long jump
 3489              	.LCB3604:
 3490 0744 CD23     		movs	r3, #205
 3491 0746 2C19     		adds	r4, r5, r4
 3492 0748 9B00     		lsls	r3, r3, #2
 3493 074a E418     		adds	r4, r4, r3
 3494 074c 2178     		ldrb	r1, [r4]
 3495 074e E548     		ldr	r0, .L389
 3496 0750 FFF7FEFF 		bl	smtc_modem_hal_print_trace
 3497 0754 EB5D     		ldrb	r3, [r5, r7]
 3498 0756 E449     		ldr	r1, .L389+4
 3499 0758 EA18     		adds	r2, r5, r3
 3500 075a 5218     		adds	r2, r2, r1
 3501 075c 0F21     		movs	r1, #15
 3502 075e 1278     		ldrb	r2, [r2]
 3503 0760 0A40     		ands	r2, r1
 3504 0762 111C     		adds	r1, r2, #0
 3505 0764 002A     		cmp	r2, #0
 3506 0766 00D1     		bne	.L316
 3507 0768 0121     		movs	r1, #1
 3508              	.L316:
 3509 076a 2A00     		movs	r2, r5
 3510 076c 0233     		adds	r3, r3, #2
 3511 076e 5932     		adds	r2, r2, #89
 3512 0770 1170     		strb	r1, [r2]
 3513 0772 DBB2     		uxtb	r3, r3
 3514 0774 DD4A     		ldr	r2, .L389+8
 3515 0776 EB55     		strb	r3, [r5, r7]
 3516 0778 AA5C     		ldrb	r2, [r5, r2]
 3517 077a 9A42     		cmp	r2, r3
 3518 077c 00D2     		bcs	.LCB3635
 3519 077e 4CE4     		b	.L256	@long jump
 3520              	.LCB3635:
 3521 0780 7A20     		movs	r0, #122
ARM GAS  /tmp/cc2Yojzh.s 			page 67


 3522 0782 0821     		movs	r1, #8
 3523 0784 FF30     		adds	r0, r0, #255
 3524 0786 2B5C     		ldrb	r3, [r5, r0]
 3525 0788 EA18     		adds	r2, r5, r3
 3526 078a 7B32     		adds	r2, r2, #123
 3527 078c FF32     		adds	r2, r2, #255
 3528              	.L384:
 3529 078e 0133     		adds	r3, r3, #1
 3530 0790 1170     		strb	r1, [r2]
 3531 0792 2B54     		strb	r3, [r5, r0]
 3532 0794 6130     		adds	r0, r0, #97
 3533 0796 2B5C     		ldrb	r3, [r5, r0]
 3534 0798 0E2B     		cmp	r3, #14
 3535 079a 00D9     		bls	.LCB3652
 3536 079c 3DE4     		b	.L256	@long jump
 3537              	.LCB3652:
 3538 079e EA18     		adds	r2, r5, r3
 3539 07a0 DC32     		adds	r2, r2, #220
 3540 07a2 FF32     		adds	r2, r2, #255
 3541 07a4 FBE5     		b	.L381
 3542              	.L266:
 3543 07a6 0134     		adds	r4, r4, #1
 3544 07a8 9C42     		cmp	r4, r3
 3545 07aa 00DB     		blt	.LCB3662
 3546 07ac 72E4     		b	.L279	@long jump
 3547              	.LCB3662:
 3548 07ae CD23     		movs	r3, #205
 3549 07b0 2C19     		adds	r4, r5, r4
 3550 07b2 9B00     		lsls	r3, r3, #2
 3551 07b4 E418     		adds	r4, r4, r3
 3552 07b6 CE48     		ldr	r0, .L389+12
 3553 07b8 2178     		ldrb	r1, [r4]
 3554 07ba FFF7FEFF 		bl	smtc_modem_hal_print_trace
 3555 07be 2800     		movs	r0, r5
 3556 07c0 FFF7FEFF 		bl	smtc_real_is_tx_param_setup_req_supported
 3557 07c4 0028     		cmp	r0, #0
 3558 07c6 08D1     		bne	.L317
 3559 07c8 CA48     		ldr	r0, .L389+16
 3560 07ca FFF7FEFF 		bl	smtc_modem_hal_print_trace
 3561 07ce CA48     		ldr	r0, .L389+20
 3562 07d0 FFF7FEFF 		bl	smtc_modem_hal_print_trace
 3563 07d4 EB5D     		ldrb	r3, [r5, r7]
 3564 07d6 0233     		adds	r3, r3, #2
 3565 07d8 77E4     		b	.L374
 3566              	.L317:
 3567 07da EB5D     		ldrb	r3, [r5, r7]
 3568 07dc C249     		ldr	r1, .L389+4
 3569 07de EA18     		adds	r2, r5, r3
 3570 07e0 5218     		adds	r2, r2, r1
 3571 07e2 0F21     		movs	r1, #15
 3572 07e4 1278     		ldrb	r2, [r2]
 3573 07e6 C548     		ldr	r0, .L389+24
 3574 07e8 1140     		ands	r1, r2
 3575 07ea 415C     		ldrb	r1, [r0, r1]
 3576 07ec A86B     		ldr	r0, [r5, #56]
 3577 07ee 0239     		subs	r1, r1, #2
 3578 07f0 847A     		ldrb	r4, [r0, #10]
ARM GAS  /tmp/cc2Yojzh.s 			page 68


 3579 07f2 081C     		adds	r0, r1, #0
 3580 07f4 C9B2     		uxtb	r1, r1
 3581 07f6 A142     		cmp	r1, r4
 3582 07f8 00D9     		bls	.L318
 3583 07fa 201C     		adds	r0, r4, #0
 3584              	.L318:
 3585 07fc 2900     		movs	r1, r5
 3586 07fe 5A31     		adds	r1, r1, #90
 3587 0800 0870     		strb	r0, [r1]
 3588 0802 2C00     		movs	r4, r5
 3589 0804 0120     		movs	r0, #1
 3590 0806 1109     		lsrs	r1, r2, #4
 3591 0808 0140     		ands	r1, r0
 3592 080a 5B34     		adds	r4, r4, #91
 3593 080c 2170     		strb	r1, [r4]
 3594 080e 2900     		movs	r1, r5
 3595 0810 5209     		lsrs	r2, r2, #5
 3596 0812 0240     		ands	r2, r0
 3597 0814 5C31     		adds	r1, r1, #92
 3598 0816 0233     		adds	r3, r3, #2
 3599 0818 0A70     		strb	r2, [r1]
 3600 081a DBB2     		uxtb	r3, r3
 3601 081c B34A     		ldr	r2, .L389+8
 3602 081e EB55     		strb	r3, [r5, r7]
 3603 0820 AA5C     		ldrb	r2, [r5, r2]
 3604 0822 9A42     		cmp	r2, r3
 3605 0824 01D2     		bcs	.LCB3726
 3606 0826 FFF7F8FB 		bl	.L256	@far jump
 3607              	.LCB3726:
 3608 082a 7A20     		movs	r0, #122
 3609 082c FF30     		adds	r0, r0, #255
 3610 082e 2B5C     		ldrb	r3, [r5, r0]
 3611 0830 0921     		movs	r1, #9
 3612 0832 EA18     		adds	r2, r5, r3
 3613 0834 7B32     		adds	r2, r2, #123
 3614 0836 FF32     		adds	r2, r2, #255
 3615 0838 A9E7     		b	.L384
 3616              	.L265:
 3617 083a 0434     		adds	r4, r4, #4
 3618 083c 9C42     		cmp	r4, r3
 3619 083e 00DB     		blt	.LCB3740
 3620 0840 28E4     		b	.L279	@long jump
 3621              	.LCB3740:
 3622 0842 A949     		ldr	r1, .L389+4
 3623 0844 AE4B     		ldr	r3, .L389+28
 3624 0846 AF4A     		ldr	r2, .L389+32
 3625 0848 F318     		adds	r3, r6, r3
 3626 084a B218     		adds	r2, r6, r2
 3627 084c 7618     		adds	r6, r6, r1
 3628 084e 3178     		ldrb	r1, [r6]
 3629 0850 CD26     		movs	r6, #205
 3630 0852 2C19     		adds	r4, r5, r4
 3631 0854 B600     		lsls	r6, r6, #2
 3632 0856 A419     		adds	r4, r4, r6
 3633 0858 2478     		ldrb	r4, [r4]
 3634 085a 1B78     		ldrb	r3, [r3]
 3635 085c 1278     		ldrb	r2, [r2]
ARM GAS  /tmp/cc2Yojzh.s 			page 69


 3636 085e AA48     		ldr	r0, .L389+36
 3637 0860 0094     		str	r4, [sp]
 3638 0862 FFF7FEFF 		bl	smtc_modem_hal_print_trace
 3639 0866 2800     		movs	r0, r5
 3640 0868 FFF7FEFF 		bl	smtc_real_is_new_channel_req_supported
 3641 086c 0028     		cmp	r0, #0
 3642 086e 08D1     		bne	.L319
 3643 0870 A648     		ldr	r0, .L389+40
 3644 0872 FFF7FEFF 		bl	smtc_modem_hal_print_trace
 3645 0876 A048     		ldr	r0, .L389+20
 3646 0878 FFF7FEFF 		bl	smtc_modem_hal_print_trace
 3647 087c EB5D     		ldrb	r3, [r5, r7]
 3648 087e 0533     		adds	r3, r3, #5
 3649 0880 23E4     		b	.L374
 3650              	.L319:
 3651 0882 EB5D     		ldrb	r3, [r5, r7]
 3652 0884 984A     		ldr	r2, .L389+4
 3653 0886 EB18     		adds	r3, r5, r3
 3654 0888 9B18     		adds	r3, r3, r2
 3655 088a 1E78     		ldrb	r6, [r3]
 3656 088c 2800     		movs	r0, r5
 3657 088e 3100     		movs	r1, r6
 3658 0890 FFF7FEFF 		bl	smtc_real_get_tx_channel_frequency
 3659 0894 0324     		movs	r4, #3
 3660 0896 0028     		cmp	r0, #0
 3661 0898 05D1     		bne	.L320
 3662 089a 9D4A     		ldr	r2, .L389+44
 3663 089c 9649     		ldr	r1, .L389+20
 3664 089e 9D48     		ldr	r0, .L389+48
 3665 08a0 FFF7FEFF 		bl	smtc_modem_hal_print_trace
 3666 08a4 023C     		subs	r4, r4, #2
 3667              	.L320:
 3668 08a6 E95D     		ldrb	r1, [r5, r7]
 3669 08a8 964B     		ldr	r3, .L389+32
 3670 08aa 2800     		movs	r0, r5
 3671 08ac C918     		adds	r1, r1, r3
 3672 08ae 6918     		adds	r1, r5, r1
 3673 08b0 FFF7FEFF 		bl	smtc_real_decode_freq_from_buf
 3674 08b4 0100     		movs	r1, r0
 3675 08b6 0590     		str	r0, [sp, #20]
 3676 08b8 2800     		movs	r0, r5
 3677 08ba FFF7FEFF 		bl	smtc_real_is_frequency_valid
 3678 08be 0130     		adds	r0, r0, #1
 3679 08c0 19D1     		bne	.L321
 3680 08c2 0223     		movs	r3, #2
 3681 08c4 944A     		ldr	r2, .L389+52
 3682 08c6 8C49     		ldr	r1, .L389+20
 3683 08c8 9248     		ldr	r0, .L389+48
 3684 08ca 1C40     		ands	r4, r3
 3685              	.L372:
 3686 08cc FFF7FEFF 		bl	smtc_modem_hal_print_trace
 3687              	.L322:
 3688 08d0 EB5D     		ldrb	r3, [r5, r7]
 3689 08d2 864A     		ldr	r2, .L389+8
 3690 08d4 0533     		adds	r3, r3, #5
 3691 08d6 DBB2     		uxtb	r3, r3
 3692 08d8 EB55     		strb	r3, [r5, r7]
ARM GAS  /tmp/cc2Yojzh.s 			page 70


 3693 08da AA5C     		ldrb	r2, [r5, r2]
 3694 08dc 9A42     		cmp	r2, r3
 3695 08de 01D2     		bcs	.LCB3823
 3696 08e0 FFF79BFB 		bl	.L256	@far jump
 3697              	.LCB3823:
 3698 08e4 7A26     		movs	r6, #122
 3699 08e6 FF36     		adds	r6, r6, #255
 3700 08e8 AB5D     		ldrb	r3, [r5, r6]
 3701 08ea 0A21     		movs	r1, #10
 3702 08ec EA18     		adds	r2, r5, r3
 3703 08ee 1000     		movs	r0, r2
 3704 08f0 7B30     		adds	r0, r0, #123
 3705 08f2 FF30     		adds	r0, r0, #255
 3706 08f4 BCE5     		b	.L379
 3707              	.L321:
 3708 08f6 032C     		cmp	r4, #3
 3709 08f8 11D1     		bne	.L338
 3710 08fa 3200     		movs	r2, r6
 3711 08fc 0599     		ldr	r1, [sp, #20]
 3712 08fe 2800     		movs	r0, r5
 3713 0900 FFF7FEFF 		bl	smtc_real_set_rx1_frequency_channel
 3714 0904 4342     		rsbs	r3, r0, #0
 3715 0906 5841     		adcs	r0, r0, r3
 3716 0908 4042     		rsbs	r0, r0, #0
 3717 090a 3100     		movs	r1, r6
 3718 090c 0440     		ands	r4, r0
 3719 090e 2800     		movs	r0, r5
 3720 0910 FFF7FEFF 		bl	smtc_real_get_rx1_channel_frequency
 3721 0914 814B     		ldr	r3, .L389+56
 3722 0916 0200     		movs	r2, r0
 3723 0918 3100     		movs	r1, r6
 3724 091a 1800     		movs	r0, r3
 3725 091c D6E7     		b	.L372
 3726              	.L338:
 3727 091e 0124     		movs	r4, #1
 3728 0920 D6E7     		b	.L322
 3729              	.L264:
 3730 0922 7F4A     		ldr	r2, .L389+60
 3731 0924 AA5C     		ldrb	r2, [r5, r2]
 3732 0926 022A     		cmp	r2, #2
 3733 0928 01D0     		beq	.LCB3866
 3734 092a FFF776FB 		bl	.L256	@far jump
 3735              	.LCB3866:
 3736 092e 0534     		adds	r4, r4, #5
 3737 0930 9C42     		cmp	r4, r3
 3738 0932 01DB     		blt	.LCB3869
 3739 0934 FFF7AEFB 		bl	.L279	@far jump
 3740              	.LCB3869:
 3741 0938 714B     		ldr	r3, .L389+28
 3742 093a 2C19     		adds	r4, r5, r4
 3743 093c F318     		adds	r3, r6, r3
 3744 093e 1B78     		ldrb	r3, [r3]
 3745 0940 7049     		ldr	r1, .L389+32
 3746 0942 9C46     		mov	ip, r3
 3747 0944 CD23     		movs	r3, #205
 3748 0946 9B00     		lsls	r3, r3, #2
 3749 0948 6748     		ldr	r0, .L389+4
ARM GAS  /tmp/cc2Yojzh.s 			page 71


 3750 094a E418     		adds	r4, r4, r3
 3751 094c 2478     		ldrb	r4, [r4]
 3752 094e 7218     		adds	r2, r6, r1
 3753 0950 3118     		adds	r1, r6, r0
 3754 0952 1278     		ldrb	r2, [r2]
 3755 0954 0978     		ldrb	r1, [r1]
 3756 0956 0194     		str	r4, [sp, #4]
 3757 0958 CE24     		movs	r4, #206
 3758 095a A400     		lsls	r4, r4, #2
 3759 095c 3619     		adds	r6, r6, r4
 3760 095e 3478     		ldrb	r4, [r6]
 3761 0960 6346     		mov	r3, ip
 3762 0962 0094     		str	r4, [sp]
 3763 0964 CE24     		movs	r4, #206
 3764 0966 6F48     		ldr	r0, .L389+64
 3765 0968 FFF7FEFF 		bl	smtc_modem_hal_print_trace
 3766 096c EB5D     		ldrb	r3, [r5, r7]
 3767 096e 6549     		ldr	r1, .L389+32
 3768 0970 EB18     		adds	r3, r5, r3
 3769 0972 5A18     		adds	r2, r3, r1
 3770 0974 1178     		ldrb	r1, [r2]
 3771 0976 624A     		ldr	r2, .L389+28
 3772 0978 5B48     		ldr	r0, .L389+4
 3773 097a 9A18     		adds	r2, r3, r2
 3774 097c 1278     		ldrb	r2, [r2]
 3775 097e 0902     		lsls	r1, r1, #8
 3776 0980 1204     		lsls	r2, r2, #16
 3777 0982 1143     		orrs	r1, r2
 3778 0984 1A18     		adds	r2, r3, r0
 3779 0986 1278     		ldrb	r2, [r2]
 3780 0988 A400     		lsls	r4, r4, #2
 3781 098a 1143     		orrs	r1, r2
 3782 098c 1A19     		adds	r2, r3, r4
 3783 098e 1278     		ldrb	r2, [r2]
 3784 0990 6548     		ldr	r0, .L389+68
 3785 0992 1206     		lsls	r2, r2, #24
 3786 0994 1143     		orrs	r1, r2
 3787 0996 654A     		ldr	r2, .L389+72
 3788 0998 A950     		str	r1, [r5, r2]
 3789 099a 654A     		ldr	r2, .L389+76
 3790 099c 9B18     		adds	r3, r3, r2
 3791 099e 1B78     		ldrb	r3, [r3]
 3792 09a0 AF32     		adds	r2, r2, #175
 3793 09a2 5A43     		muls	r2, r3
 3794 09a4 A523     		movs	r3, #165
 3795 09a6 120A     		lsrs	r2, r2, #8
 3796 09a8 DB00     		lsls	r3, r3, #3
 3797 09aa EA50     		str	r2, [r5, r3]
 3798 09ac FFF7FEFF 		bl	smtc_modem_hal_print_trace
 3799 09b0 EB5D     		ldrb	r3, [r5, r7]
 3800 09b2 5B4A     		ldr	r2, .L389+60
 3801 09b4 0633     		adds	r3, r3, #6
 3802 09b6 EB55     		strb	r3, [r5, r7]
 3803 09b8 0323     		movs	r3, #3
 3804 09ba AB54     		strb	r3, [r5, r2]
 3805 09bc A623     		movs	r3, #166
 3806 09be DB00     		lsls	r3, r3, #3
ARM GAS  /tmp/cc2Yojzh.s 			page 72


 3807 09c0 EA58     		ldr	r2, [r5, r3]
 3808 09c2 5C4B     		ldr	r3, .L389+80
 3809 09c4 EA50     		str	r2, [r5, r3]
 3810 09c6 FFF7FEFF 		bl	smtc_modem_hal_get_time_in_s
 3811 09ca 5B4B     		ldr	r3, .L389+84
 3812 09cc 0100     		movs	r1, r0
 3813 09ce E850     		str	r0, [r5, r3]
 3814 09d0 0433     		adds	r3, r3, #4
 3815 09d2 EB58     		ldr	r3, [r5, r3]
 3816 09d4 002B     		cmp	r3, #0
 3817 09d6 01D1     		bne	.LCB3970
 3818 09d8 FFF71FFB 		bl	.L256	@far jump
 3819              	.LCB3970:
 3820 09dc 574A     		ldr	r2, .L389+88
 3821 09de A858     		ldr	r0, [r5, r2]
 3822 09e0 9847     		blx	r3
 3823 09e2 FFF71AFB 		bl	.L256	@ far jump
 3824              	.L263:
 3825 09e6 564C     		ldr	r4, .L389+92
 3826 09e8 2B5D     		ldrb	r3, [r5, r4]
 3827 09ea 022B     		cmp	r3, #2
 3828 09ec 01D0     		beq	.LCB3981
 3829 09ee FFF714FB 		bl	.L256	@far jump
 3830              	.LCB3981:
 3831 09f2 5448     		ldr	r0, .L389+96
 3832 09f4 FFF7FEFF 		bl	smtc_modem_hal_print_trace
 3833 09f8 EB5D     		ldrb	r3, [r5, r7]
 3834 09fa 0133     		adds	r3, r3, #1
 3835 09fc EB55     		strb	r3, [r5, r7]
 3836 09fe 524B     		ldr	r3, .L389+100
 3837 0a00 EA5C     		ldrb	r2, [r5, r3]
 3838 0a02 524B     		ldr	r3, .L389+104
 3839 0a04 EA54     		strb	r2, [r5, r3]
 3840 0a06 0323     		movs	r3, #3
 3841 0a08 2B55     		strb	r3, [r5, r4]
 3842 0a0a FFF706FB 		bl	.L256	@ far jump
 3843              	.L262:
 3844 0a0e 0434     		adds	r4, r4, #4
 3845 0a10 9C42     		cmp	r4, r3
 3846 0a12 01DB     		blt	.LCB3999
 3847 0a14 FFF73EFB 		bl	.L279	@far jump
 3848              	.LCB3999:
 3849 0a18 3349     		ldr	r1, .L389+4
 3850 0a1a 394B     		ldr	r3, .L389+28
 3851 0a1c 394A     		ldr	r2, .L389+32
 3852 0a1e F318     		adds	r3, r6, r3
 3853 0a20 B218     		adds	r2, r6, r2
 3854 0a22 7618     		adds	r6, r6, r1
 3855 0a24 3178     		ldrb	r1, [r6]
 3856 0a26 CD26     		movs	r6, #205
 3857 0a28 2C19     		adds	r4, r5, r4
 3858 0a2a B600     		lsls	r6, r6, #2
 3859 0a2c A419     		adds	r4, r4, r6
 3860 0a2e 2478     		ldrb	r4, [r4]
 3861 0a30 1B78     		ldrb	r3, [r3]
 3862 0a32 1278     		ldrb	r2, [r2]
 3863 0a34 4648     		ldr	r0, .L389+108
ARM GAS  /tmp/cc2Yojzh.s 			page 73


 3864 0a36 0094     		str	r4, [sp]
 3865 0a38 FFF7FEFF 		bl	smtc_modem_hal_print_trace
 3866 0a3c E95D     		ldrb	r1, [r5, r7]
 3867 0a3e 2A4B     		ldr	r3, .L389+4
 3868 0a40 2800     		movs	r0, r5
 3869 0a42 C918     		adds	r1, r1, r3
 3870 0a44 6918     		adds	r1, r5, r1
 3871 0a46 FFF7FEFF 		bl	smtc_real_decode_freq_from_buf
 3872 0a4a 061E     		subs	r6, r0, #0
 3873 0a4c 29D1     		bne	.L324
 3874              	.L326:
 3875 0a4e 0324     		movs	r4, #3
 3876              	.L325:
 3877 0a50 CE22     		movs	r2, #206
 3878 0a52 EB5D     		ldrb	r3, [r5, r7]
 3879 0a54 9200     		lsls	r2, r2, #2
 3880 0a56 EB18     		adds	r3, r5, r3
 3881 0a58 9B18     		adds	r3, r3, r2
 3882 0a5a 1A78     		ldrb	r2, [r3]
 3883 0a5c 0F23     		movs	r3, #15
 3884 0a5e 1A40     		ands	r2, r3
 3885 0a60 1100     		movs	r1, r2
 3886 0a62 2800     		movs	r0, r5
 3887 0a64 0592     		str	r2, [sp, #20]
 3888 0a66 FFF7FEFF 		bl	smtc_real_is_rx_dr_valid
 3889 0a6a 0130     		adds	r0, r0, #1
 3890 0a6c 26D1     		bne	.L327
 3891 0a6e 0123     		movs	r3, #1
 3892 0a70 384A     		ldr	r2, .L389+112
 3893 0a72 2149     		ldr	r1, .L389+20
 3894 0a74 2748     		ldr	r0, .L389+48
 3895 0a76 1C40     		ands	r4, r3
 3896 0a78 FFF7FEFF 		bl	smtc_modem_hal_print_trace
 3897              	.L328:
 3898 0a7c EB5D     		ldrb	r3, [r5, r7]
 3899 0a7e 1B4A     		ldr	r2, .L389+8
 3900 0a80 0533     		adds	r3, r3, #5
 3901 0a82 DBB2     		uxtb	r3, r3
 3902 0a84 EB55     		strb	r3, [r5, r7]
 3903 0a86 AA5C     		ldrb	r2, [r5, r2]
 3904 0a88 9A42     		cmp	r2, r3
 3905 0a8a 01D2     		bcs	.LCB4068
 3906 0a8c FFF7C5FA 		bl	.L256	@far jump
 3907              	.LCB4068:
 3908 0a90 7A26     		movs	r6, #122
 3909 0a92 FF36     		adds	r6, r6, #255
 3910 0a94 AB5D     		ldrb	r3, [r5, r6]
 3911 0a96 1121     		movs	r1, #17
 3912 0a98 EA18     		adds	r2, r5, r3
 3913 0a9a 1000     		movs	r0, r2
 3914 0a9c 7B30     		adds	r0, r0, #123
 3915 0a9e FF30     		adds	r0, r0, #255
 3916 0aa0 E6E4     		b	.L379
 3917              	.L324:
 3918 0aa2 0100     		movs	r1, r0
 3919 0aa4 2800     		movs	r0, r5
 3920 0aa6 FFF7FEFF 		bl	smtc_real_is_frequency_valid
ARM GAS  /tmp/cc2Yojzh.s 			page 74


 3921 0aaa 0130     		adds	r0, r0, #1
 3922 0aac CFD1     		bne	.L326
 3923 0aae 2A4A     		ldr	r2, .L389+116
 3924 0ab0 1149     		ldr	r1, .L389+20
 3925 0ab2 1848     		ldr	r0, .L389+48
 3926 0ab4 FFF7FEFF 		bl	smtc_modem_hal_print_trace
 3927 0ab8 0224     		movs	r4, #2
 3928 0aba C9E7     		b	.L325
 3929              	.L327:
 3930 0abc 032C     		cmp	r4, #3
 3931 0abe 0ED1     		bne	.L340
 3932 0ac0 264B     		ldr	r3, .L389+120
 3933 0ac2 059A     		ldr	r2, [sp, #20]
 3934 0ac4 EE50     		str	r6, [r5, r3]
 3935 0ac6 0433     		adds	r3, r3, #4
 3936 0ac8 1100     		movs	r1, r2
 3937 0aca EA54     		strb	r2, [r5, r3]
 3938 0acc 2448     		ldr	r0, .L389+124
 3939 0ace FFF7FEFF 		bl	smtc_modem_hal_print_trace
 3940 0ad2 224B     		ldr	r3, .L389+120
 3941 0ad4 2348     		ldr	r0, .L389+128
 3942 0ad6 E958     		ldr	r1, [r5, r3]
 3943 0ad8 FFF7FEFF 		bl	smtc_modem_hal_print_trace
 3944 0adc CEE7     		b	.L328
 3945              	.L340:
 3946 0ade 0224     		movs	r4, #2
 3947 0ae0 CCE7     		b	.L328
 3948              	.L390:
 3949 0ae2 C046     		.align	2
 3950              	.L389:
 3951 0ae4 88030000 		.word	.LC132
 3952 0ae8 35030000 		.word	821
 3953 0aec 26040000 		.word	1062
 3954 0af0 A9030000 		.word	.LC134
 3955 0af4 C9030000 		.word	.LC136
 3956 0af8 1D000000 		.word	.LC8
 3957 0afc 00000000 		.word	smtc_real_max_eirp_dbm_from_idx
 3958 0b00 37030000 		.word	823
 3959 0b04 36030000 		.word	822
 3960 0b08 08040000 		.word	.LC139
 3961 0b0c 2E040000 		.word	.LC141
 3962 0b10 F1020000 		.word	.LC120
 3963 0b14 8A000000 		.word	.LC52
 3964 0b18 08030000 		.word	.LC122
 3965 0b1c 6A040000 		.word	.LC143
 3966 0b20 45050000 		.word	1349
 3967 0b24 87040000 		.word	.LC145
 3968 0b28 B4040000 		.word	.LC147
 3969 0b2c 24050000 		.word	1316
 3970 0b30 39030000 		.word	825
 3971 0b34 2C050000 		.word	1324
 3972 0b38 34050000 		.word	1332
 3973 0b3c 3C050000 		.word	1340
 3974 0b40 46050000 		.word	1350
 3975 0b44 DF040000 		.word	.LC149
 3976 0b48 51050000 		.word	1361
 3977 0b4c 52050000 		.word	1362
ARM GAS  /tmp/cc2Yojzh.s 			page 75


 3978 0b50 F1040000 		.word	.LC151
 3979 0b54 3F050000 		.word	.LC155
 3980 0b58 22050000 		.word	.LC153
 3981 0b5c 4C050000 		.word	1356
 3982 0b60 55050000 		.word	.LC157
 3983 0b64 6F050000 		.word	.LC159
 3984              	.L260:
 3985 0b68 0334     		adds	r4, r4, #3
 3986 0b6a 9C42     		cmp	r4, r3
 3987 0b6c 01DB     		blt	.LCB4166
 3988 0b6e FFF791FA 		bl	.L279	@far jump
 3989              	.LCB4166:
 3990 0b72 CD23     		movs	r3, #205
 3991 0b74 2C19     		adds	r4, r5, r4
 3992 0b76 9B00     		lsls	r3, r3, #2
 3993 0b78 E418     		adds	r4, r4, r3
 3994 0b7a 2378     		ldrb	r3, [r4]
 3995 0b7c CE24     		movs	r4, #206
 3996 0b7e 2A4A     		ldr	r2, .L391
 3997 0b80 2A49     		ldr	r1, .L391+4
 3998 0b82 A400     		lsls	r4, r4, #2
 3999 0b84 B218     		adds	r2, r6, r2
 4000 0b86 7118     		adds	r1, r6, r1
 4001 0b88 3619     		adds	r6, r6, r4
 4002 0b8a 3478     		ldrb	r4, [r6]
 4003 0b8c 1278     		ldrb	r2, [r2]
 4004 0b8e 0978     		ldrb	r1, [r1]
 4005 0b90 2748     		ldr	r0, .L391+8
 4006 0b92 0094     		str	r4, [sp]
 4007 0b94 FFF7FEFF 		bl	smtc_modem_hal_print_trace
 4008 0b98 E95D     		ldrb	r1, [r5, r7]
 4009 0b9a 244B     		ldr	r3, .L391+4
 4010 0b9c 2800     		movs	r0, r5
 4011 0b9e C918     		adds	r1, r1, r3
 4012 0ba0 6918     		adds	r1, r5, r1
 4013 0ba2 FFF7FEFF 		bl	smtc_real_decode_freq_from_buf
 4014 0ba6 041E     		subs	r4, r0, #0
 4015 0ba8 2BD0     		beq	.L329
 4016 0baa 0100     		movs	r1, r0
 4017 0bac 2800     		movs	r0, r5
 4018 0bae FFF7FEFF 		bl	smtc_real_is_frequency_valid
 4019 0bb2 0130     		adds	r0, r0, #1
 4020 0bb4 1CD1     		bne	.L330
 4021 0bb6 1F4A     		ldr	r2, .L391+12
 4022 0bb8 1F49     		ldr	r1, .L391+16
 4023 0bba 2048     		ldr	r0, .L391+20
 4024 0bbc FFF7FEFF 		bl	smtc_modem_hal_print_trace
 4025 0bc0 0022     		movs	r2, #0
 4026              	.L331:
 4027 0bc2 EB5D     		ldrb	r3, [r5, r7]
 4028 0bc4 1E49     		ldr	r1, .L391+24
 4029 0bc6 0433     		adds	r3, r3, #4
 4030 0bc8 DBB2     		uxtb	r3, r3
 4031 0bca EB55     		strb	r3, [r5, r7]
 4032 0bcc 695C     		ldrb	r1, [r5, r1]
 4033 0bce 9942     		cmp	r1, r3
 4034 0bd0 01D2     		bcs	.LCB4220
ARM GAS  /tmp/cc2Yojzh.s 			page 76


 4035 0bd2 FFF722FA 		bl	.L256	@far jump
 4036              	.LCB4220:
 4037 0bd6 7A26     		movs	r6, #122
 4038 0bd8 FF36     		adds	r6, r6, #255
 4039 0bda AB5D     		ldrb	r3, [r5, r6]
 4040 0bdc 1324     		movs	r4, #19
 4041 0bde E918     		adds	r1, r5, r3
 4042 0be0 0800     		movs	r0, r1
 4043 0be2 7C31     		adds	r1, r1, #124
 4044 0be4 7B30     		adds	r0, r0, #123
 4045 0be6 FF30     		adds	r0, r0, #255
 4046 0be8 FF31     		adds	r1, r1, #255
 4047 0bea 0470     		strb	r4, [r0]
 4048 0bec 0A70     		strb	r2, [r1]
 4049 0bee 45E5     		b	.L377
 4050              	.L330:
 4051 0bf0 A923     		movs	r3, #169
 4052 0bf2 DB00     		lsls	r3, r3, #3
 4053 0bf4 EC50     		str	r4, [r5, r3]
 4054              	.L332:
 4055 0bf6 2100     		movs	r1, r4
 4056 0bf8 1248     		ldr	r0, .L391+28
 4057 0bfa FFF7FEFF 		bl	smtc_modem_hal_print_trace
 4058 0bfe 0122     		movs	r2, #1
 4059 0c00 DFE7     		b	.L331
 4060              	.L329:
 4061 0c02 A923     		movs	r3, #169
 4062 0c04 DB00     		lsls	r3, r3, #3
 4063 0c06 E850     		str	r0, [r5, r3]
 4064 0c08 FFF7FEFF 		bl	smtc_modem_hal_get_time_in_ms
 4065 0c0c 0100     		movs	r1, r0
 4066 0c0e 2800     		movs	r0, r5
 4067 0c10 FFF7FEFF 		bl	smtc_real_get_beacon_frequency
 4068 0c14 0400     		movs	r4, r0
 4069 0c16 EEE7     		b	.L332
 4070              	.L259:
 4071 0c18 0023     		movs	r3, #0
 4072 0c1a 094A     		ldr	r2, .L391+24
 4073 0c1c 0A48     		ldr	r0, .L391+32
 4074 0c1e AB54     		strb	r3, [r5, r2]
 4075 0c20 FFF7FEFF 		bl	smtc_modem_hal_print_trace
 4076 0c24 FFF7F9F9 		bl	.L256	@ far jump
 4077              	.L392:
 4078              		.align	2
 4079              	.L391:
 4080 0c28 36030000 		.word	822
 4081 0c2c 35030000 		.word	821
 4082 0c30 8A050000 		.word	.LC161
 4083 0c34 B4050000 		.word	.LC163
 4084 0c38 1D000000 		.word	.LC8
 4085 0c3c 8A000000 		.word	.LC52
 4086 0c40 26040000 		.word	1062
 4087 0c44 CE050000 		.word	.LC165
 4088 0c48 E5050000 		.word	.LC167
 4090              		.section	.rodata.lr1_stack_mac_join_request_build.str1.1,"aMS",%progbits,1
 4091              	.LC169:
 4092 0000 44657645 		.ascii	"DevEUI\000"
ARM GAS  /tmp/cc2Yojzh.s 			page 77


 4092      554900
 4093              	.LC171:
 4094 0007 2573202D 		.ascii	"%s - (%lu bytes):\012\000"
 4094      2028256C 
 4094      75206279 
 4094      74657329 
 4094      3A0A00
 4095              	.LC173:
 4096 001a 20253032 		.ascii	" %02X\000"
 4096      5800
 4097              	.LC175:
 4098 0020 0A00     		.ascii	"\012\000"
 4099              	.LC177:
 4100 0022 4A6F696E 		.ascii	"JoinEUI\000"
 4100      45554900 
 4101              	.LC179:
 4102 002a 4465764E 		.ascii	"DevNonce 0x%x\012\000"
 4102      6F6E6365 
 4102      20307825 
 4102      780A00
 4103              	.LC184:
 4104 0039 1B5B303B 		.ascii	"\033[0;31mERROR: -> Crypto error during join mic co"
 4104      33316D45 
 4104      52524F52 
 4104      3A202D3E 
 4104      20437279 
 4105 0069 6D707574 		.ascii	"mputation\012\000"
 4105      6174696F 
 4105      6E0A00
 4106              		.section	.text.lr1_stack_mac_join_request_build,"ax",%progbits
 4107              		.align	1
 4108              		.global	lr1_stack_mac_join_request_build
 4109              		.syntax unified
 4110              		.code	16
 4111              		.thumb_func
 4113              	lr1_stack_mac_join_request_build:
 4114              		@ args = 0, pretend = 0, frame = 32
 4115              		@ frame_needed = 0, uses_anonymous_args = 0
 4116 0000 F0B5     		push	{r4, r5, r6, r7, lr}
 4117 0002 89B0     		sub	sp, sp, #36
 4118 0004 0400     		movs	r4, r0
 4119 0006 06A8     		add	r0, sp, #24
 4120 0008 FFF7FEFF 		bl	smtc_secure_element_get_joineui
 4121 000c 04A8     		add	r0, sp, #16
 4122 000e FFF7FEFF 		bl	smtc_secure_element_get_deveui
 4123 0012 454F     		ldr	r7, .L406
 4124 0014 0822     		movs	r2, #8
 4125 0016 3800     		movs	r0, r7
 4126 0018 4449     		ldr	r1, .L406+4
 4127 001a FFF7FEFF 		bl	smtc_modem_hal_print_trace
 4128 001e 0025     		movs	r5, #0
 4129              	.L394:
 4130 0020 0822     		movs	r2, #8
 4131 0022 02AB     		add	r3, sp, #8
 4132 0024 9B18     		adds	r3, r3, r2
 4133 0026 595D     		ldrb	r1, [r3, r5]
 4134 0028 414B     		ldr	r3, .L406+8
ARM GAS  /tmp/cc2Yojzh.s 			page 78


 4135 002a 0135     		adds	r5, r5, #1
 4136 002c 1800     		movs	r0, r3
 4137 002e 0193     		str	r3, [sp, #4]
 4138 0030 FFF7FEFF 		bl	smtc_modem_hal_print_trace
 4139 0034 082D     		cmp	r5, #8
 4140 0036 F3D1     		bne	.L394
 4141 0038 3E4E     		ldr	r6, .L406+12
 4142 003a 3000     		movs	r0, r6
 4143 003c FFF7FEFF 		bl	smtc_modem_hal_print_trace
 4144 0040 2A00     		movs	r2, r5
 4145 0042 3800     		movs	r0, r7
 4146 0044 3C49     		ldr	r1, .L406+16
 4147 0046 FFF7FEFF 		bl	smtc_modem_hal_print_trace
 4148 004a 0025     		movs	r5, #0
 4149              	.L395:
 4150 004c 1022     		movs	r2, #16
 4151 004e 02AB     		add	r3, sp, #8
 4152 0050 9B18     		adds	r3, r3, r2
 4153 0052 595D     		ldrb	r1, [r3, r5]
 4154 0054 0198     		ldr	r0, [sp, #4]
 4155 0056 0135     		adds	r5, r5, #1
 4156 0058 FFF7FEFF 		bl	smtc_modem_hal_print_trace
 4157 005c 082D     		cmp	r5, #8
 4158 005e F5D1     		bne	.L395
 4159 0060 3000     		movs	r0, r6
 4160 0062 FFF7FEFF 		bl	smtc_modem_hal_print_trace
 4161 0066 C722     		movs	r2, #199
 4162 0068 9200     		lsls	r2, r2, #2
 4163 006a A35A     		ldrh	r3, [r4, r2]
 4164 006c 3349     		ldr	r1, .L406+20
 4165 006e 8B42     		cmp	r3, r1
 4166 0070 01D0     		beq	.L396
 4167 0072 0133     		adds	r3, r3, #1
 4168 0074 A352     		strh	r3, [r4, r2]
 4169              	.L396:
 4170 0076 A15A     		ldrh	r1, [r4, r2]
 4171 0078 3148     		ldr	r0, .L406+24
 4172 007a FFF7FEFF 		bl	smtc_modem_hal_print_trace
 4173 007e 2300     		movs	r3, r4
 4174 0080 0022     		movs	r2, #0
 4175 0082 2000     		movs	r0, r4
 4176 0084 7333     		adds	r3, r3, #115
 4177 0086 1A70     		strb	r2, [r3]
 4178 0088 0132     		adds	r2, r2, #1
 4179 008a 213B     		subs	r3, r3, #33
 4180 008c 1A70     		strb	r2, [r3]
 4181 008e 013B     		subs	r3, r3, #1
 4182 0090 1A70     		strb	r2, [r3]
 4183 0092 2333     		adds	r3, r3, #35
 4184 0094 1B78     		ldrb	r3, [r3]
 4185 0096 0232     		adds	r2, r2, #2
 4186 0098 1340     		ands	r3, r2
 4187 009a 7A30     		adds	r0, r0, #122
 4188 009c 2200     		movs	r2, r4
 4189 009e 0370     		strb	r3, [r0]
 4190 00a0 0723     		movs	r3, #7
 4191 00a2 7B32     		adds	r2, r2, #123
ARM GAS  /tmp/cc2Yojzh.s 			page 79


 4192              	.L397:
 4193 00a4 1025     		movs	r5, #16
 4194 00a6 02A9     		add	r1, sp, #8
 4195 00a8 4919     		adds	r1, r1, r5
 4196 00aa C95C     		ldrb	r1, [r1, r3]
 4197 00ac 083D     		subs	r5, r5, #8
 4198 00ae 1170     		strb	r1, [r2]
 4199 00b0 02A9     		add	r1, sp, #8
 4200 00b2 4919     		adds	r1, r1, r5
 4201 00b4 C95C     		ldrb	r1, [r1, r3]
 4202 00b6 0132     		adds	r2, r2, #1
 4203 00b8 D171     		strb	r1, [r2, #7]
 4204 00ba 013B     		subs	r3, r3, #1
 4205 00bc F2D2     		bcs	.L397
 4206 00be C723     		movs	r3, #199
 4207 00c0 2200     		movs	r2, r4
 4208 00c2 9B00     		lsls	r3, r3, #2
 4209 00c4 E35A     		ldrh	r3, [r4, r3]
 4210 00c6 8B32     		adds	r2, r2, #139
 4211 00c8 1370     		strb	r3, [r2]
 4212 00ca EB40     		lsrs	r3, r3, r5
 4213 00cc 2500     		movs	r5, r4
 4214 00ce 1321     		movs	r1, #19
 4215 00d0 7935     		adds	r5, r5, #121
 4216 00d2 5370     		strb	r3, [r2, #1]
 4217 00d4 2970     		strb	r1, [r5]
 4218 00d6 03AA     		add	r2, sp, #12
 4219 00d8 FFF7FEFF 		bl	smtc_modem_crypto_compute_join_mic
 4220 00dc 0028     		cmp	r0, #0
 4221 00de 16D0     		beq	.L398
 4222 00e0 184E     		ldr	r6, .L406+28
 4223 00e2 3000     		movs	r0, r6
 4224 00e4 FFF7FEFF 		bl	smtc_modem_hal_store_crashlog
 4225 00e8 0120     		movs	r0, #1
 4226 00ea FFF7FEFF 		bl	smtc_modem_hal_set_crashlog_status
 4227 00ee 3100     		movs	r1, r6
 4228 00f0 1548     		ldr	r0, .L406+32
 4229 00f2 FFF7FEFF 		bl	smtc_modem_hal_print_trace
 4230 00f6 154E     		ldr	r6, .L406+36
 4231 00f8 3000     		movs	r0, r6
 4232 00fa FFF7FEFF 		bl	smtc_modem_hal_print_trace
 4233 00fe 1448     		ldr	r0, .L406+40
 4234 0100 FFF7FEFF 		bl	smtc_modem_hal_print_trace
 4235 0104 3000     		movs	r0, r6
 4236 0106 FFF7FEFF 		bl	smtc_modem_hal_print_trace
 4237 010a FFF7FEFF 		bl	smtc_modem_hal_reset_mcu
 4238              	.L398:
 4239 010e 2B78     		ldrb	r3, [r5]
 4240 0110 0422     		movs	r2, #4
 4241 0112 7A33     		adds	r3, r3, #122
 4242 0114 E018     		adds	r0, r4, r3
 4243 0116 03A9     		add	r1, sp, #12
 4244 0118 FFF7FEFF 		bl	memcpy1
 4245 011c 2B78     		ldrb	r3, [r5]
 4246 011e 0433     		adds	r3, r3, #4
 4247 0120 2B70     		strb	r3, [r5]
 4248 0122 09B0     		add	sp, sp, #36
ARM GAS  /tmp/cc2Yojzh.s 			page 80


 4249              		@ sp needed
 4250 0124 F0BD     		pop	{r4, r5, r6, r7, pc}
 4251              	.L407:
 4252 0126 C046     		.align	2
 4253              	.L406:
 4254 0128 07000000 		.word	.LC171
 4255 012c 00000000 		.word	.LC169
 4256 0130 1A000000 		.word	.LC173
 4257 0134 20000000 		.word	.LC175
 4258 0138 22000000 		.word	.LC177
 4259 013c FFFF0000 		.word	65535
 4260 0140 2A000000 		.word	.LC179
 4261 0144 00000000 		.word	__func__.1
 4262 0148 00000000 		.word	.LC6
 4263 014c 1D000000 		.word	.LC8
 4264 0150 39000000 		.word	.LC184
 4266              		.section	.rodata.lr1_stack_mac_join_accept.str1.1,"aMS",%progbits,1
 4267              	.LC186:
 4268 0000 1B5B303B 		.ascii	"\033[0;33mWARN: JoinNonce invalid (new:%u == prev:%"
 4268      33336D57 
 4268      41524E3A 
 4268      204A6F69 
 4268      6E4E6F6E 
 4269 0030 75290A00 		.ascii	"u)\012\000"
 4270              	.LC189:
 4271 0034 1B5B303B 		.ascii	"\033[0;33mWARN: JoinAccept invalid Rx1DrOffset %d\012"
 4271      33336D57 
 4271      41524E3A 
 4271      204A6F69 
 4271      6E416363 
 4272 0063 00       		.ascii	"\000"
 4273              	.LC191:
 4274 0064 1B5B303B 		.ascii	"\033[0;33mWARN: JoinAccept invalid Rx2Datarate %d\012"
 4274      33336D57 
 4274      41524E3A 
 4274      204A6F69 
 4274      6E416363 
 4275 0093 00       		.ascii	"\000"
 4276              	.LC193:
 4277 0094 20446576 		.ascii	" DevAddr= %x\012\000"
 4277      41646472 
 4277      3D202578 
 4277      0A00
 4278              	.LC195:
 4279 00a2 204D6163 		.ascii	" MacRx1DataRateOffset= %d\012\000"
 4279      52783144 
 4279      61746152 
 4279      6174654F 
 4279      66667365 
 4280              	.LC197:
 4281 00bd 204D6163 		.ascii	" MacRx2DataRate= %d\012\000"
 4281      52783244 
 4281      61746152 
 4281      6174653D 
 4281      2025640A 
 4282              	.LC199:
 4283 00d2 204D6163 		.ascii	" MacRx1Delay= %d\012\000"
ARM GAS  /tmp/cc2Yojzh.s 			page 81


 4283      52783144 
 4283      656C6179 
 4283      3D202564 
 4283      0A00
 4284              	.LC201:
 4285 00e4 20536176 		.ascii	" Save In Flash After Join succeed\012\000"
 4285      6520496E 
 4285      20466C61 
 4285      73682041 
 4285      66746572 
 4286              		.section	.text.lr1_stack_mac_join_accept,"ax",%progbits
 4287              		.align	1
 4288              		.global	lr1_stack_mac_join_accept
 4289              		.syntax unified
 4290              		.code	16
 4291              		.thumb_func
 4293              	lr1_stack_mac_join_accept:
 4294              		@ args = 0, pretend = 0, frame = 16
 4295              		@ frame_needed = 0, uses_anonymous_args = 0
 4296 0000 F0B5     		push	{r4, r5, r6, r7, lr}
 4297 0002 0400     		movs	r4, r0
 4298 0004 534B     		ldr	r3, .L421
 4299 0006 85B0     		sub	sp, sp, #20
 4300 0008 C118     		adds	r1, r0, r3
 4301 000a 0622     		movs	r2, #6
 4302 000c 02A8     		add	r0, sp, #8
 4303 000e FFF7FEFF 		bl	memcpy1
 4304 0012 514B     		ldr	r3, .L421+4
 4305 0014 E25C     		ldrb	r2, [r4, r3]
 4306 0016 514B     		ldr	r3, .L421+8
 4307 0018 E15C     		ldrb	r1, [r4, r3]
 4308 001a 0133     		adds	r3, r3, #1
 4309 001c E35C     		ldrb	r3, [r4, r3]
 4310 001e 0902     		lsls	r1, r1, #8
 4311 0020 1B04     		lsls	r3, r3, #16
 4312 0022 1943     		orrs	r1, r3
 4313 0024 1143     		orrs	r1, r2
 4314 0026 02AB     		add	r3, sp, #8
 4315 0028 02AA     		add	r2, sp, #8
 4316 002a 1878     		ldrb	r0, [r3]
 4317 002c 9278     		ldrb	r2, [r2, #2]
 4318 002e 5B78     		ldrb	r3, [r3, #1]
 4319 0030 1204     		lsls	r2, r2, #16
 4320 0032 1B02     		lsls	r3, r3, #8
 4321 0034 1343     		orrs	r3, r2
 4322 0036 0343     		orrs	r3, r0
 4323 0038 9942     		cmp	r1, r3
 4324 003a 0BD1     		bne	.L409
 4325 003c 4848     		ldr	r0, .L421+12
 4326 003e 0A00     		movs	r2, r1
 4327 0040 FFF7FEFF 		bl	smtc_modem_hal_print_trace
 4328 0044 4748     		ldr	r0, .L421+16
 4329              	.L419:
 4330 0046 0125     		movs	r5, #1
 4331 0048 FFF7FEFF 		bl	smtc_modem_hal_print_trace
 4332 004c 6D42     		rsbs	r5, r5, #0
 4333              	.L416:
ARM GAS  /tmp/cc2Yojzh.s 			page 82


 4334 004e 2800     		movs	r0, r5
 4335 0050 05B0     		add	sp, sp, #20
 4336              		@ sp needed
 4337 0052 F0BD     		pop	{r4, r5, r6, r7, pc}
 4338              	.L409:
 4339 0054 404B     		ldr	r3, .L421+4
 4340 0056 0622     		movs	r2, #6
 4341 0058 E018     		adds	r0, r4, r3
 4342 005a 02A9     		add	r1, sp, #8
 4343 005c FFF7FEFF 		bl	memcpy1
 4344 0060 C723     		movs	r3, #199
 4345 0062 9B00     		lsls	r3, r3, #2
 4346 0064 E25A     		ldrh	r2, [r4, r3]
 4347 0066 02AB     		add	r3, sp, #8
 4348 0068 1800     		movs	r0, r3
 4349 006a D91C     		adds	r1, r3, #3
 4350 006c FFF7FEFF 		bl	smtc_modem_crypto_derive_skeys
 4351 0070 3D4B     		ldr	r3, .L421+20
 4352 0072 E35C     		ldrb	r3, [r4, r3]
 4353 0074 0D2B     		cmp	r3, #13
 4354 0076 3FD9     		bls	.L411
 4355 0078 0023     		movs	r3, #0
 4356 007a 3C4A     		ldr	r2, .L421+24
 4357 007c A018     		adds	r0, r4, r2
 4358 007e 0832     		adds	r2, r2, #8
 4359 0080 FF32     		adds	r2, r2, #255
 4360 0082 A218     		adds	r2, r4, r2
 4361              	.L412:
 4362 0084 C15C     		ldrb	r1, [r0, r3]
 4363 0086 D154     		strb	r1, [r2, r3]
 4364 0088 0133     		adds	r3, r3, #1
 4365 008a 102B     		cmp	r3, #16
 4366 008c FAD1     		bne	.L412
 4367 008e 2000     		movs	r0, r4
 4368 0090 FFF7FEFF 		bl	smtc_real_update_cflist
 4369              	.L413:
 4370 0094 364B     		ldr	r3, .L421+28
 4371 0096 2700     		movs	r7, r4
 4372 0098 E118     		adds	r1, r4, r3
 4373 009a E25C     		ldrb	r2, [r4, r3]
 4374 009c 4B78     		ldrb	r3, [r1, #1]
 4375 009e 2600     		movs	r6, r4
 4376 00a0 1B02     		lsls	r3, r3, #8
 4377 00a2 1343     		orrs	r3, r2
 4378 00a4 8A78     		ldrb	r2, [r1, #2]
 4379 00a6 5837     		adds	r7, r7, #88
 4380 00a8 1204     		lsls	r2, r2, #16
 4381 00aa 1A43     		orrs	r2, r3
 4382 00ac CB78     		ldrb	r3, [r1, #3]
 4383 00ae 5336     		adds	r6, r6, #83
 4384 00b0 1B06     		lsls	r3, r3, #24
 4385 00b2 1343     		orrs	r3, r2
 4386 00b4 0F22     		movs	r2, #15
 4387 00b6 E366     		str	r3, [r4, #108]
 4388 00b8 2E4B     		ldr	r3, .L421+32
 4389 00ba E35C     		ldrb	r3, [r4, r3]
 4390 00bc 5906     		lsls	r1, r3, #25
ARM GAS  /tmp/cc2Yojzh.s 			page 83


 4391 00be 490F     		lsrs	r1, r1, #29
 4392 00c0 1340     		ands	r3, r2
 4393 00c2 3970     		strb	r1, [r7]
 4394 00c4 3370     		strb	r3, [r6]
 4395 00c6 8723     		movs	r3, #135
 4396 00c8 9B00     		lsls	r3, r3, #2
 4397 00ca E35C     		ldrb	r3, [r4, r3]
 4398 00cc 1340     		ands	r3, r2
 4399 00ce 1A1C     		adds	r2, r3, #0
 4400 00d0 002B     		cmp	r3, #0
 4401 00d2 00D1     		bne	.L414
 4402 00d4 0122     		movs	r2, #1
 4403              	.L414:
 4404 00d6 2300     		movs	r3, r4
 4405 00d8 5933     		adds	r3, r3, #89
 4406 00da 1A70     		strb	r2, [r3]
 4407 00dc 2000     		movs	r0, r4
 4408 00de 0193     		str	r3, [sp, #4]
 4409 00e0 FFF7FEFF 		bl	smtc_real_is_rx1_dr_offset_valid
 4410 00e4 1F4B     		ldr	r3, .L421+16
 4411 00e6 0093     		str	r3, [sp]
 4412 00e8 0028     		cmp	r0, #0
 4413 00ea 09D0     		beq	.L415
 4414 00ec 3978     		ldrb	r1, [r7]
 4415 00ee 2248     		ldr	r0, .L421+36
 4416              	.L420:
 4417 00f0 FFF7FEFF 		bl	smtc_modem_hal_print_trace
 4418 00f4 0098     		ldr	r0, [sp]
 4419 00f6 A6E7     		b	.L419
 4420              	.L411:
 4421 00f8 2000     		movs	r0, r4
 4422 00fa FFF7FEFF 		bl	smtc_real_init_after_join_snapshot_channel_mask
 4423 00fe C9E7     		b	.L413
 4424              	.L415:
 4425 0100 2000     		movs	r0, r4
 4426 0102 3178     		ldrb	r1, [r6]
 4427 0104 FFF7FEFF 		bl	smtc_real_is_rx_dr_valid
 4428 0108 051E     		subs	r5, r0, #0
 4429 010a 02D0     		beq	.L417
 4430 010c 3178     		ldrb	r1, [r6]
 4431 010e 1B48     		ldr	r0, .L421+40
 4432 0110 EEE7     		b	.L420
 4433              	.L417:
 4434 0112 0222     		movs	r2, #2
 4435 0114 1A4B     		ldr	r3, .L421+44
 4436 0116 2000     		movs	r0, r4
 4437 0118 E254     		strb	r2, [r4, r3]
 4438 011a FFF7FEFF 		bl	lr1_stack_mac_session_init
 4439 011e 2000     		movs	r0, r4
 4440 0120 FFF7FEFF 		bl	smtc_real_init_session
 4441 0124 E16E     		ldr	r1, [r4, #108]
 4442 0126 1748     		ldr	r0, .L421+48
 4443 0128 FFF7FEFF 		bl	smtc_modem_hal_print_trace
 4444 012c 3978     		ldrb	r1, [r7]
 4445 012e 1648     		ldr	r0, .L421+52
 4446 0130 FFF7FEFF 		bl	smtc_modem_hal_print_trace
 4447 0134 3178     		ldrb	r1, [r6]
ARM GAS  /tmp/cc2Yojzh.s 			page 84


 4448 0136 1548     		ldr	r0, .L421+56
 4449 0138 FFF7FEFF 		bl	smtc_modem_hal_print_trace
 4450 013c 019B     		ldr	r3, [sp, #4]
 4451 013e 1448     		ldr	r0, .L421+60
 4452 0140 1978     		ldrb	r1, [r3]
 4453 0142 FFF7FEFF 		bl	smtc_modem_hal_print_trace
 4454 0146 134A     		ldr	r2, .L421+64
 4455 0148 1348     		ldr	r0, .L421+68
 4456 014a 0099     		ldr	r1, [sp]
 4457 014c FFF7FEFF 		bl	smtc_modem_hal_print_trace
 4458 0150 7DE7     		b	.L416
 4459              	.L422:
 4460 0152 C046     		.align	2
 4461              	.L421:
 4462 0154 11020000 		.word	529
 4463 0158 1E030000 		.word	798
 4464 015c 1F030000 		.word	799
 4465 0160 00000000 		.word	.LC186
 4466 0164 1D000000 		.word	.LC8
 4467 0168 0F020000 		.word	527
 4468 016c 1D020000 		.word	541
 4469 0170 17020000 		.word	535
 4470 0174 1B020000 		.word	539
 4471 0178 34000000 		.word	.LC189
 4472 017c 64000000 		.word	.LC191
 4473 0180 CE040000 		.word	1230
 4474 0184 94000000 		.word	.LC193
 4475 0188 A2000000 		.word	.LC195
 4476 018c BD000000 		.word	.LC197
 4477 0190 D2000000 		.word	.LC199
 4478 0194 E4000000 		.word	.LC201
 4479 0198 8A000000 		.word	.LC52
 4481              		.section	.text.lr1_stack_network_next_free_duty_cycle_ms_get,"ax",%progbits
 4482              		.align	1
 4483              		.global	lr1_stack_network_next_free_duty_cycle_ms_get
 4484              		.syntax unified
 4485              		.code	16
 4486              		.thumb_func
 4488              	lr1_stack_network_next_free_duty_cycle_ms_get:
 4489              		@ args = 0, pretend = 0, frame = 0
 4490              		@ frame_needed = 0, uses_anonymous_args = 0
 4491 0000 70B5     		push	{r4, r5, r6, lr}
 4492 0002 C525     		movs	r5, #197
 4493 0004 AD00     		lsls	r5, r5, #2
 4494 0006 4359     		ldr	r3, [r0, r5]
 4495 0008 0400     		movs	r4, r0
 4496 000a 002B     		cmp	r3, #0
 4497 000c 01D1     		bne	.L424
 4498              	.L428:
 4499 000e 0020     		movs	r0, #0
 4500              	.L423:
 4501              		@ sp needed
 4502 0010 70BD     		pop	{r4, r5, r6, pc}
 4503              	.L424:
 4504 0012 FFF7FEFF 		bl	smtc_modem_hal_get_time_in_ms
 4505 0016 C623     		movs	r3, #198
 4506 0018 9B00     		lsls	r3, r3, #2
ARM GAS  /tmp/cc2Yojzh.s 			page 85


 4507 001a E158     		ldr	r1, [r4, r3]
 4508 001c 421A     		subs	r2, r0, r1
 4509 001e 531E     		subs	r3, r2, #1
 4510 0020 8142     		cmp	r1, r0
 4511 0022 00D8     		bhi	.L427
 4512 0024 1300     		movs	r3, r2
 4513              	.L427:
 4514 0026 6059     		ldr	r0, [r4, r5]
 4515 0028 9842     		cmp	r0, r3
 4516 002a F0D3     		bcc	.L428
 4517 002c C01A     		subs	r0, r0, r3
 4518 002e EFE7     		b	.L423
 4520              		.section	.text.lr1_stack_toa_get,"ax",%progbits
 4521              		.align	1
 4522              		.global	lr1_stack_toa_get
 4523              		.syntax unified
 4524              		.code	16
 4525              		.thumb_func
 4527              	lr1_stack_toa_get:
 4528              		@ args = 0, pretend = 0, frame = 56
 4529              		@ frame_needed = 0, uses_anonymous_args = 0
 4530 0000 F0B5     		push	{r4, r5, r6, r7, lr}
 4531 0002 0500     		movs	r5, r0
 4532 0004 0027     		movs	r7, #0
 4533 0006 8FB0     		sub	sp, sp, #60
 4534 0008 0297     		str	r7, [sp, #8]
 4535 000a 4E35     		adds	r5, r5, #78
 4536 000c 2978     		ldrb	r1, [r5]
 4537 000e 0400     		movs	r4, r0
 4538 0010 FFF7FEFF 		bl	smtc_real_get_modulation_type_from_datarate
 4539 0014 0600     		movs	r6, r0
 4540 0016 B842     		cmp	r0, r7
 4541 0018 36D1     		bne	.L430
 4542 001a 6B46     		mov	r3, sp
 4543 001c 9F1D     		adds	r7, r3, #6
 4544 001e 3A00     		movs	r2, r7
 4545 0020 2978     		ldrb	r1, [r5]
 4546 0022 0733     		adds	r3, r3, #7
 4547 0024 03AD     		add	r5, sp, #12
 4548 0026 2000     		movs	r0, r4
 4549 0028 FFF7FEFF 		bl	smtc_real_lora_dr_to_sf_bw
 4550 002c 1422     		movs	r2, #20
 4551 002e 3100     		movs	r1, r6
 4552 0030 2800     		movs	r0, r5
 4553 0032 FFF7FEFF 		bl	memset
 4554 0036 3B78     		ldrb	r3, [r7]
 4555 0038 2000     		movs	r0, r4
 4556 003a 2B70     		strb	r3, [r5]
 4557 003c 6B46     		mov	r3, sp
 4558 003e DB79     		ldrb	r3, [r3, #7]
 4559 0040 6B70     		strb	r3, [r5, #1]
 4560 0042 FFF7FEFF 		bl	smtc_real_get_coding_rate
 4561 0046 2F78     		ldrb	r7, [r5]
 4562 0048 6978     		ldrb	r1, [r5, #1]
 4563 004a A870     		strb	r0, [r5, #2]
 4564 004c 3800     		movs	r0, r7
 4565 004e FFF7FEFF 		bl	ral_compute_lora_ldro
ARM GAS  /tmp/cc2Yojzh.s 			page 86


 4566 0052 0123     		movs	r3, #1
 4567 0054 2B81     		strh	r3, [r5, #8]
 4568 0056 2300     		movs	r3, r4
 4569 0058 E870     		strb	r0, [r5, #3]
 4570 005a 7933     		adds	r3, r3, #121
 4571 005c 1B78     		ldrb	r3, [r3]
 4572 005e 3900     		movs	r1, r7
 4573 0060 EB71     		strb	r3, [r5, #7]
 4574 0062 2000     		movs	r0, r4
 4575 0064 FFF7FEFF 		bl	smtc_real_get_preamble_len
 4576 0068 454B     		ldr	r3, .L435
 4577 006a 2900     		movs	r1, r5
 4578 006c E258     		ldr	r2, [r4, r3]
 4579 006e 9C23     		movs	r3, #156
 4580 0070 AE71     		strb	r6, [r5, #6]
 4581 0072 1B01     		lsls	r3, r3, #4
 4582 0074 D358     		ldr	r3, [r2, r3]
 4583 0076 A880     		strh	r0, [r5, #4]
 4584 0078 A033     		adds	r3, r3, #160
 4585 007a 1B68     		ldr	r3, [r3]
 4586 007c 04A8     		add	r0, sp, #16
 4587              	.L434:
 4588 007e 9847     		blx	r3
 4589 0080 0290     		str	r0, [sp, #8]
 4590              	.L431:
 4591 0082 0298     		ldr	r0, [sp, #8]
 4592 0084 0FB0     		add	sp, sp, #60
 4593              		@ sp needed
 4594 0086 F0BD     		pop	{r4, r5, r6, r7, pc}
 4595              	.L430:
 4596 0088 0128     		cmp	r0, #1
 4597 008a 3AD1     		bne	.L432
 4598 008c 6B46     		mov	r3, sp
 4599 008e 2978     		ldrb	r1, [r5]
 4600 0090 DA1D     		adds	r2, r3, #7
 4601 0092 03AD     		add	r5, sp, #12
 4602 0094 2000     		movs	r0, r4
 4603 0096 FFF7FEFF 		bl	smtc_real_fsk_dr_to_bitrate
 4604 009a 2C22     		movs	r2, #44
 4605 009c 3900     		movs	r1, r7
 4606 009e 2800     		movs	r0, r5
 4607 00a0 FFF7FEFF 		bl	memset
 4608 00a4 9623     		movs	r3, #150
 4609 00a6 DB00     		lsls	r3, r3, #3
 4610 00a8 E358     		ldr	r3, [r4, r3]
 4611 00aa 2000     		movs	r0, r4
 4612 00ac 0B93     		str	r3, [sp, #44]
 4613 00ae FFF7FEFF 		bl	smtc_real_get_gfsk_sync_word
 4614 00b2 3623     		movs	r3, #54
 4615 00b4 6B44     		add	r3, r3, sp
 4616 00b6 0A90     		str	r0, [sp, #40]
 4617 00b8 1E70     		strb	r6, [r3]
 4618 00ba 324B     		ldr	r3, .L435+4
 4619 00bc 2900     		movs	r1, r5
 4620 00be 2B85     		strh	r3, [r5, #40]
 4621 00c0 314B     		ldr	r3, .L435+8
 4622 00c2 07A8     		add	r0, sp, #28
ARM GAS  /tmp/cc2Yojzh.s 			page 87


 4623 00c4 0C93     		str	r3, [sp, #48]
 4624 00c6 314B     		ldr	r3, .L435+12
 4625 00c8 0493     		str	r3, [sp, #16]
 4626 00ca 6B46     		mov	r3, sp
 4627 00cc DA79     		ldrb	r2, [r3, #7]
 4628 00ce FA23     		movs	r3, #250
 4629 00d0 9B00     		lsls	r3, r3, #2
 4630 00d2 5343     		muls	r3, r2
 4631 00d4 0393     		str	r3, [sp, #12]
 4632 00d6 2E4B     		ldr	r3, .L435+16
 4633 00d8 0593     		str	r3, [sp, #20]
 4634 00da 2300     		movs	r3, r4
 4635 00dc 7933     		adds	r3, r3, #121
 4636 00de 1B78     		ldrb	r3, [r3]
 4637 00e0 6E75     		strb	r6, [r5, #21]
 4638 00e2 AB75     		strb	r3, [r5, #22]
 4639 00e4 2823     		movs	r3, #40
 4640 00e6 2B82     		strh	r3, [r5, #16]
 4641 00e8 103B     		subs	r3, r3, #16
 4642 00ea EB74     		strb	r3, [r5, #19]
 4643 00ec 143B     		subs	r3, r3, #20
 4644 00ee EB75     		strb	r3, [r5, #23]
 4645 00f0 234B     		ldr	r3, .L435
 4646 00f2 2E76     		strb	r6, [r5, #24]
 4647 00f4 E258     		ldr	r2, [r4, r3]
 4648 00f6 9C23     		movs	r3, #156
 4649 00f8 1B01     		lsls	r3, r3, #4
 4650 00fa D358     		ldr	r3, [r2, r3]
 4651 00fc A433     		adds	r3, r3, #164
 4652 00fe 1B68     		ldr	r3, [r3]
 4653 0100 BDE7     		b	.L434
 4654              	.L432:
 4655 0102 0228     		cmp	r0, #2
 4656 0104 23D1     		bne	.L433
 4657 0106 6B46     		mov	r3, sp
 4658 0108 9E1D     		adds	r6, r3, #6
 4659 010a 3200     		movs	r2, r6
 4660 010c 2000     		movs	r0, r4
 4661 010e 2978     		ldrb	r1, [r5]
 4662 0110 0733     		adds	r3, r3, #7
 4663 0112 03AD     		add	r5, sp, #12
 4664 0114 FFF7FEFF 		bl	smtc_real_lr_fhss_dr_to_cr_bw
 4665 0118 3900     		movs	r1, r7
 4666 011a 1822     		movs	r2, #24
 4667 011c 2800     		movs	r0, r5
 4668 011e FFF7FEFF 		bl	memset
 4669 0122 0123     		movs	r3, #1
 4670 0124 3078     		ldrb	r0, [r6]
 4671 0126 2B72     		strb	r3, [r5, #8]
 4672 0128 6871     		strb	r0, [r5, #5]
 4673 012a FFF7FEFF 		bl	smtc_real_lr_fhss_get_header_count
 4674 012e 144B     		ldr	r3, .L435
 4675 0130 6872     		strb	r0, [r5, #9]
 4676 0132 E258     		ldr	r2, [r4, r3]
 4677 0134 9C23     		movs	r3, #156
 4678 0136 1B01     		lsls	r3, r3, #4
 4679 0138 D058     		ldr	r0, [r2, r3]
ARM GAS  /tmp/cc2Yojzh.s 			page 88


 4680 013a 7934     		adds	r4, r4, #121
 4681 013c 0300     		movs	r3, r0
 4682 013e D433     		adds	r3, r3, #212
 4683 0140 2278     		ldrb	r2, [r4]
 4684 0142 2900     		movs	r1, r5
 4685 0144 1C68     		ldr	r4, [r3]
 4686 0146 0068     		ldr	r0, [r0]
 4687 0148 02AB     		add	r3, sp, #8
 4688 014a A047     		blx	r4
 4689 014c 99E7     		b	.L431
 4690              	.L433:
 4691 014e 114C     		ldr	r4, .L435+20
 4692 0150 2000     		movs	r0, r4
 4693 0152 FFF7FEFF 		bl	smtc_modem_hal_store_crashlog
 4694 0156 0120     		movs	r0, #1
 4695 0158 FFF7FEFF 		bl	smtc_modem_hal_set_crashlog_status
 4696 015c 2100     		movs	r1, r4
 4697 015e 0E48     		ldr	r0, .L435+24
 4698 0160 FFF7FEFF 		bl	smtc_modem_hal_print_trace
 4699 0164 0D4C     		ldr	r4, .L435+28
 4700 0166 2000     		movs	r0, r4
 4701 0168 FFF7FEFF 		bl	smtc_modem_hal_print_trace
 4702 016c 0C48     		ldr	r0, .L435+32
 4703 016e FFF7FEFF 		bl	smtc_modem_hal_print_trace
 4704 0172 2000     		movs	r0, r4
 4705 0174 FFF7FEFF 		bl	smtc_modem_hal_print_trace
 4706 0178 FFF7FEFF 		bl	smtc_modem_hal_reset_mcu
 4707 017c 81E7     		b	.L431
 4708              	.L436:
 4709 017e C046     		.align	2
 4710              	.L435:
 4711 0180 BC040000 		.word	1212
 4712 0184 FF010000 		.word	511
 4713 0188 0F1D2110 		.word	270605583
 4714 018c A8610000 		.word	25000
 4715 0190 A0860100 		.word	100000
 4716 0194 00000000 		.word	__func__.0
 4717 0198 00000000 		.word	.LC6
 4718 019c 1D000000 		.word	.LC8
 4719 01a0 00000000 		.word	.LC20
 4721              		.global	__aeabi_uidiv
 4722              		.section	.rodata.lr1_stack_mac_update.str1.1,"aMS",%progbits,1
 4723              	.LC211:
 4724 0000 1B5B303B 		.ascii	"\033[0;31mERROR: -> Reach max tx frame without dl, "
 4724      33316D45 
 4724      52524F52 
 4724      3A202D3E 
 4724      20526561 
 4725 0030 756C2063 		.ascii	"ul cnt:%d\012\000"
 4725      6E743A25 
 4725      640A00
 4726              	.LC213:
 4727 003b 1B5B303B 		.ascii	"\033[0;31mERROR: ->  Data Rate incompatible with ch"
 4727      33316D45 
 4727      52524F52 
 4727      3A202D3E 
 4727      20204461 
ARM GAS  /tmp/cc2Yojzh.s 			page 89


 4728 006b 616E6E65 		.ascii	"annel mask\012\000"
 4728      6C206D61 
 4728      736B0A00 
 4729              		.section	.text.lr1_stack_mac_update,"ax",%progbits
 4730              		.align	1
 4731              		.global	lr1_stack_mac_update
 4732              		.syntax unified
 4733              		.code	16
 4734              		.thumb_func
 4736              	lr1_stack_mac_update:
 4737              		@ args = 0, pretend = 0, frame = 8
 4738              		@ frame_needed = 0, uses_anonymous_args = 0
 4739 0000 F7B5     		push	{r0, r1, r2, r4, r5, r6, r7, lr}
 4740 0002 934B     		ldr	r3, .L469
 4741 0004 934D     		ldr	r5, .L469+4
 4742 0006 C35A     		ldrh	r3, [r0, r3]
 4743 0008 0022     		movs	r2, #0
 4744 000a 5BBA     		rev16	r3, r3
 4745 000c 4353     		strh	r3, [r0, r5]
 4746 000e A223     		movs	r3, #162
 4747 0010 DB00     		lsls	r3, r3, #3
 4748 0012 C254     		strb	r2, [r0, r3]
 4749 0014 904B     		ldr	r3, .L469+8
 4750 0016 0400     		movs	r4, r0
 4751 0018 C35C     		ldrb	r3, [r0, r3]
 4752 001a 012B     		cmp	r3, #1
 4753 001c 1BD1     		bne	.L438
 4754 001e FFF7FEFF 		bl	smtc_modem_hal_get_time_in_s
 4755 0022 9522     		movs	r2, #149
 4756 0024 D200     		lsls	r2, r2, #3
 4757 0026 A358     		ldr	r3, [r4, r2]
 4758 0028 0600     		movs	r6, r0
 4759 002a 0133     		adds	r3, r3, #1
 4760 002c A350     		str	r3, [r4, r2]
 4761 002e E122     		movs	r2, #225
 4762 0030 8A4B     		ldr	r3, .L469+12
 4763 0032 1201     		lsls	r2, r2, #4
 4764 0034 E358     		ldr	r3, [r4, r3]
 4765 0036 9A18     		adds	r2, r3, r2
 4766 0038 8242     		cmp	r2, r0
 4767 003a 00D8     		bhi	.LCB4973
 4768 003c E7E0     		b	.L439	@long jump
 4769              	.LCB4973:
 4770 003e 2000     		movs	r0, r4
 4771 0040 FFF7FEFF 		bl	lr1_stack_toa_get
 4772 0044 0A21     		movs	r1, #10
 4773 0046 FFF7FEFF 		bl	__aeabi_uidiv
 4774              	.L468:
 4775 004a 8619     		adds	r6, r0, r6
 4776              	.L440:
 4777 004c 844B     		ldr	r3, .L469+16
 4778 004e 824A     		ldr	r2, .L469+8
 4779 0050 E650     		str	r6, [r4, r3]
 4780 0052 0023     		movs	r3, #0
 4781 0054 A354     		strb	r3, [r4, r2]
 4782              	.L438:
 4783 0056 9120     		movs	r0, #145
ARM GAS  /tmp/cc2Yojzh.s 			page 90


 4784 0058 0026     		movs	r6, #0
 4785 005a C000     		lsls	r0, r0, #3
 4786 005c 2258     		ldr	r2, [r4, r0]
 4787 005e 615D     		ldrb	r1, [r4, r5]
 4788 0060 D317     		asrs	r3, r2, #31
 4789 0062 8A42     		cmp	r2, r1
 4790 0064 7341     		adcs	r3, r3, r6
 4791 0066 9226     		movs	r6, #146
 4792 0068 F600     		lsls	r6, r6, #3
 4793 006a A355     		strb	r3, [r4, r6]
 4794 006c 2600     		movs	r6, r4
 4795 006e 5236     		adds	r6, r6, #82
 4796 0070 3378     		ldrb	r3, [r6]
 4797 0072 012B     		cmp	r3, #1
 4798 0074 00D9     		bls	.LCB5005
 4799 0076 D8E0     		b	.L442	@long jump
 4800              	.LCB5005:
 4801 0078 636E     		ldr	r3, [r4, #100]
 4802 007a 0132     		adds	r2, r2, #1
 4803 007c 0133     		adds	r3, r3, #1
 4804 007e 6366     		str	r3, [r4, #100]
 4805 0080 0123     		movs	r3, #1
 4806 0082 2250     		str	r2, [r4, r0]
 4807              	.L443:
 4808 0084 9127     		movs	r7, #145
 4809 0086 3370     		strb	r3, [r6]
 4810 0088 764B     		ldr	r3, .L469+20
 4811 008a FF00     		lsls	r7, r7, #3
 4812 008c E35C     		ldrb	r3, [r4, r3]
 4813 008e E259     		ldr	r2, [r4, r7]
 4814 0090 5B18     		adds	r3, r3, r1
 4815 0092 9A42     		cmp	r2, r3
 4816 0094 18DB     		blt	.L445
 4817 0096 A223     		movs	r3, #162
 4818 0098 DB00     		lsls	r3, r3, #3
 4819 009a E35C     		ldrb	r3, [r4, r3]
 4820 009c 2000     		movs	r0, r4
 4821 009e 032B     		cmp	r3, #3
 4822 00a0 0ED1     		bne	.L446
 4823 00a2 FFF7FEFF 		bl	smtc_real_decrement_dr_simulation
 4824 00a6 2300     		movs	r3, r4
 4825 00a8 2200     		movs	r2, r4
 4826 00aa 5B33     		adds	r3, r3, #91
 4827 00ac 7832     		adds	r2, r2, #120
 4828 00ae 0100     		movs	r1, r0
 4829 00b0 1B78     		ldrb	r3, [r3]
 4830 00b2 2000     		movs	r0, r4
 4831 00b4 1278     		ldrb	r2, [r2]
 4832 00b6 FFF7FEFF 		bl	smtc_real_is_payload_size_valid
 4833 00ba 0028     		cmp	r0, #0
 4834 00bc 04D1     		bne	.L445
 4835 00be 2000     		movs	r0, r4
 4836              	.L446:
 4837 00c0 FFF7FEFF 		bl	smtc_real_decrement_dr
 4838 00c4 635D     		ldrb	r3, [r4, r5]
 4839 00c6 E351     		str	r3, [r4, r7]
 4840              	.L445:
ARM GAS  /tmp/cc2Yojzh.s 			page 91


 4841 00c8 9127     		movs	r7, #145
 4842 00ca 674B     		ldr	r3, .L469+24
 4843 00cc FF00     		lsls	r7, r7, #3
 4844 00ce E35A     		ldrh	r3, [r4, r3]
 4845 00d0 E259     		ldr	r2, [r4, r7]
 4846 00d2 9A42     		cmp	r2, r3
 4847 00d4 19DB     		blt	.L448
 4848 00d6 002B     		cmp	r3, #0
 4849 00d8 17D0     		beq	.L448
 4850 00da 644D     		ldr	r5, .L469+28
 4851 00dc 2800     		movs	r0, r5
 4852 00de FFF7FEFF 		bl	smtc_modem_hal_store_crashlog
 4853 00e2 0120     		movs	r0, #1
 4854 00e4 FFF7FEFF 		bl	smtc_modem_hal_set_crashlog_status
 4855 00e8 2900     		movs	r1, r5
 4856 00ea 6148     		ldr	r0, .L469+32
 4857 00ec FFF7FEFF 		bl	smtc_modem_hal_print_trace
 4858 00f0 604D     		ldr	r5, .L469+36
 4859 00f2 2800     		movs	r0, r5
 4860 00f4 FFF7FEFF 		bl	smtc_modem_hal_print_trace
 4861 00f8 5F48     		ldr	r0, .L469+40
 4862 00fa E159     		ldr	r1, [r4, r7]
 4863 00fc FFF7FEFF 		bl	smtc_modem_hal_print_trace
 4864 0100 2800     		movs	r0, r5
 4865 0102 FFF7FEFF 		bl	smtc_modem_hal_print_trace
 4866 0106 FFF7FEFF 		bl	smtc_modem_hal_reset_mcu
 4867              	.L448:
 4868 010a 7A25     		movs	r5, #122
 4869 010c ED22     		movs	r2, #237
 4870 010e FF35     		adds	r5, r5, #255
 4871 0110 5200     		lsls	r2, r2, #1
 4872 0112 635D     		ldrb	r3, [r4, r5]
 4873 0114 A25C     		ldrb	r2, [r4, r2]
 4874 0116 9342     		cmp	r3, r2
 4875 0118 00D2     		bcs	.LCB5085
 4876 011a 8DE0     		b	.L449	@long jump
 4877              	.LCB5085:
 4878 011c 002B     		cmp	r3, #0
 4879 011e 00D1     		bne	.LCB5087
 4880 0120 8AE0     		b	.L449	@long jump
 4881              	.LCB5087:
 4882 0122 2100     		movs	r1, r4
 4883 0124 554A     		ldr	r2, .L469+44
 4884 0126 7B31     		adds	r1, r1, #123
 4885 0128 A354     		strb	r3, [r4, r2]
 4886 012a 1A00     		movs	r2, r3
 4887 012c 544B     		ldr	r3, .L469+48
 4888 012e FF31     		adds	r1, r1, #255
 4889 0130 E018     		adds	r0, r4, r3
 4890 0132 FFF7FEFF 		bl	memcpy1
 4891 0136 A223     		movs	r3, #162
 4892 0138 0122     		movs	r2, #1
 4893 013a DB00     		lsls	r3, r3, #3
 4894 013c E254     		strb	r2, [r4, r3]
 4895 013e 2300     		movs	r3, r4
 4896 0140 5133     		adds	r3, r3, #81
 4897 0142 1B78     		ldrb	r3, [r3]
ARM GAS  /tmp/cc2Yojzh.s 			page 92


 4898 0144 3370     		strb	r3, [r6]
 4899              	.L450:
 4900 0146 0023     		movs	r3, #0
 4901 0148 6355     		strb	r3, [r4, r5]
 4902 014a A223     		movs	r3, #162
 4903 014c 424A     		ldr	r2, .L469+8
 4904 014e DB00     		lsls	r3, r3, #3
 4905 0150 A25C     		ldrb	r2, [r4, r2]
 4906 0152 E35C     		ldrb	r3, [r4, r3]
 4907 0154 022A     		cmp	r2, #2
 4908 0156 1DD1     		bne	.L452
 4909 0158 032B     		cmp	r3, #3
 4910 015a 57D0     		beq	.L437
 4911 015c 2000     		movs	r0, r4
 4912 015e FFF7FEFF 		bl	smtc_real_get_next_dr
 4913 0162 0130     		adds	r0, r0, #1
 4914 0164 16D1     		bne	.L452
 4915 0166 414D     		ldr	r5, .L469+28
 4916 0168 2800     		movs	r0, r5
 4917 016a FFF7FEFF 		bl	smtc_modem_hal_store_crashlog
 4918 016e 0120     		movs	r0, #1
 4919 0170 FFF7FEFF 		bl	smtc_modem_hal_set_crashlog_status
 4920 0174 2900     		movs	r1, r5
 4921 0176 3E48     		ldr	r0, .L469+32
 4922 0178 FFF7FEFF 		bl	smtc_modem_hal_print_trace
 4923 017c 3D4D     		ldr	r5, .L469+36
 4924 017e 2800     		movs	r0, r5
 4925 0180 FFF7FEFF 		bl	smtc_modem_hal_print_trace
 4926 0184 3F48     		ldr	r0, .L469+52
 4927 0186 FFF7FEFF 		bl	smtc_modem_hal_print_trace
 4928 018a 2800     		movs	r0, r5
 4929 018c FFF7FEFF 		bl	smtc_modem_hal_print_trace
 4930 0190 FFF7FEFF 		bl	smtc_modem_hal_reset_mcu
 4931              	.L452:
 4932 0194 A223     		movs	r3, #162
 4933 0196 DB00     		lsls	r3, r3, #3
 4934 0198 E35C     		ldrb	r3, [r4, r3]
 4935 019a 012B     		cmp	r3, #1
 4936 019c 36D1     		bne	.L437
 4937 019e 2700     		movs	r7, r4
 4938 01a0 2600     		movs	r6, r4
 4939 01a2 364D     		ldr	r5, .L469+44
 4940 01a4 5B37     		adds	r7, r7, #91
 4941 01a6 4E36     		adds	r6, r6, #78
 4942 01a8 3B78     		ldrb	r3, [r7]
 4943 01aa 2000     		movs	r0, r4
 4944 01ac 625D     		ldrb	r2, [r4, r5]
 4945 01ae 3178     		ldrb	r1, [r6]
 4946 01b0 FFF7FEFF 		bl	smtc_real_is_payload_size_valid
 4947 01b4 324B     		ldr	r3, .L469+48
 4948 01b6 E318     		adds	r3, r4, r3
 4949 01b8 0093     		str	r3, [sp]
 4950 01ba 0028     		cmp	r0, #0
 4951 01bc 0DD0     		beq	.L457
 4952 01be 635D     		ldrb	r3, [r4, r5]
 4953 01c0 2000     		movs	r0, r4
 4954 01c2 0193     		str	r3, [sp, #4]
ARM GAS  /tmp/cc2Yojzh.s 			page 93


 4955 01c4 3A78     		ldrb	r2, [r7]
 4956 01c6 3178     		ldrb	r1, [r6]
 4957 01c8 FFF7FEFF 		bl	smtc_real_get_max_payload_size
 4958 01cc 0838     		subs	r0, r0, #8
 4959 01ce C2B2     		uxtb	r2, r0
 4960 01d0 0199     		ldr	r1, [sp, #4]
 4961 01d2 0098     		ldr	r0, [sp]
 4962 01d4 FFF7FEFF 		bl	lr1_stack_mac_cmd_ans_cut
 4963 01d8 6055     		strb	r0, [r4, r5]
 4964              	.L457:
 4965 01da 2300     		movs	r3, r4
 4966 01dc 0122     		movs	r2, #1
 4967 01de 2000     		movs	r0, r4
 4968 01e0 7233     		adds	r3, r3, #114
 4969 01e2 1A70     		strb	r2, [r3]
 4970 01e4 625D     		ldrb	r2, [r4, r5]
 4971 01e6 0099     		ldr	r1, [sp]
 4972 01e8 8330     		adds	r0, r0, #131
 4973 01ea FFF7FEFF 		bl	memcpy1
 4974 01ee 2300     		movs	r3, r4
 4975 01f0 625D     		ldrb	r2, [r4, r5]
 4976 01f2 7833     		adds	r3, r3, #120
 4977 01f4 1A70     		strb	r2, [r3]
 4978 01f6 0022     		movs	r2, #0
 4979 01f8 073B     		subs	r3, r3, #7
 4980 01fa 1A70     		strb	r2, [r3]
 4981 01fc 0232     		adds	r2, r2, #2
 4982 01fe 2000     		movs	r0, r4
 4983 0200 9A70     		strb	r2, [r3, #2]
 4984 0202 FFF7FEFF 		bl	lr1_stack_mac_tx_frame_build
 4985 0206 2000     		movs	r0, r4
 4986 0208 FFF7FEFF 		bl	lr1_stack_mac_tx_frame_encrypt
 4987              	.L437:
 4988              		@ sp needed
 4989 020c F7BD     		pop	{r0, r1, r2, r4, r5, r6, r7, pc}
 4990              	.L439:
 4991 020e 1E4A     		ldr	r2, .L469+56
 4992 0210 2000     		movs	r0, r4
 4993 0212 9B18     		adds	r3, r3, r2
 4994 0214 B342     		cmp	r3, r6
 4995 0216 02D9     		bls	.L441
 4996 0218 FFF7FEFF 		bl	lr1_stack_toa_get
 4997 021c 15E7     		b	.L468
 4998              	.L441:
 4999 021e FFF7FEFF 		bl	lr1_stack_toa_get
 5000 0222 0A23     		movs	r3, #10
 5001 0224 4343     		muls	r3, r0
 5002 0226 9E19     		adds	r6, r3, r6
 5003 0228 10E7     		b	.L440
 5004              	.L442:
 5005 022a A222     		movs	r2, #162
 5006 022c 0320     		movs	r0, #3
 5007 022e D200     		lsls	r2, r2, #3
 5008 0230 013B     		subs	r3, r3, #1
 5009 0232 A054     		strb	r0, [r4, r2]
 5010 0234 DBB2     		uxtb	r3, r3
 5011 0236 25E7     		b	.L443
ARM GAS  /tmp/cc2Yojzh.s 			page 94


 5012              	.L449:
 5013 0238 2100     		movs	r1, r4
 5014 023a 2000     		movs	r0, r4
 5015 023c F523     		movs	r3, #245
 5016 023e DC31     		adds	r1, r1, #220
 5017 0240 5B00     		lsls	r3, r3, #1
 5018 0242 EC30     		adds	r0, r0, #236
 5019 0244 E254     		strb	r2, [r4, r3]
 5020 0246 FF31     		adds	r1, r1, #255
 5021 0248 FF30     		adds	r0, r0, #255
 5022 024a FFF7FEFF 		bl	memcpy1
 5023 024e 7AE7     		b	.L450
 5024              	.L470:
 5025              		.align	2
 5026              	.L469:
 5027 0250 8C040000 		.word	1164
 5028 0254 8E040000 		.word	1166
 5029 0258 CE040000 		.word	1230
 5030 025c AC040000 		.word	1196
 5031 0260 A4040000 		.word	1188
 5032 0264 8F040000 		.word	1167
 5033 0268 9C040000 		.word	1180
 5034 026c 00000000 		.word	__func__.2
 5035 0270 00000000 		.word	.LC6
 5036 0274 1D000000 		.word	.LC8
 5037 0278 00000000 		.word	.LC211
 5038 027c 87040000 		.word	1159
 5039 0280 27040000 		.word	1063
 5040 0284 3B000000 		.word	.LC213
 5041 0288 B09A0000 		.word	39600
 5043              		.section	.text.lr1_stack_nb_trans_get,"ax",%progbits
 5044              		.align	1
 5045              		.global	lr1_stack_nb_trans_get
 5046              		.syntax unified
 5047              		.code	16
 5048              		.thumb_func
 5050              	lr1_stack_nb_trans_get:
 5051              		@ args = 0, pretend = 0, frame = 0
 5052              		@ frame_needed = 0, uses_anonymous_args = 0
 5053              		@ link register save eliminated.
 5054 0000 5130     		adds	r0, r0, #81
 5055 0002 0078     		ldrb	r0, [r0]
 5056              		@ sp needed
 5057 0004 7047     		bx	lr
 5059              		.section	.text.lr1_stack_nb_trans_set,"ax",%progbits
 5060              		.align	1
 5061              		.global	lr1_stack_nb_trans_set
 5062              		.syntax unified
 5063              		.code	16
 5064              		.thumb_func
 5066              	lr1_stack_nb_trans_set:
 5067              		@ args = 0, pretend = 0, frame = 0
 5068              		@ frame_needed = 0, uses_anonymous_args = 0
 5069              		@ link register save eliminated.
 5070 0000 064B     		ldr	r3, .L476
 5071 0002 C35C     		ldrb	r3, [r0, r3]
 5072 0004 002B     		cmp	r3, #0
ARM GAS  /tmp/cc2Yojzh.s 			page 95


 5073 0006 06D0     		beq	.L475
 5074 0008 4B1E     		subs	r3, r1, #1
 5075 000a 0E2B     		cmp	r3, #14
 5076 000c 03D8     		bhi	.L475
 5077 000e 5130     		adds	r0, r0, #81
 5078 0010 0170     		strb	r1, [r0]
 5079 0012 0020     		movs	r0, #0
 5080              	.L473:
 5081              		@ sp needed
 5082 0014 7047     		bx	lr
 5083              	.L475:
 5084 0016 0120     		movs	r0, #1
 5085 0018 4042     		rsbs	r0, r0, #0
 5086 001a FBE7     		b	.L473
 5087              	.L477:
 5088              		.align	2
 5089              	.L476:
 5090 001c 92040000 		.word	1170
 5092              		.section	.text.lr1_stack_get_crystal_error,"ax",%progbits
 5093              		.align	1
 5094              		.global	lr1_stack_get_crystal_error
 5095              		.syntax unified
 5096              		.code	16
 5097              		.thumb_func
 5099              	lr1_stack_get_crystal_error:
 5100              		@ args = 0, pretend = 0, frame = 0
 5101              		@ frame_needed = 0, uses_anonymous_args = 0
 5102              		@ link register save eliminated.
 5103 0000 014B     		ldr	r3, .L479
 5104              		@ sp needed
 5105 0002 C058     		ldr	r0, [r0, r3]
 5106 0004 7047     		bx	lr
 5107              	.L480:
 5108 0006 C046     		.align	2
 5109              	.L479:
 5110 0008 1C050000 		.word	1308
 5112              		.section	.text.lr1_stack_set_crystal_error,"ax",%progbits
 5113              		.align	1
 5114              		.global	lr1_stack_set_crystal_error
 5115              		.syntax unified
 5116              		.code	16
 5117              		.thumb_func
 5119              	lr1_stack_set_crystal_error:
 5120              		@ args = 0, pretend = 0, frame = 0
 5121              		@ frame_needed = 0, uses_anonymous_args = 0
 5122              		@ link register save eliminated.
 5123 0000 014B     		ldr	r3, .L482
 5124              		@ sp needed
 5125 0002 C150     		str	r1, [r0, r3]
 5126 0004 7047     		bx	lr
 5127              	.L483:
 5128 0006 C046     		.align	2
 5129              	.L482:
 5130 0008 1C050000 		.word	1308
 5132              		.section	.rodata.lr1mac_rx_payload_max_size_check.str1.1,"aMS",%progbits,1
 5133              	.LC215:
 5134 0000 73697A65 		.ascii	"size (%d)> size_max (%d)\000"
ARM GAS  /tmp/cc2Yojzh.s 			page 96


 5134      20282564 
 5134      293E2073 
 5134      697A655F 
 5134      6D617820 
 5135              		.section	.text.lr1mac_rx_payload_max_size_check,"ax",%progbits
 5136              		.align	1
 5137              		.global	lr1mac_rx_payload_max_size_check
 5138              		.syntax unified
 5139              		.code	16
 5140              		.thumb_func
 5142              	lr1mac_rx_payload_max_size_check:
 5143              		@ args = 0, pretend = 0, frame = 0
 5144              		@ frame_needed = 0, uses_anonymous_args = 0
 5145 0000 0300     		movs	r3, r0
 5146 0002 10B5     		push	{r4, lr}
 5147 0004 5C33     		adds	r3, r3, #92
 5148 0006 0C00     		movs	r4, r1
 5149 0008 1100     		movs	r1, r2
 5150 000a 1A78     		ldrb	r2, [r3]
 5151 000c FFF7FEFF 		bl	smtc_real_get_max_payload_size
 5152 0010 0530     		adds	r0, r0, #5
 5153 0012 C2B2     		uxtb	r2, r0
 5154 0014 0020     		movs	r0, #0
 5155 0016 A242     		cmp	r2, r4
 5156 0018 05D2     		bcs	.L485
 5157 001a 0348     		ldr	r0, .L487
 5158 001c 2100     		movs	r1, r4
 5159 001e FFF7FEFF 		bl	smtc_modem_hal_print_trace
 5160 0022 0120     		movs	r0, #1
 5161 0024 4042     		rsbs	r0, r0, #0
 5162              	.L485:
 5163              		@ sp needed
 5164 0026 10BD     		pop	{r4, pc}
 5165              	.L488:
 5166              		.align	2
 5167              	.L487:
 5168 0028 00000000 		.word	.LC215
 5170              		.section	.rodata.lr1_stack_mac_rx_frame_decode.str1.1,"aMS",%progbits,1
 5171              	.LC217:
 5172 0000 1B5B303B 		.ascii	"\033[0;31mERROR:  Process join accept failed with c"
 5172      33316D45 
 5172      52524F52 
 5172      3A202050 
 5172      726F6365 
 5173 0030 6F646520 		.ascii	"ode = %d\012\000"
 5173      3D202564 
 5173      0A00
 5174              	.LC222:
 5175 003a 1B5B303B 		.ascii	"\033[0;31mERROR: -> Rx Window invalid\012\000"
 5175      33316D45 
 5175      52524F52 
 5175      3A202D3E 
 5175      20527820 
 5176              	.LC224:
 5177 005e 1B5B303B 		.ascii	"\033[0;31mERROR: -> Crypto error during payload dec"
 5177      33316D45 
 5177      52524F52 
ARM GAS  /tmp/cc2Yojzh.s 			page 97


 5177      3A202D3E 
 5177      20437279 
 5178 008e 72797074 		.ascii	"ryption\012\000"
 5178      696F6E0A 
 5178      00
 5179              	.LC226:
 5180 0097 1B5B303B 		.ascii	"\033[0;33mWARN:  Receive too many nwk frames\012\000"
 5180      33336D57 
 5180      41524E3A 
 5180      20205265 
 5180      63656976 
 5181              	.LC228:
 5182 00c2 1B5B303B 		.ascii	"\033[0;33mWARN:  Receive an not valid packet with F"
 5182      33336D57 
 5182      41524E3A 
 5182      20205265 
 5182      63656976 
 5183 00f2 4F707473 		.ascii	"Opts bytes on port zero\012\000"
 5183      20627974 
 5183      6573206F 
 5183      6E20706F 
 5183      7274207A 
 5184              	.LC230:
 5185 010b 2072785F 		.ascii	" rx_packet_type = %d\012\000"
 5185      7061636B 
 5185      65745F74 
 5185      79706520 
 5185      3D202564 
 5186              		.section	.text.lr1_stack_mac_rx_frame_decode,"ax",%progbits
 5187              		.align	1
 5188              		.global	lr1_stack_mac_rx_frame_decode
 5189              		.syntax unified
 5190              		.code	16
 5191              		.thumb_func
 5193              	lr1_stack_mac_rx_frame_decode:
 5194              		@ args = 0, pretend = 0, frame = 24
 5195              		@ frame_needed = 0, uses_anonymous_args = 0
 5196 0000 0023     		movs	r3, #0
 5197 0002 F0B5     		push	{r4, r5, r6, r7, lr}
 5198 0004 BE4E     		ldr	r6, .L524
 5199 0006 8DB0     		sub	sp, sp, #52
 5200 0008 0B93     		str	r3, [sp, #44]
 5201 000a 0400     		movs	r4, r0
 5202 000c 805D     		ldrb	r0, [r0, r6]
 5203 000e FFF7FEFF 		bl	lr1mac_rx_payload_min_size_check
 5204 0012 9723     		movs	r3, #151
 5205 0014 DB00     		lsls	r3, r3, #3
 5206 0016 0500     		movs	r5, r0
 5207 0018 E25C     		ldrb	r2, [r4, r3]
 5208 001a 2000     		movs	r0, r4
 5209 001c A15D     		ldrb	r1, [r4, r6]
 5210 001e FFF7FEFF 		bl	lr1mac_rx_payload_max_size_check
 5211 0022 2D18     		adds	r5, r5, r0
 5212 0024 002D     		cmp	r5, #0
 5213 0026 03D0     		beq	.L490
 5214              	.L492:
 5215 0028 0025     		movs	r5, #0
ARM GAS  /tmp/cc2Yojzh.s 			page 98


 5216              	.L491:
 5217 002a 2800     		movs	r0, r5
 5218 002c 0DB0     		add	sp, sp, #52
 5219              		@ sp needed
 5220 002e F0BD     		pop	{r4, r5, r6, r7, pc}
 5221              	.L490:
 5222 0030 8423     		movs	r3, #132
 5223 0032 1B27     		movs	r7, #27
 5224 0034 9B00     		lsls	r3, r3, #2
 5225 0036 E318     		adds	r3, r4, r3
 5226 0038 0693     		str	r3, [sp, #24]
 5227 003a 02AB     		add	r3, sp, #8
 5228 003c FF18     		adds	r7, r7, r3
 5229 003e 1D23     		movs	r3, #29
 5230 0040 02AA     		add	r2, sp, #8
 5231 0042 9B18     		adds	r3, r3, r2
 5232 0044 3900     		movs	r1, r7
 5233 0046 0698     		ldr	r0, [sp, #24]
 5234 0048 09AA     		add	r2, sp, #36
 5235 004a FFF7FEFF 		bl	lr1mac_rx_mhdr_extract
 5236 004e 051E     		subs	r5, r0, #0
 5237 0050 EAD1     		bne	.L492
 5238 0052 3B78     		ldrb	r3, [r7]
 5239 0054 A15D     		ldrb	r1, [r4, r6]
 5240 0056 012B     		cmp	r3, #1
 5241 0058 33D1     		bne	.L493
 5242 005a 069A     		ldr	r2, [sp, #24]
 5243 005c 1000     		movs	r0, r2
 5244 005e FFF7FEFF 		bl	smtc_modem_crypto_process_join_accept
 5245 0062 011E     		subs	r1, r0, #0
 5246 0064 26D1     		bne	.L494
 5247 0066 A35D     		ldrb	r3, [r4, r6]
 5248 0068 0435     		adds	r5, r5, #4
 5249 006a 043B     		subs	r3, r3, #4
 5250 006c A355     		strb	r3, [r4, r6]
 5251              	.L495:
 5252 006e 1B23     		movs	r3, #27
 5253 0070 02AA     		add	r2, sp, #8
 5254 0072 9B18     		adds	r3, r3, r2
 5255 0074 1A78     		ldrb	r2, [r3]
 5256 0076 FD23     		movs	r3, #253
 5257 0078 5B00     		lsls	r3, r3, #1
 5258 007a E254     		strb	r2, [r4, r3]
 5259 007c 02AB     		add	r3, sp, #8
 5260 007e 1A7F     		ldrb	r2, [r3, #28]
 5261 0080 FC23     		movs	r3, #252
 5262 0082 FF33     		adds	r3, r3, #255
 5263 0084 E254     		strb	r2, [r4, r3]
 5264 0086 1D22     		movs	r2, #29
 5265 0088 2300     		movs	r3, r4
 5266 008a 02A9     		add	r1, sp, #8
 5267 008c 5218     		adds	r2, r2, r1
 5268 008e 1278     		ldrb	r2, [r2]
 5269 0090 7633     		adds	r3, r3, #118
 5270 0092 1A70     		strb	r2, [r3]
 5271 0094 0B9B     		ldr	r3, [sp, #44]
 5272 0096 9122     		movs	r2, #145
ARM GAS  /tmp/cc2Yojzh.s 			page 99


 5273 0098 A366     		str	r3, [r4, #104]
 5274 009a 0023     		movs	r3, #0
 5275 009c D200     		lsls	r2, r2, #3
 5276 009e A350     		str	r3, [r4, r2]
 5277 00a0 1832     		adds	r2, r2, #24
 5278 00a2 A352     		strh	r3, [r4, r2]
 5279 00a4 974A     		ldr	r2, .L524+4
 5280 00a6 A352     		strh	r3, [r4, r2]
 5281 00a8 F522     		movs	r2, #245
 5282 00aa 5200     		lsls	r2, r2, #1
 5283 00ac A354     		strb	r3, [r4, r2]
 5284 00ae 103A     		subs	r2, r2, #16
 5285 00b0 A354     		strb	r3, [r4, r2]
 5286 00b2 D7E0     		b	.L509
 5287              	.L494:
 5288 00b4 9448     		ldr	r0, .L524+8
 5289 00b6 FFF7FEFF 		bl	smtc_modem_hal_print_trace
 5290              	.L523:
 5291 00ba 9448     		ldr	r0, .L524+12
 5292 00bc FFF7FEFF 		bl	smtc_modem_hal_print_trace
 5293 00c0 D5E7     		b	.L495
 5294              	.L493:
 5295 00c2 02AB     		add	r3, sp, #8
 5296 00c4 D883     		strh	r0, [r3, #30]
 5297 00c6 A36E     		ldr	r3, [r4, #104]
 5298 00c8 02AA     		add	r2, sp, #8
 5299 00ca 0B93     		str	r3, [sp, #44]
 5300 00cc 8023     		movs	r3, #128
 5301 00ce 9B00     		lsls	r3, r3, #2
 5302 00d0 E318     		adds	r3, r4, r3
 5303 00d2 0493     		str	r3, [sp, #16]
 5304 00d4 0793     		str	r3, [sp, #28]
 5305 00d6 043B     		subs	r3, r3, #4
 5306 00d8 0393     		str	r3, [sp, #12]
 5307 00da 8D4B     		ldr	r3, .L524+16
 5308 00dc 0698     		ldr	r0, [sp, #24]
 5309 00de E318     		adds	r3, r4, r3
 5310 00e0 0293     		str	r3, [sp, #8]
 5311 00e2 9B23     		movs	r3, #155
 5312 00e4 DB00     		lsls	r3, r3, #3
 5313 00e6 E318     		adds	r3, r4, r3
 5314 00e8 0193     		str	r3, [sp, #4]
 5315 00ea E36E     		ldr	r3, [r4, #108]
 5316 00ec 0093     		str	r3, [sp]
 5317 00ee 1E23     		movs	r3, #30
 5318 00f0 9B18     		adds	r3, r3, r2
 5319 00f2 884A     		ldr	r2, .L524+20
 5320 00f4 A218     		adds	r2, r4, r2
 5321 00f6 FFF7FEFF 		bl	lr1mac_rx_fhdr_extract
 5322 00fa 0028     		cmp	r0, #0
 5323 00fc 00D0     		beq	.LCB5556
 5324 00fe B0E0     		b	.L499	@long jump
 5325              	.LCB5556:
 5326 0100 02AB     		add	r3, sp, #8
 5327 0102 D88B     		ldrh	r0, [r3, #30]
 5328 0104 0BA9     		add	r1, sp, #44
 5329 0106 FFF7FEFF 		bl	lr1mac_fcnt_dwn_accept
ARM GAS  /tmp/cc2Yojzh.s 			page 100


 5330 010a 0028     		cmp	r0, #0
 5331 010c 00D0     		beq	.LCB5563
 5332 010e A8E0     		b	.L499	@long jump
 5333              	.LCB5563:
 5334 0110 8423     		movs	r3, #132
 5335 0112 0125     		movs	r5, #1
 5336 0114 A15D     		ldrb	r1, [r4, r6]
 5337 0116 9B00     		lsls	r3, r3, #2
 5338 0118 0439     		subs	r1, r1, #4
 5339 011a C9B2     		uxtb	r1, r1
 5340 011c A155     		strb	r1, [r4, r6]
 5341 011e C918     		adds	r1, r1, r3
 5342 0120 0422     		movs	r2, #4
 5343 0122 6118     		adds	r1, r4, r1
 5344 0124 0AA8     		add	r0, sp, #40
 5345 0126 FFF7FEFF 		bl	memcpy1
 5346 012a 0A9B     		ldr	r3, [sp, #40]
 5347 012c A15D     		ldrb	r1, [r4, r6]
 5348 012e 0293     		str	r3, [sp, #8]
 5349 0130 0B9B     		ldr	r3, [sp, #44]
 5350 0132 0095     		str	r5, [sp]
 5351 0134 0193     		str	r3, [sp, #4]
 5352 0136 0622     		movs	r2, #6
 5353 0138 E36E     		ldr	r3, [r4, #108]
 5354 013a 0698     		ldr	r0, [sp, #24]
 5355 013c FFF7FEFF 		bl	smtc_modem_crypto_verify_mic
 5356 0140 0028     		cmp	r0, #0
 5357 0142 00D0     		beq	.LCB5589
 5358 0144 8DE0     		b	.L499	@long jump
 5359              	.LCB5589:
 5360 0146 2300     		movs	r3, r4
 5361 0148 5233     		adds	r3, r3, #82
 5362 014a 1D70     		strb	r5, [r3]
 5363 014c FE23     		movs	r3, #254
 5364 014e 5B00     		lsls	r3, r3, #1
 5365 0150 E35C     		ldrb	r3, [r4, r3]
 5366 0152 9A06     		lsls	r2, r3, #26
 5367 0154 07D5     		bpl	.L498
 5368 0156 2200     		movs	r2, r4
 5369 0158 7332     		adds	r2, r2, #115
 5370 015a 1278     		ldrb	r2, [r2]
 5371 015c 042A     		cmp	r2, #4
 5372 015e 02D1     		bne	.L498
 5373 0160 FE22     		movs	r2, #254
 5374 0162 FF32     		adds	r2, r2, #255
 5375 0164 A554     		strb	r5, [r4, r2]
 5376              	.L498:
 5377 0166 0127     		movs	r7, #1
 5378 0168 FF22     		movs	r2, #255
 5379 016a 1B09     		lsrs	r3, r3, #4
 5380 016c 3B40     		ands	r3, r7
 5381 016e 5200     		lsls	r2, r2, #1
 5382 0170 A354     		strb	r3, [r4, r2]
 5383 0172 694A     		ldr	r2, .L524+24
 5384 0174 A354     		strb	r3, [r4, r2]
 5385 0176 694B     		ldr	r3, .L524+28
 5386 0178 E35C     		ldrb	r3, [r4, r3]
ARM GAS  /tmp/cc2Yojzh.s 			page 101


 5387 017a 002B     		cmp	r3, #0
 5388 017c 4BD1     		bne	.L500
 5389 017e 684B     		ldr	r3, .L524+32
 5390 0180 E258     		ldr	r2, [r4, r3]
 5391              	.L522:
 5392 0182 684B     		ldr	r3, .L524+36
 5393 0184 E250     		str	r2, [r4, r3]
 5394              	.L501:
 5395 0186 9723     		movs	r3, #151
 5396 0188 DB00     		lsls	r3, r3, #3
 5397 018a E25C     		ldrb	r2, [r4, r3]
 5398 018c 2833     		adds	r3, r3, #40
 5399 018e E254     		strb	r2, [r4, r3]
 5400 0190 5F4B     		ldr	r3, .L524+16
 5401 0192 604F     		ldr	r7, .L524+20
 5402 0194 E35C     		ldrb	r3, [r4, r3]
 5403 0196 E55D     		ldrb	r5, [r4, r7]
 5404 0198 002B     		cmp	r3, #0
 5405 019a 00D0     		beq	.LCB5642
 5406 019c A0E0     		b	.L503	@long jump
 5407              	.LCB5642:
 5408 019e 9B23     		movs	r3, #155
 5409 01a0 A15D     		ldrb	r1, [r4, r6]
 5410 01a2 DB00     		lsls	r3, r3, #3
 5411 01a4 0939     		subs	r1, r1, #9
 5412 01a6 491B     		subs	r1, r1, r5
 5413 01a8 C9B2     		uxtb	r1, r1
 5414 01aa A155     		strb	r1, [r4, r6]
 5415 01ac E35C     		ldrb	r3, [r4, r3]
 5416 01ae 002B     		cmp	r3, #0
 5417 01b0 5DD1     		bne	.L504
 5418 01b2 002D     		cmp	r5, #0
 5419 01b4 4FD1     		bne	.L505
 5420 01b6 CD23     		movs	r3, #205
 5421 01b8 9B00     		lsls	r3, r3, #2
 5422 01ba E318     		adds	r3, r4, r3
 5423 01bc 0293     		str	r3, [sp, #8]
 5424 01be FF3F     		subs	r7, r7, #255
 5425 01c0 0B9B     		ldr	r3, [sp, #44]
 5426 01c2 5948     		ldr	r0, .L524+40
 5427 01c4 FF3F     		subs	r7, r7, #255
 5428 01c6 0193     		str	r3, [sp, #4]
 5429 01c8 0097     		str	r7, [sp]
 5430 01ca 0622     		movs	r2, #6
 5431 01cc E36E     		ldr	r3, [r4, #108]
 5432 01ce 2018     		adds	r0, r4, r0
 5433 01d0 FFF7FEFF 		bl	smtc_modem_crypto_payload_decrypt
 5434 01d4 0028     		cmp	r0, #0
 5435 01d6 17D0     		beq	.L506
 5436 01d8 544B     		ldr	r3, .L524+44
 5437 01da 1800     		movs	r0, r3
 5438 01dc 0693     		str	r3, [sp, #24]
 5439 01de FFF7FEFF 		bl	smtc_modem_hal_store_crashlog
 5440 01e2 3800     		movs	r0, r7
 5441 01e4 FFF7FEFF 		bl	smtc_modem_hal_set_crashlog_status
 5442 01e8 0699     		ldr	r1, [sp, #24]
 5443 01ea 5148     		ldr	r0, .L524+48
ARM GAS  /tmp/cc2Yojzh.s 			page 102


 5444 01ec FFF7FEFF 		bl	smtc_modem_hal_print_trace
 5445 01f0 464F     		ldr	r7, .L524+12
 5446 01f2 3800     		movs	r0, r7
 5447 01f4 FFF7FEFF 		bl	smtc_modem_hal_print_trace
 5448 01f8 4E48     		ldr	r0, .L524+52
 5449 01fa FFF7FEFF 		bl	smtc_modem_hal_print_trace
 5450 01fe 3800     		movs	r0, r7
 5451 0200 FFF7FEFF 		bl	smtc_modem_hal_print_trace
 5452 0204 FFF7FEFF 		bl	smtc_modem_hal_reset_mcu
 5453              	.L506:
 5454 0208 A35D     		ldrb	r3, [r4, r6]
 5455 020a F22B     		cmp	r3, #242
 5456 020c 1FD9     		bls	.L507
 5457 020e 4A48     		ldr	r0, .L524+56
 5458 0210 FFF7FEFF 		bl	smtc_modem_hal_print_trace
 5459 0214 51E7     		b	.L523
 5460              	.L500:
 5461 0216 012B     		cmp	r3, #1
 5462 0218 01D1     		bne	.L502
 5463 021a 626D     		ldr	r2, [r4, #84]
 5464 021c B1E7     		b	.L522
 5465              	.L502:
 5466 021e 434D     		ldr	r5, .L524+44
 5467 0220 2800     		movs	r0, r5
 5468 0222 FFF7FEFF 		bl	smtc_modem_hal_store_crashlog
 5469 0226 3800     		movs	r0, r7
 5470 0228 FFF7FEFF 		bl	smtc_modem_hal_set_crashlog_status
 5471 022c 2900     		movs	r1, r5
 5472 022e 4048     		ldr	r0, .L524+48
 5473 0230 FFF7FEFF 		bl	smtc_modem_hal_print_trace
 5474 0234 354D     		ldr	r5, .L524+12
 5475 0236 2800     		movs	r0, r5
 5476 0238 FFF7FEFF 		bl	smtc_modem_hal_print_trace
 5477 023c 3F48     		ldr	r0, .L524+60
 5478 023e FFF7FEFF 		bl	smtc_modem_hal_print_trace
 5479 0242 2800     		movs	r0, r5
 5480 0244 FFF7FEFF 		bl	smtc_modem_hal_print_trace
 5481 0248 FFF7FEFF 		bl	smtc_modem_hal_reset_mcu
 5482 024c 9BE7     		b	.L501
 5483              	.L507:
 5484 024e 3C4A     		ldr	r2, .L524+64
 5485 0250 0325     		movs	r5, #3
 5486 0252 A354     		strb	r3, [r4, r2]
 5487 0254 0BE7     		b	.L495
 5488              	.L505:
 5489 0256 3B48     		ldr	r0, .L524+68
 5490 0258 FFF7FEFF 		bl	smtc_modem_hal_print_trace
 5491 025c 2B48     		ldr	r0, .L524+12
 5492 025e FFF7FEFF 		bl	smtc_modem_hal_print_trace
 5493              	.L499:
 5494 0262 0025     		movs	r5, #0
 5495              	.L509:
 5496 0264 2900     		movs	r1, r5
 5497 0266 3848     		ldr	r0, .L524+72
 5498 0268 FFF7FEFF 		bl	smtc_modem_hal_print_trace
 5499 026c DDE6     		b	.L491
 5500              	.L504:
ARM GAS  /tmp/cc2Yojzh.s 			page 103


 5501 026e 0126     		movs	r6, #1
 5502 0270 2D4B     		ldr	r3, .L524+40
 5503 0272 0096     		str	r6, [sp]
 5504 0274 ED18     		adds	r5, r5, r3
 5505 0276 069B     		ldr	r3, [sp, #24]
 5506 0278 0722     		movs	r2, #7
 5507 027a 0293     		str	r3, [sp, #8]
 5508 027c 0B9B     		ldr	r3, [sp, #44]
 5509 027e 6019     		adds	r0, r4, r5
 5510 0280 0193     		str	r3, [sp, #4]
 5511 0282 E36E     		ldr	r3, [r4, #108]
 5512 0284 FFF7FEFF 		bl	smtc_modem_crypto_payload_decrypt
 5513 0288 0028     		cmp	r0, #0
 5514 028a 16D0     		beq	.L510
 5515 028c 274D     		ldr	r5, .L524+44
 5516 028e 2800     		movs	r0, r5
 5517 0290 FFF7FEFF 		bl	smtc_modem_hal_store_crashlog
 5518 0294 3000     		movs	r0, r6
 5519 0296 FFF7FEFF 		bl	smtc_modem_hal_set_crashlog_status
 5520 029a 2900     		movs	r1, r5
 5521 029c 2448     		ldr	r0, .L524+48
 5522 029e FFF7FEFF 		bl	smtc_modem_hal_print_trace
 5523 02a2 1A4D     		ldr	r5, .L524+12
 5524 02a4 2800     		movs	r0, r5
 5525 02a6 FFF7FEFF 		bl	smtc_modem_hal_print_trace
 5526 02aa 2248     		ldr	r0, .L524+52
 5527 02ac FFF7FEFF 		bl	smtc_modem_hal_print_trace
 5528 02b0 2800     		movs	r0, r5
 5529 02b2 FFF7FEFF 		bl	smtc_modem_hal_print_trace
 5530 02b6 FFF7FEFF 		bl	smtc_modem_hal_reset_mcu
 5531              	.L510:
 5532 02ba E25D     		ldrb	r2, [r4, r7]
 5533 02bc 0125     		movs	r5, #1
 5534 02be 002A     		cmp	r2, #0
 5535 02c0 09D0     		beq	.L511
 5536 02c2 CD23     		movs	r3, #205
 5537 02c4 9B00     		lsls	r3, r3, #2
 5538 02c6 E018     		adds	r0, r4, r3
 5539 02c8 0799     		ldr	r1, [sp, #28]
 5540 02ca FFF7FEFF 		bl	memcpy1
 5541 02ce E25D     		ldrb	r2, [r4, r7]
 5542 02d0 1B4B     		ldr	r3, .L524+64
 5543 02d2 6D19     		adds	r5, r5, r5
 5544 02d4 E254     		strb	r2, [r4, r3]
 5545              	.L511:
 5546 02d6 C423     		movs	r3, #196
 5547 02d8 0122     		movs	r2, #1
 5548 02da 9B00     		lsls	r3, r3, #2
 5549 02dc E254     		strb	r2, [r4, r3]
 5550 02de C6E6     		b	.L495
 5551              	.L503:
 5552 02e0 002D     		cmp	r5, #0
 5553 02e2 0BD0     		beq	.L513
 5554 02e4 CD23     		movs	r3, #205
 5555 02e6 9B00     		lsls	r3, r3, #2
 5556 02e8 2A00     		movs	r2, r5
 5557 02ea E018     		adds	r0, r4, r3
ARM GAS  /tmp/cc2Yojzh.s 			page 104


 5558 02ec 0799     		ldr	r1, [sp, #28]
 5559 02ee FFF7FEFF 		bl	memcpy1
 5560 02f2 E25D     		ldrb	r2, [r4, r7]
 5561 02f4 124B     		ldr	r3, .L524+64
 5562 02f6 0225     		movs	r5, #2
 5563 02f8 E254     		strb	r2, [r4, r3]
 5564 02fa B8E6     		b	.L495
 5565              	.L513:
 5566 02fc 0125     		movs	r5, #1
 5567 02fe B6E6     		b	.L495
 5568              	.L525:
 5569              		.align	2
 5570              	.L524:
 5571 0300 0F020000 		.word	527
 5572 0304 9E040000 		.word	1182
 5573 0308 00000000 		.word	.LC217
 5574 030c 1D000000 		.word	.LC8
 5575 0310 0F030000 		.word	783
 5576 0314 FF010000 		.word	511
 5577 0318 DA040000 		.word	1242
 5578 031c BA040000 		.word	1210
 5579 0320 B4040000 		.word	1204
 5580 0324 DC040000 		.word	1244
 5581 0328 19020000 		.word	537
 5582 032c 00000000 		.word	__func__.3
 5583 0330 00000000 		.word	.LC6
 5584 0334 5E000000 		.word	.LC224
 5585 0338 97000000 		.word	.LC226
 5586 033c 3A000000 		.word	.LC222
 5587 0340 26040000 		.word	1062
 5588 0344 C2000000 		.word	.LC228
 5589 0348 0B010000 		.word	.LC230
 5591              		.section	.rodata.__func__.0,"a"
 5594              	__func__.0:
 5595 0000 6C72315F 		.ascii	"lr1_stack_toa_get\000"
 5595      73746163 
 5595      6B5F746F 
 5595      615F6765 
 5595      7400
 5596              		.section	.rodata.__func__.1,"a"
 5599              	__func__.1:
 5600 0000 6C72315F 		.ascii	"lr1_stack_mac_join_request_build\000"
 5600      73746163 
 5600      6B5F6D61 
 5600      635F6A6F 
 5600      696E5F72 
 5601              		.section	.rodata.__func__.2,"a"
 5604              	__func__.2:
 5605 0000 6C72315F 		.ascii	"lr1_stack_mac_update\000"
 5605      73746163 
 5605      6B5F6D61 
 5605      635F7570 
 5605      64617465 
 5606              		.section	.rodata.__func__.3,"a"
 5609              	__func__.3:
 5610 0000 6C72315F 		.ascii	"lr1_stack_mac_rx_frame_decode\000"
 5610      73746163 
ARM GAS  /tmp/cc2Yojzh.s 			page 105


 5610      6B5F6D61 
 5610      635F7278 
 5610      5F667261 
 5611              		.section	.rodata.__func__.4,"a"
 5614              	__func__.4:
 5615 0000 6C72315F 		.ascii	"lr1_stack_mac_rx_timer_configure\000"
 5615      73746163 
 5615      6B5F6D61 
 5615      635F7278 
 5615      5F74696D 
 5616              		.section	.rodata.__func__.5,"a"
 5619              	__func__.5:
 5620 0000 6C72315F 		.ascii	"lr1_stack_mac_rp_callback\000"
 5620      73746163 
 5620      6B5F6D61 
 5620      635F7270 
 5620      5F63616C 
 5621              		.section	.rodata.__func__.6,"a"
 5624              	__func__.6:
 5625 0000 6C72315F 		.ascii	"lr1_stack_mac_rx_radio_start\000"
 5625      73746163 
 5625      6B5F6D61 
 5625      635F7278 
 5625      5F726164 
 5626              		.section	.rodata.__func__.7,"a"
 5629              	__func__.7:
 5630 0000 6C72315F 		.ascii	"lr1_stack_mac_tx_radio_start\000"
 5630      73746163 
 5630      6B5F6D61 
 5630      635F7478 
 5630      5F726164 
 5631              		.section	.rodata.__func__.8,"a"
 5634              	__func__.8:
 5635 0000 6C72315F 		.ascii	"lr1_stack_mac_rx_gfsk_launch_callback_for_rp\000"
 5635      73746163 
 5635      6B5F6D61 
 5635      635F7278 
 5635      5F676673 
 5636              		.section	.rodata.__func__.9,"a"
 5639              	__func__.9:
 5640 0000 6C72315F 		.ascii	"lr1_stack_mac_rx_lora_launch_callback_for_rp\000"
 5640      73746163 
 5640      6B5F6D61 
 5640      635F7278 
 5640      5F6C6F72 
 5641              		.section	.rodata.__func__.10,"a"
 5644              	__func__.10:
 5645 0000 6C72315F 		.ascii	"lr1_stack_mac_tx_lr_fhss_launch_callback_for_rp\000"
 5645      73746163 
 5645      6B5F6D61 
 5645      635F7478 
 5645      5F6C725F 
 5646              		.section	.rodata.__func__.11,"a"
 5649              	__func__.11:
 5650 0000 6C72315F 		.ascii	"lr1_stack_mac_tx_gfsk_launch_callback_for_rp\000"
 5650      73746163 
 5650      6B5F6D61 
ARM GAS  /tmp/cc2Yojzh.s 			page 106


 5650      635F7478 
 5650      5F676673 
 5651              		.section	.rodata.__func__.12,"a"
 5654              	__func__.12:
 5655 0000 6C72315F 		.ascii	"lr1_stack_mac_tx_lora_launch_callback_for_rp\000"
 5655      73746163 
 5655      6B5F6D61 
 5655      635F7478 
 5655      5F6C6F72 
 5656              		.section	.rodata.__func__.13,"a"
 5659              	__func__.13:
 5660 0000 6C72315F 		.ascii	"lr1_stack_mac_tx_frame_encrypt\000"
 5660      73746163 
 5660      6B5F6D61 
 5660      635F7478 
 5660      5F667261 
 5661              		.section	.rodata.str1.1,"aMS",%progbits,1
 5662              	.LC232:
 5663 0000 42573030 		.ascii	"BW007\000"
 5663      3700
 5664              	.LC233:
 5665 0006 42573031 		.ascii	"BW010\000"
 5665      3000
 5666              	.LC234:
 5667 000c 42573031 		.ascii	"BW015\000"
 5667      3500
 5668              	.LC235:
 5669 0012 42573032 		.ascii	"BW020\000"
 5669      3000
 5670              	.LC236:
 5671 0018 42573033 		.ascii	"BW031\000"
 5671      3100
 5672              	.LC237:
 5673 001e 42573034 		.ascii	"BW041\000"
 5673      3100
 5674              	.LC238:
 5675 0024 42573036 		.ascii	"BW062\000"
 5675      3200
 5676              	.LC239:
 5677 002a 42573132 		.ascii	"BW125\000"
 5677      3500
 5678              	.LC240:
 5679 0030 42573230 		.ascii	"BW200\000"
 5679      3000
 5680              	.LC241:
 5681 0036 42573235 		.ascii	"BW250\000"
 5681      3000
 5682              	.LC242:
 5683 003c 42573430 		.ascii	"BW400\000"
 5683      3000
 5684              	.LC243:
 5685 0042 42573530 		.ascii	"BW500\000"
 5685      3000
 5686              	.LC244:
 5687 0048 42573830 		.ascii	"BW800\000"
 5687      3000
 5688              	.LC245:
ARM GAS  /tmp/cc2Yojzh.s 			page 107


 5689 004e 42573136 		.ascii	"BW1600\000"
 5689      303000
 5690              		.section	.rodata.smtc_name_bw,"a"
 5691              		.align	2
 5694              	smtc_name_bw:
 5695 0000 00000000 		.word	.LC232
 5696 0004 06000000 		.word	.LC233
 5697 0008 0C000000 		.word	.LC234
 5698 000c 12000000 		.word	.LC235
 5699 0010 18000000 		.word	.LC236
 5700 0014 1E000000 		.word	.LC237
 5701 0018 24000000 		.word	.LC238
 5702 001c 2A000000 		.word	.LC239
 5703 0020 30000000 		.word	.LC240
 5704 0024 36000000 		.word	.LC241
 5705 0028 3C000000 		.word	.LC242
 5706 002c 42000000 		.word	.LC243
 5707 0030 48000000 		.word	.LC244
 5708 0034 4E000000 		.word	.LC245
 5709              		.section	.rodata.str1.1
 5710              	.LC246:
 5711 0055 52583100 		.ascii	"RX1\000"
 5712              	.LC247:
 5713 0059 52583200 		.ascii	"RX2\000"
 5714              		.section	.rodata.smtc_name_rx_windows,"a"
 5715              		.align	2
 5718              	smtc_name_rx_windows:
 5719 0000 55000000 		.word	.LC246
 5720 0004 59000000 		.word	.LC247
 5721              		.section	.rodata.smtc_real_max_eirp_dbm_from_idx,"a"
 5722              		.align	2
 5725              	smtc_real_max_eirp_dbm_from_idx:
 5726 0000 080A0C0D 		.ascii	"\010\012\014\015\016\020\022\024\025\030\032\033\035"
 5726      0E101214 
 5726      15181A1B 
 5726      1D
 5727 000d 1E2124   		.ascii	"\036!$"
 5728              		.ident	"GCC: (Arch Repository) 13.2.0"
ARM GAS  /tmp/cc2Yojzh.s 			page 108


DEFINED SYMBOLS
                            *ABS*:00000000 lr1_stack_mac_layer.c
     /tmp/cc2Yojzh.s:14     .text.ral_compute_lora_ldro:00000000 $t
     /tmp/cc2Yojzh.s:19     .text.ral_compute_lora_ldro:00000000 ral_compute_lora_ldro
     /tmp/cc2Yojzh.s:29     .text.ral_compute_lora_ldro:0000000e $d
     /tmp/cc2Yojzh.s:81     .text.ral_set_dio_irq_params:00000000 $t
     /tmp/cc2Yojzh.s:86     .text.ral_set_dio_irq_params:00000000 ral_set_dio_irq_params
     /tmp/cc2Yojzh.s:97     .text.lr1_stack_mac_tx_lora_launch_callback_for_rp:00000000 $t
     /tmp/cc2Yojzh.s:103    .text.lr1_stack_mac_tx_lora_launch_callback_for_rp:00000000 lr1_stack_mac_tx_lora_launch_callback_for_rp
     /tmp/cc2Yojzh.s:193    .text.lr1_stack_mac_tx_lora_launch_callback_for_rp:000000ac $d
     /tmp/cc2Yojzh.s:5654   .rodata.__func__.12:00000000 __func__.12
     /tmp/cc2Yojzh.s:198    .text.lr1_stack_mac_rx_lora_launch_callback_for_rp:00000000 $t
     /tmp/cc2Yojzh.s:204    .text.lr1_stack_mac_rx_lora_launch_callback_for_rp:00000000 lr1_stack_mac_rx_lora_launch_callback_for_rp
     /tmp/cc2Yojzh.s:278    .text.lr1_stack_mac_rx_lora_launch_callback_for_rp:0000008c $d
     /tmp/cc2Yojzh.s:5639   .rodata.__func__.9:00000000 __func__.9
     /tmp/cc2Yojzh.s:283    .text.lr1_stack_mac_rx_gfsk_launch_callback_for_rp:00000000 $t
     /tmp/cc2Yojzh.s:289    .text.lr1_stack_mac_rx_gfsk_launch_callback_for_rp:00000000 lr1_stack_mac_rx_gfsk_launch_callback_for_rp
     /tmp/cc2Yojzh.s:363    .text.lr1_stack_mac_rx_gfsk_launch_callback_for_rp:0000008c $d
     /tmp/cc2Yojzh.s:5634   .rodata.__func__.8:00000000 __func__.8
     /tmp/cc2Yojzh.s:368    .text.lr1_stack_mac_tx_lr_fhss_launch_callback_for_rp:00000000 $t
     /tmp/cc2Yojzh.s:374    .text.lr1_stack_mac_tx_lr_fhss_launch_callback_for_rp:00000000 lr1_stack_mac_tx_lr_fhss_launch_callback_for_rp
     /tmp/cc2Yojzh.s:503    .text.lr1_stack_mac_tx_lr_fhss_launch_callback_for_rp:000000fc $d
     /tmp/cc2Yojzh.s:5644   .rodata.__func__.10:00000000 __func__.10
     /tmp/cc2Yojzh.s:509    .text.lr1_stack_mac_tx_gfsk_launch_callback_for_rp:00000000 $t
     /tmp/cc2Yojzh.s:515    .text.lr1_stack_mac_tx_gfsk_launch_callback_for_rp:00000000 lr1_stack_mac_tx_gfsk_launch_callback_for_rp
     /tmp/cc2Yojzh.s:609    .text.lr1_stack_mac_tx_gfsk_launch_callback_for_rp:000000b4 $d
     /tmp/cc2Yojzh.s:5649   .rodata.__func__.11:00000000 __func__.11
     /tmp/cc2Yojzh.s:614    .text.lr1_stack_mac_session_init:00000000 $t
     /tmp/cc2Yojzh.s:620    .text.lr1_stack_mac_session_init:00000000 lr1_stack_mac_session_init
     /tmp/cc2Yojzh.s:676    .text.lr1_stack_mac_session_init:00000064 $d
     /tmp/cc2Yojzh.s:685    .text.lr1_stack_mac_init:00000000 $t
     /tmp/cc2Yojzh.s:691    .text.lr1_stack_mac_init:00000000 lr1_stack_mac_init
     /tmp/cc2Yojzh.s:770    .text.lr1_stack_mac_init:00000098 $d
     /tmp/cc2Yojzh.s:785    .text.lr1_stack_mac_tx_frame_build:00000000 $t
     /tmp/cc2Yojzh.s:791    .text.lr1_stack_mac_tx_frame_build:00000000 lr1_stack_mac_tx_frame_build
     /tmp/cc2Yojzh.s:908    .text.lr1_stack_mac_tx_frame_build:000000d4 $d
     /tmp/cc2Yojzh.s:922    .text.lr1_stack_mac_tx_frame_encrypt:00000000 $t
     /tmp/cc2Yojzh.s:928    .text.lr1_stack_mac_tx_frame_encrypt:00000000 lr1_stack_mac_tx_frame_encrypt
     /tmp/cc2Yojzh.s:1022   .text.lr1_stack_mac_tx_frame_encrypt:000000c8 $d
     /tmp/cc2Yojzh.s:5659   .rodata.__func__.13:00000000 __func__.13
     /tmp/cc2Yojzh.s:1029   .text.lr1_stack_mac_radio_busy_lbt:00000000 $t
     /tmp/cc2Yojzh.s:1035   .text.lr1_stack_mac_radio_busy_lbt:00000000 lr1_stack_mac_radio_busy_lbt
     /tmp/cc2Yojzh.s:1058   .text.lr1_stack_mac_radio_busy_lbt:00000024 $d
     /tmp/cc2Yojzh.s:1064   .text.lr1_stack_mac_radio_abort_lbt:00000000 $t
     /tmp/cc2Yojzh.s:1070   .text.lr1_stack_mac_radio_abort_lbt:00000000 lr1_stack_mac_radio_abort_lbt
     /tmp/cc2Yojzh.s:1082   .text.lr1_stack_mac_radio_abort_lbt:00000008 $d
     /tmp/cc2Yojzh.s:1093   .text.lr1_stack_mac_tx_radio_start:00000000 $t
     /tmp/cc2Yojzh.s:1099   .text.lr1_stack_mac_tx_radio_start:00000000 lr1_stack_mac_tx_radio_start
     /tmp/cc2Yojzh.s:1497   .text.lr1_stack_mac_tx_radio_start:0000034c $d
     /tmp/cc2Yojzh.s:5629   .rodata.__func__.7:00000000 __func__.7
     /tmp/cc2Yojzh.s:1515   .text.lr1_stack_mac_tx_radio_free_lbt:00000000 $t
     /tmp/cc2Yojzh.s:1521   .text.lr1_stack_mac_tx_radio_free_lbt:00000000 lr1_stack_mac_tx_radio_free_lbt
     /tmp/cc2Yojzh.s:1548   .text.lr1_stack_mac_tx_radio_free_lbt:0000002c $d
     /tmp/cc2Yojzh.s:1566   .text.lr1_stack_mac_rx_radio_start:00000000 $t
     /tmp/cc2Yojzh.s:1572   .text.lr1_stack_mac_rx_radio_start:00000000 lr1_stack_mac_rx_radio_start
     /tmp/cc2Yojzh.s:1896   .text.lr1_stack_mac_rx_radio_start:000002ac $d
     /tmp/cc2Yojzh.s:5624   .rodata.__func__.6:00000000 __func__.6
ARM GAS  /tmp/cc2Yojzh.s 			page 109


     /tmp/cc2Yojzh.s:5718   .rodata.smtc_name_rx_windows:00000000 smtc_name_rx_windows
     /tmp/cc2Yojzh.s:5694   .rodata.smtc_name_bw:00000000 smtc_name_bw
     /tmp/cc2Yojzh.s:1943   .text.lr1_stack_mac_rp_callback:00000000 $t
     /tmp/cc2Yojzh.s:1949   .text.lr1_stack_mac_rp_callback:00000000 lr1_stack_mac_rp_callback
     /tmp/cc2Yojzh.s:1977   .text.lr1_stack_mac_rp_callback:00000034 $d
     /tmp/cc2Yojzh.s:2213   .text.lr1_stack_mac_rp_callback:000001ec $d
     /tmp/cc2Yojzh.s:5619   .rodata.__func__.5:00000000 __func__.5
     /tmp/cc2Yojzh.s:2240   .text.lr1_stack_mac_rx_timer_configure:00000000 $t
     /tmp/cc2Yojzh.s:2246   .text.lr1_stack_mac_rx_timer_configure:00000000 lr1_stack_mac_rx_timer_configure
     /tmp/cc2Yojzh.s:2408   .text.lr1_stack_mac_rx_timer_configure:00000158 $d
     /tmp/cc2Yojzh.s:5614   .rodata.__func__.4:00000000 __func__.4
     /tmp/cc2Yojzh.s:2420   .text.lr1_stack_mac_update_tx_done:00000000 $t
     /tmp/cc2Yojzh.s:2426   .text.lr1_stack_mac_update_tx_done:00000000 lr1_stack_mac_update_tx_done
     /tmp/cc2Yojzh.s:2480   .text.lr1_stack_mac_update_tx_done:00000054 $d
     /tmp/cc2Yojzh.s:2592   .text.lr1_stack_mac_cmd_parse:00000000 $t
     /tmp/cc2Yojzh.s:2598   .text.lr1_stack_mac_cmd_parse:00000000 lr1_stack_mac_cmd_parse
     /tmp/cc2Yojzh.s:2652   .text.lr1_stack_mac_cmd_parse:0000005e $d
     /tmp/cc2Yojzh.s:2670   .text.lr1_stack_mac_cmd_parse:00000082 $t
     /tmp/cc2Yojzh.s:2992   .text.lr1_stack_mac_cmd_parse:000002fc $d
     /tmp/cc2Yojzh.s:3016   .text.lr1_stack_mac_cmd_parse:00000358 $t
     /tmp/cc2Yojzh.s:3459   .text.lr1_stack_mac_cmd_parse:000006d8 $d
     /tmp/cc2Yojzh.s:3485   .text.lr1_stack_mac_cmd_parse:0000073c $t
     /tmp/cc2Yojzh.s:3951   .text.lr1_stack_mac_cmd_parse:00000ae4 $d
     /tmp/cc2Yojzh.s:5725   .rodata.smtc_real_max_eirp_dbm_from_idx:00000000 smtc_real_max_eirp_dbm_from_idx
     /tmp/cc2Yojzh.s:3985   .text.lr1_stack_mac_cmd_parse:00000b68 $t
     /tmp/cc2Yojzh.s:4080   .text.lr1_stack_mac_cmd_parse:00000c28 $d
     /tmp/cc2Yojzh.s:4107   .text.lr1_stack_mac_join_request_build:00000000 $t
     /tmp/cc2Yojzh.s:4113   .text.lr1_stack_mac_join_request_build:00000000 lr1_stack_mac_join_request_build
     /tmp/cc2Yojzh.s:4254   .text.lr1_stack_mac_join_request_build:00000128 $d
     /tmp/cc2Yojzh.s:5599   .rodata.__func__.1:00000000 __func__.1
     /tmp/cc2Yojzh.s:4287   .text.lr1_stack_mac_join_accept:00000000 $t
     /tmp/cc2Yojzh.s:4293   .text.lr1_stack_mac_join_accept:00000000 lr1_stack_mac_join_accept
     /tmp/cc2Yojzh.s:4462   .text.lr1_stack_mac_join_accept:00000154 $d
     /tmp/cc2Yojzh.s:4482   .text.lr1_stack_network_next_free_duty_cycle_ms_get:00000000 $t
     /tmp/cc2Yojzh.s:4488   .text.lr1_stack_network_next_free_duty_cycle_ms_get:00000000 lr1_stack_network_next_free_duty_cycle_ms_get
     /tmp/cc2Yojzh.s:4521   .text.lr1_stack_toa_get:00000000 $t
     /tmp/cc2Yojzh.s:4527   .text.lr1_stack_toa_get:00000000 lr1_stack_toa_get
     /tmp/cc2Yojzh.s:4711   .text.lr1_stack_toa_get:00000180 $d
     /tmp/cc2Yojzh.s:5594   .rodata.__func__.0:00000000 __func__.0
     /tmp/cc2Yojzh.s:4730   .text.lr1_stack_mac_update:00000000 $t
     /tmp/cc2Yojzh.s:4736   .text.lr1_stack_mac_update:00000000 lr1_stack_mac_update
     /tmp/cc2Yojzh.s:5027   .text.lr1_stack_mac_update:00000250 $d
     /tmp/cc2Yojzh.s:5604   .rodata.__func__.2:00000000 __func__.2
     /tmp/cc2Yojzh.s:5044   .text.lr1_stack_nb_trans_get:00000000 $t
     /tmp/cc2Yojzh.s:5050   .text.lr1_stack_nb_trans_get:00000000 lr1_stack_nb_trans_get
     /tmp/cc2Yojzh.s:5060   .text.lr1_stack_nb_trans_set:00000000 $t
     /tmp/cc2Yojzh.s:5066   .text.lr1_stack_nb_trans_set:00000000 lr1_stack_nb_trans_set
     /tmp/cc2Yojzh.s:5090   .text.lr1_stack_nb_trans_set:0000001c $d
     /tmp/cc2Yojzh.s:5093   .text.lr1_stack_get_crystal_error:00000000 $t
     /tmp/cc2Yojzh.s:5099   .text.lr1_stack_get_crystal_error:00000000 lr1_stack_get_crystal_error
     /tmp/cc2Yojzh.s:5110   .text.lr1_stack_get_crystal_error:00000008 $d
     /tmp/cc2Yojzh.s:5113   .text.lr1_stack_set_crystal_error:00000000 $t
     /tmp/cc2Yojzh.s:5119   .text.lr1_stack_set_crystal_error:00000000 lr1_stack_set_crystal_error
     /tmp/cc2Yojzh.s:5130   .text.lr1_stack_set_crystal_error:00000008 $d
     /tmp/cc2Yojzh.s:5136   .text.lr1mac_rx_payload_max_size_check:00000000 $t
     /tmp/cc2Yojzh.s:5142   .text.lr1mac_rx_payload_max_size_check:00000000 lr1mac_rx_payload_max_size_check
     /tmp/cc2Yojzh.s:5168   .text.lr1mac_rx_payload_max_size_check:00000028 $d
ARM GAS  /tmp/cc2Yojzh.s 			page 110


     /tmp/cc2Yojzh.s:5187   .text.lr1_stack_mac_rx_frame_decode:00000000 $t
     /tmp/cc2Yojzh.s:5193   .text.lr1_stack_mac_rx_frame_decode:00000000 lr1_stack_mac_rx_frame_decode
     /tmp/cc2Yojzh.s:5571   .text.lr1_stack_mac_rx_frame_decode:00000300 $d
     /tmp/cc2Yojzh.s:5609   .rodata.__func__.3:00000000 __func__.3
     /tmp/cc2Yojzh.s:5691   .rodata.smtc_name_bw:00000000 $d
     /tmp/cc2Yojzh.s:5715   .rodata.smtc_name_rx_windows:00000000 $d
     /tmp/cc2Yojzh.s:5722   .rodata.smtc_real_max_eirp_dbm_from_idx:00000000 $d
     /tmp/cc2Yojzh.s:42     .text.ral_compute_lora_ldro:0000001b $d
     /tmp/cc2Yojzh.s:42     .text.ral_compute_lora_ldro:0000001c $t
     /tmp/cc2Yojzh.s:1988   .text.lr1_stack_mac_rp_callback:0000003f $d
     /tmp/cc2Yojzh.s:1988   .text.lr1_stack_mac_rp_callback:00000040 $t

UNDEFINED SYMBOLS
__gnu_thumb1_case_uqi
smtc_modem_hal_assert_fail
smtc_modem_hal_get_time_in_ms
smtc_modem_hal_start_radio_tcxo
memset
smtc_modem_crypto_payload_encrypt
smtc_modem_hal_store_crashlog
smtc_modem_hal_set_crashlog_status
smtc_modem_hal_print_trace
smtc_modem_hal_reset_mcu
smtc_modem_crypto_compute_and_add_mic
smtc_real_get_next_channel
smtc_real_get_modulation_type_from_datarate
smtc_real_lora_dr_to_sf_bw
smtc_real_get_sync_word
smtc_real_clamp_output_power_eirp_vs_freq_and_dr
smtc_real_get_coding_rate
smtc_real_get_preamble_len
rp_hook_get_id
smtc_modem_hal_get_radio_tcxo_startup_delay_ms
rp_task_enqueue
smtc_real_fsk_dr_to_bitrate
smtc_real_get_gfsk_sync_word
smtc_real_lr_fhss_dr_to_cr_bw
smtc_modem_hal_get_random_nb_in_range
smtc_real_lr_fhss_get_grid
smtc_real_lr_fhss_get_header_count
smtc_real_get_lr_fhss_sync_word
rp_get_status
smtc_modem_hal_get_board_delay_ms
smtc_real_set_rx_config
smtc_real_get_rx_window_parameters
smtc_real_get_rx_start_time_offset_ms
__gnu_thumb1_case_uhi
smtc_real_build_channel_mask
smtc_real_is_channel_mask_for_mobile_mode
smtc_real_set_channel_mask
smtc_real_is_tx_dr_acceptable
smtc_real_is_tx_power_valid
smtc_real_set_power
smtc_real_is_rx1_dr_offset_valid
smtc_real_is_rx_dr_valid
smtc_real_decode_freq_from_buf
smtc_real_is_frequency_valid
ARM GAS  /tmp/cc2Yojzh.s 			page 111


smtc_modem_hal_get_battery_level
smtc_real_is_new_channel_req_supported
smtc_real_is_channel_index_valid
smtc_real_is_nwk_received_tx_frequency_valid
smtc_real_is_tx_dr_valid
smtc_real_set_tx_frequency_channel
smtc_real_set_rx1_frequency_channel
smtc_real_set_channel_dr
smtc_real_set_channel_enabled
smtc_real_get_tx_channel_frequency
smtc_real_is_tx_param_setup_req_supported
smtc_real_get_rx1_channel_frequency
smtc_modem_hal_get_time_in_s
smtc_real_get_beacon_frequency
smtc_secure_element_get_joineui
smtc_secure_element_get_deveui
smtc_modem_crypto_compute_join_mic
memcpy1
smtc_modem_crypto_derive_skeys
smtc_real_update_cflist
smtc_real_init_after_join_snapshot_channel_mask
smtc_real_init_session
__aeabi_uidiv
smtc_real_decrement_dr_simulation
smtc_real_is_payload_size_valid
smtc_real_decrement_dr
smtc_real_get_next_dr
smtc_real_get_max_payload_size
lr1_stack_mac_cmd_ans_cut
lr1mac_rx_payload_min_size_check
lr1mac_rx_mhdr_extract
smtc_modem_crypto_process_join_accept
lr1mac_rx_fhdr_extract
lr1mac_fcnt_dwn_accept
smtc_modem_crypto_verify_mic
smtc_modem_crypto_payload_decrypt
