ARM GAS  /tmp/ccEvku90.s 			page 1


   1              		.cpu cortex-m0
   2              		.arch armv6s-m
   3              		.fpu softvfp
   4              		.eabi_attribute 23, 1
   5              		.eabi_attribute 24, 1
   6              		.eabi_attribute 25, 1
   7              		.eabi_attribute 26, 1
   8              		.eabi_attribute 30, 4
   9              		.eabi_attribute 34, 0
  10              		.eabi_attribute 18, 4
  11              		.file	"lr1_stack_mac_layer.c"
  12              		.text
  13              		.section	.text.ral_compute_lora_ldro,"ax",%progbits
  14              		.align	1
  15              		.syntax unified
  16              		.code	16
  17              		.thumb_func
  19              	ral_compute_lora_ldro:
  20              		@ args = 0, pretend = 0, frame = 0
  21              		@ frame_needed = 0, uses_anonymous_args = 0
  22 0000 0300     		movs	r3, r0
  23 0002 00B5     		push	{lr}
  24 0004 0800     		movs	r0, r1
  25 0006 0C29     		cmp	r1, #12
  26 0008 08D8     		bhi	.L2
  27 000a FFF7FEFF 		bl	__gnu_thumb1_case_uqi
  28              	.L4:
  29 000e 20       		.byte	(.L9-.L4)/2
  30 000f 20       		.byte	(.L9-.L4)/2
  31 0010 20       		.byte	(.L9-.L4)/2
  32 0011 20       		.byte	(.L9-.L4)/2
  33 0012 20       		.byte	(.L9-.L4)/2
  34 0013 1B       		.byte	(.L7-.L4)/2
  35 0014 16       		.byte	(.L6-.L4)/2
  36 0015 0E       		.byte	(.L3-.L4)/2
  37 0016 0E       		.byte	(.L3-.L4)/2
  38 0017 09       		.byte	(.L5-.L4)/2
  39 0018 0E       		.byte	(.L3-.L4)/2
  40 0019 07       		.byte	(.L2-.L4)/2
  41 001a 0E       		.byte	(.L3-.L4)/2
  42 001b 00       		.p2align 1
  43              	.L2:
  44 001c 0020     		movs	r0, #0
  45              	.L8:
  46              		@ sp needed
  47 001e 00BD     		pop	{pc}
  48              	.L5:
  49 0020 0C3B     		subs	r3, r3, #12
  50 0022 5A42     		rsbs	r2, r3, #0
  51 0024 5341     		adcs	r3, r3, r2
  52 0026 D8B2     		uxtb	r0, r3
  53 0028 F9E7     		b	.L8
  54              	.L3:
  55 002a 0020     		movs	r0, #0
  56 002c 0122     		movs	r2, #1
  57 002e 0B3B     		subs	r3, r3, #11
  58 0030 DBB2     		uxtb	r3, r3
ARM GAS  /tmp/ccEvku90.s 			page 2


  59              	.L10:
  60 0032 9A42     		cmp	r2, r3
  61 0034 4041     		adcs	r0, r0, r0
  62 0036 C0B2     		uxtb	r0, r0
  63 0038 F1E7     		b	.L8
  64              	.L6:
  65 003a 0A3B     		subs	r3, r3, #10
  66 003c 0020     		movs	r0, #0
  67 003e 0222     		movs	r2, #2
  68 0040 DBB2     		uxtb	r3, r3
  69 0042 F6E7     		b	.L10
  70              	.L7:
  71 0044 093B     		subs	r3, r3, #9
  72 0046 0020     		movs	r0, #0
  73 0048 0322     		movs	r2, #3
  74 004a DBB2     		uxtb	r3, r3
  75 004c F1E7     		b	.L10
  76              	.L9:
  77 004e 0120     		movs	r0, #1
  78 0050 E5E7     		b	.L8
  80              		.section	.text.ral_set_dio_irq_params,"ax",%progbits
  81              		.align	1
  82              		.syntax unified
  83              		.code	16
  84              		.thumb_func
  86              	ral_set_dio_irq_params:
  87              		@ args = 0, pretend = 0, frame = 0
  88              		@ frame_needed = 0, uses_anonymous_args = 0
  89 0000 10B5     		push	{r4, lr}
  90 0002 036E     		ldr	r3, [r0, #96]
  91 0004 0068     		ldr	r0, [r0]
  92 0006 9847     		blx	r3
  93              		@ sp needed
  94 0008 10BD     		pop	{r4, pc}
  96              		.section	.text.lr1_stack_mac_tx_lora_launch_callback_for_rp,"ax",%progbits
  97              		.align	1
  98              		.global	lr1_stack_mac_tx_lora_launch_callback_for_rp
  99              		.syntax unified
 100              		.code	16
 101              		.thumb_func
 103              	lr1_stack_mac_tx_lora_launch_callback_for_rp:
 104              		@ args = 0, pretend = 0, frame = 0
 105              		@ frame_needed = 0, uses_anonymous_args = 0
 106 0000 70B5     		push	{r4, r5, r6, lr}
 107 0002 9C25     		movs	r5, #156
 108 0004 294B     		ldr	r3, .L31
 109 0006 8421     		movs	r1, #132
 110 0008 2D01     		lsls	r5, r5, #4
 111 000a C65C     		ldrb	r6, [r0, r3]
 112 000c 0400     		movs	r4, r0
 113 000e 4059     		ldr	r0, [r0, r5]
 114 0010 7143     		muls	r1, r6
 115 0012 0300     		movs	r3, r0
 116 0014 2031     		adds	r1, r1, #32
 117 0016 F433     		adds	r3, r3, #244
 118 0018 1B68     		ldr	r3, [r3]
 119 001a 6118     		adds	r1, r4, r1
ARM GAS  /tmp/ccEvku90.s 			page 3


 120 001c 9847     		blx	r3
 121 001e 0028     		cmp	r0, #0
 122 0020 03D0     		beq	.L13
 123 0022 EE21     		movs	r1, #238
 124 0024 2248     		ldr	r0, .L31+4
 125 0026 FFF7FEFF 		bl	smtc_modem_hal_assert_fail
 126              	.L13:
 127 002a 0221     		movs	r1, #2
 128 002c 6059     		ldr	r0, [r4, r5]
 129 002e FFF7FEFF 		bl	ral_set_dio_irq_params
 130 0032 0028     		cmp	r0, #0
 131 0034 03D0     		beq	.L14
 132 0036 EF21     		movs	r1, #239
 133 0038 1D48     		ldr	r0, .L31+4
 134 003a FFF7FEFF 		bl	smtc_modem_hal_assert_fail
 135              	.L14:
 136 003e 9C23     		movs	r3, #156
 137 0040 1B01     		lsls	r3, r3, #4
 138 0042 E058     		ldr	r0, [r4, r3]
 139 0044 E523     		movs	r3, #229
 140 0046 9B00     		lsls	r3, r3, #2
 141 0048 F318     		adds	r3, r6, r3
 142 004a 5B00     		lsls	r3, r3, #1
 143 004c 1A5B     		ldrh	r2, [r3, r4]
 144 004e 3300     		movs	r3, r6
 145 0050 BF33     		adds	r3, r3, #191
 146 0052 FF33     		adds	r3, r3, #255
 147 0054 9B00     		lsls	r3, r3, #2
 148 0056 E318     		adds	r3, r4, r3
 149 0058 C56C     		ldr	r5, [r0, #76]
 150 005a 5968     		ldr	r1, [r3, #4]
 151 005c 0068     		ldr	r0, [r0]
 152 005e A847     		blx	r5
 153 0060 0028     		cmp	r0, #0
 154 0062 03D0     		beq	.L15
 155 0064 F021     		movs	r1, #240
 156 0066 1248     		ldr	r0, .L31+4
 157 0068 FFF7FEFF 		bl	smtc_modem_hal_assert_fail
 158              	.L15:
 159 006c 1C25     		movs	r5, #28
 160 006e 7543     		muls	r5, r6
 161 0070 104B     		ldr	r3, .L31+8
 162 0072 6519     		adds	r5, r4, r5
 163 0074 ED18     		adds	r5, r5, r3
 164              	.L16:
 165 0076 2E68     		ldr	r6, [r5]
 166 0078 FFF7FEFF 		bl	smtc_modem_hal_get_time_in_ms
 167 007c 361A     		subs	r6, r6, r0
 168 007e 002E     		cmp	r6, #0
 169 0080 F9DC     		bgt	.L16
 170 0082 FFF7FEFF 		bl	smtc_modem_hal_start_radio_tcxo
 171 0086 9C23     		movs	r3, #156
 172 0088 1B01     		lsls	r3, r3, #4
 173 008a E358     		ldr	r3, [r4, r3]
 174 008c 1A6A     		ldr	r2, [r3, #32]
 175 008e 1868     		ldr	r0, [r3]
 176 0090 9047     		blx	r2
ARM GAS  /tmp/ccEvku90.s 			page 4


 177 0092 0028     		cmp	r0, #0
 178 0094 03D0     		beq	.L17
 179 0096 F921     		movs	r1, #249
 180 0098 0548     		ldr	r0, .L31+4
 181 009a FFF7FEFF 		bl	smtc_modem_hal_assert_fail
 182              	.L17:
 183              		@ sp needed
 184 009e FFF7FEFF 		bl	smtc_modem_hal_get_time_in_ms
 185 00a2 8F23     		movs	r3, #143
 186 00a4 1B01     		lsls	r3, r3, #4
 187 00a6 E418     		adds	r4, r4, r3
 188 00a8 2065     		str	r0, [r4, #80]
 189 00aa 70BD     		pop	{r4, r5, r6, pc}
 190              	.L32:
 191              		.align	2
 192              	.L31:
 193 00ac 84090000 		.word	2436
 194 00b0 00000000 		.word	__func__.12
 195 00b4 D4050000 		.word	1492
 197              		.section	.text.lr1_stack_mac_rx_lora_launch_callback_for_rp,"ax",%progbits
 198              		.align	1
 199              		.global	lr1_stack_mac_rx_lora_launch_callback_for_rp
 200              		.syntax unified
 201              		.code	16
 202              		.thumb_func
 204              	lr1_stack_mac_rx_lora_launch_callback_for_rp:
 205              		@ args = 0, pretend = 0, frame = 0
 206              		@ frame_needed = 0, uses_anonymous_args = 0
 207 0000 F8B5     		push	{r3, r4, r5, r6, r7, lr}
 208 0002 9C25     		movs	r5, #156
 209 0004 214B     		ldr	r3, .L48
 210 0006 8421     		movs	r1, #132
 211 0008 2D01     		lsls	r5, r5, #4
 212 000a C65C     		ldrb	r6, [r0, r3]
 213 000c 0400     		movs	r4, r0
 214 000e 4059     		ldr	r0, [r0, r5]
 215 0010 7143     		muls	r1, r6
 216 0012 0300     		movs	r3, r0
 217 0014 4C31     		adds	r1, r1, #76
 218 0016 F433     		adds	r3, r3, #244
 219 0018 1B68     		ldr	r3, [r3]
 220 001a 6118     		adds	r1, r4, r1
 221 001c 9847     		blx	r3
 222 001e 0028     		cmp	r0, #0
 223 0020 04D0     		beq	.L34
 224 0022 9921     		movs	r1, #153
 225 0024 1A48     		ldr	r0, .L48+4
 226 0026 4900     		lsls	r1, r1, #1
 227 0028 FFF7FEFF 		bl	smtc_modem_hal_assert_fail
 228              	.L34:
 229 002c CC21     		movs	r1, #204
 230 002e 6059     		ldr	r0, [r4, r5]
 231 0030 FFF7FEFF 		bl	ral_set_dio_irq_params
 232 0034 0028     		cmp	r0, #0
 233 0036 04D0     		beq	.L35
 234 0038 3421     		movs	r1, #52
 235 003a 1548     		ldr	r0, .L48+4
ARM GAS  /tmp/ccEvku90.s 			page 5


 236 003c FF31     		adds	r1, r1, #255
 237 003e FFF7FEFF 		bl	smtc_modem_hal_assert_fail
 238              	.L35:
 239 0042 1C25     		movs	r5, #28
 240 0044 7543     		muls	r5, r6
 241 0046 134B     		ldr	r3, .L48+8
 242 0048 6519     		adds	r5, r4, r5
 243 004a ED18     		adds	r5, r5, r3
 244              	.L36:
 245 004c 2F68     		ldr	r7, [r5]
 246 004e FFF7FEFF 		bl	smtc_modem_hal_get_time_in_ms
 247 0052 3F1A     		subs	r7, r7, r0
 248 0054 002F     		cmp	r7, #0
 249 0056 F9DC     		bgt	.L36
 250 0058 FFF7FEFF 		bl	smtc_modem_hal_start_radio_tcxo
 251 005c 9C23     		movs	r3, #156
 252 005e 1B01     		lsls	r3, r3, #4
 253 0060 E258     		ldr	r2, [r4, r3]
 254 0062 8423     		movs	r3, #132
 255 0064 7343     		muls	r3, r6
 256 0066 E318     		adds	r3, r4, r3
 257 0068 556A     		ldr	r5, [r2, #36]
 258 006a 996F     		ldr	r1, [r3, #120]
 259 006c 1068     		ldr	r0, [r2]
 260 006e A847     		blx	r5
 261 0070 0028     		cmp	r0, #0
 262 0072 04D0     		beq	.L37
 263 0074 9E21     		movs	r1, #158
 264 0076 0648     		ldr	r0, .L48+4
 265 0078 4900     		lsls	r1, r1, #1
 266 007a FFF7FEFF 		bl	smtc_modem_hal_assert_fail
 267              	.L37:
 268              		@ sp needed
 269 007e FFF7FEFF 		bl	smtc_modem_hal_get_time_in_ms
 270 0082 8F23     		movs	r3, #143
 271 0084 1B01     		lsls	r3, r3, #4
 272 0086 E418     		adds	r4, r4, r3
 273 0088 6065     		str	r0, [r4, #84]
 274 008a F8BD     		pop	{r3, r4, r5, r6, r7, pc}
 275              	.L49:
 276              		.align	2
 277              	.L48:
 278 008c 84090000 		.word	2436
 279 0090 00000000 		.word	__func__.9
 280 0094 D4050000 		.word	1492
 282              		.section	.text.lr1_stack_mac_rx_gfsk_launch_callback_for_rp,"ax",%progbits
 283              		.align	1
 284              		.global	lr1_stack_mac_rx_gfsk_launch_callback_for_rp
 285              		.syntax unified
 286              		.code	16
 287              		.thumb_func
 289              	lr1_stack_mac_rx_gfsk_launch_callback_for_rp:
 290              		@ args = 0, pretend = 0, frame = 0
 291              		@ frame_needed = 0, uses_anonymous_args = 0
 292 0000 F8B5     		push	{r3, r4, r5, r6, r7, lr}
 293 0002 9C25     		movs	r5, #156
 294 0004 214B     		ldr	r3, .L65
ARM GAS  /tmp/ccEvku90.s 			page 6


 295 0006 8421     		movs	r1, #132
 296 0008 2D01     		lsls	r5, r5, #4
 297 000a C65C     		ldrb	r6, [r0, r3]
 298 000c 0400     		movs	r4, r0
 299 000e 4059     		ldr	r0, [r0, r5]
 300 0010 7143     		muls	r1, r6
 301 0012 0300     		movs	r3, r0
 302 0014 4C31     		adds	r1, r1, #76
 303 0016 F033     		adds	r3, r3, #240
 304 0018 1B68     		ldr	r3, [r3]
 305 001a 6118     		adds	r1, r4, r1
 306 001c 9847     		blx	r3
 307 001e 0028     		cmp	r0, #0
 308 0020 04D0     		beq	.L51
 309 0022 4621     		movs	r1, #70
 310 0024 1A48     		ldr	r0, .L65+4
 311 0026 FF31     		adds	r1, r1, #255
 312 0028 FFF7FEFF 		bl	smtc_modem_hal_assert_fail
 313              	.L51:
 314 002c 8C21     		movs	r1, #140
 315 002e 6059     		ldr	r0, [r4, r5]
 316 0030 FFF7FEFF 		bl	ral_set_dio_irq_params
 317 0034 0028     		cmp	r0, #0
 318 0036 04D0     		beq	.L52
 319 0038 A321     		movs	r1, #163
 320 003a 1548     		ldr	r0, .L65+4
 321 003c 4900     		lsls	r1, r1, #1
 322 003e FFF7FEFF 		bl	smtc_modem_hal_assert_fail
 323              	.L52:
 324 0042 1C25     		movs	r5, #28
 325 0044 7543     		muls	r5, r6
 326 0046 134B     		ldr	r3, .L65+8
 327 0048 6519     		adds	r5, r4, r5
 328 004a ED18     		adds	r5, r5, r3
 329              	.L53:
 330 004c 2F68     		ldr	r7, [r5]
 331 004e FFF7FEFF 		bl	smtc_modem_hal_get_time_in_ms
 332 0052 3F1A     		subs	r7, r7, r0
 333 0054 002F     		cmp	r7, #0
 334 0056 F9DC     		bgt	.L53
 335 0058 FFF7FEFF 		bl	smtc_modem_hal_start_radio_tcxo
 336 005c 9C23     		movs	r3, #156
 337 005e 1B01     		lsls	r3, r3, #4
 338 0060 E258     		ldr	r2, [r4, r3]
 339 0062 8423     		movs	r3, #132
 340 0064 7343     		muls	r3, r6
 341 0066 E318     		adds	r3, r4, r3
 342 0068 556A     		ldr	r5, [r2, #36]
 343 006a 996F     		ldr	r1, [r3, #120]
 344 006c 1068     		ldr	r0, [r2]
 345 006e A847     		blx	r5
 346 0070 0028     		cmp	r0, #0
 347 0072 04D0     		beq	.L54
 348 0074 A721     		movs	r1, #167
 349 0076 0648     		ldr	r0, .L65+4
 350 0078 4900     		lsls	r1, r1, #1
 351 007a FFF7FEFF 		bl	smtc_modem_hal_assert_fail
ARM GAS  /tmp/ccEvku90.s 			page 7


 352              	.L54:
 353              		@ sp needed
 354 007e FFF7FEFF 		bl	smtc_modem_hal_get_time_in_ms
 355 0082 8F23     		movs	r3, #143
 356 0084 1B01     		lsls	r3, r3, #4
 357 0086 E418     		adds	r4, r4, r3
 358 0088 6065     		str	r0, [r4, #84]
 359 008a F8BD     		pop	{r3, r4, r5, r6, r7, pc}
 360              	.L66:
 361              		.align	2
 362              	.L65:
 363 008c 84090000 		.word	2436
 364 0090 00000000 		.word	__func__.8
 365 0094 D4050000 		.word	1492
 367              		.section	.text.lr1_stack_mac_tx_lr_fhss_launch_callback_for_rp,"ax",%progbits
 368              		.align	1
 369              		.global	lr1_stack_mac_tx_lr_fhss_launch_callback_for_rp
 370              		.syntax unified
 371              		.code	16
 372              		.thumb_func
 374              	lr1_stack_mac_tx_lr_fhss_launch_callback_for_rp:
 375              		@ args = 0, pretend = 0, frame = 8
 376              		@ frame_needed = 0, uses_anonymous_args = 0
 377 0000 8422     		movs	r2, #132
 378 0002 F0B5     		push	{r4, r5, r6, r7, lr}
 379 0004 9C27     		movs	r7, #156
 380 0006 3D4B     		ldr	r3, .L90
 381 0008 3F01     		lsls	r7, r7, #4
 382 000a C55C     		ldrb	r5, [r0, r3]
 383 000c C359     		ldr	r3, [r0, r7]
 384 000e 6A43     		muls	r2, r5
 385 0010 85B0     		sub	sp, sp, #20
 386 0012 1600     		movs	r6, r2
 387 0014 0392     		str	r2, [sp, #12]
 388 0016 1A00     		movs	r2, r3
 389 0018 2036     		adds	r6, r6, #32
 390 001a 8619     		adds	r6, r0, r6
 391 001c C432     		adds	r2, r2, #196
 392 001e 0400     		movs	r4, r0
 393 0020 3100     		movs	r1, r6
 394 0022 1268     		ldr	r2, [r2]
 395 0024 1868     		ldr	r0, [r3]
 396 0026 9047     		blx	r2
 397 0028 0028     		cmp	r0, #0
 398 002a 04D0     		beq	.L68
 399 002c 8B21     		movs	r1, #139
 400 002e 3448     		ldr	r0, .L90+4
 401 0030 4900     		lsls	r1, r1, #1
 402 0032 FFF7FEFF 		bl	smtc_modem_hal_assert_fail
 403              	.L68:
 404 0036 8422     		movs	r2, #132
 405 0038 3421     		movs	r1, #52
 406 003a 6A43     		muls	r2, r5
 407 003c E059     		ldr	r0, [r4, r7]
 408 003e A218     		adds	r2, r4, r2
 409 0040 5156     		ldrsb	r1, [r2, r1]
 410 0042 836C     		ldr	r3, [r0, #72]
ARM GAS  /tmp/ccEvku90.s 			page 8


 411 0044 D26A     		ldr	r2, [r2, #44]
 412 0046 0068     		ldr	r0, [r0]
 413 0048 9847     		blx	r3
 414 004a 0028     		cmp	r0, #0
 415 004c 04D0     		beq	.L69
 416 004e 8C21     		movs	r1, #140
 417 0050 2B48     		ldr	r0, .L90+4
 418 0052 4900     		lsls	r1, r1, #1
 419 0054 FFF7FEFF 		bl	smtc_modem_hal_assert_fail
 420              	.L69:
 421 0058 9C27     		movs	r7, #156
 422 005a 3F01     		lsls	r7, r7, #4
 423 005c 2949     		ldr	r1, .L90+8
 424 005e E059     		ldr	r0, [r4, r7]
 425 0060 FFF7FEFF 		bl	ral_set_dio_irq_params
 426 0064 0028     		cmp	r0, #0
 427 0066 04D0     		beq	.L70
 428 0068 1C21     		movs	r1, #28
 429 006a 2548     		ldr	r0, .L90+4
 430 006c FF31     		adds	r1, r1, #255
 431 006e FFF7FEFF 		bl	smtc_modem_hal_assert_fail
 432              	.L70:
 433 0072 8423     		movs	r3, #132
 434 0074 E521     		movs	r1, #229
 435 0076 6B43     		muls	r3, r5
 436 0078 8900     		lsls	r1, r1, #2
 437 007a 6918     		adds	r1, r5, r1
 438 007c 4900     		lsls	r1, r1, #1
 439 007e 095B     		ldrh	r1, [r1, r4]
 440 0080 E318     		adds	r3, r4, r3
 441 0082 E059     		ldr	r0, [r4, r7]
 442 0084 DB8E     		ldrh	r3, [r3, #54]
 443 0086 0191     		str	r1, [sp, #4]
 444 0088 2900     		movs	r1, r5
 445 008a 0700     		movs	r7, r0
 446 008c BF31     		adds	r1, r1, #191
 447 008e FF31     		adds	r1, r1, #255
 448 0090 8900     		lsls	r1, r1, #2
 449 0092 6118     		adds	r1, r4, r1
 450 0094 4968     		ldr	r1, [r1, #4]
 451 0096 039A     		ldr	r2, [sp, #12]
 452 0098 0091     		str	r1, [sp]
 453 009a 8632     		adds	r2, r2, #134
 454 009c C837     		adds	r7, r7, #200
 455 009e 3100     		movs	r1, r6
 456 00a0 3F68     		ldr	r7, [r7]
 457 00a2 0068     		ldr	r0, [r0]
 458 00a4 A218     		adds	r2, r4, r2
 459 00a6 B847     		blx	r7
 460 00a8 0028     		cmp	r0, #0
 461 00aa 04D0     		beq	.L71
 462 00ac 1E21     		movs	r1, #30
 463 00ae 1448     		ldr	r0, .L90+4
 464 00b0 FF31     		adds	r1, r1, #255
 465 00b2 FFF7FEFF 		bl	smtc_modem_hal_assert_fail
 466              	.L71:
 467 00b6 1C23     		movs	r3, #28
ARM GAS  /tmp/ccEvku90.s 			page 9


 468 00b8 5D43     		muls	r5, r3
 469 00ba 134B     		ldr	r3, .L90+12
 470 00bc 6519     		adds	r5, r4, r5
 471 00be ED18     		adds	r5, r5, r3
 472              	.L72:
 473 00c0 2E68     		ldr	r6, [r5]
 474 00c2 FFF7FEFF 		bl	smtc_modem_hal_get_time_in_ms
 475 00c6 361A     		subs	r6, r6, r0
 476 00c8 002E     		cmp	r6, #0
 477 00ca F9DC     		bgt	.L72
 478 00cc FFF7FEFF 		bl	smtc_modem_hal_start_radio_tcxo
 479 00d0 9C23     		movs	r3, #156
 480 00d2 1B01     		lsls	r3, r3, #4
 481 00d4 E358     		ldr	r3, [r4, r3]
 482 00d6 1A6A     		ldr	r2, [r3, #32]
 483 00d8 1868     		ldr	r0, [r3]
 484 00da 9047     		blx	r2
 485 00dc 0028     		cmp	r0, #0
 486 00de 04D0     		beq	.L73
 487 00e0 2A21     		movs	r1, #42
 488 00e2 0748     		ldr	r0, .L90+4
 489 00e4 FF31     		adds	r1, r1, #255
 490 00e6 FFF7FEFF 		bl	smtc_modem_hal_assert_fail
 491              	.L73:
 492 00ea FFF7FEFF 		bl	smtc_modem_hal_get_time_in_ms
 493 00ee 8F23     		movs	r3, #143
 494 00f0 1B01     		lsls	r3, r3, #4
 495 00f2 E418     		adds	r4, r4, r3
 496 00f4 2065     		str	r0, [r4, #80]
 497 00f6 05B0     		add	sp, sp, #20
 498              		@ sp needed
 499 00f8 F0BD     		pop	{r4, r5, r6, r7, pc}
 500              	.L91:
 501 00fa C046     		.align	2
 502              	.L90:
 503 00fc 84090000 		.word	2436
 504 0100 00000000 		.word	__func__.10
 505 0104 02040000 		.word	1026
 506 0108 D4050000 		.word	1492
 508              		.section	.text.lr1_stack_mac_tx_gfsk_launch_callback_for_rp,"ax",%progbits
 509              		.align	1
 510              		.global	lr1_stack_mac_tx_gfsk_launch_callback_for_rp
 511              		.syntax unified
 512              		.code	16
 513              		.thumb_func
 515              	lr1_stack_mac_tx_gfsk_launch_callback_for_rp:
 516              		@ args = 0, pretend = 0, frame = 0
 517              		@ frame_needed = 0, uses_anonymous_args = 0
 518 0000 70B5     		push	{r4, r5, r6, lr}
 519 0002 9C25     		movs	r5, #156
 520 0004 2B4B     		ldr	r3, .L111
 521 0006 8421     		movs	r1, #132
 522 0008 2D01     		lsls	r5, r5, #4
 523 000a C65C     		ldrb	r6, [r0, r3]
 524 000c 0400     		movs	r4, r0
 525 000e 4059     		ldr	r0, [r0, r5]
 526 0010 7143     		muls	r1, r6
ARM GAS  /tmp/ccEvku90.s 			page 10


 527 0012 0300     		movs	r3, r0
 528 0014 2031     		adds	r1, r1, #32
 529 0016 F033     		adds	r3, r3, #240
 530 0018 1B68     		ldr	r3, [r3]
 531 001a 6118     		adds	r1, r4, r1
 532 001c 9847     		blx	r3
 533 001e 0028     		cmp	r0, #0
 534 0020 04D0     		beq	.L93
 535 0022 8121     		movs	r1, #129
 536 0024 2448     		ldr	r0, .L111+4
 537 0026 4900     		lsls	r1, r1, #1
 538 0028 FFF7FEFF 		bl	smtc_modem_hal_assert_fail
 539              	.L93:
 540 002c 0221     		movs	r1, #2
 541 002e 6059     		ldr	r0, [r4, r5]
 542 0030 FFF7FEFF 		bl	ral_set_dio_irq_params
 543 0034 0028     		cmp	r0, #0
 544 0036 04D0     		beq	.L94
 545 0038 0421     		movs	r1, #4
 546 003a 1F48     		ldr	r0, .L111+4
 547 003c FF31     		adds	r1, r1, #255
 548 003e FFF7FEFF 		bl	smtc_modem_hal_assert_fail
 549              	.L94:
 550 0042 9C23     		movs	r3, #156
 551 0044 1B01     		lsls	r3, r3, #4
 552 0046 E058     		ldr	r0, [r4, r3]
 553 0048 E523     		movs	r3, #229
 554 004a 9B00     		lsls	r3, r3, #2
 555 004c F318     		adds	r3, r6, r3
 556 004e 5B00     		lsls	r3, r3, #1
 557 0050 1A5B     		ldrh	r2, [r3, r4]
 558 0052 3300     		movs	r3, r6
 559 0054 BF33     		adds	r3, r3, #191
 560 0056 FF33     		adds	r3, r3, #255
 561 0058 9B00     		lsls	r3, r3, #2
 562 005a E318     		adds	r3, r4, r3
 563 005c C56C     		ldr	r5, [r0, #76]
 564 005e 5968     		ldr	r1, [r3, #4]
 565 0060 0068     		ldr	r0, [r0]
 566 0062 A847     		blx	r5
 567 0064 0028     		cmp	r0, #0
 568 0066 04D0     		beq	.L95
 569 0068 8221     		movs	r1, #130
 570 006a 1348     		ldr	r0, .L111+4
 571 006c 4900     		lsls	r1, r1, #1
 572 006e FFF7FEFF 		bl	smtc_modem_hal_assert_fail
 573              	.L95:
 574 0072 1C25     		movs	r5, #28
 575 0074 7543     		muls	r5, r6
 576 0076 114B     		ldr	r3, .L111+8
 577 0078 6519     		adds	r5, r4, r5
 578 007a ED18     		adds	r5, r5, r3
 579              	.L96:
 580 007c 2E68     		ldr	r6, [r5]
 581 007e FFF7FEFF 		bl	smtc_modem_hal_get_time_in_ms
 582 0082 361A     		subs	r6, r6, r0
 583 0084 002E     		cmp	r6, #0
ARM GAS  /tmp/ccEvku90.s 			page 11


 584 0086 F9DC     		bgt	.L96
 585 0088 FFF7FEFF 		bl	smtc_modem_hal_start_radio_tcxo
 586 008c 9C23     		movs	r3, #156
 587 008e 1B01     		lsls	r3, r3, #4
 588 0090 E358     		ldr	r3, [r4, r3]
 589 0092 1A6A     		ldr	r2, [r3, #32]
 590 0094 1868     		ldr	r0, [r3]
 591 0096 9047     		blx	r2
 592 0098 0028     		cmp	r0, #0
 593 009a 04D0     		beq	.L97
 594 009c 8621     		movs	r1, #134
 595 009e 0648     		ldr	r0, .L111+4
 596 00a0 4900     		lsls	r1, r1, #1
 597 00a2 FFF7FEFF 		bl	smtc_modem_hal_assert_fail
 598              	.L97:
 599              		@ sp needed
 600 00a6 FFF7FEFF 		bl	smtc_modem_hal_get_time_in_ms
 601 00aa 8F23     		movs	r3, #143
 602 00ac 1B01     		lsls	r3, r3, #4
 603 00ae E418     		adds	r4, r4, r3
 604 00b0 2065     		str	r0, [r4, #80]
 605 00b2 70BD     		pop	{r4, r5, r6, pc}
 606              	.L112:
 607              		.align	2
 608              	.L111:
 609 00b4 84090000 		.word	2436
 610 00b8 00000000 		.word	__func__.11
 611 00bc D4050000 		.word	1492
 613              		.section	.text.lr1_stack_mac_session_init,"ax",%progbits
 614              		.align	1
 615              		.global	lr1_stack_mac_session_init
 616              		.syntax unified
 617              		.code	16
 618              		.thumb_func
 620              	lr1_stack_mac_session_init:
 621              		@ args = 0, pretend = 0, frame = 0
 622              		@ frame_needed = 0, uses_anonymous_args = 0
 623 0000 0123     		movs	r3, #1
 624 0002 5B42     		rsbs	r3, r3, #0
 625 0004 70B5     		push	{r4, r5, r6, lr}
 626 0006 8366     		str	r3, [r0, #104]
 627 0008 9523     		movs	r3, #149
 628              		@ sp needed
 629 000a 0025     		movs	r5, #0
 630 000c DB00     		lsls	r3, r3, #3
 631 000e 4566     		str	r5, [r0, #100]
 632 0010 C550     		str	r5, [r0, r3]
 633 0012 083B     		subs	r3, r3, #8
 634 0014 C552     		strh	r5, [r0, r3]
 635 0016 134B     		ldr	r3, .L114
 636 0018 0400     		movs	r4, r0
 637 001a C552     		strh	r5, [r0, r3]
 638 001c 163B     		subs	r3, r3, #22
 639 001e C550     		str	r5, [r0, r3]
 640 0020 F523     		movs	r3, #245
 641 0022 5B00     		lsls	r3, r3, #1
 642 0024 C554     		strb	r5, [r0, r3]
ARM GAS  /tmp/ccEvku90.s 			page 12


 643 0026 7A23     		movs	r3, #122
 644 0028 FF33     		adds	r3, r3, #255
 645 002a C554     		strb	r5, [r0, r3]
 646 002c 6133     		adds	r3, r3, #97
 647 002e C554     		strb	r5, [r0, r3]
 648 0030 0D4B     		ldr	r3, .L114+4
 649 0032 C554     		strb	r5, [r0, r3]
 650 0034 0D4B     		ldr	r3, .L114+8
 651 0036 C554     		strb	r5, [r0, r3]
 652 0038 0D4B     		ldr	r3, .L114+12
 653 003a C554     		strb	r5, [r0, r3]
 654 003c FE3B     		subs	r3, r3, #254
 655 003e FF3B     		subs	r3, r3, #255
 656 0040 0566     		str	r5, [r0, #96]
 657 0042 C550     		str	r5, [r0, r3]
 658 0044 FFF7FEFF 		bl	smtc_modem_hal_get_time_in_ms
 659 0048 C623     		movs	r3, #198
 660 004a 9B00     		lsls	r3, r3, #2
 661 004c E050     		str	r0, [r4, r3]
 662 004e 094B     		ldr	r3, .L114+16
 663 0050 E554     		strb	r5, [r4, r3]
 664 0052 094B     		ldr	r3, .L114+20
 665 0054 E552     		strh	r5, [r4, r3]
 666 0056 094B     		ldr	r3, .L114+24
 667 0058 E554     		strb	r5, [r4, r3]
 668 005a 263B     		subs	r3, r3, #38
 669 005c E552     		strh	r5, [r4, r3]
 670 005e 7634     		adds	r4, r4, #118
 671 0060 2580     		strh	r5, [r4]
 672 0062 70BD     		pop	{r4, r5, r6, pc}
 673              	.L115:
 674              		.align	2
 675              	.L114:
 676 0064 9E040000 		.word	1182
 677 0068 87040000 		.word	1159
 678 006c 26040000 		.word	1062
 679 0070 11050000 		.word	1297
 680 0074 19050000 		.word	1305
 681 0078 44050000 		.word	1348
 682 007c 46050000 		.word	1350
 684              		.section	.text.lr1_stack_mac_init,"ax",%progbits
 685              		.align	1
 686              		.global	lr1_stack_mac_init
 687              		.syntax unified
 688              		.code	16
 689              		.thumb_func
 691              	lr1_stack_mac_init:
 692              		@ args = 0, pretend = 0, frame = 0
 693              		@ frame_needed = 0, uses_anonymous_args = 0
 694 0000 0023     		movs	r3, #0
 695 0002 10B5     		push	{r4, lr}
 696 0004 0400     		movs	r4, r0
 697              		@ sp needed
 698 0006 7430     		adds	r0, r0, #116
 699 0008 0370     		strb	r3, [r0]
 700 000a 2348     		ldr	r0, .L117
 701 000c 2354     		strb	r3, [r4, r0]
ARM GAS  /tmp/ccEvku90.s 			page 13


 702 000e 2348     		ldr	r0, .L117+4
 703 0010 2350     		str	r3, [r4, r0]
 704 0012 2348     		ldr	r0, .L117+8
 705 0014 2354     		strb	r3, [r4, r0]
 706 0016 4230     		adds	r0, r0, #66
 707 0018 2354     		strb	r3, [r4, r0]
 708 001a 2000     		movs	r0, r4
 709 001c 7030     		adds	r0, r0, #112
 710 001e 0170     		strb	r1, [r0]
 711 0020 2100     		movs	r1, r4
 712 0022 0120     		movs	r0, #1
 713 0024 5131     		adds	r1, r1, #81
 714 0026 0870     		strb	r0, [r1]
 715 0028 C421     		movs	r1, #196
 716 002a 8900     		lsls	r1, r1, #2
 717 002c 6354     		strb	r3, [r4, r1]
 718 002e A16B     		ldr	r1, [r4, #56]
 719 0030 0A70     		strb	r2, [r1]
 720 0032 1C4A     		ldr	r2, .L117+12
 721 0034 8021     		movs	r1, #128
 722 0036 A354     		strb	r3, [r4, r2]
 723 0038 1B4A     		ldr	r2, .L117+16
 724 003a 4905     		lsls	r1, r1, #21
 725 003c A350     		str	r3, [r4, r2]
 726 003e C93A     		subs	r2, r2, #201
 727 0040 FF3A     		subs	r2, r2, #255
 728 0042 A352     		strh	r3, [r4, r2]
 729 0044 2200     		movs	r2, r4
 730 0046 4C32     		adds	r2, r2, #76
 731 0048 1380     		strh	r3, [r2]
 732 004a 184A     		ldr	r2, .L117+20
 733 004c A352     		strh	r3, [r4, r2]
 734 004e 184A     		ldr	r2, .L117+24
 735 0050 A150     		str	r1, [r4, r2]
 736 0052 0432     		adds	r2, r2, #4
 737 0054 A350     		str	r3, [r4, r2]
 738 0056 174A     		ldr	r2, .L117+28
 739 0058 1900     		movs	r1, r3
 740 005a A354     		strb	r3, [r4, r2]
 741 005c 164A     		ldr	r2, .L117+32
 742 005e A350     		str	r3, [r4, r2]
 743 0060 0432     		adds	r2, r2, #4
 744 0062 A350     		str	r3, [r4, r2]
 745 0064 154A     		ldr	r2, .L117+36
 746 0066 A350     		str	r3, [r4, r2]
 747 0068 154A     		ldr	r2, .L117+40
 748 006a A350     		str	r3, [r4, r2]
 749 006c 0432     		adds	r2, r2, #4
 750 006e A350     		str	r3, [r4, r2]
 751 0070 0832     		adds	r2, r2, #8
 752 0072 A350     		str	r3, [r4, r2]
 753 0074 134A     		ldr	r2, .L117+44
 754 0076 A350     		str	r3, [r4, r2]
 755 0078 543A     		subs	r2, r2, #84
 756 007a A018     		adds	r0, r4, r2
 757 007c 2022     		movs	r2, #32
 758 007e FFF7FEFF 		bl	memset
ARM GAS  /tmp/ccEvku90.s 			page 14


 759 0082 114B     		ldr	r3, .L117+48
 760 0084 0622     		movs	r2, #6
 761 0086 FF21     		movs	r1, #255
 762 0088 E018     		adds	r0, r4, r3
 763 008a FFF7FEFF 		bl	memset
 764 008e 2000     		movs	r0, r4
 765 0090 FFF7FEFF 		bl	lr1_stack_mac_session_init
 766 0094 10BD     		pop	{r4, pc}
 767              	.L118:
 768 0096 C046     		.align	2
 769              	.L117:
 770 0098 BB040000 		.word	1211
 771 009c A4040000 		.word	1188
 772 00a0 CE040000 		.word	1230
 773 00a4 1A050000 		.word	1306
 774 00a8 E4040000 		.word	1252
 775 00ac 92040000 		.word	1170
 776 00b0 94040000 		.word	1172
 777 00b4 BA040000 		.word	1210
 778 00b8 24050000 		.word	1316
 779 00bc 34050000 		.word	1332
 780 00c0 2C050000 		.word	1324
 781 00c4 3C050000 		.word	1340
 782 00c8 1E030000 		.word	798
 784              		.section	.text.lr1_stack_mac_tx_frame_build,"ax",%progbits
 785              		.align	1
 786              		.global	lr1_stack_mac_tx_frame_build
 787              		.syntax unified
 788              		.code	16
 789              		.thumb_func
 791              	lr1_stack_mac_tx_frame_build:
 792              		@ args = 0, pretend = 0, frame = 0
 793              		@ frame_needed = 0, uses_anonymous_args = 0
 794 0000 0300     		movs	r3, r0
 795 0002 0022     		movs	r2, #0
 796 0004 F0B5     		push	{r4, r5, r6, r7, lr}
 797 0006 7133     		adds	r3, r3, #113
 798 0008 1978     		ldrb	r1, [r3]
 799 000a 9142     		cmp	r1, r2
 800 000c 02D0     		beq	.L120
 801 000e F523     		movs	r3, #245
 802 0010 5B00     		lsls	r3, r3, #1
 803 0012 C25C     		ldrb	r2, [r0, r3]
 804              	.L120:
 805 0014 9224     		movs	r4, #146
 806 0016 2F4B     		ldr	r3, .L130
 807 0018 E400     		lsls	r4, r4, #3
 808 001a C35C     		ldrb	r3, [r0, r3]
 809 001c 045D     		ldrb	r4, [r0, r4]
 810 001e DB01     		lsls	r3, r3, #7
 811 0020 A401     		lsls	r4, r4, #6
 812 0022 1B19     		adds	r3, r3, r4
 813 0024 0400     		movs	r4, r0
 814 0026 7634     		adds	r4, r4, #118
 815 0028 2578     		ldrb	r5, [r4]
 816 002a 0600     		movs	r6, r0
 817 002c 6D01     		lsls	r5, r5, #5
ARM GAS  /tmp/ccEvku90.s 			page 15


 818 002e 5B19     		adds	r3, r3, r5
 819 0030 0500     		movs	r5, r0
 820 0032 7735     		adds	r5, r5, #119
 821 0034 2D78     		ldrb	r5, [r5]
 822 0036 0327     		movs	r7, #3
 823 0038 2D01     		lsls	r5, r5, #4
 824 003a 5B19     		adds	r3, r3, r5
 825 003c 0F25     		movs	r5, #15
 826 003e 1540     		ands	r5, r2
 827 0040 5B19     		adds	r3, r3, r5
 828 0042 0500     		movs	r5, r0
 829 0044 DBB2     		uxtb	r3, r3
 830 0046 7535     		adds	r5, r5, #117
 831 0048 2B70     		strb	r3, [r5]
 832 004a 0025     		movs	r5, #0
 833 004c 033C     		subs	r4, r4, #3
 834 004e E570     		strb	r5, [r4, #3]
 835 0050 7436     		adds	r6, r6, #116
 836 0052 2478     		ldrb	r4, [r4]
 837 0054 3678     		ldrb	r6, [r6]
 838 0056 6401     		lsls	r4, r4, #5
 839 0058 3E40     		ands	r6, r7
 840 005a A419     		adds	r4, r4, r6
 841 005c 0600     		movs	r6, r0
 842 005e 7A36     		adds	r6, r6, #122
 843 0060 3470     		strb	r4, [r6]
 844 0062 C46E     		ldr	r4, [r0, #108]
 845 0064 270A     		lsrs	r7, r4, #8
 846 0066 7470     		strb	r4, [r6, #1]
 847 0068 B770     		strb	r7, [r6, #2]
 848 006a 270C     		lsrs	r7, r4, #16
 849 006c 240E     		lsrs	r4, r4, #24
 850 006e 3471     		strb	r4, [r6, #4]
 851 0070 0400     		movs	r4, r0
 852 0072 7F34     		adds	r4, r4, #127
 853 0074 F770     		strb	r7, [r6, #3]
 854 0076 2370     		strb	r3, [r4]
 855 0078 0300     		movs	r3, r0
 856 007a 6433     		adds	r3, r3, #100
 857 007c 1C88     		ldrh	r4, [r3]
 858 007e 0436     		adds	r6, r6, #4
 859 0080 9C83     		strh	r4, [r3, #28]
 860 0082 A942     		cmp	r1, r5
 861 0084 12D0     		beq	.L121
 862 0086 F523     		movs	r3, #245
 863 0088 5B00     		lsls	r3, r3, #1
 864 008a C45C     		ldrb	r4, [r0, r3]
 865 008c 2B00     		movs	r3, r5
 866 008e 0500     		movs	r5, r0
 867 0090 EC35     		adds	r5, r5, #236
 868 0092 FF35     		adds	r5, r5, #255
 869 0094 0436     		adds	r6, r6, #4
 870              	.L122:
 871 0096 A342     		cmp	r3, r4
 872 0098 17DB     		blt	.L124
 873 009a 0300     		movs	r3, r0
 874 009c 7233     		adds	r3, r3, #114
ARM GAS  /tmp/ccEvku90.s 			page 16


 875 009e 1B78     		ldrb	r3, [r3]
 876 00a0 002B     		cmp	r3, #0
 877 00a2 06D0     		beq	.L123
 878 00a4 0419     		adds	r4, r0, r4
 879 00a6 8234     		adds	r4, r4, #130
 880 00a8 2170     		strb	r1, [r4]
 881 00aa 02E0     		b	.L123
 882              	.L121:
 883 00ac 0300     		movs	r3, r0
 884 00ae 8233     		adds	r3, r3, #130
 885 00b0 1970     		strb	r1, [r3]
 886              	.L123:
 887 00b2 0300     		movs	r3, r0
 888              		@ sp needed
 889 00b4 0100     		movs	r1, r0
 890 00b6 7833     		adds	r3, r3, #120
 891 00b8 1B78     		ldrb	r3, [r3]
 892 00ba 7231     		adds	r1, r1, #114
 893 00bc 0978     		ldrb	r1, [r1]
 894 00be 0833     		adds	r3, r3, #8
 895 00c0 5B18     		adds	r3, r3, r1
 896 00c2 D218     		adds	r2, r2, r3
 897 00c4 7930     		adds	r0, r0, #121
 898 00c6 0270     		strb	r2, [r0]
 899 00c8 F0BD     		pop	{r4, r5, r6, r7, pc}
 900              	.L124:
 901 00ca EF5C     		ldrb	r7, [r5, r3]
 902 00cc F754     		strb	r7, [r6, r3]
 903 00ce 0133     		adds	r3, r3, #1
 904 00d0 E1E7     		b	.L122
 905              	.L131:
 906 00d2 C046     		.align	2
 907              	.L130:
 908 00d4 91040000 		.word	1169
 910              		.section	.rodata.lr1_stack_mac_tx_frame_encrypt.str1.1,"aMS",%progbits,1
 911              	.LC6:
 912 0000 1B5B303B 		.ascii	"\033[0;31mERROR: crash log :%s\012\015\000"
 912      33316D45 
 912      52524F52 
 912      3A206372 
 912      61736820 
 913              	.LC8:
 914 001e 1B5B306D 		.ascii	"\033[0m\000"
 914      00
 915              	.LC10:
 916 0023 1B5B303B 		.ascii	"\033[0;31mERROR: -> Crypto error during payload enc"
 916      33316D45 
 916      52524F52 
 916      3A202D3E 
 916      20437279 
 917 0053 72797074 		.ascii	"ryption\012\015\000"
 917      696F6E0A 
 917      0D00
 918              	.LC12:
 919 005d 1B5B303B 		.ascii	"\033[0;31mERROR: -> Crypto error during mic computa"
 919      33316D45 
 919      52524F52 
ARM GAS  /tmp/ccEvku90.s 			page 17


 919      3A202D3E 
 919      20437279 
 920 008d 74696F6E 		.ascii	"tion\012\015\000"
 920      0A0D00
 921              		.section	.text.lr1_stack_mac_tx_frame_encrypt,"ax",%progbits
 922              		.align	1
 923              		.global	lr1_stack_mac_tx_frame_encrypt
 924              		.syntax unified
 925              		.code	16
 926              		.thumb_func
 928              	lr1_stack_mac_tx_frame_encrypt:
 929              		@ args = 0, pretend = 0, frame = 0
 930              		@ frame_needed = 0, uses_anonymous_args = 0
 931 0000 0300     		movs	r3, r0
 932 0002 30B5     		push	{r4, r5, lr}
 933 0004 0400     		movs	r4, r0
 934 0006 0020     		movs	r0, #0
 935 0008 7133     		adds	r3, r3, #113
 936 000a 1A78     		ldrb	r2, [r3]
 937 000c 85B0     		sub	sp, sp, #20
 938 000e 8242     		cmp	r2, r0
 939 0010 02D0     		beq	.L133
 940 0012 F523     		movs	r3, #245
 941 0014 5B00     		lsls	r3, r3, #1
 942 0016 E05C     		ldrb	r0, [r4, r3]
 943              	.L133:
 944 0018 2300     		movs	r3, r4
 945 001a 7233     		adds	r3, r3, #114
 946 001c 1B78     		ldrb	r3, [r3]
 947 001e C018     		adds	r0, r0, r3
 948 0020 2300     		movs	r3, r4
 949 0022 8230     		adds	r0, r0, #130
 950 0024 7833     		adds	r3, r3, #120
 951 0026 2018     		adds	r0, r4, r0
 952 0028 1978     		ldrb	r1, [r3]
 953 002a 0290     		str	r0, [sp, #8]
 954 002c 531E     		subs	r3, r2, #1
 955 002e 9A41     		sbcs	r2, r2, r3
 956 0030 636E     		ldr	r3, [r4, #100]
 957 0032 0632     		adds	r2, r2, #6
 958 0034 0193     		str	r3, [sp, #4]
 959 0036 0023     		movs	r3, #0
 960 0038 0093     		str	r3, [sp]
 961 003a E36E     		ldr	r3, [r4, #108]
 962 003c FFF7FEFF 		bl	smtc_modem_crypto_payload_encrypt
 963 0040 0028     		cmp	r0, #0
 964 0042 16D0     		beq	.L135
 965 0044 204D     		ldr	r5, .L146
 966 0046 2800     		movs	r0, r5
 967 0048 FFF7FEFF 		bl	smtc_modem_hal_store_crashlog
 968 004c 0120     		movs	r0, #1
 969 004e FFF7FEFF 		bl	smtc_modem_hal_set_crashlog_status
 970 0052 2900     		movs	r1, r5
 971 0054 1D48     		ldr	r0, .L146+4
 972 0056 FFF7FEFF 		bl	smtc_modem_hal_print_trace
 973 005a 1D4D     		ldr	r5, .L146+8
 974 005c 2800     		movs	r0, r5
ARM GAS  /tmp/ccEvku90.s 			page 18


 975 005e FFF7FEFF 		bl	smtc_modem_hal_print_trace
 976 0062 1C48     		ldr	r0, .L146+12
 977 0064 FFF7FEFF 		bl	smtc_modem_hal_print_trace
 978 0068 2800     		movs	r0, r5
 979 006a FFF7FEFF 		bl	smtc_modem_hal_print_trace
 980 006e FFF7FEFF 		bl	smtc_modem_hal_reset_mcu
 981              	.L135:
 982 0072 2500     		movs	r5, r4
 983 0074 636E     		ldr	r3, [r4, #100]
 984 0076 7935     		adds	r5, r5, #121
 985 0078 2978     		ldrb	r1, [r5]
 986 007a 0193     		str	r3, [sp, #4]
 987 007c 0023     		movs	r3, #0
 988 007e 2000     		movs	r0, r4
 989 0080 0093     		str	r3, [sp]
 990 0082 0622     		movs	r2, #6
 991 0084 E36E     		ldr	r3, [r4, #108]
 992 0086 7A30     		adds	r0, r0, #122
 993 0088 FFF7FEFF 		bl	smtc_modem_crypto_compute_and_add_mic
 994 008c 0028     		cmp	r0, #0
 995 008e 16D0     		beq	.L136
 996 0090 0D4C     		ldr	r4, .L146
 997 0092 2000     		movs	r0, r4
 998 0094 FFF7FEFF 		bl	smtc_modem_hal_store_crashlog
 999 0098 0120     		movs	r0, #1
 1000 009a FFF7FEFF 		bl	smtc_modem_hal_set_crashlog_status
 1001 009e 2100     		movs	r1, r4
 1002 00a0 0A48     		ldr	r0, .L146+4
 1003 00a2 FFF7FEFF 		bl	smtc_modem_hal_print_trace
 1004 00a6 0A4C     		ldr	r4, .L146+8
 1005 00a8 2000     		movs	r0, r4
 1006 00aa FFF7FEFF 		bl	smtc_modem_hal_print_trace
 1007 00ae 0A48     		ldr	r0, .L146+16
 1008 00b0 FFF7FEFF 		bl	smtc_modem_hal_print_trace
 1009 00b4 2000     		movs	r0, r4
 1010 00b6 FFF7FEFF 		bl	smtc_modem_hal_print_trace
 1011 00ba FFF7FEFF 		bl	smtc_modem_hal_reset_mcu
 1012              	.L136:
 1013 00be 2B78     		ldrb	r3, [r5]
 1014 00c0 0433     		adds	r3, r3, #4
 1015 00c2 2B70     		strb	r3, [r5]
 1016 00c4 05B0     		add	sp, sp, #20
 1017              		@ sp needed
 1018 00c6 30BD     		pop	{r4, r5, pc}
 1019              	.L147:
 1020              		.align	2
 1021              	.L146:
 1022 00c8 00000000 		.word	__func__.13
 1023 00cc 00000000 		.word	.LC6
 1024 00d0 1E000000 		.word	.LC8
 1025 00d4 23000000 		.word	.LC10
 1026 00d8 5D000000 		.word	.LC12
 1028              		.section	.text.lr1_stack_mac_radio_busy_lbt,"ax",%progbits
 1029              		.align	1
 1030              		.global	lr1_stack_mac_radio_busy_lbt
 1031              		.syntax unified
 1032              		.code	16
ARM GAS  /tmp/ccEvku90.s 			page 19


 1033              		.thumb_func
 1035              	lr1_stack_mac_radio_busy_lbt:
 1036              		@ args = 0, pretend = 0, frame = 0
 1037              		@ frame_needed = 0, uses_anonymous_args = 0
 1038 0000 0022     		movs	r2, #0
 1039 0002 10B5     		push	{r4, lr}
 1040 0004 0400     		movs	r4, r0
 1041              		@ sp needed
 1042 0006 074B     		ldr	r3, .L149
 1043 0008 C254     		strb	r2, [r0, r3]
 1044 000a FFF7FEFF 		bl	smtc_modem_hal_get_time_in_ms
 1045 000e 064B     		ldr	r3, .L149+4
 1046 0010 E258     		ldr	r2, [r4, r3]
 1047 0012 064B     		ldr	r3, .L149+8
 1048 0014 D358     		ldr	r3, [r2, r3]
 1049 0016 064A     		ldr	r2, .L149+12
 1050 0018 1B18     		adds	r3, r3, r0
 1051 001a A350     		str	r3, [r4, r2]
 1052 001c 2000     		movs	r0, r4
 1053 001e FFF7FEFF 		bl	smtc_real_get_next_channel
 1054 0022 10BD     		pop	{r4, pc}
 1055              	.L150:
 1056              		.align	2
 1057              	.L149:
 1058 0024 BB040000 		.word	1211
 1059 0028 BC040000 		.word	1212
 1060 002c C4090000 		.word	2500
 1061 0030 14050000 		.word	1300
 1063              		.section	.text.lr1_stack_mac_radio_abort_lbt,"ax",%progbits
 1064              		.align	1
 1065              		.global	lr1_stack_mac_radio_abort_lbt
 1066              		.syntax unified
 1067              		.code	16
 1068              		.thumb_func
 1070              	lr1_stack_mac_radio_abort_lbt:
 1071              		@ args = 0, pretend = 0, frame = 0
 1072              		@ frame_needed = 0, uses_anonymous_args = 0
 1073              		@ link register save eliminated.
 1074 0000 0622     		movs	r2, #6
 1075              		@ sp needed
 1076 0002 014B     		ldr	r3, .L152
 1077 0004 C254     		strb	r2, [r0, r3]
 1078 0006 7047     		bx	lr
 1079              	.L153:
 1080              		.align	2
 1081              	.L152:
 1082 0008 BB040000 		.word	1211
 1084              		.section	.rodata.lr1_stack_mac_tx_radio_start.str1.1,"aMS",%progbits,1
 1085              	.LC20:
 1086 0000 1B5B303B 		.ascii	"\033[0;31mERROR: -> TX MODULATION NOT SUPPORTED\012"
 1086      33316D45 
 1086      52524F52 
 1086      3A202D3E 
 1086      20545820 
 1087 002d 0D00     		.ascii	"\015\000"
 1088              	.LC22:
 1089 002f 1B5B303B 		.ascii	"\033[0;31mERROR: -> \000"
ARM GAS  /tmp/ccEvku90.s 			page 20


 1089      33316D45 
 1089      52524F52 
 1089      3A202D3E 
 1089      2000
 1090              	.LC24:
 1091 0041 52616469 		.ascii	"Radio planner hook %d is busy\012\015\000"
 1091      6F20706C 
 1091      616E6E65 
 1091      7220686F 
 1091      6F6B2025 
 1092              		.section	.text.lr1_stack_mac_tx_radio_start,"ax",%progbits
 1093              		.align	1
 1094              		.global	lr1_stack_mac_tx_radio_start
 1095              		.syntax unified
 1096              		.code	16
 1097              		.thumb_func
 1099              	lr1_stack_mac_tx_radio_start:
 1100              		@ args = 0, pretend = 0, frame = 224
 1101              		@ frame_needed = 0, uses_anonymous_args = 0
 1102 0000 F0B5     		push	{r4, r5, r6, r7, lr}
 1103 0002 0400     		movs	r4, r0
 1104 0004 BBB0     		sub	sp, sp, #236
 1105 0006 8422     		movs	r2, #132
 1106 0008 0021     		movs	r1, #0
 1107 000a 19A8     		add	r0, sp, #100
 1108 000c 07AE     		add	r6, sp, #28
 1109 000e FFF7FEFF 		bl	memset
 1110 0012 1C22     		movs	r2, #28
 1111 0014 0021     		movs	r1, #0
 1112 0016 3000     		movs	r0, r6
 1113 0018 FFF7FEFF 		bl	memset
 1114 001c 2700     		movs	r7, r4
 1115 001e 0023     		movs	r3, #0
 1116 0020 4E37     		adds	r7, r7, #78
 1117 0022 0693     		str	r3, [sp, #24]
 1118 0024 2000     		movs	r0, r4
 1119 0026 3978     		ldrb	r1, [r7]
 1120 0028 FFF7FEFF 		bl	smtc_real_get_modulation_type_from_datarate
 1121 002c 031E     		subs	r3, r0, #0
 1122 002e 0390     		str	r0, [sp, #12]
 1123 0030 00D0     		beq	.LCB1165
 1124 0032 AAE0     		b	.L155	@long jump
 1125              	.LCB1165:
 1126 0034 02AA     		add	r2, sp, #8
 1127 0036 0F33     		adds	r3, r3, #15
 1128 0038 9B18     		adds	r3, r3, r2
 1129 003a 0E22     		movs	r2, #14
 1130 003c 02A8     		add	r0, sp, #8
 1131 003e 0EAD     		add	r5, sp, #56
 1132 0040 3978     		ldrb	r1, [r7]
 1133 0042 1218     		adds	r2, r2, r0
 1134 0044 2000     		movs	r0, r4
 1135 0046 FFF7FEFF 		bl	smtc_real_lora_dr_to_sf_bw
 1136 004a 1422     		movs	r2, #20
 1137 004c 0399     		ldr	r1, [sp, #12]
 1138 004e 2800     		movs	r0, r5
 1139 0050 FFF7FEFF 		bl	memset
ARM GAS  /tmp/ccEvku90.s 			page 21


 1140 0054 9623     		movs	r3, #150
 1141 0056 DB00     		lsls	r3, r3, #3
 1142 0058 E358     		ldr	r3, [r4, r3]
 1143 005a 2000     		movs	r0, r4
 1144 005c 1193     		str	r3, [sp, #68]
 1145 005e FFF7FEFF 		bl	smtc_real_get_sync_word
 1146 0062 9622     		movs	r2, #150
 1147 0064 5021     		movs	r1, #80
 1148 0066 6874     		strb	r0, [r5, #17]
 1149 0068 D200     		lsls	r2, r2, #3
 1150 006a A258     		ldr	r2, [r4, r2]
 1151 006c 3B78     		ldrb	r3, [r7]
 1152 006e 6156     		ldrsb	r1, [r4, r1]
 1153 0070 2000     		movs	r0, r4
 1154 0072 FFF7FEFF 		bl	smtc_real_clamp_output_power_eirp_vs_freq_and_dr
 1155 0076 02AB     		add	r3, sp, #8
 1156 0078 9B7B     		ldrb	r3, [r3, #14]
 1157 007a 2874     		strb	r0, [r5, #16]
 1158 007c 2B70     		strb	r3, [r5]
 1159 007e 02AB     		add	r3, sp, #8
 1160 0080 DB7B     		ldrb	r3, [r3, #15]
 1161 0082 2000     		movs	r0, r4
 1162 0084 6B70     		strb	r3, [r5, #1]
 1163 0086 FFF7FEFF 		bl	smtc_real_get_coding_rate
 1164 008a 2F78     		ldrb	r7, [r5]
 1165 008c 6978     		ldrb	r1, [r5, #1]
 1166 008e A870     		strb	r0, [r5, #2]
 1167 0090 3800     		movs	r0, r7
 1168 0092 FFF7FEFF 		bl	ral_compute_lora_ldro
 1169 0096 3900     		movs	r1, r7
 1170 0098 E870     		strb	r0, [r5, #3]
 1171 009a 2000     		movs	r0, r4
 1172 009c FFF7FEFF 		bl	smtc_real_get_preamble_len
 1173 00a0 039B     		ldr	r3, [sp, #12]
 1174 00a2 A880     		strh	r0, [r5, #4]
 1175 00a4 AB71     		strb	r3, [r5, #6]
 1176 00a6 2300     		movs	r3, r4
 1177 00a8 7933     		adds	r3, r3, #121
 1178 00aa 1B78     		ldrb	r3, [r3]
 1179 00ac 5C21     		movs	r1, #92
 1180 00ae EB71     		strb	r3, [r5, #7]
 1181 00b0 0123     		movs	r3, #1
 1182 00b2 02AA     		add	r2, sp, #8
 1183 00b4 5218     		adds	r2, r2, r1
 1184 00b6 1370     		strb	r3, [r2]
 1185 00b8 2A00     		movs	r2, r5
 1186 00ba 2B81     		strh	r3, [r5, #8]
 1187 00bc 1AAB     		add	r3, sp, #104
 1188 00be 83CA     		ldmia	r2!, {r0, r1, r7}
 1189 00c0 83C3     		stmia	r3!, {r0, r1, r7}
 1190 00c2 03CA     		ldmia	r2!, {r0, r1}
 1191 00c4 03C3     		stmia	r3!, {r0, r1}
 1192 00c6 A14B     		ldr	r3, .L170
 1193 00c8 2900     		movs	r1, r5
 1194 00ca E258     		ldr	r2, [r4, r3]
 1195 00cc 9C23     		movs	r3, #156
 1196 00ce 1B01     		lsls	r3, r3, #4
ARM GAS  /tmp/ccEvku90.s 			page 22


 1197 00d0 D358     		ldr	r3, [r2, r3]
 1198 00d2 0FA8     		add	r0, sp, #60
 1199 00d4 A033     		adds	r3, r3, #160
 1200 00d6 1B68     		ldr	r3, [r3]
 1201 00d8 9847     		blx	r3
 1202 00da 0223     		movs	r3, #2
 1203 00dc 7370     		strb	r3, [r6, #1]
 1204 00de 9C4B     		ldr	r3, .L170+4
 1205 00e0 0690     		str	r0, [sp, #24]
 1206              	.L169:
 1207 00e2 7360     		str	r3, [r6, #4]
 1208              	.L156:
 1209 00e4 994B     		ldr	r3, .L170
 1210 00e6 2100     		movs	r1, r4
 1211 00e8 E058     		ldr	r0, [r4, r3]
 1212 00ea 0EAA     		add	r2, sp, #56
 1213 00ec FFF7FEFF 		bl	rp_hook_get_id
 1214 00f0 0028     		cmp	r0, #0
 1215 00f2 16D0     		beq	.L159
 1216 00f4 974D     		ldr	r5, .L170+8
 1217 00f6 2800     		movs	r0, r5
 1218 00f8 FFF7FEFF 		bl	smtc_modem_hal_store_crashlog
 1219 00fc 0120     		movs	r0, #1
 1220 00fe FFF7FEFF 		bl	smtc_modem_hal_set_crashlog_status
 1221 0102 2900     		movs	r1, r5
 1222 0104 9448     		ldr	r0, .L170+12
 1223 0106 FFF7FEFF 		bl	smtc_modem_hal_print_trace
 1224 010a 944D     		ldr	r5, .L170+16
 1225 010c 2800     		movs	r0, r5
 1226 010e FFF7FEFF 		bl	smtc_modem_hal_print_trace
 1227 0112 9348     		ldr	r0, .L170+20
 1228 0114 FFF7FEFF 		bl	smtc_modem_hal_print_trace
 1229 0118 2800     		movs	r0, r5
 1230 011a FFF7FEFF 		bl	smtc_modem_hal_print_trace
 1231 011e FFF7FEFF 		bl	smtc_modem_hal_reset_mcu
 1232              	.L159:
 1233 0122 3022     		movs	r2, #48
 1234 0124 02AB     		add	r3, sp, #8
 1235 0126 9B18     		adds	r3, r3, r2
 1236 0128 1B78     		ldrb	r3, [r3]
 1237 012a 02AA     		add	r2, sp, #8
 1238 012c 1375     		strb	r3, [r2, #20]
 1239 012e 069B     		ldr	r3, [sp, #24]
 1240 0130 0D93     		str	r3, [sp, #52]
 1241 0132 8C4B     		ldr	r3, .L170+24
 1242 0134 E558     		ldr	r5, [r4, r3]
 1243 0136 FFF7FEFF 		bl	smtc_modem_hal_get_radio_tcxo_startup_delay_ms
 1244 013a A322     		movs	r2, #163
 1245 013c 0123     		movs	r3, #1
 1246 013e 2D1A     		subs	r5, r5, r0
 1247 0140 0A95     		str	r5, [sp, #40]
 1248 0142 D200     		lsls	r2, r2, #3
 1249 0144 A15C     		ldrb	r1, [r4, r2]
 1250 0146 9942     		cmp	r1, r3
 1251 0148 01D1     		bne	.L160
 1252 014a 0023     		movs	r3, #0
 1253 014c A354     		strb	r3, [r4, r2]
ARM GAS  /tmp/ccEvku90.s 			page 23


 1254              	.L160:
 1255 014e 02AA     		add	r2, sp, #8
 1256 0150 9377     		strb	r3, [r2, #30]
 1257 0152 0223     		movs	r3, #2
 1258 0154 844D     		ldr	r5, .L170+28
 1259 0156 19AA     		add	r2, sp, #100
 1260 0158 6355     		strb	r3, [r4, r5]
 1261 015a 2300     		movs	r3, r4
 1262 015c 7933     		adds	r3, r3, #121
 1263 015e 1B78     		ldrb	r3, [r3]
 1264 0160 0092     		str	r2, [sp]
 1265 0162 2200     		movs	r2, r4
 1266 0164 7948     		ldr	r0, .L170
 1267 0166 7A32     		adds	r2, r2, #122
 1268 0168 2058     		ldr	r0, [r4, r0]
 1269 016a 07A9     		add	r1, sp, #28
 1270 016c FFF7FEFF 		bl	rp_task_enqueue
 1271 0170 0028     		cmp	r0, #0
 1272 0172 08D0     		beq	.L154
 1273 0174 0623     		movs	r3, #6
 1274 0176 3022     		movs	r2, #48
 1275 0178 6355     		strb	r3, [r4, r5]
 1276 017a 02AB     		add	r3, sp, #8
 1277 017c 9B18     		adds	r3, r3, r2
 1278 017e 1978     		ldrb	r1, [r3]
 1279 0180 7A48     		ldr	r0, .L170+32
 1280 0182 FFF7FEFF 		bl	smtc_modem_hal_print_trace
 1281              	.L154:
 1282 0186 3BB0     		add	sp, sp, #236
 1283              		@ sp needed
 1284 0188 F0BD     		pop	{r4, r5, r6, r7, pc}
 1285              	.L155:
 1286 018a 039B     		ldr	r3, [sp, #12]
 1287 018c 012B     		cmp	r3, #1
 1288 018e 62D1     		bne	.L157
 1289 0190 02AA     		add	r2, sp, #8
 1290 0192 0E33     		adds	r3, r3, #14
 1291 0194 9B18     		adds	r3, r3, r2
 1292 0196 0EAD     		add	r5, sp, #56
 1293 0198 3978     		ldrb	r1, [r7]
 1294 019a 1A00     		movs	r2, r3
 1295 019c 2000     		movs	r0, r4
 1296 019e FFF7FEFF 		bl	smtc_real_fsk_dr_to_bitrate
 1297 01a2 0021     		movs	r1, #0
 1298 01a4 2C22     		movs	r2, #44
 1299 01a6 2800     		movs	r0, r5
 1300 01a8 FFF7FEFF 		bl	memset
 1301 01ac 5A23     		movs	r3, #90
 1302 01ae 02AA     		add	r2, sp, #8
 1303 01b0 9B18     		adds	r3, r3, r2
 1304 01b2 039A     		ldr	r2, [sp, #12]
 1305 01b4 2000     		movs	r0, r4
 1306 01b6 1A70     		strb	r2, [r3]
 1307 01b8 6D4B     		ldr	r3, .L170+36
 1308 01ba 2B85     		strh	r3, [r5, #40]
 1309 01bc 6D4B     		ldr	r3, .L170+40
 1310 01be 1793     		str	r3, [sp, #92]
ARM GAS  /tmp/ccEvku90.s 			page 24


 1311 01c0 9623     		movs	r3, #150
 1312 01c2 DB00     		lsls	r3, r3, #3
 1313 01c4 E358     		ldr	r3, [r4, r3]
 1314 01c6 1693     		str	r3, [sp, #88]
 1315 01c8 FFF7FEFF 		bl	smtc_real_get_gfsk_sync_word
 1316 01cc 9622     		movs	r2, #150
 1317 01ce 5021     		movs	r1, #80
 1318 01d0 1590     		str	r0, [sp, #84]
 1319 01d2 D200     		lsls	r2, r2, #3
 1320 01d4 3B78     		ldrb	r3, [r7]
 1321 01d6 6156     		ldrsb	r1, [r4, r1]
 1322 01d8 A258     		ldr	r2, [r4, r2]
 1323 01da 2000     		movs	r0, r4
 1324 01dc FFF7FEFF 		bl	smtc_real_clamp_output_power_eirp_vs_freq_and_dr
 1325 01e0 5B23     		movs	r3, #91
 1326 01e2 02AA     		add	r2, sp, #8
 1327 01e4 9B18     		adds	r3, r3, r2
 1328 01e6 1870     		strb	r0, [r3]
 1329 01e8 039B     		ldr	r3, [sp, #12]
 1330 01ea 0422     		movs	r2, #4
 1331 01ec 6B75     		strb	r3, [r5, #21]
 1332 01ee 2300     		movs	r3, r4
 1333 01f0 7933     		adds	r3, r3, #121
 1334 01f2 1B78     		ldrb	r3, [r3]
 1335 01f4 EA75     		strb	r2, [r5, #23]
 1336 01f6 AB75     		strb	r3, [r5, #22]
 1337 01f8 2823     		movs	r3, #40
 1338 01fa 2B82     		strh	r3, [r5, #16]
 1339 01fc 103B     		subs	r3, r3, #16
 1340 01fe EB74     		strb	r3, [r5, #19]
 1341 0200 039B     		ldr	r3, [sp, #12]
 1342 0202 2B76     		strb	r3, [r5, #24]
 1343 0204 5C4B     		ldr	r3, .L170+44
 1344 0206 0F93     		str	r3, [sp, #60]
 1345 0208 02AB     		add	r3, sp, #8
 1346 020a D97B     		ldrb	r1, [r3, #15]
 1347 020c FA23     		movs	r3, #250
 1348 020e 9B00     		lsls	r3, r3, #2
 1349 0210 4B43     		muls	r3, r1
 1350 0212 0E93     		str	r3, [sp, #56]
 1351 0214 594B     		ldr	r3, .L170+48
 1352 0216 1093     		str	r3, [sp, #64]
 1353 0218 2A73     		strb	r2, [r5, #12]
 1354 021a 02AB     		add	r3, sp, #8
 1355 021c 5832     		adds	r2, r2, #88
 1356 021e 9B18     		adds	r3, r3, r2
 1357 0220 0022     		movs	r2, #0
 1358 0222 1A70     		strb	r2, [r3]
 1359 0224 2A00     		movs	r2, r5
 1360 0226 1AAB     		add	r3, sp, #104
 1361 0228 83CA     		ldmia	r2!, {r0, r1, r7}
 1362 022a 83C3     		stmia	r3!, {r0, r1, r7}
 1363 022c 83CA     		ldmia	r2!, {r0, r1, r7}
 1364 022e 83C3     		stmia	r3!, {r0, r1, r7}
 1365 0230 83CA     		ldmia	r2!, {r0, r1, r7}
 1366 0232 83C3     		stmia	r3!, {r0, r1, r7}
 1367 0234 03CA     		ldmia	r2!, {r0, r1}
ARM GAS  /tmp/ccEvku90.s 			page 25


 1368 0236 03C3     		stmia	r3!, {r0, r1}
 1369 0238 444B     		ldr	r3, .L170
 1370 023a 2900     		movs	r1, r5
 1371 023c E258     		ldr	r2, [r4, r3]
 1372 023e 9C23     		movs	r3, #156
 1373 0240 1B01     		lsls	r3, r3, #4
 1374 0242 D358     		ldr	r3, [r2, r3]
 1375 0244 12A8     		add	r0, sp, #72
 1376 0246 A433     		adds	r3, r3, #164
 1377 0248 1B68     		ldr	r3, [r3]
 1378 024a 9847     		blx	r3
 1379 024c 0323     		movs	r3, #3
 1380 024e 0690     		str	r0, [sp, #24]
 1381 0250 7370     		strb	r3, [r6, #1]
 1382 0252 4B4B     		ldr	r3, .L170+52
 1383 0254 45E7     		b	.L169
 1384              	.L157:
 1385 0256 039B     		ldr	r3, [sp, #12]
 1386 0258 022B     		cmp	r3, #2
 1387 025a 5ED1     		bne	.L158
 1388 025c 02AA     		add	r2, sp, #8
 1389 025e 0D33     		adds	r3, r3, #13
 1390 0260 9B18     		adds	r3, r3, r2
 1391 0262 0E22     		movs	r2, #14
 1392 0264 02A8     		add	r0, sp, #8
 1393 0266 0EAD     		add	r5, sp, #56
 1394 0268 3978     		ldrb	r1, [r7]
 1395 026a 1218     		adds	r2, r2, r0
 1396 026c 2000     		movs	r0, r4
 1397 026e FFF7FEFF 		bl	smtc_real_lr_fhss_dr_to_cr_bw
 1398 0272 1822     		movs	r2, #24
 1399 0274 0021     		movs	r1, #0
 1400 0276 2800     		movs	r0, r5
 1401 0278 FFF7FEFF 		bl	memset
 1402 027c 9622     		movs	r2, #150
 1403 027e 5021     		movs	r1, #80
 1404 0280 D200     		lsls	r2, r2, #3
 1405 0282 3B78     		ldrb	r3, [r7]
 1406 0284 6156     		ldrsb	r1, [r4, r1]
 1407 0286 A258     		ldr	r2, [r4, r2]
 1408 0288 2000     		movs	r0, r4
 1409 028a FFF7FEFF 		bl	smtc_real_clamp_output_power_eirp_vs_freq_and_dr
 1410 028e 9C22     		movs	r2, #156
 1411 0290 2E4B     		ldr	r3, .L170
 1412 0292 2875     		strb	r0, [r5, #20]
 1413 0294 E358     		ldr	r3, [r4, r3]
 1414 0296 1201     		lsls	r2, r2, #4
 1415 0298 9B58     		ldr	r3, [r3, r2]
 1416 029a 1900     		movs	r1, r3
 1417 029c D831     		adds	r1, r1, #216
 1418 029e 0A68     		ldr	r2, [r1]
 1419 02a0 1868     		ldr	r0, [r3]
 1420 02a2 2900     		movs	r1, r5
 1421 02a4 9047     		blx	r2
 1422 02a6 0100     		movs	r1, r0
 1423 02a8 0020     		movs	r0, #0
 1424 02aa FFF7FEFF 		bl	smtc_modem_hal_get_random_nb_in_range
ARM GAS  /tmp/ccEvku90.s 			page 26


 1425 02ae 0021     		movs	r1, #0
 1426 02b0 E882     		strh	r0, [r5, #22]
 1427 02b2 02A8     		add	r0, sp, #8
 1428 02b4 837B     		ldrb	r3, [r0, #14]
 1429 02b6 2971     		strb	r1, [r5, #4]
 1430 02b8 6B71     		strb	r3, [r5, #5]
 1431 02ba 2000     		movs	r0, r4
 1432 02bc 0F00     		movs	r7, r1
 1433 02be FFF7FEFF 		bl	smtc_real_lr_fhss_get_grid
 1434 02c2 0123     		movs	r3, #1
 1435 02c4 A871     		strb	r0, [r5, #6]
 1436 02c6 02A8     		add	r0, sp, #8
 1437 02c8 2B72     		strb	r3, [r5, #8]
 1438 02ca C37B     		ldrb	r3, [r0, #15]
 1439 02cc 807B     		ldrb	r0, [r0, #14]
 1440 02ce EB71     		strb	r3, [r5, #7]
 1441 02d0 FFF7FEFF 		bl	smtc_real_lr_fhss_get_header_count
 1442 02d4 6872     		strb	r0, [r5, #9]
 1443 02d6 2000     		movs	r0, r4
 1444 02d8 FFF7FEFF 		bl	smtc_real_get_lr_fhss_sync_word
 1445 02dc 9622     		movs	r2, #150
 1446 02de D200     		lsls	r2, r2, #3
 1447 02e0 A358     		ldr	r3, [r4, r2]
 1448 02e2 2A00     		movs	r2, r5
 1449 02e4 0E90     		str	r0, [sp, #56]
 1450 02e6 1193     		str	r3, [sp, #68]
 1451 02e8 2F74     		strb	r7, [r5, #16]
 1452 02ea 1AAB     		add	r3, sp, #104
 1453 02ec 83CA     		ldmia	r2!, {r0, r1, r7}
 1454 02ee 83C3     		stmia	r3!, {r0, r1, r7}
 1455 02f0 83CA     		ldmia	r2!, {r0, r1, r7}
 1456 02f2 83C3     		stmia	r3!, {r0, r1, r7}
 1457 02f4 9C22     		movs	r2, #156
 1458 02f6 154B     		ldr	r3, .L170
 1459 02f8 1201     		lsls	r2, r2, #4
 1460 02fa E358     		ldr	r3, [r4, r3]
 1461 02fc 2900     		movs	r1, r5
 1462 02fe 9858     		ldr	r0, [r3, r2]
 1463 0300 2300     		movs	r3, r4
 1464 0302 7933     		adds	r3, r3, #121
 1465 0304 1A78     		ldrb	r2, [r3]
 1466 0306 0300     		movs	r3, r0
 1467 0308 D433     		adds	r3, r3, #212
 1468 030a 1F68     		ldr	r7, [r3]
 1469 030c 0068     		ldr	r0, [r0]
 1470 030e 06AB     		add	r3, sp, #24
 1471 0310 B847     		blx	r7
 1472 0312 0423     		movs	r3, #4
 1473 0314 7370     		strb	r3, [r6, #1]
 1474 0316 1B4B     		ldr	r3, .L170+56
 1475 0318 E3E6     		b	.L169
 1476              	.L158:
 1477 031a 0E4D     		ldr	r5, .L170+8
 1478 031c 2800     		movs	r0, r5
 1479 031e FFF7FEFF 		bl	smtc_modem_hal_store_crashlog
 1480 0322 0120     		movs	r0, #1
 1481 0324 FFF7FEFF 		bl	smtc_modem_hal_set_crashlog_status
ARM GAS  /tmp/ccEvku90.s 			page 27


 1482 0328 2900     		movs	r1, r5
 1483 032a 0B48     		ldr	r0, .L170+12
 1484 032c FFF7FEFF 		bl	smtc_modem_hal_print_trace
 1485 0330 0A4D     		ldr	r5, .L170+16
 1486 0332 2800     		movs	r0, r5
 1487 0334 FFF7FEFF 		bl	smtc_modem_hal_print_trace
 1488 0338 1348     		ldr	r0, .L170+60
 1489 033a FFF7FEFF 		bl	smtc_modem_hal_print_trace
 1490 033e 2800     		movs	r0, r5
 1491 0340 FFF7FEFF 		bl	smtc_modem_hal_print_trace
 1492 0344 FFF7FEFF 		bl	smtc_modem_hal_reset_mcu
 1493 0348 CCE6     		b	.L156
 1494              	.L171:
 1495 034a C046     		.align	2
 1496              	.L170:
 1497 034c BC040000 		.word	1212
 1498 0350 00000000 		.word	lr1_stack_mac_tx_lora_launch_callback_for_rp
 1499 0354 00000000 		.word	__func__.7
 1500 0358 00000000 		.word	.LC6
 1501 035c 1E000000 		.word	.LC8
 1502 0360 2F000000 		.word	.LC22
 1503 0364 14050000 		.word	1300
 1504 0368 BB040000 		.word	1211
 1505 036c 41000000 		.word	.LC24
 1506 0370 FF010000 		.word	511
 1507 0374 0F1D2110 		.word	270605583
 1508 0378 A8610000 		.word	25000
 1509 037c A0860100 		.word	100000
 1510 0380 00000000 		.word	lr1_stack_mac_tx_gfsk_launch_callback_for_rp
 1511 0384 00000000 		.word	lr1_stack_mac_tx_lr_fhss_launch_callback_for_rp
 1512 0388 00000000 		.word	.LC20
 1514              		.section	.text.lr1_stack_mac_tx_radio_free_lbt,"ax",%progbits
 1515              		.align	1
 1516              		.global	lr1_stack_mac_tx_radio_free_lbt
 1517              		.syntax unified
 1518              		.code	16
 1519              		.thumb_func
 1521              	lr1_stack_mac_tx_radio_free_lbt:
 1522              		@ args = 0, pretend = 0, frame = 0
 1523              		@ frame_needed = 0, uses_anonymous_args = 0
 1524 0000 0222     		movs	r2, #2
 1525 0002 10B5     		push	{r4, lr}
 1526 0004 0400     		movs	r4, r0
 1527              		@ sp needed
 1528 0006 094B     		ldr	r3, .L173
 1529 0008 C254     		strb	r2, [r0, r3]
 1530 000a FFF7FEFF 		bl	smtc_modem_hal_get_time_in_ms
 1531 000e 084B     		ldr	r3, .L173+4
 1532 0010 E258     		ldr	r2, [r4, r3]
 1533 0012 084B     		ldr	r3, .L173+8
 1534 0014 D358     		ldr	r3, [r2, r3]
 1535 0016 084A     		ldr	r2, .L173+12
 1536 0018 1B18     		adds	r3, r3, r0
 1537 001a A350     		str	r3, [r4, r2]
 1538 001c A323     		movs	r3, #163
 1539 001e 0122     		movs	r2, #1
 1540 0020 DB00     		lsls	r3, r3, #3
ARM GAS  /tmp/ccEvku90.s 			page 28


 1541 0022 2000     		movs	r0, r4
 1542 0024 E254     		strb	r2, [r4, r3]
 1543 0026 FFF7FEFF 		bl	lr1_stack_mac_tx_radio_start
 1544 002a 10BD     		pop	{r4, pc}
 1545              	.L174:
 1546              		.align	2
 1547              	.L173:
 1548 002c BB040000 		.word	1211
 1549 0030 BC040000 		.word	1212
 1550 0034 C4090000 		.word	2500
 1551 0038 14050000 		.word	1300
 1553              		.section	.rodata.lr1_stack_mac_rx_radio_start.str1.1,"aMS",%progbits,1
 1554              	.LC31:
 1555 0000 1B5B303B 		.ascii	"\033[0;31mERROR: -> RX windows unknow\012\015\000"
 1555      33316D45 
 1555      52524F52 
 1555      3A202D3E 
 1555      20525820 
 1556              	.LC33:
 1557 0025 1B5B303B 		.ascii	"\033[0;31mERROR: -> MODULATION NOT SUPPORTED\012\015"
 1557      33316D45 
 1557      52524F52 
 1557      3A202D3E 
 1557      204D4F44 
 1558 0050 00       		.ascii	"\000"
 1559              	.LC36:
 1560 0051 0A0D2020 		.ascii	"\012\015  Open RX%d for Hook Id = %d\000"
 1560      4F70656E 
 1560      20525825 
 1560      6420666F 
 1560      7220486F 
 1561              	.LC40:
 1562 0070 20202573 		.ascii	"  %s LoRa at %u ms: freq:%u, SF%u, %s, sync word = "
 1562      204C6F52 
 1562      61206174 
 1562      20257520 
 1562      6D733A20 
 1563 00a3 30782530 		.ascii	"0x%02x\012\015\000"
 1563      32780A0D 
 1563      00
 1564              	.LC42:
 1565 00ac 20202573 		.ascii	"  %s FSK freq:%d\012\015\000"
 1565      2046534B 
 1565      20667265 
 1565      713A2564 
 1565      0A0D00
 1566              		.section	.text.lr1_stack_mac_rx_radio_start,"ax",%progbits
 1567              		.align	1
 1568              		.global	lr1_stack_mac_rx_radio_start
 1569              		.syntax unified
 1570              		.code	16
 1571              		.thumb_func
 1573              	lr1_stack_mac_rx_radio_start:
 1574              		@ args = 0, pretend = 0, frame = 200
 1575              		@ frame_needed = 0, uses_anonymous_args = 0
 1576 0000 9723     		movs	r3, #151
 1577 0002 F0B5     		push	{r4, r5, r6, r7, lr}
ARM GAS  /tmp/ccEvku90.s 			page 29


 1578 0004 B7B0     		sub	sp, sp, #220
 1579 0006 DB00     		lsls	r3, r3, #3
 1580 0008 0591     		str	r1, [sp, #20]
 1581 000a 0692     		str	r2, [sp, #24]
 1582 000c C55C     		ldrb	r5, [r0, r3]
 1583 000e 0400     		movs	r4, r0
 1584 0010 2900     		movs	r1, r5
 1585 0012 FFF7FEFF 		bl	smtc_real_get_modulation_type_from_datarate
 1586 0016 8422     		movs	r2, #132
 1587 0018 0600     		movs	r6, r0
 1588 001a 0021     		movs	r1, #0
 1589 001c 15A8     		add	r0, sp, #84
 1590 001e FFF7FEFF 		bl	memset
 1591 0022 A24B     		ldr	r3, .L194
 1592 0024 059A     		ldr	r2, [sp, #20]
 1593 0026 E254     		strb	r2, [r4, r3]
 1594 0028 002A     		cmp	r2, #0
 1595 002a 1BD0     		beq	.L176
 1596 002c 012A     		cmp	r2, #1
 1597 002e 00D1     		bne	.LCB1688
 1598 0030 D5E0     		b	.L177	@long jump
 1599              	.LCB1688:
 1600 0032 9F4F     		ldr	r7, .L194+4
 1601 0034 3800     		movs	r0, r7
 1602 0036 FFF7FEFF 		bl	smtc_modem_hal_store_crashlog
 1603 003a 0120     		movs	r0, #1
 1604 003c FFF7FEFF 		bl	smtc_modem_hal_set_crashlog_status
 1605 0040 3900     		movs	r1, r7
 1606 0042 9C48     		ldr	r0, .L194+8
 1607 0044 FFF7FEFF 		bl	smtc_modem_hal_print_trace
 1608 0048 9B4F     		ldr	r7, .L194+12
 1609 004a 3800     		movs	r0, r7
 1610 004c FFF7FEFF 		bl	smtc_modem_hal_print_trace
 1611 0050 9A48     		ldr	r0, .L194+16
 1612 0052 FFF7FEFF 		bl	smtc_modem_hal_print_trace
 1613 0056 3800     		movs	r0, r7
 1614 0058 FFF7FEFF 		bl	smtc_modem_hal_print_trace
 1615 005c 0027     		movs	r7, #0
 1616 005e FFF7FEFF 		bl	smtc_modem_hal_reset_mcu
 1617 0062 01E0     		b	.L179
 1618              	.L176:
 1619 0064 964B     		ldr	r3, .L194+20
 1620 0066 E758     		ldr	r7, [r4, r3]
 1621              	.L179:
 1622 0068 002E     		cmp	r6, #0
 1623 006a 00D0     		beq	.LCB1716
 1624 006c B9E0     		b	.L180	@long jump
 1625              	.LCB1716:
 1626 006e 1723     		movs	r3, #23
 1627 0070 04AA     		add	r2, sp, #16
 1628 0072 9B18     		adds	r3, r3, r2
 1629 0074 1622     		movs	r2, #22
 1630 0076 04A9     		add	r1, sp, #16
 1631 0078 5218     		adds	r2, r2, r1
 1632 007a 2000     		movs	r0, r4
 1633 007c 2900     		movs	r1, r5
 1634 007e 0AAD     		add	r5, sp, #40
ARM GAS  /tmp/ccEvku90.s 			page 30


 1635 0080 FFF7FEFF 		bl	smtc_real_lora_dr_to_sf_bw
 1636 0084 1422     		movs	r2, #20
 1637 0086 3100     		movs	r1, r6
 1638 0088 2800     		movs	r0, r5
 1639 008a FFF7FEFF 		bl	memset
 1640 008e 2000     		movs	r0, r4
 1641 0090 FFF7FEFF 		bl	smtc_real_get_sync_word
 1642 0094 8B4B     		ldr	r3, .L194+24
 1643 0096 6874     		strb	r0, [r5, #17]
 1644 0098 E35A     		ldrh	r3, [r4, r3]
 1645 009a 2000     		movs	r0, r4
 1646 009c AB74     		strb	r3, [r5, #18]
 1647 009e 0D97     		str	r7, [sp, #52]
 1648 00a0 FFF7FEFF 		bl	smtc_real_get_coding_rate
 1649 00a4 04AB     		add	r3, sp, #16
 1650 00a6 9F7D     		ldrb	r7, [r3, #22]
 1651 00a8 DE7D     		ldrb	r6, [r3, #23]
 1652 00aa 0790     		str	r0, [sp, #28]
 1653 00ac 3100     		movs	r1, r6
 1654 00ae 3800     		movs	r0, r7
 1655 00b0 FFF7FEFF 		bl	ral_compute_lora_ldro
 1656 00b4 079B     		ldr	r3, [sp, #28]
 1657 00b6 3602     		lsls	r6, r6, #8
 1658 00b8 1B04     		lsls	r3, r3, #16
 1659 00ba 3E43     		orrs	r6, r7
 1660 00bc 1E43     		orrs	r6, r3
 1661 00be 3602     		lsls	r6, r6, #8
 1662 00c0 814B     		ldr	r3, .L194+28
 1663 00c2 0006     		lsls	r0, r0, #24
 1664 00c4 360A     		lsrs	r6, r6, #8
 1665 00c6 0643     		orrs	r6, r0
 1666 00c8 0A96     		str	r6, [sp, #40]
 1667 00ca EB80     		strh	r3, [r5, #6]
 1668 00cc 8023     		movs	r3, #128
 1669 00ce 5B00     		lsls	r3, r3, #1
 1670 00d0 3900     		movs	r1, r7
 1671 00d2 2B81     		strh	r3, [r5, #8]
 1672 00d4 2000     		movs	r0, r4
 1673 00d6 FFF7FEFF 		bl	smtc_real_get_preamble_len
 1674 00da 0123     		movs	r3, #1
 1675 00dc 15AA     		add	r2, sp, #84
 1676 00de 1370     		strb	r3, [r2]
 1677 00e0 A880     		strh	r0, [r5, #4]
 1678 00e2 21AB     		add	r3, sp, #132
 1679 00e4 43CD     		ldmia	r5!, {r0, r1, r6}
 1680 00e6 43C3     		stmia	r3!, {r0, r1, r6}
 1681 00e8 03CD     		ldmia	r5!, {r0, r1}
 1682 00ea 03C3     		stmia	r3!, {r0, r1}
 1683 00ec 774B     		ldr	r3, .L194+32
 1684              	.L193:
 1685 00ee E358     		ldr	r3, [r4, r3]
 1686 00f0 2C93     		str	r3, [sp, #176]
 1687              	.L181:
 1688 00f2 1725     		movs	r5, #23
 1689 00f4 764F     		ldr	r7, .L194+36
 1690 00f6 04AB     		add	r3, sp, #16
 1691 00f8 ED18     		adds	r5, r5, r3
ARM GAS  /tmp/ccEvku90.s 			page 31


 1692 00fa 2A00     		movs	r2, r5
 1693 00fc 2100     		movs	r1, r4
 1694 00fe E059     		ldr	r0, [r4, r7]
 1695 0100 FFF7FEFF 		bl	rp_hook_get_id
 1696 0104 0028     		cmp	r0, #0
 1697 0106 16D0     		beq	.L183
 1698 0108 694E     		ldr	r6, .L194+4
 1699 010a 3000     		movs	r0, r6
 1700 010c FFF7FEFF 		bl	smtc_modem_hal_store_crashlog
 1701 0110 0120     		movs	r0, #1
 1702 0112 FFF7FEFF 		bl	smtc_modem_hal_set_crashlog_status
 1703 0116 3100     		movs	r1, r6
 1704 0118 6648     		ldr	r0, .L194+8
 1705 011a FFF7FEFF 		bl	smtc_modem_hal_print_trace
 1706 011e 664E     		ldr	r6, .L194+12
 1707 0120 3000     		movs	r0, r6
 1708 0122 FFF7FEFF 		bl	smtc_modem_hal_print_trace
 1709 0126 6B48     		ldr	r0, .L194+40
 1710 0128 FFF7FEFF 		bl	smtc_modem_hal_print_trace
 1711 012c 3000     		movs	r0, r6
 1712 012e FFF7FEFF 		bl	smtc_modem_hal_print_trace
 1713 0132 FFF7FEFF 		bl	smtc_modem_hal_reset_mcu
 1714              	.L183:
 1715 0136 1A20     		movs	r0, #26
 1716 0138 04AB     		add	r3, sp, #16
 1717 013a 0021     		movs	r1, #0
 1718 013c 1622     		movs	r2, #22
 1719 013e C018     		adds	r0, r0, r3
 1720 0140 FFF7FEFF 		bl	memset
 1721 0144 2B78     		ldrb	r3, [r5]
 1722 0146 04AA     		add	r2, sp, #16
 1723 0148 1376     		strb	r3, [r2, #24]
 1724 014a 15AB     		add	r3, sp, #84
 1725 014c 1A78     		ldrb	r2, [r3]
 1726 014e 531E     		subs	r3, r2, #1
 1727 0150 591E     		subs	r1, r3, #1
 1728 0152 8B41     		sbcs	r3, r3, r1
 1729 0154 04A9     		add	r1, sp, #16
 1730 0156 4B76     		strb	r3, [r1, #25]
 1731 0158 5F4B     		ldr	r3, .L194+44
 1732 015a 012A     		cmp	r2, #1
 1733 015c 00D1     		bne	.L184
 1734 015e 5F4B     		ldr	r3, .L194+48
 1735              	.L184:
 1736 0160 0B93     		str	r3, [sp, #44]
 1737 0162 069B     		ldr	r3, [sp, #24]
 1738 0164 8422     		movs	r2, #132
 1739 0166 0D93     		str	r3, [sp, #52]
 1740 0168 9923     		movs	r3, #153
 1741 016a DB00     		lsls	r3, r3, #3
 1742 016c E358     		ldr	r3, [r4, r3]
 1743 016e 15AE     		add	r6, sp, #84
 1744 0170 0096     		str	r6, [sp]
 1745 0172 9200     		lsls	r2, r2, #2
 1746 0174 1093     		str	r3, [sp, #64]
 1747 0176 E059     		ldr	r0, [r4, r7]
 1748 0178 FF23     		movs	r3, #255
ARM GAS  /tmp/ccEvku90.s 			page 32


 1749 017a A218     		adds	r2, r4, r2
 1750 017c 0AA9     		add	r1, sp, #40
 1751 017e FFF7FEFF 		bl	rp_task_enqueue
 1752 0182 574B     		ldr	r3, .L194+52
 1753 0184 0028     		cmp	r0, #0
 1754 0186 00D0     		beq	.LCB1857
 1755 0188 88E0     		b	.L185	@long jump
 1756              	.LCB1857:
 1757 018a 0422     		movs	r2, #4
 1758 018c E254     		strb	r2, [r4, r3]
 1759 018e 059B     		ldr	r3, [sp, #20]
 1760 0190 2A78     		ldrb	r2, [r5]
 1761 0192 591C     		adds	r1, r3, #1
 1762 0194 5348     		ldr	r0, .L194+56
 1763 0196 FFF7FEFF 		bl	smtc_modem_hal_print_trace
 1764 019a 059B     		ldr	r3, [sp, #20]
 1765 019c 3278     		ldrb	r2, [r6]
 1766 019e 5249     		ldr	r1, .L194+60
 1767 01a0 9B00     		lsls	r3, r3, #2
 1768 01a2 012A     		cmp	r2, #1
 1769 01a4 00D0     		beq	.LCB1870
 1770 01a6 73E0     		b	.L186	@long jump
 1771              	.LCB1870:
 1772 01a8 CB58     		ldr	r3, [r1, r3]
 1773 01aa 7432     		adds	r2, r2, #116
 1774 01ac 04A9     		add	r1, sp, #16
 1775 01ae 0593     		str	r3, [sp, #20]
 1776 01b0 5218     		adds	r2, r2, r1
 1777 01b2 1278     		ldrb	r2, [r2]
 1778 01b4 21AB     		add	r3, sp, #132
 1779 01b6 F56B     		ldr	r5, [r6, #60]
 1780 01b8 1E78     		ldrb	r6, [r3]
 1781 01ba 4C4B     		ldr	r3, .L194+64
 1782 01bc 9200     		lsls	r2, r2, #2
 1783 01be 2000     		movs	r0, r4
 1784 01c0 D758     		ldr	r7, [r2, r3]
 1785 01c2 FFF7FEFF 		bl	smtc_real_get_sync_word
 1786 01c6 4A4C     		ldr	r4, .L194+68
 1787 01c8 0290     		str	r0, [sp, #8]
 1788 01ca 2B00     		movs	r3, r5
 1789 01cc 2000     		movs	r0, r4
 1790 01ce 069A     		ldr	r2, [sp, #24]
 1791 01d0 0599     		ldr	r1, [sp, #20]
 1792 01d2 0197     		str	r7, [sp, #4]
 1793 01d4 0096     		str	r6, [sp]
 1794 01d6 FFF7FEFF 		bl	smtc_modem_hal_print_trace
 1795              	.L175:
 1796 01da 37B0     		add	sp, sp, #220
 1797              		@ sp needed
 1798 01dc F0BD     		pop	{r4, r5, r6, r7, pc}
 1799              	.L177:
 1800 01de 676D     		ldr	r7, [r4, #84]
 1801 01e0 42E7     		b	.L179
 1802              	.L180:
 1803 01e2 012E     		cmp	r6, #1
 1804 01e4 3CD1     		bne	.L182
 1805 01e6 1723     		movs	r3, #23
ARM GAS  /tmp/ccEvku90.s 			page 33


 1806 01e8 04AA     		add	r2, sp, #16
 1807 01ea 9B18     		adds	r3, r3, r2
 1808 01ec 1A00     		movs	r2, r3
 1809 01ee 2900     		movs	r1, r5
 1810 01f0 2000     		movs	r0, r4
 1811 01f2 0AAD     		add	r5, sp, #40
 1812 01f4 FFF7FEFF 		bl	smtc_real_fsk_dr_to_bitrate
 1813 01f8 0021     		movs	r1, #0
 1814 01fa 2C22     		movs	r2, #44
 1815 01fc 2800     		movs	r0, r5
 1816 01fe FFF7FEFF 		bl	memset
 1817 0202 2000     		movs	r0, r4
 1818 0204 1297     		str	r7, [sp, #72]
 1819 0206 FFF7FEFF 		bl	smtc_real_get_gfsk_sync_word
 1820 020a 4223     		movs	r3, #66
 1821 020c 04AA     		add	r2, sp, #16
 1822 020e 9B18     		adds	r3, r3, r2
 1823 0210 1190     		str	r0, [sp, #68]
 1824 0212 1E70     		strb	r6, [r3]
 1825 0214 374B     		ldr	r3, .L194+72
 1826 0216 D27D     		ldrb	r2, [r2, #23]
 1827 0218 2B85     		strh	r3, [r5, #40]
 1828 021a 374B     		ldr	r3, .L194+76
 1829 021c 1393     		str	r3, [sp, #76]
 1830 021e 2823     		movs	r3, #40
 1831 0220 2B82     		strh	r3, [r5, #16]
 1832 0222 103B     		subs	r3, r3, #16
 1833 0224 EB74     		strb	r3, [r5, #19]
 1834 0226 354B     		ldr	r3, .L194+80
 1835 0228 6E75     		strb	r6, [r5, #21]
 1836 022a EB82     		strh	r3, [r5, #22]
 1837 022c 344B     		ldr	r3, .L194+84
 1838 022e 2E76     		strb	r6, [r5, #24]
 1839 0230 0B93     		str	r3, [sp, #44]
 1840 0232 344B     		ldr	r3, .L194+88
 1841 0234 0C93     		str	r3, [sp, #48]
 1842 0236 0423     		movs	r3, #4
 1843 0238 2B73     		strb	r3, [r5, #12]
 1844 023a FA23     		movs	r3, #250
 1845 023c 9B00     		lsls	r3, r3, #2
 1846 023e 5343     		muls	r3, r2
 1847 0240 0A93     		str	r3, [sp, #40]
 1848 0242 0023     		movs	r3, #0
 1849 0244 15AA     		add	r2, sp, #84
 1850 0246 1370     		strb	r3, [r2]
 1851 0248 21AB     		add	r3, sp, #132
 1852 024a 43CD     		ldmia	r5!, {r0, r1, r6}
 1853 024c 43C3     		stmia	r3!, {r0, r1, r6}
 1854 024e 43CD     		ldmia	r5!, {r0, r1, r6}
 1855 0250 43C3     		stmia	r3!, {r0, r1, r6}
 1856 0252 43CD     		ldmia	r5!, {r0, r1, r6}
 1857 0254 43C3     		stmia	r3!, {r0, r1, r6}
 1858 0256 03CD     		ldmia	r5!, {r0, r1}
 1859 0258 03C3     		stmia	r3!, {r0, r1}
 1860 025a 9923     		movs	r3, #153
 1861 025c DB00     		lsls	r3, r3, #3
 1862 025e 46E7     		b	.L193
ARM GAS  /tmp/ccEvku90.s 			page 34


 1863              	.L182:
 1864 0260 134D     		ldr	r5, .L194+4
 1865 0262 2800     		movs	r0, r5
 1866 0264 FFF7FEFF 		bl	smtc_modem_hal_store_crashlog
 1867 0268 0120     		movs	r0, #1
 1868 026a FFF7FEFF 		bl	smtc_modem_hal_set_crashlog_status
 1869 026e 2900     		movs	r1, r5
 1870 0270 1048     		ldr	r0, .L194+8
 1871 0272 FFF7FEFF 		bl	smtc_modem_hal_print_trace
 1872 0276 104D     		ldr	r5, .L194+12
 1873 0278 2800     		movs	r0, r5
 1874 027a FFF7FEFF 		bl	smtc_modem_hal_print_trace
 1875 027e 2248     		ldr	r0, .L194+92
 1876 0280 FFF7FEFF 		bl	smtc_modem_hal_print_trace
 1877 0284 2800     		movs	r0, r5
 1878 0286 FFF7FEFF 		bl	smtc_modem_hal_print_trace
 1879 028a FFF7FEFF 		bl	smtc_modem_hal_reset_mcu
 1880 028e 30E7     		b	.L181
 1881              	.L186:
 1882 0290 1E48     		ldr	r0, .L194+96
 1883 0292 326D     		ldr	r2, [r6, #80]
 1884 0294 C958     		ldr	r1, [r1, r3]
 1885 0296 FFF7FEFF 		bl	smtc_modem_hal_print_trace
 1886 029a 9EE7     		b	.L175
 1887              	.L185:
 1888 029c 0622     		movs	r2, #6
 1889 029e 2978     		ldrb	r1, [r5]
 1890 02a0 1B48     		ldr	r0, .L194+100
 1891 02a2 E254     		strb	r2, [r4, r3]
 1892 02a4 FFF7FEFF 		bl	smtc_modem_hal_print_trace
 1893 02a8 97E7     		b	.L175
 1894              	.L195:
 1895 02aa C046     		.align	2
 1896              	.L194:
 1897 02ac BA040000 		.word	1210
 1898 02b0 00000000 		.word	__func__.6
 1899 02b4 00000000 		.word	.LC6
 1900 02b8 1E000000 		.word	.LC8
 1901 02bc 00000000 		.word	.LC31
 1902 02c0 B4040000 		.word	1204
 1903 02c4 CC040000 		.word	1228
 1904 02c8 00FFFFFF 		.word	-256
 1905 02cc C4040000 		.word	1220
 1906 02d0 BC040000 		.word	1212
 1907 02d4 2F000000 		.word	.LC22
 1908 02d8 00000000 		.word	lr1_stack_mac_rx_gfsk_launch_callback_for_rp
 1909 02dc 00000000 		.word	lr1_stack_mac_rx_lora_launch_callback_for_rp
 1910 02e0 BB040000 		.word	1211
 1911 02e4 51000000 		.word	.LC36
 1912 02e8 00000000 		.word	smtc_name_rx_windows
 1913 02ec 00000000 		.word	smtc_name_bw
 1914 02f0 70000000 		.word	.LC40
 1915 02f4 FF010000 		.word	511
 1916 02f8 0F1D2110 		.word	270605583
 1917 02fc FF040000 		.word	1279
 1918 0300 A8610000 		.word	25000
 1919 0304 A0860100 		.word	100000
ARM GAS  /tmp/ccEvku90.s 			page 35


 1920 0308 25000000 		.word	.LC33
 1921 030c AC000000 		.word	.LC42
 1922 0310 41000000 		.word	.LC24
 1924              		.section	.rodata.lr1_stack_mac_rp_callback.str1.1,"aMS",%progbits,1
 1925              	.LC45:
 1926 0000 20424144 		.ascii	" BAD Ftype = %u for RX Frame\012\015\000"
 1926      20467479 
 1926      7065203D 
 1926      20257520 
 1926      666F7220 
 1927              	.LC47:
 1928 001f 1B5B303B 		.ascii	"\033[0;32mINFO:  BAD DevAddr = %x for RX Frame and "
 1928      33326D49 
 1928      4E464F3A 
 1928      20204241 
 1928      44204465 
 1929 004f 25780A0D 		.ascii	"%x\012\015\012\015\000"
 1929      0A0D00
 1930              	.LC50:
 1931 0056 52656365 		.ascii	"Receive a packet But rejected and too late to resta"
 1931      69766520 
 1931      61207061 
 1931      636B6574 
 1931      20427574 
 1932 0089 72740A0D 		.ascii	"rt\012\015\000"
 1932      00
 1933              	.LC52:
 1934 008e 25732573 		.ascii	"%s%s\000"
 1934      00
 1935              	.LC54:
 1936 0093 52505F53 		.ascii	"RP_STATUS_RX_CRC_ERROR\012\015\000"
 1936      54415455 
 1936      535F5258 
 1936      5F435243 
 1936      5F455252 
 1937              	.LC56:
 1938 00ac 6C72316D 		.ascii	"lr1mac task aborted by the radioplanner\012\015\000"
 1938      61632074 
 1938      61736B20 
 1938      61626F72 
 1938      74656420 
 1939              	.LC58:
 1940 00d6 72656365 		.ascii	"receive It RADIO error %u\012\015\000"
 1940      69766520 
 1940      49742052 
 1940      4144494F 
 1940      20657272 
 1941              	.LC60:
 1942 00f2 1B5B303B 		.ascii	"\033[0;31mERROR: lr1_mac->planner_status %d\000"
 1942      33316D45 
 1942      52524F52 
 1942      3A206C72 
 1942      315F6D61 
 1943              		.section	.text.lr1_stack_mac_rp_callback,"ax",%progbits
 1944              		.align	1
 1945              		.global	lr1_stack_mac_rp_callback
 1946              		.syntax unified
ARM GAS  /tmp/ccEvku90.s 			page 36


 1947              		.code	16
 1948              		.thumb_func
 1950              	lr1_stack_mac_rp_callback:
 1951              		@ args = 0, pretend = 0, frame = 16
 1952              		@ frame_needed = 0, uses_anonymous_args = 0
 1953 0000 F0B5     		push	{r4, r5, r6, r7, lr}
 1954 0002 0400     		movs	r4, r0
 1955 0004 85B0     		sub	sp, sp, #20
 1956 0006 794D     		ldr	r5, .L228
 1957 0008 02AB     		add	r3, sp, #8
 1958 000a 0100     		movs	r1, r0
 1959 000c DA1C     		adds	r2, r3, #3
 1960 000e 4059     		ldr	r0, [r0, r5]
 1961 0010 FFF7FEFF 		bl	rp_hook_get_id
 1962 0014 764B     		ldr	r3, .L228+4
 1963 0016 02AA     		add	r2, sp, #8
 1964 0018 754E     		ldr	r6, .L228+4
 1965 001a D178     		ldrb	r1, [r2, #3]
 1966 001c 6059     		ldr	r0, [r4, r5]
 1967 001e E318     		adds	r3, r4, r3
 1968 0020 03AA     		add	r2, sp, #12
 1969 0022 FFF7FEFF 		bl	rp_get_status
 1970 0026 A15D     		ldrb	r1, [r4, r6]
 1971 0028 0A29     		cmp	r1, #10
 1972 002a 00D9     		bls	.LCB2065
 1973 002c ABE0     		b	.L197	@long jump
 1974              	.LCB2065:
 1975 002e 0800     		movs	r0, r1
 1976 0030 FFF7FEFF 		bl	__gnu_thumb1_case_uqi
 1977              	.L199:
 1978 0034 64       		.byte	(.L203-.L199)/2
 1979 0035 A9       		.byte	(.L197-.L199)/2
 1980 0036 A9       		.byte	(.L197-.L199)/2
 1981 0037 06       		.byte	(.L202-.L199)/2
 1982 0038 19       		.byte	(.L201-.L199)/2
 1983 0039 68       		.byte	(.L200-.L199)/2
 1984 003a A9       		.byte	(.L197-.L199)/2
 1985 003b A9       		.byte	(.L197-.L199)/2
 1986 003c A9       		.byte	(.L197-.L199)/2
 1987 003d A9       		.byte	(.L197-.L199)/2
 1988 003e A7       		.byte	(.L198-.L199)/2
 1989 003f 00       		.p2align 1
 1990              	.L202:
 1991 0040 039A     		ldr	r2, [sp, #12]
 1992 0042 6C4B     		ldr	r3, .L228+8
 1993 0044 E250     		str	r2, [r4, r3]
 1994              	.L204:
 1995 0046 6C4D     		ldr	r5, .L228+12
 1996 0048 A15D     		ldrb	r1, [r4, r6]
 1997 004a 635D     		ldrb	r3, [r4, r5]
 1998 004c 022B     		cmp	r3, #2
 1999 004e 00D1     		bne	.LCB2082
 2000 0050 9EE0     		b	.L212	@long jump
 2001              	.LCB2082:
 2002 0052 042B     		cmp	r3, #4
 2003 0054 00D1     		bne	.LCB2084
 2004 0056 A6E0     		b	.L213	@long jump
ARM GAS  /tmp/ccEvku90.s 			page 37


 2005              	.LCB2084:
 2006 0058 0A29     		cmp	r1, #10
 2007 005a 00D0     		beq	.LCB2086
 2008 005c A6E0     		b	.L216	@long jump
 2009              	.LCB2086:
 2010              	.L218:
 2011 005e 0623     		movs	r3, #6
 2012 0060 6355     		strb	r3, [r4, r5]
 2013              	.L196:
 2014 0062 05B0     		add	sp, sp, #20
 2015              		@ sp needed
 2016 0064 F0BD     		pop	{r4, r5, r6, r7, pc}
 2017              	.L201:
 2018 0066 9A23     		movs	r3, #154
 2019 0068 039A     		ldr	r2, [sp, #12]
 2020 006a DB00     		lsls	r3, r3, #3
 2021 006c E250     		str	r2, [r4, r3]
 2022 006e 02AB     		add	r3, sp, #8
 2023 0070 DA78     		ldrb	r2, [r3, #3]
 2024 0072 8423     		movs	r3, #132
 2025 0074 5343     		muls	r3, r2
 2026 0076 6159     		ldr	r1, [r4, r5]
 2027 0078 CB18     		adds	r3, r1, r3
 2028 007a 1800     		movs	r0, r3
 2029 007c 7E30     		adds	r0, r0, #126
 2030 007e 0588     		ldrh	r5, [r0]
 2031 0080 5E48     		ldr	r0, .L228+16
 2032 0082 7C33     		adds	r3, r3, #124
 2033 0084 2552     		strh	r5, [r4, r0]
 2034 0086 1888     		ldrh	r0, [r3]
 2035 0088 5D4B     		ldr	r3, .L228+20
 2036 008a 5E4D     		ldr	r5, .L228+24
 2037 008c E052     		strh	r0, [r4, r3]
 2038 008e 433B     		subs	r3, r3, #67
 2039 0090 FF3B     		subs	r3, r3, #255
 2040 0092 D218     		adds	r2, r2, r3
 2041 0094 5200     		lsls	r2, r2, #1
 2042 0096 535A     		ldrh	r3, [r2, r1]
 2043 0098 6355     		strb	r3, [r4, r5]
 2044 009a 8423     		movs	r3, #132
 2045 009c 9B00     		lsls	r3, r3, #2
 2046 009e E15C     		ldrb	r1, [r4, r3]
 2047 00a0 3C3B     		subs	r3, r3, #60
 2048 00a2 4909     		lsrs	r1, r1, #5
 2049 00a4 FF3B     		subs	r3, r3, #255
 2050 00a6 CB40     		lsrs	r3, r3, r1
 2051 00a8 DB07     		lsls	r3, r3, #31
 2052 00aa 0CD5     		bpl	.L205
 2053 00ac 5648     		ldr	r0, .L228+28
 2054 00ae FFF7FEFF 		bl	smtc_modem_hal_print_trace
 2055              	.L206:
 2056 00b2 564A     		ldr	r2, .L228+32
 2057 00b4 5649     		ldr	r1, .L228+36
 2058 00b6 5748     		ldr	r0, .L228+40
 2059 00b8 FFF7FEFF 		bl	smtc_modem_hal_print_trace
 2060 00bc 0523     		movs	r3, #5
 2061 00be A355     		strb	r3, [r4, r6]
ARM GAS  /tmp/ccEvku90.s 			page 38


 2062 00c0 0023     		movs	r3, #0
 2063 00c2 6355     		strb	r3, [r4, r5]
 2064 00c4 BFE7     		b	.L204
 2065              	.L205:
 2066 00c6 544B     		ldr	r3, .L228+44
 2067 00c8 E35C     		ldrb	r3, [r4, r3]
 2068 00ca 022B     		cmp	r3, #2
 2069 00cc BBD1     		bne	.L204
 2070 00ce 534A     		ldr	r2, .L228+48
 2071 00d0 524B     		ldr	r3, .L228+48
 2072 00d2 A118     		adds	r1, r4, r2
 2073 00d4 4A78     		ldrb	r2, [r1, #1]
 2074 00d6 E35C     		ldrb	r3, [r4, r3]
 2075 00d8 1202     		lsls	r2, r2, #8
 2076 00da 1A43     		orrs	r2, r3
 2077 00dc 8B78     		ldrb	r3, [r1, #2]
 2078 00de 1B04     		lsls	r3, r3, #16
 2079 00e0 1343     		orrs	r3, r2
 2080 00e2 CA78     		ldrb	r2, [r1, #3]
 2081 00e4 E16E     		ldr	r1, [r4, #108]
 2082 00e6 1206     		lsls	r2, r2, #24
 2083 00e8 1A43     		orrs	r2, r3
 2084 00ea 9142     		cmp	r1, r2
 2085 00ec ABD0     		beq	.L204
 2086 00ee 4C48     		ldr	r0, .L228+52
 2087 00f0 FFF7FEFF 		bl	smtc_modem_hal_print_trace
 2088 00f4 4648     		ldr	r0, .L228+36
 2089 00f6 FFF7FEFF 		bl	smtc_modem_hal_print_trace
 2090 00fa DAE7     		b	.L206
 2091              	.L203:
 2092 00fc 4948     		ldr	r0, .L228+56
 2093              	.L227:
 2094 00fe FFF7FEFF 		bl	smtc_modem_hal_print_trace
 2095 0102 A0E7     		b	.L204
 2096              	.L200:
 2097 0104 2300     		movs	r3, r4
 2098 0106 484A     		ldr	r2, .L228+60
 2099 0108 5933     		adds	r3, r3, #89
 2100 010a 1B78     		ldrb	r3, [r3]
 2101 010c A25C     		ldrb	r2, [r4, r2]
 2102 010e 591C     		adds	r1, r3, #1
 2103 0110 039D     		ldr	r5, [sp, #12]
 2104 0112 0191     		str	r1, [sp, #4]
 2105 0114 002A     		cmp	r2, #0
 2106 0116 00D1     		bne	.L210
 2107 0118 0193     		str	r3, [sp, #4]
 2108              	.L210:
 2109 011a 9922     		movs	r2, #153
 2110 011c 354B     		ldr	r3, .L228+8
 2111 011e D200     		lsls	r2, r2, #3
 2112 0120 A258     		ldr	r2, [r4, r2]
 2113 0122 E358     		ldr	r3, [r4, r3]
 2114 0124 9727     		movs	r7, #151
 2115 0126 9B18     		adds	r3, r3, r2
 2116 0128 ED1A     		subs	r5, r5, r3
 2117 012a A123     		movs	r3, #161
 2118 012c 9D22     		movs	r2, #157
ARM GAS  /tmp/ccEvku90.s 			page 39


 2119 012e DB00     		lsls	r3, r3, #3
 2120 0130 E358     		ldr	r3, [r4, r3]
 2121 0132 FF00     		lsls	r7, r7, #3
 2122 0134 ED1A     		subs	r5, r5, r3
 2123 0136 E35D     		ldrb	r3, [r4, r7]
 2124 0138 9200     		lsls	r2, r2, #2
 2125 013a 9B18     		adds	r3, r3, r2
 2126 013c 5B00     		lsls	r3, r3, #1
 2127 013e 1B5F     		ldrsh	r3, [r3, r4]
 2128 0140 ED1A     		subs	r5, r5, r3
 2129 0142 FFF7FEFF 		bl	smtc_modem_hal_get_radio_tcxo_startup_delay_ms
 2130 0146 FA23     		movs	r3, #250
 2131 0148 019A     		ldr	r2, [sp, #4]
 2132 014a 9B00     		lsls	r3, r3, #2
 2133 014c 5343     		muls	r3, r2
 2134 014e 2D1A     		subs	r5, r5, r0
 2135 0150 ED1A     		subs	r5, r5, r3
 2136 0152 FFF7FEFF 		bl	smtc_modem_hal_get_board_delay_ms
 2137 0156 281A     		subs	r0, r5, r0
 2138 0158 08D5     		bpl	.L211
 2139 015a 9D21     		movs	r1, #157
 2140 015c E35D     		ldrb	r3, [r4, r7]
 2141 015e C900     		lsls	r1, r1, #3
 2142 0160 5B00     		lsls	r3, r3, #1
 2143 0162 E318     		adds	r3, r4, r3
 2144 0164 5A5A     		ldrh	r2, [r3, r1]
 2145 0166 013A     		subs	r2, r2, #1
 2146              	.L226:
 2147 0168 5A52     		strh	r2, [r3, r1]
 2148 016a 6CE7     		b	.L204
 2149              	.L211:
 2150 016c 0028     		cmp	r0, #0
 2151 016e 00D1     		bne	.LCB2256
 2152 0170 69E7     		b	.L204	@long jump
 2153              	.LCB2256:
 2154 0172 9D21     		movs	r1, #157
 2155 0174 E35D     		ldrb	r3, [r4, r7]
 2156 0176 C900     		lsls	r1, r1, #3
 2157 0178 5B00     		lsls	r3, r3, #1
 2158 017a E318     		adds	r3, r4, r3
 2159 017c 5A5A     		ldrh	r2, [r3, r1]
 2160 017e 0132     		adds	r2, r2, #1
 2161 0180 F2E7     		b	.L226
 2162              	.L198:
 2163 0182 2A48     		ldr	r0, .L228+64
 2164 0184 BBE7     		b	.L227
 2165              	.L197:
 2166 0186 2A4B     		ldr	r3, .L228+68
 2167 0188 1800     		movs	r0, r3
 2168 018a FFF7FEFF 		bl	smtc_modem_hal_print_trace
 2169 018e 5AE7     		b	.L204
 2170              	.L212:
 2171 0190 0323     		movs	r3, #3
 2172 0192 6355     		strb	r3, [r4, r5]
 2173 0194 C423     		movs	r3, #196
 2174 0196 0022     		movs	r2, #0
 2175 0198 9B00     		lsls	r3, r3, #2
ARM GAS  /tmp/ccEvku90.s 			page 40


 2176 019a E254     		strb	r2, [r4, r3]
 2177              	.L215:
 2178 019c A35D     		ldrb	r3, [r4, r6]
 2179 019e 0A2B     		cmp	r3, #10
 2180 01a0 00D0     		beq	.LCB2290
 2181 01a2 5EE7     		b	.L196	@long jump
 2182              	.LCB2290:
 2183 01a4 5BE7     		b	.L218
 2184              	.L213:
 2185 01a6 0523     		movs	r3, #5
 2186 01a8 6355     		strb	r3, [r4, r5]
 2187 01aa F7E7     		b	.L215
 2188              	.L216:
 2189 01ac 2148     		ldr	r0, .L228+72
 2190 01ae FFF7FEFF 		bl	smtc_modem_hal_print_trace
 2191 01b2 174F     		ldr	r7, .L228+36
 2192 01b4 3800     		movs	r0, r7
 2193 01b6 FFF7FEFF 		bl	smtc_modem_hal_print_trace
 2194 01ba 1F4B     		ldr	r3, .L228+76
 2195 01bc 1800     		movs	r0, r3
 2196 01be 0193     		str	r3, [sp, #4]
 2197 01c0 FFF7FEFF 		bl	smtc_modem_hal_store_crashlog
 2198 01c4 0120     		movs	r0, #1
 2199 01c6 FFF7FEFF 		bl	smtc_modem_hal_set_crashlog_status
 2200 01ca 0199     		ldr	r1, [sp, #4]
 2201 01cc 1B48     		ldr	r0, .L228+80
 2202 01ce FFF7FEFF 		bl	smtc_modem_hal_print_trace
 2203 01d2 3800     		movs	r0, r7
 2204 01d4 FFF7FEFF 		bl	smtc_modem_hal_print_trace
 2205 01d8 1948     		ldr	r0, .L228+84
 2206 01da FFF7FEFF 		bl	smtc_modem_hal_print_trace
 2207 01de 3800     		movs	r0, r7
 2208 01e0 FFF7FEFF 		bl	smtc_modem_hal_print_trace
 2209 01e4 FFF7FEFF 		bl	smtc_modem_hal_reset_mcu
 2210 01e8 D8E7     		b	.L215
 2211              	.L229:
 2212 01ea C046     		.align	2
 2213              	.L228:
 2214 01ec BC040000 		.word	1212
 2215 01f0 CF040000 		.word	1231
 2216 01f4 E4040000 		.word	1252
 2217 01f8 BB040000 		.word	1211
 2218 01fc D4040000 		.word	1236
 2219 0200 D6040000 		.word	1238
 2220 0204 0F020000 		.word	527
 2221 0208 00000000 		.word	.LC45
 2222 020c 56000000 		.word	.LC50
 2223 0210 1E000000 		.word	.LC8
 2224 0214 8E000000 		.word	.LC52
 2225 0218 CE040000 		.word	1230
 2226 021c 11020000 		.word	529
 2227 0220 1F000000 		.word	.LC47
 2228 0224 93000000 		.word	.LC54
 2229 0228 BA040000 		.word	1210
 2230 022c AC000000 		.word	.LC56
 2231 0230 D6000000 		.word	.LC58
 2232 0234 F2000000 		.word	.LC60
ARM GAS  /tmp/ccEvku90.s 			page 41


 2233 0238 00000000 		.word	__func__.5
 2234 023c 00000000 		.word	.LC6
 2235 0240 2F000000 		.word	.LC22
 2237              		.section	.rodata.lr1_stack_mac_rx_timer_configure.str1.1,"aMS",%progbits,1
 2238              	.LC70:
 2239 0000 20205469 		.ascii	"  Timer will expire in %d ms\012\015\000"
 2239      6D657220 
 2239      77696C6C 
 2239      20657870 
 2239      69726520 
 2240              		.section	.text.lr1_stack_mac_rx_timer_configure,"ax",%progbits
 2241              		.align	1
 2242              		.global	lr1_stack_mac_rx_timer_configure
 2243              		.syntax unified
 2244              		.code	16
 2245              		.thumb_func
 2247              	lr1_stack_mac_rx_timer_configure:
 2248              		@ args = 0, pretend = 0, frame = 16
 2249              		@ frame_needed = 0, uses_anonymous_args = 0
 2250 0000 F0B5     		push	{r4, r5, r6, r7, lr}
 2251 0002 89B0     		sub	sp, sp, #36
 2252 0004 0D00     		movs	r5, r1
 2253 0006 0400     		movs	r4, r0
 2254 0008 FFF7FEFF 		bl	smtc_modem_hal_get_time_in_ms
 2255 000c 2900     		movs	r1, r5
 2256 000e 0590     		str	r0, [sp, #20]
 2257 0010 2000     		movs	r0, r4
 2258 0012 FFF7FEFF 		bl	smtc_real_set_rx_config
 2259 0016 002D     		cmp	r5, #0
 2260 0018 1BD0     		beq	.L231
 2261 001a 012D     		cmp	r5, #1
 2262 001c 00D1     		bne	.LCB2368
 2263 001e 68E0     		b	.L232	@long jump
 2264              	.LCB2368:
 2265 0020 4D4C     		ldr	r4, .L242
 2266 0022 2000     		movs	r0, r4
 2267 0024 FFF7FEFF 		bl	smtc_modem_hal_store_crashlog
 2268 0028 0120     		movs	r0, #1
 2269 002a FFF7FEFF 		bl	smtc_modem_hal_set_crashlog_status
 2270 002e 2100     		movs	r1, r4
 2271 0030 4A48     		ldr	r0, .L242+4
 2272 0032 FFF7FEFF 		bl	smtc_modem_hal_print_trace
 2273 0036 4A4C     		ldr	r4, .L242+8
 2274 0038 2000     		movs	r0, r4
 2275 003a FFF7FEFF 		bl	smtc_modem_hal_print_trace
 2276 003e 4948     		ldr	r0, .L242+12
 2277 0040 FFF7FEFF 		bl	smtc_modem_hal_print_trace
 2278 0044 2000     		movs	r0, r4
 2279 0046 FFF7FEFF 		bl	smtc_modem_hal_print_trace
 2280 004a FFF7FEFF 		bl	smtc_modem_hal_reset_mcu
 2281              	.L230:
 2282 004e 09B0     		add	sp, sp, #36
 2283              		@ sp needed
 2284 0050 F0BD     		pop	{r4, r5, r6, r7, pc}
 2285              	.L231:
 2286 0052 2300     		movs	r3, r4
 2287 0054 5933     		adds	r3, r3, #89
ARM GAS  /tmp/ccEvku90.s 			page 42


 2288 0056 1E78     		ldrb	r6, [r3]
 2289              	.L234:
 2290 0058 9727     		movs	r7, #151
 2291 005a FF00     		lsls	r7, r7, #3
 2292 005c 2000     		movs	r0, r4
 2293 005e E15D     		ldrb	r1, [r4, r7]
 2294 0060 FFF7FEFF 		bl	smtc_real_get_modulation_type_from_datarate
 2295 0064 0028     		cmp	r0, #0
 2296 0066 49D1     		bne	.L236
 2297 0068 1623     		movs	r3, #22
 2298 006a 02AA     		add	r2, sp, #8
 2299 006c 9B18     		adds	r3, r3, r2
 2300 006e 1522     		movs	r2, #21
 2301 0070 02A8     		add	r0, sp, #8
 2302 0072 1218     		adds	r2, r2, r0
 2303 0074 E15D     		ldrb	r1, [r4, r7]
 2304 0076 2000     		movs	r0, r4
 2305 0078 FFF7FEFF 		bl	smtc_real_lora_dr_to_sf_bw
 2306              	.L237:
 2307 007c FA23     		movs	r3, #250
 2308 007e 9B00     		lsls	r3, r3, #2
 2309 0080 7343     		muls	r3, r6
 2310 0082 0493     		str	r3, [sp, #16]
 2311 0084 FFF7FEFF 		bl	smtc_modem_hal_get_radio_tcxo_startup_delay_ms
 2312 0088 9727     		movs	r7, #151
 2313 008a 0600     		movs	r6, r0
 2314 008c FFF7FEFF 		bl	smtc_modem_hal_get_board_delay_ms
 2315 0090 9D23     		movs	r3, #157
 2316 0092 FF00     		lsls	r7, r7, #3
 2317 0094 E15D     		ldrb	r1, [r4, r7]
 2318 0096 9B00     		lsls	r3, r3, #2
 2319 0098 CB18     		adds	r3, r1, r3
 2320 009a 5B00     		lsls	r3, r3, #1
 2321 009c 1B5F     		ldrsh	r3, [r3, r4]
 2322 009e 049A     		ldr	r2, [sp, #16]
 2323 00a0 9E19     		adds	r6, r3, r6
 2324 00a2 0023     		movs	r3, #0
 2325 00a4 0293     		str	r3, [sp, #8]
 2326 00a6 304B     		ldr	r3, .L242+16
 2327 00a8 3618     		adds	r6, r6, r0
 2328 00aa E318     		adds	r3, r4, r3
 2329 00ac 0193     		str	r3, [sp, #4]
 2330 00ae 9923     		movs	r3, #153
 2331 00b0 DB00     		lsls	r3, r3, #3
 2332 00b2 E318     		adds	r3, r4, r3
 2333 00b4 0093     		str	r3, [sp]
 2334 00b6 2D4B     		ldr	r3, .L242+20
 2335 00b8 2000     		movs	r0, r4
 2336 00ba E318     		adds	r3, r4, r3
 2337 00bc FFF7FEFF 		bl	smtc_real_get_rx_window_parameters
 2338 00c0 A120     		movs	r0, #161
 2339 00c2 2A4B     		ldr	r3, .L242+20
 2340 00c4 C000     		lsls	r0, r0, #3
 2341 00c6 2018     		adds	r0, r4, r0
 2342 00c8 E15D     		ldrb	r1, [r4, r7]
 2343 00ca E35A     		ldrh	r3, [r4, r3]
 2344 00cc 72B2     		sxtb	r2, r6
ARM GAS  /tmp/ccEvku90.s 			page 43


 2345 00ce 0090     		str	r0, [sp]
 2346 00d0 2000     		movs	r0, r4
 2347 00d2 FFF7FEFF 		bl	smtc_real_get_rx_start_time_offset_ms
 2348 00d6 264B     		ldr	r3, .L242+24
 2349 00d8 5037     		adds	r7, r7, #80
 2350 00da E258     		ldr	r2, [r4, r3]
 2351 00dc 049B     		ldr	r3, [sp, #16]
 2352 00de 9A18     		adds	r2, r3, r2
 2353 00e0 059B     		ldr	r3, [sp, #20]
 2354 00e2 D61A     		subs	r6, r2, r3
 2355 00e4 E359     		ldr	r3, [r4, r7]
 2356 00e6 F11A     		subs	r1, r6, r3
 2357 00e8 2AD5     		bpl	.L239
 2358 00ea 0522     		movs	r2, #5
 2359 00ec 214B     		ldr	r3, .L242+28
 2360 00ee E254     		strb	r2, [r4, r3]
 2361 00f0 ADE7     		b	.L230
 2362              	.L232:
 2363 00f2 2300     		movs	r3, r4
 2364 00f4 5933     		adds	r3, r3, #89
 2365 00f6 1E78     		ldrb	r6, [r3]
 2366 00f8 0136     		adds	r6, r6, #1
 2367 00fa ADE7     		b	.L234
 2368              	.L236:
 2369 00fc 0128     		cmp	r0, #1
 2370 00fe 07D1     		bne	.L238
 2371 0100 1722     		movs	r2, #23
 2372 0102 02AB     		add	r3, sp, #8
 2373 0104 2000     		movs	r0, r4
 2374 0106 E15D     		ldrb	r1, [r4, r7]
 2375 0108 D218     		adds	r2, r2, r3
 2376 010a FFF7FEFF 		bl	smtc_real_fsk_dr_to_bitrate
 2377 010e B5E7     		b	.L237
 2378              	.L238:
 2379 0110 114F     		ldr	r7, .L242
 2380 0112 3800     		movs	r0, r7
 2381 0114 FFF7FEFF 		bl	smtc_modem_hal_store_crashlog
 2382 0118 0120     		movs	r0, #1
 2383 011a FFF7FEFF 		bl	smtc_modem_hal_set_crashlog_status
 2384 011e 3900     		movs	r1, r7
 2385 0120 0E48     		ldr	r0, .L242+4
 2386 0122 FFF7FEFF 		bl	smtc_modem_hal_print_trace
 2387 0126 0E4F     		ldr	r7, .L242+8
 2388 0128 3800     		movs	r0, r7
 2389 012a FFF7FEFF 		bl	smtc_modem_hal_print_trace
 2390 012e 1248     		ldr	r0, .L242+32
 2391 0130 FFF7FEFF 		bl	smtc_modem_hal_print_trace
 2392 0134 3800     		movs	r0, r7
 2393 0136 FFF7FEFF 		bl	smtc_modem_hal_print_trace
 2394 013a FFF7FEFF 		bl	smtc_modem_hal_reset_mcu
 2395 013e 9DE7     		b	.L237
 2396              	.L239:
 2397 0140 2900     		movs	r1, r5
 2398 0142 2000     		movs	r0, r4
 2399 0144 D218     		adds	r2, r2, r3
 2400 0146 FFF7FEFF 		bl	lr1_stack_mac_rx_radio_start
 2401 014a E159     		ldr	r1, [r4, r7]
ARM GAS  /tmp/ccEvku90.s 			page 44


 2402 014c 0B48     		ldr	r0, .L242+36
 2403 014e 7118     		adds	r1, r6, r1
 2404 0150 FFF7FEFF 		bl	smtc_modem_hal_print_trace
 2405 0154 7BE7     		b	.L230
 2406              	.L243:
 2407 0156 C046     		.align	2
 2408              	.L242:
 2409 0158 00000000 		.word	__func__.4
 2410 015c 00000000 		.word	.LC6
 2411 0160 1E000000 		.word	.LC8
 2412 0164 00000000 		.word	.LC31
 2413 0168 C4040000 		.word	1220
 2414 016c CC040000 		.word	1228
 2415 0170 E4040000 		.word	1252
 2416 0174 BB040000 		.word	1211
 2417 0178 25000000 		.word	.LC33
 2418 017c 00000000 		.word	.LC70
 2420              		.section	.text.lr1_stack_mac_update_tx_done,"ax",%progbits
 2421              		.align	1
 2422              		.global	lr1_stack_mac_update_tx_done
 2423              		.syntax unified
 2424              		.code	16
 2425              		.thumb_func
 2427              	lr1_stack_mac_update_tx_done:
 2428              		@ args = 0, pretend = 0, frame = 0
 2429              		@ frame_needed = 0, uses_anonymous_args = 0
 2430 0000 9422     		movs	r2, #148
 2431 0002 D200     		lsls	r2, r2, #3
 2432 0004 835A     		ldrh	r3, [r0, r2]
 2433 0006 1349     		ldr	r1, .L253
 2434 0008 10B5     		push	{r4, lr}
 2435 000a 8B42     		cmp	r3, r1
 2436 000c 05D0     		beq	.L245
 2437 000e 124C     		ldr	r4, .L253+4
 2438 0010 045D     		ldrb	r4, [r0, r4]
 2439 0012 002C     		cmp	r4, #0
 2440 0014 01D0     		beq	.L245
 2441 0016 0133     		adds	r3, r3, #1
 2442 0018 8352     		strh	r3, [r0, r2]
 2443              	.L245:
 2444 001a 104A     		ldr	r2, .L253+8
 2445 001c 835A     		ldrh	r3, [r0, r2]
 2446 001e 8B42     		cmp	r3, r1
 2447 0020 01D0     		beq	.L246
 2448 0022 0133     		adds	r3, r3, #1
 2449 0024 8352     		strh	r3, [r0, r2]
 2450              	.L246:
 2451 0026 0E4B     		ldr	r3, .L253+12
 2452 0028 C25C     		ldrb	r2, [r0, r3]
 2453 002a 012A     		cmp	r2, #1
 2454 002c 01D1     		bne	.L247
 2455 002e 0132     		adds	r2, r2, #1
 2456 0030 C254     		strb	r2, [r0, r3]
 2457              	.L247:
 2458 0032 0C4B     		ldr	r3, .L253+16
 2459 0034 C25C     		ldrb	r2, [r0, r3]
 2460 0036 012A     		cmp	r2, #1
ARM GAS  /tmp/ccEvku90.s 			page 45


 2461 0038 05D1     		bne	.L248
 2462 003a 0132     		adds	r2, r2, #1
 2463 003c C254     		strb	r2, [r0, r3]
 2464 003e 0A4B     		ldr	r3, .L253+20
 2465 0040 C258     		ldr	r2, [r0, r3]
 2466 0042 4C33     		adds	r3, r3, #76
 2467 0044 C250     		str	r2, [r0, r3]
 2468              	.L248:
 2469 0046 094B     		ldr	r3, .L253+24
 2470 0048 C25C     		ldrb	r2, [r0, r3]
 2471 004a 012A     		cmp	r2, #1
 2472 004c 01D1     		bne	.L244
 2473 004e 0132     		adds	r2, r2, #1
 2474 0050 C254     		strb	r2, [r0, r3]
 2475              	.L244:
 2476              		@ sp needed
 2477 0052 10BD     		pop	{r4, pc}
 2478              	.L254:
 2479              		.align	2
 2480              	.L253:
 2481 0054 FFFF0000 		.word	65535
 2482 0058 92040000 		.word	1170
 2483 005c 9E040000 		.word	1182
 2484 0060 44050000 		.word	1348
 2485 0064 45050000 		.word	1349
 2486 0068 E4040000 		.word	1252
 2487 006c 46050000 		.word	1350
 2489              		.section	.rodata.lr1_stack_mac_cmd_parse.str1.1,"aMS",%progbits,1
 2490              	.LC72:
 2491 0000 1B5B303B 		.ascii	"\033[0;33mWARN: too much cmd in the payload\012\015"
 2491      33336D57 
 2491      41524E3A 
 2491      20746F6F 
 2491      206D7563 
 2492 002a 00       		.ascii	"\000"
 2493              	.LC75:
 2494 002b 204D6172 		.ascii	" Margin = %d, GwCnt = %d\012\015\000"
 2494      67696E20 
 2494      3D202564 
 2494      2C204777 
 2494      436E7420 
 2495              	.LC77:
 2496 0046 25752F25 		.ascii	"%u/%u - Cmd link_adr_parser = %02x %02x %02x %02x\012"
 2496      75202D20 
 2496      436D6420 
 2496      6C696E6B 
 2496      5F616472 
 2497 0078 0D00     		.ascii	"\015\000"
 2498              	.LC79:
 2499 007a 2575202D 		.ascii	"%u - MULTIPLE LINK ADR REQ , channel mask = 0x%x , "
 2499      204D554C 
 2499      5449504C 
 2499      45204C49 
 2499      4E4B2041 
 2500 00ad 43684D41 		.ascii	"ChMAstCntl = 0x%x\012\015\000"
 2500      7374436E 
 2500      746C203D 
ARM GAS  /tmp/ccEvku90.s 			page 46


 2500      20307825 
 2500      780A0D00 
 2501              	.LC81:
 2502 00c1 1B5B303B 		.ascii	"\033[0;33mWARN: INVALID CHANNEL CNTL\012\015\000"
 2502      33336D57 
 2502      41524E3A 
 2502      20494E56 
 2502      414C4944 
 2503              	.LC83:
 2504 00e5 1B5B303B 		.ascii	"\033[0;33mWARN: INVALID CHANNEL MASK in Mobile Mode"
 2504      33336D57 
 2504      41524E3A 
 2504      20494E56 
 2504      414C4944 
 2505 0115 0A0D00   		.ascii	"\012\015\000"
 2506              	.LC85:
 2507 0118 1B5B303B 		.ascii	"\033[0;33mWARN: INVALID CHANNEL MASK\012\015\000"
 2507      33336D57 
 2507      41524E3A 
 2507      20494E56 
 2507      414C4944 
 2508              	.LC87:
 2509 013c 1B5B303B 		.ascii	"\033[0;33mWARN: INVALID DATARATE\012\015\000"
 2509      33336D57 
 2509      41524E3A 
 2509      20494E56 
 2509      414C4944 
 2510              	.LC89:
 2511 015c 1B5B303B 		.ascii	"\033[0;33mWARN: INVALID TXPOWER\012\015\000"
 2511      33336D57 
 2511      41524E3A 
 2511      20494E56 
 2511      414C4944 
 2512              	.LC91:
 2513 017b 4D616354 		.ascii	"MacTxDataRateAdr = %d\012\015\000"
 2513      78446174 
 2513      61526174 
 2513      65416472 
 2513      203D2025 
 2514              	.LC93:
 2515 0193 4D616354 		.ascii	"MacTxPower = %d\012\015\000"
 2515      78506F77 
 2515      6572203D 
 2515      2025640A 
 2515      0D00
 2516              	.LC95:
 2517 01a5 4D61634E 		.ascii	"MacNbTrans = %d\012\015\000"
 2517      62547261 
 2517      6E73203D 
 2517      2025640A 
 2517      0D00
 2518              	.LC97:
 2519 01b7 436D6420 		.ascii	"Cmd duty_cycle_parser %x\012\015\000"
 2519      64757479 
 2519      5F637963 
 2519      6C655F70 
 2519      61727365 
ARM GAS  /tmp/ccEvku90.s 			page 47


 2520              	.LC99:
 2521 01d2 20436D64 		.ascii	" Cmd rx_param_setup_parser = %x %x %x %x\012\015\000"
 2521      2072785F 
 2521      70617261 
 2521      6D5F7365 
 2521      7475705F 
 2522              	.LC101:
 2523 01fd 494E5641 		.ascii	"INVALID RX1DROFFSET\012\015\000"
 2523      4C494420 
 2523      52583144 
 2523      524F4646 
 2523      5345540A 
 2524              	.LC104:
 2525 0213 494E5641 		.ascii	"INVALID RX2DR\012\015\000"
 2525      4C494420 
 2525      52583244 
 2525      520A0D00 
 2526              	.LC106:
 2527 0223 494E5641 		.ascii	"INVALID RX2 FREQUENCY\012\015\000"
 2527      4C494420 
 2527      52583220 
 2527      46524551 
 2527      55454E43 
 2528              	.LC108:
 2529 023b 4D616352 		.ascii	"MacRx1DataRateOffset = %d\012\015\000"
 2529      78314461 
 2529      74615261 
 2529      74654F66 
 2529      66736574 
 2530              	.LC110:
 2531 0257 4D616352 		.ascii	"MacRx2DataRate = %d\012\015\000"
 2531      78324461 
 2531      74615261 
 2531      7465203D 
 2531      2025640A 
 2532              	.LC112:
 2533 026d 4D616352 		.ascii	"MacRx2Frequency = %d\012\015\000"
 2533      78324672 
 2533      65717565 
 2533      6E637920 
 2533      3D202564 
 2534              	.LC114:
 2535 0284 52656365 		.ascii	"Receive a dev status req\012\015\000"
 2535      69766520 
 2535      61206465 
 2535      76207374 
 2535      61747573 
 2536              	.LC116:
 2537 029f 20436D64 		.ascii	" Cmd new_channel_parser = %x %x %x %x %x\012\015\000"
 2537      206E6577 
 2537      5F636861 
 2537      6E6E656C 
 2537      5F706172 
 2538              	.LC118:
 2539 02ca 1B5B303B 		.ascii	"\033[0;33mWARN: NewChannelReq is not supported for "
 2539      33336D57 
 2539      41524E3A 
ARM GAS  /tmp/ccEvku90.s 			page 48


 2539      204E6577 
 2539      4368616E 
 2540 02fa 74686973 		.ascii	"this region\012\015\000"
 2540      20726567 
 2540      696F6E0A 
 2540      0D00
 2541              	.LC120:
 2542 0308 494E5641 		.ascii	"INVALID CHANNEL INDEX\012\015\000"
 2542      4C494420 
 2542      4348414E 
 2542      4E454C20 
 2542      494E4445 
 2543              	.LC122:
 2544 0320 494E5641 		.ascii	"INVALID FREQUENCY\012\015\000"
 2544      4C494420 
 2544      46524551 
 2544      55454E43 
 2544      590A0D00 
 2545              	.LC124:
 2546 0334 494E5641 		.ascii	"INVALID DR MIN\012\015\000"
 2546      4C494420 
 2546      4452204D 
 2546      494E0A0D 
 2546      00
 2547              	.LC126:
 2548 0345 494E5641 		.ascii	"INVALID DR MAX\012\015\000"
 2548      4C494420 
 2548      4452204D 
 2548      41580A0D 
 2548      00
 2549              	.LC128:
 2550 0356 494E5641 		.ascii	"INVALID DR MAX < DR MIN\012\015\000"
 2550      4C494420 
 2550      4452204D 
 2550      4158203C 
 2550      20445220 
 2551              	.LC130:
 2552 0370 4D616354 		.ascii	"MacTxFrequency [ %d ] = %d, DrMin = %d, DrMax = %d\012"
 2552      78467265 
 2552      7175656E 
 2552      6379205B 
 2552      20256420 
 2553 03a3 0D00     		.ascii	"\015\000"
 2554              	.LC132:
 2555 03a5 436D6420 		.ascii	"Cmd rx_timing_setup_parser = %x\012\015\000"
 2555      72785F74 
 2555      696D696E 
 2555      675F7365 
 2555      7475705F 
 2556              	.LC134:
 2557 03c7 436D6420 		.ascii	"Cmd tx_param_setup_parser = %x\012\015\000"
 2557      74785F70 
 2557      6172616D 
 2557      5F736574 
 2557      75705F70 
 2558              	.LC136:
 2559 03e8 1B5B303B 		.ascii	"\033[0;33mWARN: TxParamSetupReq is not supported fo"
ARM GAS  /tmp/ccEvku90.s 			page 49


 2559      33336D57 
 2559      41524E3A 
 2559      20547850 
 2559      6172616D 
 2560 0418 72207468 		.ascii	"r this region\012\015\000"
 2560      69732072 
 2560      6567696F 
 2560      6E0A0D00 
 2561              	.LC139:
 2562 0428 436D6420 		.ascii	"Cmd dl_channel_parser = %x %x %x %x \012\015\000"
 2562      646C5F63 
 2562      68616E6E 
 2562      656C5F70 
 2562      61727365 
 2563              	.LC141:
 2564 044f 1B5B303B 		.ascii	"\033[0;33mWARN: DlChannelReq is not supported for t"
 2564      33336D57 
 2564      41524E3A 
 2564      20446C43 
 2564      68616E6E 
 2565 047f 68697320 		.ascii	"his region\012\015\000"
 2565      72656769 
 2565      6F6E0A0D 
 2565      00
 2566              	.LC143:
 2567 048c 4D616352 		.ascii	"MacRx1Frequency [ %u ] = %d\012\015\000"
 2567      78314672 
 2567      65717565 
 2567      6E637920 
 2567      5B202575 
 2568              	.LC145:
 2569 04aa 436D6420 		.ascii	"Cmd device_time_ans_parser = %x %x %x %x %x\012\015"
 2569      64657669 
 2569      63655F74 
 2569      696D655F 
 2569      616E735F 
 2570 04d7 00       		.ascii	"\000"
 2571              	.LC147:
 2572 04d8 5365636F 		.ascii	"SecondsSinceEpoch %u, FractionalSecond %u\012\015\000"
 2572      6E647353 
 2572      696E6365 
 2572      45706F63 
 2572      68202575 
 2573              	.LC149:
 2574 0504 2050696E 		.ascii	" PingSlotInfoAns\012\015\000"
 2574      67536C6F 
 2574      74496E66 
 2574      6F416E73 
 2574      0A0D00
 2575              	.LC151:
 2576 0517 20436D64 		.ascii	" Cmd ping_slot_channel_req_parser = %x %x %x %x\012"
 2576      2070696E 
 2576      675F736C 
 2576      6F745F63 
 2576      68616E6E 
 2577 0547 0D00     		.ascii	"\015\000"
 2578              	.LC153:
ARM GAS  /tmp/ccEvku90.s 			page 50


 2579 0549 494E5641 		.ascii	"INVALID PING SLOT FREQUENCY\012\015\000"
 2579      4C494420 
 2579      50494E47 
 2579      20534C4F 
 2579      54204652 
 2580              	.LC155:
 2581 0567 494E5641 		.ascii	"INVALID PING SLOT DR\012\015\000"
 2581      4C494420 
 2581      50494E47 
 2581      20534C4F 
 2581      54204452 
 2582              	.LC157:
 2583 057e 4D616350 		.ascii	"MacPingSlotDataRate = %d\012\015\000"
 2583      696E6753 
 2583      6C6F7444 
 2583      61746152 
 2583      61746520 
 2584              	.LC159:
 2585 0599 4D616350 		.ascii	"MacPingSlotFrequency = %d\012\015\000"
 2585      696E6753 
 2585      6C6F7446 
 2585      72657175 
 2585      656E6379 
 2586              	.LC161:
 2587 05b5 436D6420 		.ascii	"Cmd beacon_freq_req_parser = %x %x %x %x\012\015\000"
 2587      62656163 
 2587      6F6E5F66 
 2587      7265715F 
 2587      7265715F 
 2588              	.LC163:
 2589 05e0 494E5641 		.ascii	"INVALID BEACON FREQUENCY\012\015\000"
 2589      4C494420 
 2589      42454143 
 2589      4F4E2046 
 2589      52455155 
 2590              	.LC165:
 2591 05fb 4D616342 		.ascii	"MacBeaconFrequency %d\012\015\000"
 2591      6561636F 
 2591      6E467265 
 2591      7175656E 
 2591      63792025 
 2592              	.LC167:
 2593 0613 20556E6B 		.ascii	" Unknown mac command %02x\012\015\000"
 2593      6E6F776E 
 2593      206D6163 
 2593      20636F6D 
 2593      6D616E64 
 2594              		.section	.text.lr1_stack_mac_cmd_parse,"ax",%progbits
 2595              		.align	1
 2596              		.global	lr1_stack_mac_cmd_parse
 2597              		.syntax unified
 2598              		.code	16
 2599              		.thumb_func
 2601              	lr1_stack_mac_cmd_parse:
 2602              		@ args = 0, pretend = 0, frame = 24
 2603              		@ frame_needed = 0, uses_anonymous_args = 0
 2604 0000 0023     		movs	r3, #0
ARM GAS  /tmp/ccEvku90.s 			page 51


 2605 0002 F0B5     		push	{r4, r5, r6, r7, lr}
 2606 0004 BD4A     		ldr	r2, .L385
 2607 0006 BE4F     		ldr	r7, .L385+4
 2608 0008 0500     		movs	r5, r0
 2609 000a C355     		strb	r3, [r0, r7]
 2610 000c 8354     		strb	r3, [r0, r2]
 2611 000e 7A22     		movs	r2, #122
 2612 0010 FF32     		adds	r2, r2, #255
 2613 0012 8354     		strb	r3, [r0, r2]
 2614 0014 8BB0     		sub	sp, sp, #44
 2615 0016 6132     		adds	r2, r2, #97
 2616              	.L373:
 2617 0018 AB54     		strb	r3, [r5, r2]
 2618              	.L256:
 2619 001a BA4B     		ldr	r3, .L385+8
 2620 001c EC5D     		ldrb	r4, [r5, r7]
 2621 001e EB5C     		ldrb	r3, [r5, r3]
 2622 0020 A342     		cmp	r3, r4
 2623 0022 01D8     		bhi	.L333
 2624 0024 0020     		movs	r0, #0
 2625 0026 0CE0     		b	.L258
 2626              	.L333:
 2627 0028 7A22     		movs	r2, #122
 2628 002a FF32     		adds	r2, r2, #255
 2629 002c AA5C     		ldrb	r2, [r5, r2]
 2630 002e 602A     		cmp	r2, #96
 2631 0030 09D9     		bls	.L257
 2632 0032 B548     		ldr	r0, .L385+12
 2633 0034 FFF7FEFF 		bl	smtc_modem_hal_print_trace
 2634 0038 B448     		ldr	r0, .L385+16
 2635 003a FFF7FEFF 		bl	smtc_modem_hal_print_trace
 2636 003e 0120     		movs	r0, #1
 2637 0040 4042     		rsbs	r0, r0, #0
 2638              	.L258:
 2639 0042 0BB0     		add	sp, sp, #44
 2640              		@ sp needed
 2641 0044 F0BD     		pop	{r4, r5, r6, r7, pc}
 2642              	.L257:
 2643 0046 CD22     		movs	r2, #205
 2644 0048 2E19     		adds	r6, r5, r4
 2645 004a 9200     		lsls	r2, r2, #2
 2646 004c B218     		adds	r2, r6, r2
 2647 004e 1178     		ldrb	r1, [r2]
 2648 0050 881E     		subs	r0, r1, #2
 2649 0052 1128     		cmp	r0, #17
 2650 0054 01D9     		bls	.LCB2688
 2651 0056 00F0DFFD 		bl	.L259	@far jump
 2652              	.LCB2688:
 2653 005a FFF7FEFF 		bl	__gnu_thumb1_case_uhi
 2654              	.L261:
 2655 005e 1200     		.2byte	(.L273-.L261)/2
 2656 0060 B800     		.2byte	(.L334-.L261)/2
 2657 0062 7D01     		.2byte	(.L271-.L261)/2
 2658 0064 A401     		.2byte	(.L270-.L261)/2
 2659 0066 3802     		.2byte	(.L269-.L261)/2
 2660 0068 7402     		.2byte	(.L268-.L261)/2
 2661 006a 6F03     		.2byte	(.L267-.L261)/2
ARM GAS  /tmp/ccEvku90.s 			page 52


 2662 006c A403     		.2byte	(.L266-.L261)/2
 2663 006e EE03     		.2byte	(.L265-.L261)/2
 2664 0070 DD05     		.2byte	(.L259-.L261)/2
 2665 0072 DD05     		.2byte	(.L259-.L261)/2
 2666 0074 6204     		.2byte	(.L264-.L261)/2
 2667 0076 DD05     		.2byte	(.L259-.L261)/2
 2668 0078 DD05     		.2byte	(.L259-.L261)/2
 2669 007a C404     		.2byte	(.L263-.L261)/2
 2670 007c D804     		.2byte	(.L262-.L261)/2
 2671 007e DD05     		.2byte	(.L259-.L261)/2
 2672 0080 8505     		.2byte	(.L260-.L261)/2
 2673              		.p2align 1
 2674              	.L273:
 2675 0082 A34A     		ldr	r2, .L385+20
 2676 0084 A95C     		ldrb	r1, [r5, r2]
 2677 0086 0229     		cmp	r1, #2
 2678 0088 C7D1     		bne	.L256
 2679 008a 0131     		adds	r1, r1, #1
 2680 008c 0234     		adds	r4, r4, #2
 2681 008e A954     		strb	r1, [r5, r2]
 2682 0090 9C42     		cmp	r4, r3
 2683 0092 02DB     		blt	.L276
 2684              	.L279:
 2685 0094 0023     		movs	r3, #0
 2686 0096 9B4A     		ldr	r2, .L385+8
 2687 0098 BEE7     		b	.L373
 2688              	.L276:
 2689 009a CD23     		movs	r3, #205
 2690 009c 2C19     		adds	r4, r5, r4
 2691 009e 9B00     		lsls	r3, r3, #2
 2692 00a0 E418     		adds	r4, r4, r3
 2693 00a2 2278     		ldrb	r2, [r4]
 2694 00a4 9B4C     		ldr	r4, .L385+24
 2695 00a6 9C48     		ldr	r0, .L385+28
 2696 00a8 3619     		adds	r6, r6, r4
 2697 00aa 3178     		ldrb	r1, [r6]
 2698 00ac FFF7FEFF 		bl	smtc_modem_hal_print_trace
 2699 00b0 EB5D     		ldrb	r3, [r5, r7]
 2700 00b2 EA18     		adds	r2, r5, r3
 2701 00b4 1119     		adds	r1, r2, r4
 2702 00b6 0878     		ldrb	r0, [r1]
 2703 00b8 A421     		movs	r1, #164
 2704 00ba C900     		lsls	r1, r1, #3
 2705 00bc 6854     		strb	r0, [r5, r1]
 2706 00be 9749     		ldr	r1, .L385+32
 2707 00c0 0333     		adds	r3, r3, #3
 2708 00c2 5218     		adds	r2, r2, r1
 2709 00c4 1178     		ldrb	r1, [r2]
 2710 00c6 964A     		ldr	r2, .L385+36
 2711 00c8 A954     		strb	r1, [r5, r2]
 2712              	.L374:
 2713 00ca EB55     		strb	r3, [r5, r7]
 2714 00cc A5E7     		b	.L256
 2715              	.L278:
 2716 00ce 059A     		ldr	r2, [sp, #20]
 2717 00d0 0132     		adds	r2, r2, #1
 2718 00d2 D2B2     		uxtb	r2, r2
ARM GAS  /tmp/ccEvku90.s 			page 53


 2719 00d4 0592     		str	r2, [sp, #20]
 2720              	.L272:
 2721 00d6 6146     		mov	r1, ip
 2722 00d8 CD20     		movs	r0, #205
 2723 00da 059A     		ldr	r2, [sp, #20]
 2724 00dc 8000     		lsls	r0, r0, #2
 2725 00de 4A43     		muls	r2, r1
 2726 00e0 B118     		adds	r1, r6, r2
 2727 00e2 0918     		adds	r1, r1, r0
 2728 00e4 0978     		ldrb	r1, [r1]
 2729 00e6 0329     		cmp	r1, #3
 2730 00e8 03D1     		bne	.L277
 2731 00ea 0532     		adds	r2, r2, #5
 2732 00ec 1219     		adds	r2, r2, r4
 2733 00ee 9A42     		cmp	r2, r3
 2734 00f0 EDDD     		ble	.L278
 2735              	.L277:
 2736 00f2 059B     		ldr	r3, [sp, #20]
 2737 00f4 002B     		cmp	r3, #0
 2738 00f6 CDD0     		beq	.L279
 2739 00f8 0024     		movs	r4, #0
 2740 00fa 0526     		movs	r6, #5
 2741              	.L280:
 2742 00fc 3300     		movs	r3, r6
 2743 00fe CE21     		movs	r1, #206
 2744 0100 6343     		muls	r3, r4
 2745 0102 EA5D     		ldrb	r2, [r5, r7]
 2746 0104 8900     		lsls	r1, r1, #2
 2747 0106 D218     		adds	r2, r2, r3
 2748 0108 AA18     		adds	r2, r5, r2
 2749 010a 5118     		adds	r1, r2, r1
 2750 010c 814B     		ldr	r3, .L385+24
 2751 010e 0978     		ldrb	r1, [r1]
 2752 0110 D318     		adds	r3, r2, r3
 2753 0112 1B78     		ldrb	r3, [r3]
 2754 0114 0291     		str	r1, [sp, #8]
 2755 0116 8349     		ldr	r1, .L385+40
 2756 0118 8348     		ldr	r0, .L385+44
 2757 011a 5118     		adds	r1, r2, r1
 2758 011c 0978     		ldrb	r1, [r1]
 2759 011e 0191     		str	r1, [sp, #4]
 2760 0120 7E49     		ldr	r1, .L385+32
 2761 0122 5218     		adds	r2, r2, r1
 2762 0124 1278     		ldrb	r2, [r2]
 2763 0126 2100     		movs	r1, r4
 2764 0128 0092     		str	r2, [sp]
 2765 012a 059A     		ldr	r2, [sp, #20]
 2766 012c FFF7FEFF 		bl	smtc_modem_hal_print_trace
 2767 0130 0134     		adds	r4, r4, #1
 2768 0132 059A     		ldr	r2, [sp, #20]
 2769 0134 E3B2     		uxtb	r3, r4
 2770 0136 9A42     		cmp	r2, r3
 2771 0138 E0D8     		bhi	.L280
 2772 013a 0023     		movs	r3, #0
 2773 013c 0726     		movs	r6, #7
 2774 013e 0693     		str	r3, [sp, #24]
 2775              	.L282:
ARM GAS  /tmp/ccEvku90.s 			page 54


 2776 0140 0522     		movs	r2, #5
 2777 0142 0699     		ldr	r1, [sp, #24]
 2778 0144 EB5D     		ldrb	r3, [r5, r7]
 2779 0146 4A43     		muls	r2, r1
 2780 0148 9B18     		adds	r3, r3, r2
 2781 014a 764A     		ldr	r2, .L385+40
 2782 014c EB18     		adds	r3, r5, r3
 2783 014e 9A18     		adds	r2, r3, r2
 2784 0150 1178     		ldrb	r1, [r2]
 2785 0152 724A     		ldr	r2, .L385+32
 2786 0154 0902     		lsls	r1, r1, #8
 2787 0156 9A18     		adds	r2, r3, r2
 2788 0158 1278     		ldrb	r2, [r2]
 2789 015a 7448     		ldr	r0, .L385+48
 2790 015c 5218     		adds	r2, r2, r1
 2791 015e 92B2     		uxth	r2, r2
 2792 0160 0792     		str	r2, [sp, #28]
 2793 0162 CE22     		movs	r2, #206
 2794 0164 9200     		lsls	r2, r2, #2
 2795 0166 9B18     		adds	r3, r3, r2
 2796 0168 1C78     		ldrb	r4, [r3]
 2797 016a 0723     		movs	r3, #7
 2798 016c 2411     		asrs	r4, r4, #4
 2799 016e 1C40     		ands	r4, r3
 2800 0170 079A     		ldr	r2, [sp, #28]
 2801 0172 0699     		ldr	r1, [sp, #24]
 2802 0174 2300     		movs	r3, r4
 2803 0176 FFF7FEFF 		bl	smtc_modem_hal_print_trace
 2804 017a 2100     		movs	r1, r4
 2805 017c 2800     		movs	r0, r5
 2806 017e 079A     		ldr	r2, [sp, #28]
 2807 0180 FFF7FEFF 		bl	smtc_real_build_channel_mask
 2808 0184 0230     		adds	r0, r0, #2
 2809 0186 06D1     		bne	.L281
 2810 0188 6948     		ldr	r0, .L385+52
 2811 018a FFF7FEFF 		bl	smtc_modem_hal_print_trace
 2812 018e 5F48     		ldr	r0, .L385+16
 2813 0190 FFF7FEFF 		bl	smtc_modem_hal_print_trace
 2814 0194 0626     		movs	r6, #6
 2815              	.L281:
 2816 0196 069B     		ldr	r3, [sp, #24]
 2817 0198 059A     		ldr	r2, [sp, #20]
 2818 019a 0133     		adds	r3, r3, #1
 2819 019c 0693     		str	r3, [sp, #24]
 2820 019e 6B46     		mov	r3, sp
 2821 01a0 1B7E     		ldrb	r3, [r3, #24]
 2822 01a2 9A42     		cmp	r2, r3
 2823 01a4 CCD8     		bhi	.L282
 2824 01a6 634B     		ldr	r3, .L385+56
 2825 01a8 EB5C     		ldrb	r3, [r5, r3]
 2826 01aa 002B     		cmp	r3, #0
 2827 01ac 3DD0     		beq	.L283
 2828 01ae 6248     		ldr	r0, .L385+60
 2829 01b0 072E     		cmp	r6, #7
 2830 01b2 05D1     		bne	.L370
 2831 01b4 2800     		movs	r0, r5
 2832 01b6 FFF7FEFF 		bl	smtc_real_is_channel_mask_for_mobile_mode
ARM GAS  /tmp/ccEvku90.s 			page 55


 2833 01ba 0130     		adds	r0, r0, #1
 2834 01bc 0CD1     		bne	.L285
 2835 01be 5F48     		ldr	r0, .L385+64
 2836              	.L370:
 2837 01c0 FFF7FEFF 		bl	smtc_modem_hal_print_trace
 2838 01c4 5148     		ldr	r0, .L385+16
 2839 01c6 FFF7FEFF 		bl	smtc_modem_hal_print_trace
 2840 01ca 0026     		movs	r6, #0
 2841 01cc 0AE0     		b	.L287
 2842              	.L334:
 2843 01ce 0022     		movs	r2, #0
 2844 01d0 0592     		str	r2, [sp, #20]
 2845 01d2 0532     		adds	r2, r2, #5
 2846 01d4 9446     		mov	ip, r2
 2847 01d6 7EE7     		b	.L272
 2848              	.L285:
 2849 01d8 0126     		movs	r6, #1
 2850 01da 2800     		movs	r0, r5
 2851 01dc FFF7FEFF 		bl	smtc_real_set_channel_mask
 2852 01e0 574A     		ldr	r2, .L385+68
 2853 01e2 AE54     		strb	r6, [r5, r2]
 2854              	.L287:
 2855 01e4 0522     		movs	r2, #5
 2856 01e6 059B     		ldr	r3, [sp, #20]
 2857 01e8 5A43     		muls	r2, r3
 2858 01ea EB5D     		ldrb	r3, [r5, r7]
 2859 01ec 9B18     		adds	r3, r3, r2
 2860 01ee DBB2     		uxtb	r3, r3
 2861 01f0 444A     		ldr	r2, .L385+8
 2862 01f2 EB55     		strb	r3, [r5, r7]
 2863 01f4 AA5C     		ldrb	r2, [r5, r2]
 2864 01f6 9A42     		cmp	r2, r3
 2865 01f8 00D2     		bcs	.LCB2906
 2866 01fa 0EE7     		b	.L256	@long jump
 2867              	.LCB2906:
 2868 01fc 7A23     		movs	r3, #122
 2869 01fe FF33     		adds	r3, r3, #255
 2870 0200 E95C     		ldrb	r1, [r5, r3]
 2871 0202 0022     		movs	r2, #0
 2872 0204 0B00     		movs	r3, r1
 2873 0206 0320     		movs	r0, #3
 2874 0208 7B33     		adds	r3, r3, #123
 2875 020a FF33     		adds	r3, r3, #255
 2876 020c EB18     		adds	r3, r5, r3
 2877              	.L298:
 2878 020e 0132     		adds	r2, r2, #1
 2879 0210 059C     		ldr	r4, [sp, #20]
 2880 0212 D2B2     		uxtb	r2, r2
 2881 0214 1870     		strb	r0, [r3]
 2882 0216 5E70     		strb	r6, [r3, #1]
 2883 0218 0233     		adds	r3, r3, #2
 2884 021a 9442     		cmp	r4, r2
 2885 021c F7D1     		bne	.L298
 2886 021e 6300     		lsls	r3, r4, #1
 2887 0220 C918     		adds	r1, r1, r3
 2888 0222 7A23     		movs	r3, #122
 2889 0224 FF33     		adds	r3, r3, #255
ARM GAS  /tmp/ccEvku90.s 			page 56


 2890 0226 E954     		strb	r1, [r5, r3]
 2891 0228 F7E6     		b	.L256
 2892              	.L283:
 2893 022a 0524     		movs	r4, #5
 2894 022c 059B     		ldr	r3, [sp, #20]
 2895 022e 5A1E     		subs	r2, r3, #1
 2896 0230 6243     		muls	r2, r4
 2897 0232 EB5D     		ldrb	r3, [r5, r7]
 2898 0234 AA18     		adds	r2, r5, r2
 2899 0236 D318     		adds	r3, r2, r3
 2900 0238 0792     		str	r2, [sp, #28]
 2901 023a 364A     		ldr	r2, .L385+24
 2902 023c 9B18     		adds	r3, r3, r2
 2903 023e 1B78     		ldrb	r3, [r3]
 2904 0240 1B09     		lsrs	r3, r3, #4
 2905 0242 0693     		str	r3, [sp, #24]
 2906 0244 0F2B     		cmp	r3, #15
 2907 0246 0DD0     		beq	.L290
 2908 0248 0122     		movs	r2, #1
 2909 024a 1900     		movs	r1, r3
 2910 024c 2800     		movs	r0, r5
 2911 024e FFF7FEFF 		bl	smtc_real_is_tx_dr_acceptable
 2912 0252 0130     		adds	r0, r0, #1
 2913 0254 06D1     		bne	.L290
 2914 0256 3B48     		ldr	r0, .L385+72
 2915 0258 FFF7FEFF 		bl	smtc_modem_hal_print_trace
 2916 025c 2B48     		ldr	r0, .L385+16
 2917 025e 2640     		ands	r6, r4
 2918 0260 FFF7FEFF 		bl	smtc_modem_hal_print_trace
 2919              	.L290:
 2920 0264 079A     		ldr	r2, [sp, #28]
 2921 0266 EB5D     		ldrb	r3, [r5, r7]
 2922 0268 D318     		adds	r3, r2, r3
 2923 026a 2A4A     		ldr	r2, .L385+24
 2924 026c 9B18     		adds	r3, r3, r2
 2925 026e 1C78     		ldrb	r4, [r3]
 2926 0270 0F23     		movs	r3, #15
 2927 0272 1C40     		ands	r4, r3
 2928 0274 9C42     		cmp	r4, r3
 2929 0276 05D0     		beq	.L291
 2930 0278 2100     		movs	r1, r4
 2931 027a 2800     		movs	r0, r5
 2932 027c FFF7FEFF 		bl	smtc_real_is_tx_power_valid
 2933 0280 0130     		adds	r0, r0, #1
 2934 0282 31D0     		beq	.L292
 2935              	.L291:
 2936 0284 072E     		cmp	r6, #7
 2937 0286 ADD1     		bne	.L287
 2938 0288 079A     		ldr	r2, [sp, #28]
 2939 028a EB5D     		ldrb	r3, [r5, r7]
 2940 028c 2800     		movs	r0, r5
 2941 028e D318     		adds	r3, r2, r3
 2942 0290 CE22     		movs	r2, #206
 2943 0292 9200     		lsls	r2, r2, #2
 2944 0294 9B18     		adds	r3, r3, r2
 2945 0296 1B78     		ldrb	r3, [r3]
 2946 0298 0793     		str	r3, [sp, #28]
ARM GAS  /tmp/ccEvku90.s 			page 57


 2947 029a FFF7FEFF 		bl	smtc_real_set_channel_mask
 2948 029e 0F2C     		cmp	r4, #15
 2949 02a0 03D0     		beq	.L294
 2950 02a2 2100     		movs	r1, r4
 2951 02a4 2800     		movs	r0, r5
 2952 02a6 FFF7FEFF 		bl	smtc_real_set_power
 2953              	.L294:
 2954 02aa 0F22     		movs	r2, #15
 2955 02ac 079B     		ldr	r3, [sp, #28]
 2956 02ae 1340     		ands	r3, r2
 2957 02b0 00D1     		bne	.L295
 2958 02b2 0123     		movs	r3, #1
 2959              	.L295:
 2960 02b4 2C00     		movs	r4, r5
 2961 02b6 5134     		adds	r4, r4, #81
 2962 02b8 2370     		strb	r3, [r4]
 2963 02ba 2B00     		movs	r3, r5
 2964 02bc 069A     		ldr	r2, [sp, #24]
 2965 02be 4F33     		adds	r3, r3, #79
 2966 02c0 0F2A     		cmp	r2, #15
 2967 02c2 00D0     		beq	.L296
 2968 02c4 1A70     		strb	r2, [r3]
 2969              	.L296:
 2970 02c6 0121     		movs	r1, #1
 2971 02c8 1D4A     		ldr	r2, .L385+68
 2972 02ca 1F48     		ldr	r0, .L385+76
 2973 02cc A954     		strb	r1, [r5, r2]
 2974 02ce 1978     		ldrb	r1, [r3]
 2975 02d0 FFF7FEFF 		bl	smtc_modem_hal_print_trace
 2976 02d4 5021     		movs	r1, #80
 2977 02d6 1D48     		ldr	r0, .L385+80
 2978 02d8 6956     		ldrsb	r1, [r5, r1]
 2979 02da FFF7FEFF 		bl	smtc_modem_hal_print_trace
 2980 02de 2178     		ldrb	r1, [r4]
 2981 02e0 1B48     		ldr	r0, .L385+84
 2982 02e2 FFF7FEFF 		bl	smtc_modem_hal_print_trace
 2983 02e6 7DE7     		b	.L287
 2984              	.L292:
 2985 02e8 0323     		movs	r3, #3
 2986 02ea 1A48     		ldr	r0, .L385+88
 2987 02ec 1E40     		ands	r6, r3
 2988 02ee FFF7FEFF 		bl	smtc_modem_hal_print_trace
 2989 02f2 0648     		ldr	r0, .L385+16
 2990 02f4 FFF7FEFF 		bl	smtc_modem_hal_print_trace
 2991 02f8 74E7     		b	.L287
 2992              	.L386:
 2993 02fa C046     		.align	2
 2994              	.L385:
 2995 02fc 87040000 		.word	1159
 2996 0300 11050000 		.word	1297
 2997 0304 26040000 		.word	1062
 2998 0308 00000000 		.word	.LC72
 2999 030c 1E000000 		.word	.LC8
 3000 0310 44050000 		.word	1348
 3001 0314 35030000 		.word	821
 3002 0318 2B000000 		.word	.LC75
 3003 031c 36030000 		.word	822
ARM GAS  /tmp/ccEvku90.s 			page 58


 3004 0320 21050000 		.word	1313
 3005 0324 37030000 		.word	823
 3006 0328 46000000 		.word	.LC77
 3007 032c 7A000000 		.word	.LC79
 3008 0330 C1000000 		.word	.LC81
 3009 0334 92040000 		.word	1170
 3010 0338 18010000 		.word	.LC85
 3011 033c E5000000 		.word	.LC83
 3012 0340 19050000 		.word	1305
 3013 0344 3C010000 		.word	.LC87
 3014 0348 7B010000 		.word	.LC91
 3015 034c 93010000 		.word	.LC93
 3016 0350 A5010000 		.word	.LC95
 3017 0354 5C010000 		.word	.LC89
 3018              	.L271:
 3019 0358 0134     		adds	r4, r4, #1
 3020 035a 9C42     		cmp	r4, r3
 3021 035c 00DB     		blt	.LCB3081
 3022 035e 99E6     		b	.L279	@long jump
 3023              	.LCB3081:
 3024 0360 CD23     		movs	r3, #205
 3025 0362 2C19     		adds	r4, r5, r4
 3026 0364 9B00     		lsls	r3, r3, #2
 3027 0366 E418     		adds	r4, r4, r3
 3028 0368 2178     		ldrb	r1, [r4]
 3029 036a DB48     		ldr	r0, .L387
 3030 036c FFF7FEFF 		bl	smtc_modem_hal_print_trace
 3031 0370 EB5D     		ldrb	r3, [r5, r7]
 3032 0372 DA49     		ldr	r1, .L387+4
 3033 0374 EA18     		adds	r2, r5, r3
 3034 0376 5218     		adds	r2, r2, r1
 3035 0378 0F21     		movs	r1, #15
 3036 037a 1278     		ldrb	r2, [r2]
 3037 037c 0233     		adds	r3, r3, #2
 3038 037e 0A40     		ands	r2, r1
 3039 0380 2A66     		str	r2, [r5, #96]
 3040 0382 DBB2     		uxtb	r3, r3
 3041 0384 D64A     		ldr	r2, .L387+8
 3042 0386 EB55     		strb	r3, [r5, r7]
 3043 0388 AA5C     		ldrb	r2, [r5, r2]
 3044 038a 9A42     		cmp	r2, r3
 3045 038c 00D2     		bcs	.LCB3104
 3046 038e 44E6     		b	.L256	@long jump
 3047              	.LCB3104:
 3048 0390 7A20     		movs	r0, #122
 3049 0392 FF30     		adds	r0, r0, #255
 3050 0394 2B5C     		ldrb	r3, [r5, r0]
 3051 0396 0B39     		subs	r1, r1, #11
 3052 0398 EA18     		adds	r2, r5, r3
 3053 039a 7B32     		adds	r2, r2, #123
 3054 039c FF32     		adds	r2, r2, #255
 3055              	.L381:
 3056 039e 1170     		strb	r1, [r2]
 3057 03a0 0133     		adds	r3, r3, #1
 3058              	.L375:
 3059 03a2 2B54     		strb	r3, [r5, r0]
 3060 03a4 39E6     		b	.L256
ARM GAS  /tmp/ccEvku90.s 			page 59


 3061              	.L270:
 3062 03a6 0434     		adds	r4, r4, #4
 3063 03a8 9C42     		cmp	r4, r3
 3064 03aa 00DB     		blt	.LCB3125
 3065 03ac 72E6     		b	.L279	@long jump
 3066              	.LCB3125:
 3067 03ae CB49     		ldr	r1, .L387+4
 3068 03b0 CC4B     		ldr	r3, .L387+12
 3069 03b2 CD4A     		ldr	r2, .L387+16
 3070 03b4 F318     		adds	r3, r6, r3
 3071 03b6 B218     		adds	r2, r6, r2
 3072 03b8 7618     		adds	r6, r6, r1
 3073 03ba 3178     		ldrb	r1, [r6]
 3074 03bc CD26     		movs	r6, #205
 3075 03be 2C19     		adds	r4, r5, r4
 3076 03c0 B600     		lsls	r6, r6, #2
 3077 03c2 A419     		adds	r4, r4, r6
 3078 03c4 2478     		ldrb	r4, [r4]
 3079 03c6 1B78     		ldrb	r3, [r3]
 3080 03c8 1278     		ldrb	r2, [r2]
 3081 03ca 0094     		str	r4, [sp]
 3082 03cc 0724     		movs	r4, #7
 3083 03ce C748     		ldr	r0, .L387+20
 3084 03d0 FFF7FEFF 		bl	smtc_modem_hal_print_trace
 3085 03d4 EB5D     		ldrb	r3, [r5, r7]
 3086 03d6 C149     		ldr	r1, .L387+4
 3087 03d8 EB18     		adds	r3, r5, r3
 3088 03da 5B18     		adds	r3, r3, r1
 3089 03dc 1E78     		ldrb	r6, [r3]
 3090 03de 2800     		movs	r0, r5
 3091 03e0 3611     		asrs	r6, r6, #4
 3092 03e2 2640     		ands	r6, r4
 3093 03e4 3100     		movs	r1, r6
 3094 03e6 FFF7FEFF 		bl	smtc_real_is_rx1_dr_offset_valid
 3095 03ea 0130     		adds	r0, r0, #1
 3096 03ec 05D1     		bne	.L299
 3097 03ee C04A     		ldr	r2, .L387+24
 3098 03f0 C049     		ldr	r1, .L387+28
 3099 03f2 C148     		ldr	r0, .L387+32
 3100 03f4 FFF7FEFF 		bl	smtc_modem_hal_print_trace
 3101 03f8 013C     		subs	r4, r4, #1
 3102              	.L299:
 3103 03fa EB5D     		ldrb	r3, [r5, r7]
 3104 03fc B74A     		ldr	r2, .L387+4
 3105 03fe EB18     		adds	r3, r5, r3
 3106 0400 9B18     		adds	r3, r3, r2
 3107 0402 1A78     		ldrb	r2, [r3]
 3108 0404 0F23     		movs	r3, #15
 3109 0406 1A40     		ands	r2, r3
 3110 0408 1100     		movs	r1, r2
 3111 040a 2800     		movs	r0, r5
 3112 040c 0592     		str	r2, [sp, #20]
 3113 040e FFF7FEFF 		bl	smtc_real_is_rx_dr_valid
 3114 0412 0130     		adds	r0, r0, #1
 3115 0414 06D1     		bne	.L300
 3116 0416 0523     		movs	r3, #5
 3117 0418 B84A     		ldr	r2, .L387+36
ARM GAS  /tmp/ccEvku90.s 			page 60


 3118 041a B649     		ldr	r1, .L387+28
 3119 041c B648     		ldr	r0, .L387+32
 3120 041e 1C40     		ands	r4, r3
 3121 0420 FFF7FEFF 		bl	smtc_modem_hal_print_trace
 3122              	.L300:
 3123 0424 E95D     		ldrb	r1, [r5, r7]
 3124 0426 B04B     		ldr	r3, .L387+16
 3125 0428 2800     		movs	r0, r5
 3126 042a C918     		adds	r1, r1, r3
 3127 042c 6918     		adds	r1, r5, r1
 3128 042e FFF7FEFF 		bl	smtc_real_decode_freq_from_buf
 3129 0432 0100     		movs	r1, r0
 3130 0434 0690     		str	r0, [sp, #24]
 3131 0436 2800     		movs	r0, r5
 3132 0438 FFF7FEFF 		bl	smtc_real_is_frequency_valid
 3133 043c 0130     		adds	r0, r0, #1
 3134 043e 2DD1     		bne	.L301
 3135 0440 0323     		movs	r3, #3
 3136 0442 AF4A     		ldr	r2, .L387+40
 3137 0444 AB49     		ldr	r1, .L387+28
 3138 0446 AC48     		ldr	r0, .L387+32
 3139 0448 1C40     		ands	r4, r3
 3140 044a FFF7FEFF 		bl	smtc_modem_hal_print_trace
 3141              	.L302:
 3142 044e EB5D     		ldrb	r3, [r5, r7]
 3143 0450 A34A     		ldr	r2, .L387+8
 3144 0452 0533     		adds	r3, r3, #5
 3145 0454 DBB2     		uxtb	r3, r3
 3146 0456 EB55     		strb	r3, [r5, r7]
 3147 0458 AA5C     		ldrb	r2, [r5, r2]
 3148 045a 9A42     		cmp	r2, r3
 3149 045c 00D2     		bcs	.LCB3224
 3150 045e DCE5     		b	.L256	@long jump
 3151              	.LCB3224:
 3152 0460 7A26     		movs	r6, #122
 3153 0462 FF36     		adds	r6, r6, #255
 3154 0464 AB5D     		ldrb	r3, [r5, r6]
 3155 0466 0521     		movs	r1, #5
 3156 0468 EA18     		adds	r2, r5, r3
 3157 046a 1000     		movs	r0, r2
 3158 046c 7B30     		adds	r0, r0, #123
 3159 046e FF30     		adds	r0, r0, #255
 3160              	.L379:
 3161 0470 0170     		strb	r1, [r0]
 3162 0472 ED20     		movs	r0, #237
 3163 0474 7C32     		adds	r2, r2, #124
 3164 0476 0233     		adds	r3, r3, #2
 3165 0478 FF32     		adds	r2, r2, #255
 3166 047a 1470     		strb	r4, [r2]
 3167 047c 4000     		lsls	r0, r0, #1
 3168 047e AB55     		strb	r3, [r5, r6]
 3169 0480 2B5C     		ldrb	r3, [r5, r0]
 3170 0482 0D2B     		cmp	r3, #13
 3171 0484 00D9     		bls	.LCB3246
 3172 0486 C8E5     		b	.L256	@long jump
 3173              	.LCB3246:
 3174 0488 EA18     		adds	r2, r5, r3
ARM GAS  /tmp/ccEvku90.s 			page 61


 3175 048a 1600     		movs	r6, r2
 3176 048c DD32     		adds	r2, r2, #221
 3177 048e DC36     		adds	r6, r6, #220
 3178 0490 FF36     		adds	r6, r6, #255
 3179 0492 FF32     		adds	r2, r2, #255
 3180 0494 3170     		strb	r1, [r6]
 3181 0496 0233     		adds	r3, r3, #2
 3182 0498 1470     		strb	r4, [r2]
 3183 049a 82E7     		b	.L375
 3184              	.L301:
 3185 049c 072C     		cmp	r4, #7
 3186 049e D6D1     		bne	.L302
 3187 04a0 2B00     		movs	r3, r5
 3188 04a2 059A     		ldr	r2, [sp, #20]
 3189 04a4 5833     		adds	r3, r3, #88
 3190 04a6 1E70     		strb	r6, [r3]
 3191 04a8 053B     		subs	r3, r3, #5
 3192 04aa 1A70     		strb	r2, [r3]
 3193 04ac 0793     		str	r3, [sp, #28]
 3194 04ae 069B     		ldr	r3, [sp, #24]
 3195 04b0 3100     		movs	r1, r6
 3196 04b2 6B65     		str	r3, [r5, #84]
 3197 04b4 9348     		ldr	r0, .L387+44
 3198 04b6 FFF7FEFF 		bl	smtc_modem_hal_print_trace
 3199 04ba 079B     		ldr	r3, [sp, #28]
 3200 04bc 9248     		ldr	r0, .L387+48
 3201 04be 1978     		ldrb	r1, [r3]
 3202 04c0 FFF7FEFF 		bl	smtc_modem_hal_print_trace
 3203 04c4 9148     		ldr	r0, .L387+52
 3204 04c6 696D     		ldr	r1, [r5, #84]
 3205 04c8 FFF7FEFF 		bl	smtc_modem_hal_print_trace
 3206 04cc BFE7     		b	.L302
 3207              	.L269:
 3208 04ce 1723     		movs	r3, #23
 3209 04d0 04AA     		add	r2, sp, #16
 3210 04d2 8F4E     		ldr	r6, .L387+56
 3211 04d4 9B18     		adds	r3, r3, r2
 3212 04d6 1A00     		movs	r2, r3
 3213 04d8 2900     		movs	r1, r5
 3214 04da A859     		ldr	r0, [r5, r6]
 3215 04dc FFF7FEFF 		bl	rp_hook_get_id
 3216 04e0 8C4A     		ldr	r2, .L387+60
 3217 04e2 8449     		ldr	r1, .L387+28
 3218 04e4 8448     		ldr	r0, .L387+32
 3219 04e6 FFF7FEFF 		bl	smtc_modem_hal_print_trace
 3220 04ea EB5D     		ldrb	r3, [r5, r7]
 3221 04ec 7C4A     		ldr	r2, .L387+8
 3222 04ee 0133     		adds	r3, r3, #1
 3223 04f0 DBB2     		uxtb	r3, r3
 3224 04f2 EB55     		strb	r3, [r5, r7]
 3225 04f4 AA5C     		ldrb	r2, [r5, r2]
 3226 04f6 9A42     		cmp	r2, r3
 3227 04f8 00D2     		bcs	.LCB3305
 3228 04fa 8EE5     		b	.L256	@long jump
 3229              	.LCB3305:
 3230 04fc 7A23     		movs	r3, #122
 3231 04fe FF33     		adds	r3, r3, #255
ARM GAS  /tmp/ccEvku90.s 			page 62


 3232 0500 EC5C     		ldrb	r4, [r5, r3]
 3233 0502 2C19     		adds	r4, r5, r4
 3234 0504 2200     		movs	r2, r4
 3235 0506 7B32     		adds	r2, r2, #123
 3236 0508 FF32     		adds	r2, r2, #255
 3237 050a 1300     		movs	r3, r2
 3238 050c 0622     		movs	r2, #6
 3239 050e 1A70     		strb	r2, [r3]
 3240 0510 FFF7FEFF 		bl	smtc_modem_hal_get_battery_level
 3241 0514 7C34     		adds	r4, r4, #124
 3242 0516 FF34     		adds	r4, r4, #255
 3243 0518 2070     		strb	r0, [r4]
 3244 051a 04A8     		add	r0, sp, #16
 3245 051c C47D     		ldrb	r4, [r0, #23]
 3246 051e 8420     		movs	r0, #132
 3247 0520 7A23     		movs	r3, #122
 3248 0522 6043     		muls	r0, r4
 3249 0524 FF33     		adds	r3, r3, #255
 3250 0526 EA5C     		ldrb	r2, [r5, r3]
 3251 0528 AB59     		ldr	r3, [r5, r6]
 3252 052a A918     		adds	r1, r5, r2
 3253 052c 1B18     		adds	r3, r3, r0
 3254 052e 3F20     		movs	r0, #63
 3255 0530 7E33     		adds	r3, r3, #126
 3256 0532 1B88     		ldrh	r3, [r3]
 3257 0534 7D31     		adds	r1, r1, #125
 3258 0536 0340     		ands	r3, r0
 3259 0538 FF31     		adds	r1, r1, #255
 3260 053a 0B70     		strb	r3, [r1]
 3261 053c 7A23     		movs	r3, #122
 3262 053e 0332     		adds	r2, r2, #3
 3263 0540 FF33     		adds	r3, r3, #255
 3264 0542 EA54     		strb	r2, [r5, r3]
 3265 0544 69E5     		b	.L256
 3266              	.L268:
 3267 0546 0534     		adds	r4, r4, #5
 3268 0548 9C42     		cmp	r4, r3
 3269 054a 00DB     		blt	.LCB3360
 3270 054c A2E5     		b	.L279	@long jump
 3271              	.LCB3360:
 3272 054e 654B     		ldr	r3, .L387+12
 3273 0550 2C19     		adds	r4, r5, r4
 3274 0552 F318     		adds	r3, r6, r3
 3275 0554 1B78     		ldrb	r3, [r3]
 3276 0556 644A     		ldr	r2, .L387+16
 3277 0558 9C46     		mov	ip, r3
 3278 055a CD23     		movs	r3, #205
 3279 055c 9B00     		lsls	r3, r3, #2
 3280 055e E418     		adds	r4, r4, r3
 3281 0560 5E49     		ldr	r1, .L387+4
 3282 0562 2478     		ldrb	r4, [r4]
 3283 0564 B218     		adds	r2, r6, r2
 3284 0566 7118     		adds	r1, r6, r1
 3285 0568 0433     		adds	r3, r3, #4
 3286 056a 1278     		ldrb	r2, [r2]
 3287 056c 0978     		ldrb	r1, [r1]
 3288 056e F618     		adds	r6, r6, r3
ARM GAS  /tmp/ccEvku90.s 			page 63


 3289 0570 0194     		str	r4, [sp, #4]
 3290 0572 3478     		ldrb	r4, [r6]
 3291 0574 6848     		ldr	r0, .L387+64
 3292 0576 6346     		mov	r3, ip
 3293 0578 0094     		str	r4, [sp]
 3294 057a FFF7FEFF 		bl	smtc_modem_hal_print_trace
 3295 057e 2800     		movs	r0, r5
 3296 0580 FFF7FEFF 		bl	smtc_real_is_new_channel_req_supported
 3297 0584 0028     		cmp	r0, #0
 3298 0586 08D1     		bne	.L306
 3299 0588 6448     		ldr	r0, .L387+68
 3300 058a FFF7FEFF 		bl	smtc_modem_hal_print_trace
 3301 058e 5948     		ldr	r0, .L387+28
 3302 0590 FFF7FEFF 		bl	smtc_modem_hal_print_trace
 3303 0594 EB5D     		ldrb	r3, [r5, r7]
 3304 0596 0633     		adds	r3, r3, #6
 3305 0598 97E5     		b	.L374
 3306              	.L306:
 3307 059a EB5D     		ldrb	r3, [r5, r7]
 3308 059c 4F4A     		ldr	r2, .L387+4
 3309 059e EB18     		adds	r3, r5, r3
 3310 05a0 9B18     		adds	r3, r3, r2
 3311 05a2 1B78     		ldrb	r3, [r3]
 3312 05a4 2800     		movs	r0, r5
 3313 05a6 1900     		movs	r1, r3
 3314 05a8 0593     		str	r3, [sp, #20]
 3315 05aa FFF7FEFF 		bl	smtc_real_is_channel_index_valid
 3316 05ae 0324     		movs	r4, #3
 3317 05b0 0130     		adds	r0, r0, #1
 3318 05b2 05D1     		bne	.L307
 3319 05b4 5A4A     		ldr	r2, .L387+72
 3320 05b6 4F49     		ldr	r1, .L387+28
 3321 05b8 4F48     		ldr	r0, .L387+32
 3322 05ba FFF7FEFF 		bl	smtc_modem_hal_print_trace
 3323 05be 0024     		movs	r4, #0
 3324              	.L307:
 3325 05c0 E95D     		ldrb	r1, [r5, r7]
 3326 05c2 494B     		ldr	r3, .L387+16
 3327 05c4 2800     		movs	r0, r5
 3328 05c6 C918     		adds	r1, r1, r3
 3329 05c8 6918     		adds	r1, r5, r1
 3330 05ca FFF7FEFF 		bl	smtc_real_decode_freq_from_buf
 3331 05ce 0600     		movs	r6, r0
 3332 05d0 0100     		movs	r1, r0
 3333 05d2 2800     		movs	r0, r5
 3334 05d4 FFF7FEFF 		bl	smtc_real_is_nwk_received_tx_frequency_valid
 3335 05d8 0130     		adds	r0, r0, #1
 3336 05da 06D1     		bne	.L308
 3337 05dc 0223     		movs	r3, #2
 3338 05de 514A     		ldr	r2, .L387+76
 3339 05e0 4449     		ldr	r1, .L387+28
 3340 05e2 4548     		ldr	r0, .L387+32
 3341 05e4 1C40     		ands	r4, r3
 3342 05e6 FFF7FEFF 		bl	smtc_modem_hal_print_trace
 3343              	.L308:
 3344 05ea EB5D     		ldrb	r3, [r5, r7]
 3345 05ec 4E4A     		ldr	r2, .L387+80
ARM GAS  /tmp/ccEvku90.s 			page 64


 3346 05ee EB18     		adds	r3, r5, r3
 3347 05f0 9B18     		adds	r3, r3, r2
 3348 05f2 1A78     		ldrb	r2, [r3]
 3349 05f4 0F23     		movs	r3, #15
 3350 05f6 1A40     		ands	r2, r3
 3351 05f8 1100     		movs	r1, r2
 3352 05fa 2800     		movs	r0, r5
 3353 05fc 0692     		str	r2, [sp, #24]
 3354 05fe FFF7FEFF 		bl	smtc_real_is_tx_dr_valid
 3355 0602 0130     		adds	r0, r0, #1
 3356 0604 06D1     		bne	.L309
 3357 0606 0123     		movs	r3, #1
 3358 0608 484A     		ldr	r2, .L387+84
 3359 060a 3A49     		ldr	r1, .L387+28
 3360 060c 3A48     		ldr	r0, .L387+32
 3361 060e 1C40     		ands	r4, r3
 3362 0610 FFF7FEFF 		bl	smtc_modem_hal_print_trace
 3363              	.L309:
 3364 0614 EB5D     		ldrb	r3, [r5, r7]
 3365 0616 444A     		ldr	r2, .L387+80
 3366 0618 EB18     		adds	r3, r5, r3
 3367 061a 9B18     		adds	r3, r3, r2
 3368 061c 1B78     		ldrb	r3, [r3]
 3369 061e 2800     		movs	r0, r5
 3370 0620 1B09     		lsrs	r3, r3, #4
 3371 0622 1900     		movs	r1, r3
 3372 0624 0793     		str	r3, [sp, #28]
 3373 0626 FFF7FEFF 		bl	smtc_real_is_tx_dr_valid
 3374 062a 0130     		adds	r0, r0, #1
 3375 062c 29D1     		bne	.L310
 3376 062e 0123     		movs	r3, #1
 3377 0630 3F4A     		ldr	r2, .L387+88
 3378 0632 3049     		ldr	r1, .L387+28
 3379 0634 3048     		ldr	r0, .L387+32
 3380 0636 1C40     		ands	r4, r3
 3381 0638 FFF7FEFF 		bl	smtc_modem_hal_print_trace
 3382 063c 069B     		ldr	r3, [sp, #24]
 3383 063e 079A     		ldr	r2, [sp, #28]
 3384 0640 9342     		cmp	r3, r2
 3385 0642 06D9     		bls	.L312
 3386              	.L311:
 3387 0644 0123     		movs	r3, #1
 3388 0646 3B4A     		ldr	r2, .L387+92
 3389 0648 2A49     		ldr	r1, .L387+28
 3390 064a 2B48     		ldr	r0, .L387+32
 3391 064c 1C40     		ands	r4, r3
 3392 064e FFF7FEFF 		bl	smtc_modem_hal_print_trace
 3393              	.L312:
 3394 0652 EB5D     		ldrb	r3, [r5, r7]
 3395 0654 224A     		ldr	r2, .L387+8
 3396 0656 0633     		adds	r3, r3, #6
 3397 0658 DBB2     		uxtb	r3, r3
 3398 065a EB55     		strb	r3, [r5, r7]
 3399 065c AA5C     		ldrb	r2, [r5, r2]
 3400 065e 9A42     		cmp	r2, r3
 3401 0660 00D2     		bcs	.LCB3507
 3402 0662 DAE4     		b	.L256	@long jump
ARM GAS  /tmp/ccEvku90.s 			page 65


 3403              	.LCB3507:
 3404 0664 7A26     		movs	r6, #122
 3405 0666 FF36     		adds	r6, r6, #255
 3406 0668 AB5D     		ldrb	r3, [r5, r6]
 3407 066a 0720     		movs	r0, #7
 3408 066c EA18     		adds	r2, r5, r3
 3409 066e 1100     		movs	r1, r2
 3410 0670 7C32     		adds	r2, r2, #124
 3411 0672 7B31     		adds	r1, r1, #123
 3412 0674 FF31     		adds	r1, r1, #255
 3413 0676 FF32     		adds	r2, r2, #255
 3414 0678 0870     		strb	r0, [r1]
 3415 067a 1470     		strb	r4, [r2]
 3416              	.L377:
 3417 067c 0233     		adds	r3, r3, #2
 3418 067e AB55     		strb	r3, [r5, r6]
 3419 0680 CBE4     		b	.L256
 3420              	.L310:
 3421 0682 069B     		ldr	r3, [sp, #24]
 3422 0684 079A     		ldr	r2, [sp, #28]
 3423 0686 9342     		cmp	r3, r2
 3424 0688 DCD8     		bhi	.L311
 3425 068a 032C     		cmp	r4, #3
 3426 068c E1D1     		bne	.L312
 3427 068e 3100     		movs	r1, r6
 3428 0690 2800     		movs	r0, r5
 3429 0692 059A     		ldr	r2, [sp, #20]
 3430 0694 FFF7FEFF 		bl	smtc_real_set_tx_frequency_channel
 3431 0698 3100     		movs	r1, r6
 3432 069a 059A     		ldr	r2, [sp, #20]
 3433 069c 2800     		movs	r0, r5
 3434 069e FFF7FEFF 		bl	smtc_real_set_rx1_frequency_channel
 3435 06a2 069A     		ldr	r2, [sp, #24]
 3436 06a4 0599     		ldr	r1, [sp, #20]
 3437 06a6 2800     		movs	r0, r5
 3438 06a8 079B     		ldr	r3, [sp, #28]
 3439 06aa FFF7FEFF 		bl	smtc_real_set_channel_dr
 3440 06ae 311E     		subs	r1, r6, #0
 3441 06b0 059A     		ldr	r2, [sp, #20]
 3442 06b2 00D0     		beq	.L371
 3443 06b4 0121     		movs	r1, #1
 3444              	.L371:
 3445 06b6 2800     		movs	r0, r5
 3446 06b8 FFF7FEFF 		bl	smtc_real_set_channel_enabled
 3447 06bc 0599     		ldr	r1, [sp, #20]
 3448 06be 2800     		movs	r0, r5
 3449 06c0 FFF7FEFF 		bl	smtc_real_get_tx_channel_frequency
 3450 06c4 079B     		ldr	r3, [sp, #28]
 3451 06c6 1C4E     		ldr	r6, .L387+96
 3452 06c8 0200     		movs	r2, r0
 3453 06ca 0093     		str	r3, [sp]
 3454 06cc 3000     		movs	r0, r6
 3455 06ce 069B     		ldr	r3, [sp, #24]
 3456 06d0 0599     		ldr	r1, [sp, #20]
 3457 06d2 FFF7FEFF 		bl	smtc_modem_hal_print_trace
 3458 06d6 BCE7     		b	.L312
 3459              	.L388:
ARM GAS  /tmp/ccEvku90.s 			page 66


 3460              		.align	2
 3461              	.L387:
 3462 06d8 B7010000 		.word	.LC97
 3463 06dc 35030000 		.word	821
 3464 06e0 26040000 		.word	1062
 3465 06e4 37030000 		.word	823
 3466 06e8 36030000 		.word	822
 3467 06ec D2010000 		.word	.LC99
 3468 06f0 FD010000 		.word	.LC101
 3469 06f4 1E000000 		.word	.LC8
 3470 06f8 8E000000 		.word	.LC52
 3471 06fc 13020000 		.word	.LC104
 3472 0700 23020000 		.word	.LC106
 3473 0704 3B020000 		.word	.LC108
 3474 0708 57020000 		.word	.LC110
 3475 070c 6D020000 		.word	.LC112
 3476 0710 BC040000 		.word	1212
 3477 0714 84020000 		.word	.LC114
 3478 0718 9F020000 		.word	.LC116
 3479 071c CA020000 		.word	.LC118
 3480 0720 08030000 		.word	.LC120
 3481 0724 20030000 		.word	.LC122
 3482 0728 39030000 		.word	825
 3483 072c 34030000 		.word	.LC124
 3484 0730 45030000 		.word	.LC126
 3485 0734 56030000 		.word	.LC128
 3486 0738 70030000 		.word	.LC130
 3487              	.L267:
 3488 073c 0134     		adds	r4, r4, #1
 3489 073e 9C42     		cmp	r4, r3
 3490 0740 00DB     		blt	.LCB3604
 3491 0742 A7E4     		b	.L279	@long jump
 3492              	.LCB3604:
 3493 0744 CD23     		movs	r3, #205
 3494 0746 2C19     		adds	r4, r5, r4
 3495 0748 9B00     		lsls	r3, r3, #2
 3496 074a E418     		adds	r4, r4, r3
 3497 074c 2178     		ldrb	r1, [r4]
 3498 074e E548     		ldr	r0, .L389
 3499 0750 FFF7FEFF 		bl	smtc_modem_hal_print_trace
 3500 0754 EB5D     		ldrb	r3, [r5, r7]
 3501 0756 E449     		ldr	r1, .L389+4
 3502 0758 EA18     		adds	r2, r5, r3
 3503 075a 5218     		adds	r2, r2, r1
 3504 075c 0F21     		movs	r1, #15
 3505 075e 1278     		ldrb	r2, [r2]
 3506 0760 0A40     		ands	r2, r1
 3507 0762 111C     		adds	r1, r2, #0
 3508 0764 002A     		cmp	r2, #0
 3509 0766 00D1     		bne	.L316
 3510 0768 0121     		movs	r1, #1
 3511              	.L316:
 3512 076a 2A00     		movs	r2, r5
 3513 076c 0233     		adds	r3, r3, #2
 3514 076e 5932     		adds	r2, r2, #89
 3515 0770 1170     		strb	r1, [r2]
 3516 0772 DBB2     		uxtb	r3, r3
ARM GAS  /tmp/ccEvku90.s 			page 67


 3517 0774 DD4A     		ldr	r2, .L389+8
 3518 0776 EB55     		strb	r3, [r5, r7]
 3519 0778 AA5C     		ldrb	r2, [r5, r2]
 3520 077a 9A42     		cmp	r2, r3
 3521 077c 00D2     		bcs	.LCB3635
 3522 077e 4CE4     		b	.L256	@long jump
 3523              	.LCB3635:
 3524 0780 7A20     		movs	r0, #122
 3525 0782 0821     		movs	r1, #8
 3526 0784 FF30     		adds	r0, r0, #255
 3527 0786 2B5C     		ldrb	r3, [r5, r0]
 3528 0788 EA18     		adds	r2, r5, r3
 3529 078a 7B32     		adds	r2, r2, #123
 3530 078c FF32     		adds	r2, r2, #255
 3531              	.L384:
 3532 078e 0133     		adds	r3, r3, #1
 3533 0790 1170     		strb	r1, [r2]
 3534 0792 2B54     		strb	r3, [r5, r0]
 3535 0794 6130     		adds	r0, r0, #97
 3536 0796 2B5C     		ldrb	r3, [r5, r0]
 3537 0798 0E2B     		cmp	r3, #14
 3538 079a 00D9     		bls	.LCB3652
 3539 079c 3DE4     		b	.L256	@long jump
 3540              	.LCB3652:
 3541 079e EA18     		adds	r2, r5, r3
 3542 07a0 DC32     		adds	r2, r2, #220
 3543 07a2 FF32     		adds	r2, r2, #255
 3544 07a4 FBE5     		b	.L381
 3545              	.L266:
 3546 07a6 0134     		adds	r4, r4, #1
 3547 07a8 9C42     		cmp	r4, r3
 3548 07aa 00DB     		blt	.LCB3662
 3549 07ac 72E4     		b	.L279	@long jump
 3550              	.LCB3662:
 3551 07ae CD23     		movs	r3, #205
 3552 07b0 2C19     		adds	r4, r5, r4
 3553 07b2 9B00     		lsls	r3, r3, #2
 3554 07b4 E418     		adds	r4, r4, r3
 3555 07b6 CE48     		ldr	r0, .L389+12
 3556 07b8 2178     		ldrb	r1, [r4]
 3557 07ba FFF7FEFF 		bl	smtc_modem_hal_print_trace
 3558 07be 2800     		movs	r0, r5
 3559 07c0 FFF7FEFF 		bl	smtc_real_is_tx_param_setup_req_supported
 3560 07c4 0028     		cmp	r0, #0
 3561 07c6 08D1     		bne	.L317
 3562 07c8 CA48     		ldr	r0, .L389+16
 3563 07ca FFF7FEFF 		bl	smtc_modem_hal_print_trace
 3564 07ce CA48     		ldr	r0, .L389+20
 3565 07d0 FFF7FEFF 		bl	smtc_modem_hal_print_trace
 3566 07d4 EB5D     		ldrb	r3, [r5, r7]
 3567 07d6 0233     		adds	r3, r3, #2
 3568 07d8 77E4     		b	.L374
 3569              	.L317:
 3570 07da EB5D     		ldrb	r3, [r5, r7]
 3571 07dc C249     		ldr	r1, .L389+4
 3572 07de EA18     		adds	r2, r5, r3
 3573 07e0 5218     		adds	r2, r2, r1
ARM GAS  /tmp/ccEvku90.s 			page 68


 3574 07e2 0F21     		movs	r1, #15
 3575 07e4 1278     		ldrb	r2, [r2]
 3576 07e6 C548     		ldr	r0, .L389+24
 3577 07e8 1140     		ands	r1, r2
 3578 07ea 415C     		ldrb	r1, [r0, r1]
 3579 07ec A86B     		ldr	r0, [r5, #56]
 3580 07ee 0239     		subs	r1, r1, #2
 3581 07f0 847A     		ldrb	r4, [r0, #10]
 3582 07f2 081C     		adds	r0, r1, #0
 3583 07f4 C9B2     		uxtb	r1, r1
 3584 07f6 A142     		cmp	r1, r4
 3585 07f8 00D9     		bls	.L318
 3586 07fa 201C     		adds	r0, r4, #0
 3587              	.L318:
 3588 07fc 2900     		movs	r1, r5
 3589 07fe 5A31     		adds	r1, r1, #90
 3590 0800 0870     		strb	r0, [r1]
 3591 0802 2C00     		movs	r4, r5
 3592 0804 0120     		movs	r0, #1
 3593 0806 1109     		lsrs	r1, r2, #4
 3594 0808 0140     		ands	r1, r0
 3595 080a 5B34     		adds	r4, r4, #91
 3596 080c 2170     		strb	r1, [r4]
 3597 080e 2900     		movs	r1, r5
 3598 0810 5209     		lsrs	r2, r2, #5
 3599 0812 0240     		ands	r2, r0
 3600 0814 5C31     		adds	r1, r1, #92
 3601 0816 0233     		adds	r3, r3, #2
 3602 0818 0A70     		strb	r2, [r1]
 3603 081a DBB2     		uxtb	r3, r3
 3604 081c B34A     		ldr	r2, .L389+8
 3605 081e EB55     		strb	r3, [r5, r7]
 3606 0820 AA5C     		ldrb	r2, [r5, r2]
 3607 0822 9A42     		cmp	r2, r3
 3608 0824 01D2     		bcs	.LCB3726
 3609 0826 FFF7F8FB 		bl	.L256	@far jump
 3610              	.LCB3726:
 3611 082a 7A20     		movs	r0, #122
 3612 082c FF30     		adds	r0, r0, #255
 3613 082e 2B5C     		ldrb	r3, [r5, r0]
 3614 0830 0921     		movs	r1, #9
 3615 0832 EA18     		adds	r2, r5, r3
 3616 0834 7B32     		adds	r2, r2, #123
 3617 0836 FF32     		adds	r2, r2, #255
 3618 0838 A9E7     		b	.L384
 3619              	.L265:
 3620 083a 0434     		adds	r4, r4, #4
 3621 083c 9C42     		cmp	r4, r3
 3622 083e 00DB     		blt	.LCB3740
 3623 0840 28E4     		b	.L279	@long jump
 3624              	.LCB3740:
 3625 0842 A949     		ldr	r1, .L389+4
 3626 0844 AE4B     		ldr	r3, .L389+28
 3627 0846 AF4A     		ldr	r2, .L389+32
 3628 0848 F318     		adds	r3, r6, r3
 3629 084a B218     		adds	r2, r6, r2
 3630 084c 7618     		adds	r6, r6, r1
ARM GAS  /tmp/ccEvku90.s 			page 69


 3631 084e 3178     		ldrb	r1, [r6]
 3632 0850 CD26     		movs	r6, #205
 3633 0852 2C19     		adds	r4, r5, r4
 3634 0854 B600     		lsls	r6, r6, #2
 3635 0856 A419     		adds	r4, r4, r6
 3636 0858 2478     		ldrb	r4, [r4]
 3637 085a 1B78     		ldrb	r3, [r3]
 3638 085c 1278     		ldrb	r2, [r2]
 3639 085e AA48     		ldr	r0, .L389+36
 3640 0860 0094     		str	r4, [sp]
 3641 0862 FFF7FEFF 		bl	smtc_modem_hal_print_trace
 3642 0866 2800     		movs	r0, r5
 3643 0868 FFF7FEFF 		bl	smtc_real_is_new_channel_req_supported
 3644 086c 0028     		cmp	r0, #0
 3645 086e 08D1     		bne	.L319
 3646 0870 A648     		ldr	r0, .L389+40
 3647 0872 FFF7FEFF 		bl	smtc_modem_hal_print_trace
 3648 0876 A048     		ldr	r0, .L389+20
 3649 0878 FFF7FEFF 		bl	smtc_modem_hal_print_trace
 3650 087c EB5D     		ldrb	r3, [r5, r7]
 3651 087e 0533     		adds	r3, r3, #5
 3652 0880 23E4     		b	.L374
 3653              	.L319:
 3654 0882 EB5D     		ldrb	r3, [r5, r7]
 3655 0884 984A     		ldr	r2, .L389+4
 3656 0886 EB18     		adds	r3, r5, r3
 3657 0888 9B18     		adds	r3, r3, r2
 3658 088a 1E78     		ldrb	r6, [r3]
 3659 088c 2800     		movs	r0, r5
 3660 088e 3100     		movs	r1, r6
 3661 0890 FFF7FEFF 		bl	smtc_real_get_tx_channel_frequency
 3662 0894 0324     		movs	r4, #3
 3663 0896 0028     		cmp	r0, #0
 3664 0898 05D1     		bne	.L320
 3665 089a 9D4A     		ldr	r2, .L389+44
 3666 089c 9649     		ldr	r1, .L389+20
 3667 089e 9D48     		ldr	r0, .L389+48
 3668 08a0 FFF7FEFF 		bl	smtc_modem_hal_print_trace
 3669 08a4 023C     		subs	r4, r4, #2
 3670              	.L320:
 3671 08a6 E95D     		ldrb	r1, [r5, r7]
 3672 08a8 964B     		ldr	r3, .L389+32
 3673 08aa 2800     		movs	r0, r5
 3674 08ac C918     		adds	r1, r1, r3
 3675 08ae 6918     		adds	r1, r5, r1
 3676 08b0 FFF7FEFF 		bl	smtc_real_decode_freq_from_buf
 3677 08b4 0100     		movs	r1, r0
 3678 08b6 0590     		str	r0, [sp, #20]
 3679 08b8 2800     		movs	r0, r5
 3680 08ba FFF7FEFF 		bl	smtc_real_is_frequency_valid
 3681 08be 0130     		adds	r0, r0, #1
 3682 08c0 19D1     		bne	.L321
 3683 08c2 0223     		movs	r3, #2
 3684 08c4 944A     		ldr	r2, .L389+52
 3685 08c6 8C49     		ldr	r1, .L389+20
 3686 08c8 9248     		ldr	r0, .L389+48
 3687 08ca 1C40     		ands	r4, r3
ARM GAS  /tmp/ccEvku90.s 			page 70


 3688              	.L372:
 3689 08cc FFF7FEFF 		bl	smtc_modem_hal_print_trace
 3690              	.L322:
 3691 08d0 EB5D     		ldrb	r3, [r5, r7]
 3692 08d2 864A     		ldr	r2, .L389+8
 3693 08d4 0533     		adds	r3, r3, #5
 3694 08d6 DBB2     		uxtb	r3, r3
 3695 08d8 EB55     		strb	r3, [r5, r7]
 3696 08da AA5C     		ldrb	r2, [r5, r2]
 3697 08dc 9A42     		cmp	r2, r3
 3698 08de 01D2     		bcs	.LCB3823
 3699 08e0 FFF79BFB 		bl	.L256	@far jump
 3700              	.LCB3823:
 3701 08e4 7A26     		movs	r6, #122
 3702 08e6 FF36     		adds	r6, r6, #255
 3703 08e8 AB5D     		ldrb	r3, [r5, r6]
 3704 08ea 0A21     		movs	r1, #10
 3705 08ec EA18     		adds	r2, r5, r3
 3706 08ee 1000     		movs	r0, r2
 3707 08f0 7B30     		adds	r0, r0, #123
 3708 08f2 FF30     		adds	r0, r0, #255
 3709 08f4 BCE5     		b	.L379
 3710              	.L321:
 3711 08f6 032C     		cmp	r4, #3
 3712 08f8 11D1     		bne	.L338
 3713 08fa 3200     		movs	r2, r6
 3714 08fc 0599     		ldr	r1, [sp, #20]
 3715 08fe 2800     		movs	r0, r5
 3716 0900 FFF7FEFF 		bl	smtc_real_set_rx1_frequency_channel
 3717 0904 4342     		rsbs	r3, r0, #0
 3718 0906 5841     		adcs	r0, r0, r3
 3719 0908 4042     		rsbs	r0, r0, #0
 3720 090a 3100     		movs	r1, r6
 3721 090c 0440     		ands	r4, r0
 3722 090e 2800     		movs	r0, r5
 3723 0910 FFF7FEFF 		bl	smtc_real_get_rx1_channel_frequency
 3724 0914 814B     		ldr	r3, .L389+56
 3725 0916 0200     		movs	r2, r0
 3726 0918 3100     		movs	r1, r6
 3727 091a 1800     		movs	r0, r3
 3728 091c D6E7     		b	.L372
 3729              	.L338:
 3730 091e 0124     		movs	r4, #1
 3731 0920 D6E7     		b	.L322
 3732              	.L264:
 3733 0922 7F4A     		ldr	r2, .L389+60
 3734 0924 AA5C     		ldrb	r2, [r5, r2]
 3735 0926 022A     		cmp	r2, #2
 3736 0928 01D0     		beq	.LCB3866
 3737 092a FFF776FB 		bl	.L256	@far jump
 3738              	.LCB3866:
 3739 092e 0534     		adds	r4, r4, #5
 3740 0930 9C42     		cmp	r4, r3
 3741 0932 01DB     		blt	.LCB3869
 3742 0934 FFF7AEFB 		bl	.L279	@far jump
 3743              	.LCB3869:
 3744 0938 714B     		ldr	r3, .L389+28
ARM GAS  /tmp/ccEvku90.s 			page 71


 3745 093a 2C19     		adds	r4, r5, r4
 3746 093c F318     		adds	r3, r6, r3
 3747 093e 1B78     		ldrb	r3, [r3]
 3748 0940 7049     		ldr	r1, .L389+32
 3749 0942 9C46     		mov	ip, r3
 3750 0944 CD23     		movs	r3, #205
 3751 0946 9B00     		lsls	r3, r3, #2
 3752 0948 6748     		ldr	r0, .L389+4
 3753 094a E418     		adds	r4, r4, r3
 3754 094c 2478     		ldrb	r4, [r4]
 3755 094e 7218     		adds	r2, r6, r1
 3756 0950 3118     		adds	r1, r6, r0
 3757 0952 1278     		ldrb	r2, [r2]
 3758 0954 0978     		ldrb	r1, [r1]
 3759 0956 0194     		str	r4, [sp, #4]
 3760 0958 CE24     		movs	r4, #206
 3761 095a A400     		lsls	r4, r4, #2
 3762 095c 3619     		adds	r6, r6, r4
 3763 095e 3478     		ldrb	r4, [r6]
 3764 0960 6346     		mov	r3, ip
 3765 0962 0094     		str	r4, [sp]
 3766 0964 CE24     		movs	r4, #206
 3767 0966 6F48     		ldr	r0, .L389+64
 3768 0968 FFF7FEFF 		bl	smtc_modem_hal_print_trace
 3769 096c EB5D     		ldrb	r3, [r5, r7]
 3770 096e 6549     		ldr	r1, .L389+32
 3771 0970 EB18     		adds	r3, r5, r3
 3772 0972 5A18     		adds	r2, r3, r1
 3773 0974 1178     		ldrb	r1, [r2]
 3774 0976 624A     		ldr	r2, .L389+28
 3775 0978 5B48     		ldr	r0, .L389+4
 3776 097a 9A18     		adds	r2, r3, r2
 3777 097c 1278     		ldrb	r2, [r2]
 3778 097e 0902     		lsls	r1, r1, #8
 3779 0980 1204     		lsls	r2, r2, #16
 3780 0982 1143     		orrs	r1, r2
 3781 0984 1A18     		adds	r2, r3, r0
 3782 0986 1278     		ldrb	r2, [r2]
 3783 0988 A400     		lsls	r4, r4, #2
 3784 098a 1143     		orrs	r1, r2
 3785 098c 1A19     		adds	r2, r3, r4
 3786 098e 1278     		ldrb	r2, [r2]
 3787 0990 6548     		ldr	r0, .L389+68
 3788 0992 1206     		lsls	r2, r2, #24
 3789 0994 1143     		orrs	r1, r2
 3790 0996 654A     		ldr	r2, .L389+72
 3791 0998 A950     		str	r1, [r5, r2]
 3792 099a 654A     		ldr	r2, .L389+76
 3793 099c 9B18     		adds	r3, r3, r2
 3794 099e 1B78     		ldrb	r3, [r3]
 3795 09a0 AF32     		adds	r2, r2, #175
 3796 09a2 5A43     		muls	r2, r3
 3797 09a4 A523     		movs	r3, #165
 3798 09a6 120A     		lsrs	r2, r2, #8
 3799 09a8 DB00     		lsls	r3, r3, #3
 3800 09aa EA50     		str	r2, [r5, r3]
 3801 09ac FFF7FEFF 		bl	smtc_modem_hal_print_trace
ARM GAS  /tmp/ccEvku90.s 			page 72


 3802 09b0 EB5D     		ldrb	r3, [r5, r7]
 3803 09b2 5B4A     		ldr	r2, .L389+60
 3804 09b4 0633     		adds	r3, r3, #6
 3805 09b6 EB55     		strb	r3, [r5, r7]
 3806 09b8 0323     		movs	r3, #3
 3807 09ba AB54     		strb	r3, [r5, r2]
 3808 09bc A623     		movs	r3, #166
 3809 09be DB00     		lsls	r3, r3, #3
 3810 09c0 EA58     		ldr	r2, [r5, r3]
 3811 09c2 5C4B     		ldr	r3, .L389+80
 3812 09c4 EA50     		str	r2, [r5, r3]
 3813 09c6 FFF7FEFF 		bl	smtc_modem_hal_get_time_in_s
 3814 09ca 5B4B     		ldr	r3, .L389+84
 3815 09cc 0100     		movs	r1, r0
 3816 09ce E850     		str	r0, [r5, r3]
 3817 09d0 0433     		adds	r3, r3, #4
 3818 09d2 EB58     		ldr	r3, [r5, r3]
 3819 09d4 002B     		cmp	r3, #0
 3820 09d6 01D1     		bne	.LCB3970
 3821 09d8 FFF71FFB 		bl	.L256	@far jump
 3822              	.LCB3970:
 3823 09dc 574A     		ldr	r2, .L389+88
 3824 09de A858     		ldr	r0, [r5, r2]
 3825 09e0 9847     		blx	r3
 3826 09e2 FFF71AFB 		bl	.L256	@ far jump
 3827              	.L263:
 3828 09e6 564C     		ldr	r4, .L389+92
 3829 09e8 2B5D     		ldrb	r3, [r5, r4]
 3830 09ea 022B     		cmp	r3, #2
 3831 09ec 01D0     		beq	.LCB3981
 3832 09ee FFF714FB 		bl	.L256	@far jump
 3833              	.LCB3981:
 3834 09f2 5448     		ldr	r0, .L389+96
 3835 09f4 FFF7FEFF 		bl	smtc_modem_hal_print_trace
 3836 09f8 EB5D     		ldrb	r3, [r5, r7]
 3837 09fa 0133     		adds	r3, r3, #1
 3838 09fc EB55     		strb	r3, [r5, r7]
 3839 09fe 524B     		ldr	r3, .L389+100
 3840 0a00 EA5C     		ldrb	r2, [r5, r3]
 3841 0a02 524B     		ldr	r3, .L389+104
 3842 0a04 EA54     		strb	r2, [r5, r3]
 3843 0a06 0323     		movs	r3, #3
 3844 0a08 2B55     		strb	r3, [r5, r4]
 3845 0a0a FFF706FB 		bl	.L256	@ far jump
 3846              	.L262:
 3847 0a0e 0434     		adds	r4, r4, #4
 3848 0a10 9C42     		cmp	r4, r3
 3849 0a12 01DB     		blt	.LCB3999
 3850 0a14 FFF73EFB 		bl	.L279	@far jump
 3851              	.LCB3999:
 3852 0a18 3349     		ldr	r1, .L389+4
 3853 0a1a 394B     		ldr	r3, .L389+28
 3854 0a1c 394A     		ldr	r2, .L389+32
 3855 0a1e F318     		adds	r3, r6, r3
 3856 0a20 B218     		adds	r2, r6, r2
 3857 0a22 7618     		adds	r6, r6, r1
 3858 0a24 3178     		ldrb	r1, [r6]
ARM GAS  /tmp/ccEvku90.s 			page 73


 3859 0a26 CD26     		movs	r6, #205
 3860 0a28 2C19     		adds	r4, r5, r4
 3861 0a2a B600     		lsls	r6, r6, #2
 3862 0a2c A419     		adds	r4, r4, r6
 3863 0a2e 2478     		ldrb	r4, [r4]
 3864 0a30 1B78     		ldrb	r3, [r3]
 3865 0a32 1278     		ldrb	r2, [r2]
 3866 0a34 4648     		ldr	r0, .L389+108
 3867 0a36 0094     		str	r4, [sp]
 3868 0a38 FFF7FEFF 		bl	smtc_modem_hal_print_trace
 3869 0a3c E95D     		ldrb	r1, [r5, r7]
 3870 0a3e 2A4B     		ldr	r3, .L389+4
 3871 0a40 2800     		movs	r0, r5
 3872 0a42 C918     		adds	r1, r1, r3
 3873 0a44 6918     		adds	r1, r5, r1
 3874 0a46 FFF7FEFF 		bl	smtc_real_decode_freq_from_buf
 3875 0a4a 061E     		subs	r6, r0, #0
 3876 0a4c 29D1     		bne	.L324
 3877              	.L326:
 3878 0a4e 0324     		movs	r4, #3
 3879              	.L325:
 3880 0a50 CE22     		movs	r2, #206
 3881 0a52 EB5D     		ldrb	r3, [r5, r7]
 3882 0a54 9200     		lsls	r2, r2, #2
 3883 0a56 EB18     		adds	r3, r5, r3
 3884 0a58 9B18     		adds	r3, r3, r2
 3885 0a5a 1A78     		ldrb	r2, [r3]
 3886 0a5c 0F23     		movs	r3, #15
 3887 0a5e 1A40     		ands	r2, r3
 3888 0a60 1100     		movs	r1, r2
 3889 0a62 2800     		movs	r0, r5
 3890 0a64 0592     		str	r2, [sp, #20]
 3891 0a66 FFF7FEFF 		bl	smtc_real_is_rx_dr_valid
 3892 0a6a 0130     		adds	r0, r0, #1
 3893 0a6c 26D1     		bne	.L327
 3894 0a6e 0123     		movs	r3, #1
 3895 0a70 384A     		ldr	r2, .L389+112
 3896 0a72 2149     		ldr	r1, .L389+20
 3897 0a74 2748     		ldr	r0, .L389+48
 3898 0a76 1C40     		ands	r4, r3
 3899 0a78 FFF7FEFF 		bl	smtc_modem_hal_print_trace
 3900              	.L328:
 3901 0a7c EB5D     		ldrb	r3, [r5, r7]
 3902 0a7e 1B4A     		ldr	r2, .L389+8
 3903 0a80 0533     		adds	r3, r3, #5
 3904 0a82 DBB2     		uxtb	r3, r3
 3905 0a84 EB55     		strb	r3, [r5, r7]
 3906 0a86 AA5C     		ldrb	r2, [r5, r2]
 3907 0a88 9A42     		cmp	r2, r3
 3908 0a8a 01D2     		bcs	.LCB4068
 3909 0a8c FFF7C5FA 		bl	.L256	@far jump
 3910              	.LCB4068:
 3911 0a90 7A26     		movs	r6, #122
 3912 0a92 FF36     		adds	r6, r6, #255
 3913 0a94 AB5D     		ldrb	r3, [r5, r6]
 3914 0a96 1121     		movs	r1, #17
 3915 0a98 EA18     		adds	r2, r5, r3
ARM GAS  /tmp/ccEvku90.s 			page 74


 3916 0a9a 1000     		movs	r0, r2
 3917 0a9c 7B30     		adds	r0, r0, #123
 3918 0a9e FF30     		adds	r0, r0, #255
 3919 0aa0 E6E4     		b	.L379
 3920              	.L324:
 3921 0aa2 0100     		movs	r1, r0
 3922 0aa4 2800     		movs	r0, r5
 3923 0aa6 FFF7FEFF 		bl	smtc_real_is_frequency_valid
 3924 0aaa 0130     		adds	r0, r0, #1
 3925 0aac CFD1     		bne	.L326
 3926 0aae 2A4A     		ldr	r2, .L389+116
 3927 0ab0 1149     		ldr	r1, .L389+20
 3928 0ab2 1848     		ldr	r0, .L389+48
 3929 0ab4 FFF7FEFF 		bl	smtc_modem_hal_print_trace
 3930 0ab8 0224     		movs	r4, #2
 3931 0aba C9E7     		b	.L325
 3932              	.L327:
 3933 0abc 032C     		cmp	r4, #3
 3934 0abe 0ED1     		bne	.L340
 3935 0ac0 264B     		ldr	r3, .L389+120
 3936 0ac2 059A     		ldr	r2, [sp, #20]
 3937 0ac4 EE50     		str	r6, [r5, r3]
 3938 0ac6 0433     		adds	r3, r3, #4
 3939 0ac8 1100     		movs	r1, r2
 3940 0aca EA54     		strb	r2, [r5, r3]
 3941 0acc 2448     		ldr	r0, .L389+124
 3942 0ace FFF7FEFF 		bl	smtc_modem_hal_print_trace
 3943 0ad2 224B     		ldr	r3, .L389+120
 3944 0ad4 2348     		ldr	r0, .L389+128
 3945 0ad6 E958     		ldr	r1, [r5, r3]
 3946 0ad8 FFF7FEFF 		bl	smtc_modem_hal_print_trace
 3947 0adc CEE7     		b	.L328
 3948              	.L340:
 3949 0ade 0224     		movs	r4, #2
 3950 0ae0 CCE7     		b	.L328
 3951              	.L390:
 3952 0ae2 C046     		.align	2
 3953              	.L389:
 3954 0ae4 A5030000 		.word	.LC132
 3955 0ae8 35030000 		.word	821
 3956 0aec 26040000 		.word	1062
 3957 0af0 C7030000 		.word	.LC134
 3958 0af4 E8030000 		.word	.LC136
 3959 0af8 1E000000 		.word	.LC8
 3960 0afc 00000000 		.word	smtc_real_max_eirp_dbm_from_idx
 3961 0b00 37030000 		.word	823
 3962 0b04 36030000 		.word	822
 3963 0b08 28040000 		.word	.LC139
 3964 0b0c 4F040000 		.word	.LC141
 3965 0b10 08030000 		.word	.LC120
 3966 0b14 8E000000 		.word	.LC52
 3967 0b18 20030000 		.word	.LC122
 3968 0b1c 8C040000 		.word	.LC143
 3969 0b20 45050000 		.word	1349
 3970 0b24 AA040000 		.word	.LC145
 3971 0b28 D8040000 		.word	.LC147
 3972 0b2c 24050000 		.word	1316
ARM GAS  /tmp/ccEvku90.s 			page 75


 3973 0b30 39030000 		.word	825
 3974 0b34 2C050000 		.word	1324
 3975 0b38 34050000 		.word	1332
 3976 0b3c 3C050000 		.word	1340
 3977 0b40 46050000 		.word	1350
 3978 0b44 04050000 		.word	.LC149
 3979 0b48 51050000 		.word	1361
 3980 0b4c 52050000 		.word	1362
 3981 0b50 17050000 		.word	.LC151
 3982 0b54 67050000 		.word	.LC155
 3983 0b58 49050000 		.word	.LC153
 3984 0b5c 4C050000 		.word	1356
 3985 0b60 7E050000 		.word	.LC157
 3986 0b64 99050000 		.word	.LC159
 3987              	.L260:
 3988 0b68 0334     		adds	r4, r4, #3
 3989 0b6a 9C42     		cmp	r4, r3
 3990 0b6c 01DB     		blt	.LCB4166
 3991 0b6e FFF791FA 		bl	.L279	@far jump
 3992              	.LCB4166:
 3993 0b72 CD23     		movs	r3, #205
 3994 0b74 2C19     		adds	r4, r5, r4
 3995 0b76 9B00     		lsls	r3, r3, #2
 3996 0b78 E418     		adds	r4, r4, r3
 3997 0b7a 2378     		ldrb	r3, [r4]
 3998 0b7c CE24     		movs	r4, #206
 3999 0b7e 2A4A     		ldr	r2, .L391
 4000 0b80 2A49     		ldr	r1, .L391+4
 4001 0b82 A400     		lsls	r4, r4, #2
 4002 0b84 B218     		adds	r2, r6, r2
 4003 0b86 7118     		adds	r1, r6, r1
 4004 0b88 3619     		adds	r6, r6, r4
 4005 0b8a 3478     		ldrb	r4, [r6]
 4006 0b8c 1278     		ldrb	r2, [r2]
 4007 0b8e 0978     		ldrb	r1, [r1]
 4008 0b90 2748     		ldr	r0, .L391+8
 4009 0b92 0094     		str	r4, [sp]
 4010 0b94 FFF7FEFF 		bl	smtc_modem_hal_print_trace
 4011 0b98 E95D     		ldrb	r1, [r5, r7]
 4012 0b9a 244B     		ldr	r3, .L391+4
 4013 0b9c 2800     		movs	r0, r5
 4014 0b9e C918     		adds	r1, r1, r3
 4015 0ba0 6918     		adds	r1, r5, r1
 4016 0ba2 FFF7FEFF 		bl	smtc_real_decode_freq_from_buf
 4017 0ba6 041E     		subs	r4, r0, #0
 4018 0ba8 2BD0     		beq	.L329
 4019 0baa 0100     		movs	r1, r0
 4020 0bac 2800     		movs	r0, r5
 4021 0bae FFF7FEFF 		bl	smtc_real_is_frequency_valid
 4022 0bb2 0130     		adds	r0, r0, #1
 4023 0bb4 1CD1     		bne	.L330
 4024 0bb6 1F4A     		ldr	r2, .L391+12
 4025 0bb8 1F49     		ldr	r1, .L391+16
 4026 0bba 2048     		ldr	r0, .L391+20
 4027 0bbc FFF7FEFF 		bl	smtc_modem_hal_print_trace
 4028 0bc0 0022     		movs	r2, #0
 4029              	.L331:
ARM GAS  /tmp/ccEvku90.s 			page 76


 4030 0bc2 EB5D     		ldrb	r3, [r5, r7]
 4031 0bc4 1E49     		ldr	r1, .L391+24
 4032 0bc6 0433     		adds	r3, r3, #4
 4033 0bc8 DBB2     		uxtb	r3, r3
 4034 0bca EB55     		strb	r3, [r5, r7]
 4035 0bcc 695C     		ldrb	r1, [r5, r1]
 4036 0bce 9942     		cmp	r1, r3
 4037 0bd0 01D2     		bcs	.LCB4220
 4038 0bd2 FFF722FA 		bl	.L256	@far jump
 4039              	.LCB4220:
 4040 0bd6 7A26     		movs	r6, #122
 4041 0bd8 FF36     		adds	r6, r6, #255
 4042 0bda AB5D     		ldrb	r3, [r5, r6]
 4043 0bdc 1324     		movs	r4, #19
 4044 0bde E918     		adds	r1, r5, r3
 4045 0be0 0800     		movs	r0, r1
 4046 0be2 7C31     		adds	r1, r1, #124
 4047 0be4 7B30     		adds	r0, r0, #123
 4048 0be6 FF30     		adds	r0, r0, #255
 4049 0be8 FF31     		adds	r1, r1, #255
 4050 0bea 0470     		strb	r4, [r0]
 4051 0bec 0A70     		strb	r2, [r1]
 4052 0bee 45E5     		b	.L377
 4053              	.L330:
 4054 0bf0 A923     		movs	r3, #169
 4055 0bf2 DB00     		lsls	r3, r3, #3
 4056 0bf4 EC50     		str	r4, [r5, r3]
 4057              	.L332:
 4058 0bf6 2100     		movs	r1, r4
 4059 0bf8 1248     		ldr	r0, .L391+28
 4060 0bfa FFF7FEFF 		bl	smtc_modem_hal_print_trace
 4061 0bfe 0122     		movs	r2, #1
 4062 0c00 DFE7     		b	.L331
 4063              	.L329:
 4064 0c02 A923     		movs	r3, #169
 4065 0c04 DB00     		lsls	r3, r3, #3
 4066 0c06 E850     		str	r0, [r5, r3]
 4067 0c08 FFF7FEFF 		bl	smtc_modem_hal_get_time_in_ms
 4068 0c0c 0100     		movs	r1, r0
 4069 0c0e 2800     		movs	r0, r5
 4070 0c10 FFF7FEFF 		bl	smtc_real_get_beacon_frequency
 4071 0c14 0400     		movs	r4, r0
 4072 0c16 EEE7     		b	.L332
 4073              	.L259:
 4074 0c18 0023     		movs	r3, #0
 4075 0c1a 094A     		ldr	r2, .L391+24
 4076 0c1c 0A48     		ldr	r0, .L391+32
 4077 0c1e AB54     		strb	r3, [r5, r2]
 4078 0c20 FFF7FEFF 		bl	smtc_modem_hal_print_trace
 4079 0c24 FFF7F9F9 		bl	.L256	@ far jump
 4080              	.L392:
 4081              		.align	2
 4082              	.L391:
 4083 0c28 36030000 		.word	822
 4084 0c2c 35030000 		.word	821
 4085 0c30 B5050000 		.word	.LC161
 4086 0c34 E0050000 		.word	.LC163
ARM GAS  /tmp/ccEvku90.s 			page 77


 4087 0c38 1E000000 		.word	.LC8
 4088 0c3c 8E000000 		.word	.LC52
 4089 0c40 26040000 		.word	1062
 4090 0c44 FB050000 		.word	.LC165
 4091 0c48 13060000 		.word	.LC167
 4093              		.section	.rodata.lr1_stack_mac_join_request_build.str1.1,"aMS",%progbits,1
 4094              	.LC169:
 4095 0000 44657645 		.ascii	"DevEUI\000"
 4095      554900
 4096              	.LC171:
 4097 0007 2573202D 		.ascii	"%s - (%lu bytes):\012\015\000"
 4097      2028256C 
 4097      75206279 
 4097      74657329 
 4097      3A0A0D00 
 4098              	.LC173:
 4099 001b 20253032 		.ascii	" %02X\000"
 4099      5800
 4100              	.LC175:
 4101 0021 0A0D00   		.ascii	"\012\015\000"
 4102              	.LC177:
 4103 0024 4A6F696E 		.ascii	"JoinEUI\000"
 4103      45554900 
 4104              	.LC179:
 4105 002c 4465764E 		.ascii	"DevNonce 0x%x\012\015\000"
 4105      6F6E6365 
 4105      20307825 
 4105      780A0D00 
 4106              	.LC184:
 4107 003c 1B5B303B 		.ascii	"\033[0;31mERROR: -> Crypto error during join mic co"
 4107      33316D45 
 4107      52524F52 
 4107      3A202D3E 
 4107      20437279 
 4108 006c 6D707574 		.ascii	"mputation\012\015\000"
 4108      6174696F 
 4108      6E0A0D00 
 4109              		.section	.text.lr1_stack_mac_join_request_build,"ax",%progbits
 4110              		.align	1
 4111              		.global	lr1_stack_mac_join_request_build
 4112              		.syntax unified
 4113              		.code	16
 4114              		.thumb_func
 4116              	lr1_stack_mac_join_request_build:
 4117              		@ args = 0, pretend = 0, frame = 32
 4118              		@ frame_needed = 0, uses_anonymous_args = 0
 4119 0000 F0B5     		push	{r4, r5, r6, r7, lr}
 4120 0002 89B0     		sub	sp, sp, #36
 4121 0004 0400     		movs	r4, r0
 4122 0006 06A8     		add	r0, sp, #24
 4123 0008 FFF7FEFF 		bl	smtc_secure_element_get_joineui
 4124 000c 04A8     		add	r0, sp, #16
 4125 000e FFF7FEFF 		bl	smtc_secure_element_get_deveui
 4126 0012 454F     		ldr	r7, .L406
 4127 0014 0822     		movs	r2, #8
 4128 0016 3800     		movs	r0, r7
 4129 0018 4449     		ldr	r1, .L406+4
ARM GAS  /tmp/ccEvku90.s 			page 78


 4130 001a FFF7FEFF 		bl	smtc_modem_hal_print_trace
 4131 001e 0025     		movs	r5, #0
 4132              	.L394:
 4133 0020 0822     		movs	r2, #8
 4134 0022 02AB     		add	r3, sp, #8
 4135 0024 9B18     		adds	r3, r3, r2
 4136 0026 595D     		ldrb	r1, [r3, r5]
 4137 0028 414B     		ldr	r3, .L406+8
 4138 002a 0135     		adds	r5, r5, #1
 4139 002c 1800     		movs	r0, r3
 4140 002e 0193     		str	r3, [sp, #4]
 4141 0030 FFF7FEFF 		bl	smtc_modem_hal_print_trace
 4142 0034 082D     		cmp	r5, #8
 4143 0036 F3D1     		bne	.L394
 4144 0038 3E4E     		ldr	r6, .L406+12
 4145 003a 3000     		movs	r0, r6
 4146 003c FFF7FEFF 		bl	smtc_modem_hal_print_trace
 4147 0040 2A00     		movs	r2, r5
 4148 0042 3800     		movs	r0, r7
 4149 0044 3C49     		ldr	r1, .L406+16
 4150 0046 FFF7FEFF 		bl	smtc_modem_hal_print_trace
 4151 004a 0025     		movs	r5, #0
 4152              	.L395:
 4153 004c 1022     		movs	r2, #16
 4154 004e 02AB     		add	r3, sp, #8
 4155 0050 9B18     		adds	r3, r3, r2
 4156 0052 595D     		ldrb	r1, [r3, r5]
 4157 0054 0198     		ldr	r0, [sp, #4]
 4158 0056 0135     		adds	r5, r5, #1
 4159 0058 FFF7FEFF 		bl	smtc_modem_hal_print_trace
 4160 005c 082D     		cmp	r5, #8
 4161 005e F5D1     		bne	.L395
 4162 0060 3000     		movs	r0, r6
 4163 0062 FFF7FEFF 		bl	smtc_modem_hal_print_trace
 4164 0066 C722     		movs	r2, #199
 4165 0068 9200     		lsls	r2, r2, #2
 4166 006a A35A     		ldrh	r3, [r4, r2]
 4167 006c 3349     		ldr	r1, .L406+20
 4168 006e 8B42     		cmp	r3, r1
 4169 0070 01D0     		beq	.L396
 4170 0072 0133     		adds	r3, r3, #1
 4171 0074 A352     		strh	r3, [r4, r2]
 4172              	.L396:
 4173 0076 A15A     		ldrh	r1, [r4, r2]
 4174 0078 3148     		ldr	r0, .L406+24
 4175 007a FFF7FEFF 		bl	smtc_modem_hal_print_trace
 4176 007e 2300     		movs	r3, r4
 4177 0080 0022     		movs	r2, #0
 4178 0082 2000     		movs	r0, r4
 4179 0084 7333     		adds	r3, r3, #115
 4180 0086 1A70     		strb	r2, [r3]
 4181 0088 0132     		adds	r2, r2, #1
 4182 008a 213B     		subs	r3, r3, #33
 4183 008c 1A70     		strb	r2, [r3]
 4184 008e 013B     		subs	r3, r3, #1
 4185 0090 1A70     		strb	r2, [r3]
 4186 0092 2333     		adds	r3, r3, #35
ARM GAS  /tmp/ccEvku90.s 			page 79


 4187 0094 1B78     		ldrb	r3, [r3]
 4188 0096 0232     		adds	r2, r2, #2
 4189 0098 1340     		ands	r3, r2
 4190 009a 7A30     		adds	r0, r0, #122
 4191 009c 2200     		movs	r2, r4
 4192 009e 0370     		strb	r3, [r0]
 4193 00a0 0723     		movs	r3, #7
 4194 00a2 7B32     		adds	r2, r2, #123
 4195              	.L397:
 4196 00a4 1025     		movs	r5, #16
 4197 00a6 02A9     		add	r1, sp, #8
 4198 00a8 4919     		adds	r1, r1, r5
 4199 00aa C95C     		ldrb	r1, [r1, r3]
 4200 00ac 083D     		subs	r5, r5, #8
 4201 00ae 1170     		strb	r1, [r2]
 4202 00b0 02A9     		add	r1, sp, #8
 4203 00b2 4919     		adds	r1, r1, r5
 4204 00b4 C95C     		ldrb	r1, [r1, r3]
 4205 00b6 0132     		adds	r2, r2, #1
 4206 00b8 D171     		strb	r1, [r2, #7]
 4207 00ba 013B     		subs	r3, r3, #1
 4208 00bc F2D2     		bcs	.L397
 4209 00be C723     		movs	r3, #199
 4210 00c0 2200     		movs	r2, r4
 4211 00c2 9B00     		lsls	r3, r3, #2
 4212 00c4 E35A     		ldrh	r3, [r4, r3]
 4213 00c6 8B32     		adds	r2, r2, #139
 4214 00c8 1370     		strb	r3, [r2]
 4215 00ca EB40     		lsrs	r3, r3, r5
 4216 00cc 2500     		movs	r5, r4
 4217 00ce 1321     		movs	r1, #19
 4218 00d0 7935     		adds	r5, r5, #121
 4219 00d2 5370     		strb	r3, [r2, #1]
 4220 00d4 2970     		strb	r1, [r5]
 4221 00d6 03AA     		add	r2, sp, #12
 4222 00d8 FFF7FEFF 		bl	smtc_modem_crypto_compute_join_mic
 4223 00dc 0028     		cmp	r0, #0
 4224 00de 16D0     		beq	.L398
 4225 00e0 184E     		ldr	r6, .L406+28
 4226 00e2 3000     		movs	r0, r6
 4227 00e4 FFF7FEFF 		bl	smtc_modem_hal_store_crashlog
 4228 00e8 0120     		movs	r0, #1
 4229 00ea FFF7FEFF 		bl	smtc_modem_hal_set_crashlog_status
 4230 00ee 3100     		movs	r1, r6
 4231 00f0 1548     		ldr	r0, .L406+32
 4232 00f2 FFF7FEFF 		bl	smtc_modem_hal_print_trace
 4233 00f6 154E     		ldr	r6, .L406+36
 4234 00f8 3000     		movs	r0, r6
 4235 00fa FFF7FEFF 		bl	smtc_modem_hal_print_trace
 4236 00fe 1448     		ldr	r0, .L406+40
 4237 0100 FFF7FEFF 		bl	smtc_modem_hal_print_trace
 4238 0104 3000     		movs	r0, r6
 4239 0106 FFF7FEFF 		bl	smtc_modem_hal_print_trace
 4240 010a FFF7FEFF 		bl	smtc_modem_hal_reset_mcu
 4241              	.L398:
 4242 010e 2B78     		ldrb	r3, [r5]
 4243 0110 0422     		movs	r2, #4
ARM GAS  /tmp/ccEvku90.s 			page 80


 4244 0112 7A33     		adds	r3, r3, #122
 4245 0114 E018     		adds	r0, r4, r3
 4246 0116 03A9     		add	r1, sp, #12
 4247 0118 FFF7FEFF 		bl	memcpy1
 4248 011c 2B78     		ldrb	r3, [r5]
 4249 011e 0433     		adds	r3, r3, #4
 4250 0120 2B70     		strb	r3, [r5]
 4251 0122 09B0     		add	sp, sp, #36
 4252              		@ sp needed
 4253 0124 F0BD     		pop	{r4, r5, r6, r7, pc}
 4254              	.L407:
 4255 0126 C046     		.align	2
 4256              	.L406:
 4257 0128 07000000 		.word	.LC171
 4258 012c 00000000 		.word	.LC169
 4259 0130 1B000000 		.word	.LC173
 4260 0134 21000000 		.word	.LC175
 4261 0138 24000000 		.word	.LC177
 4262 013c FFFF0000 		.word	65535
 4263 0140 2C000000 		.word	.LC179
 4264 0144 00000000 		.word	__func__.1
 4265 0148 00000000 		.word	.LC6
 4266 014c 1E000000 		.word	.LC8
 4267 0150 3C000000 		.word	.LC184
 4269              		.section	.rodata.lr1_stack_mac_join_accept.str1.1,"aMS",%progbits,1
 4270              	.LC186:
 4271 0000 1B5B303B 		.ascii	"\033[0;33mWARN: JoinNonce invalid (new:%u == prev:%"
 4271      33336D57 
 4271      41524E3A 
 4271      204A6F69 
 4271      6E4E6F6E 
 4272 0030 75290A0D 		.ascii	"u)\012\015\000"
 4272      00
 4273              	.LC189:
 4274 0035 1B5B303B 		.ascii	"\033[0;33mWARN: JoinAccept invalid Rx1DrOffset %d\012"
 4274      33336D57 
 4274      41524E3A 
 4274      204A6F69 
 4274      6E416363 
 4275 0064 0D00     		.ascii	"\015\000"
 4276              	.LC191:
 4277 0066 1B5B303B 		.ascii	"\033[0;33mWARN: JoinAccept invalid Rx2Datarate %d\012"
 4277      33336D57 
 4277      41524E3A 
 4277      204A6F69 
 4277      6E416363 
 4278 0095 0D00     		.ascii	"\015\000"
 4279              	.LC193:
 4280 0097 20446576 		.ascii	" DevAddr= %x\012\015\000"
 4280      41646472 
 4280      3D202578 
 4280      0A0D00
 4281              	.LC195:
 4282 00a6 204D6163 		.ascii	" MacRx1DataRateOffset= %d\012\015\000"
 4282      52783144 
 4282      61746152 
 4282      6174654F 
ARM GAS  /tmp/ccEvku90.s 			page 81


 4282      66667365 
 4283              	.LC197:
 4284 00c2 204D6163 		.ascii	" MacRx2DataRate= %d\012\015\000"
 4284      52783244 
 4284      61746152 
 4284      6174653D 
 4284      2025640A 
 4285              	.LC199:
 4286 00d8 204D6163 		.ascii	" MacRx1Delay= %d\012\015\000"
 4286      52783144 
 4286      656C6179 
 4286      3D202564 
 4286      0A0D00
 4287              	.LC201:
 4288 00eb 20536176 		.ascii	" Save In Flash After Join succeed\012\015\000"
 4288      6520496E 
 4288      20466C61 
 4288      73682041 
 4288      66746572 
 4289              		.section	.text.lr1_stack_mac_join_accept,"ax",%progbits
 4290              		.align	1
 4291              		.global	lr1_stack_mac_join_accept
 4292              		.syntax unified
 4293              		.code	16
 4294              		.thumb_func
 4296              	lr1_stack_mac_join_accept:
 4297              		@ args = 0, pretend = 0, frame = 16
 4298              		@ frame_needed = 0, uses_anonymous_args = 0
 4299 0000 F0B5     		push	{r4, r5, r6, r7, lr}
 4300 0002 0400     		movs	r4, r0
 4301 0004 534B     		ldr	r3, .L421
 4302 0006 85B0     		sub	sp, sp, #20
 4303 0008 C118     		adds	r1, r0, r3
 4304 000a 0622     		movs	r2, #6
 4305 000c 02A8     		add	r0, sp, #8
 4306 000e FFF7FEFF 		bl	memcpy1
 4307 0012 514B     		ldr	r3, .L421+4
 4308 0014 E25C     		ldrb	r2, [r4, r3]
 4309 0016 514B     		ldr	r3, .L421+8
 4310 0018 E15C     		ldrb	r1, [r4, r3]
 4311 001a 0133     		adds	r3, r3, #1
 4312 001c E35C     		ldrb	r3, [r4, r3]
 4313 001e 0902     		lsls	r1, r1, #8
 4314 0020 1B04     		lsls	r3, r3, #16
 4315 0022 1943     		orrs	r1, r3
 4316 0024 1143     		orrs	r1, r2
 4317 0026 02AB     		add	r3, sp, #8
 4318 0028 02AA     		add	r2, sp, #8
 4319 002a 1878     		ldrb	r0, [r3]
 4320 002c 9278     		ldrb	r2, [r2, #2]
 4321 002e 5B78     		ldrb	r3, [r3, #1]
 4322 0030 1204     		lsls	r2, r2, #16
 4323 0032 1B02     		lsls	r3, r3, #8
 4324 0034 1343     		orrs	r3, r2
 4325 0036 0343     		orrs	r3, r0
 4326 0038 9942     		cmp	r1, r3
 4327 003a 0BD1     		bne	.L409
ARM GAS  /tmp/ccEvku90.s 			page 82


 4328 003c 4848     		ldr	r0, .L421+12
 4329 003e 0A00     		movs	r2, r1
 4330 0040 FFF7FEFF 		bl	smtc_modem_hal_print_trace
 4331 0044 4748     		ldr	r0, .L421+16
 4332              	.L419:
 4333 0046 0125     		movs	r5, #1
 4334 0048 FFF7FEFF 		bl	smtc_modem_hal_print_trace
 4335 004c 6D42     		rsbs	r5, r5, #0
 4336              	.L416:
 4337 004e 2800     		movs	r0, r5
 4338 0050 05B0     		add	sp, sp, #20
 4339              		@ sp needed
 4340 0052 F0BD     		pop	{r4, r5, r6, r7, pc}
 4341              	.L409:
 4342 0054 404B     		ldr	r3, .L421+4
 4343 0056 0622     		movs	r2, #6
 4344 0058 E018     		adds	r0, r4, r3
 4345 005a 02A9     		add	r1, sp, #8
 4346 005c FFF7FEFF 		bl	memcpy1
 4347 0060 C723     		movs	r3, #199
 4348 0062 9B00     		lsls	r3, r3, #2
 4349 0064 E25A     		ldrh	r2, [r4, r3]
 4350 0066 02AB     		add	r3, sp, #8
 4351 0068 1800     		movs	r0, r3
 4352 006a D91C     		adds	r1, r3, #3
 4353 006c FFF7FEFF 		bl	smtc_modem_crypto_derive_skeys
 4354 0070 3D4B     		ldr	r3, .L421+20
 4355 0072 E35C     		ldrb	r3, [r4, r3]
 4356 0074 0D2B     		cmp	r3, #13
 4357 0076 3FD9     		bls	.L411
 4358 0078 0023     		movs	r3, #0
 4359 007a 3C4A     		ldr	r2, .L421+24
 4360 007c A018     		adds	r0, r4, r2
 4361 007e 0832     		adds	r2, r2, #8
 4362 0080 FF32     		adds	r2, r2, #255
 4363 0082 A218     		adds	r2, r4, r2
 4364              	.L412:
 4365 0084 C15C     		ldrb	r1, [r0, r3]
 4366 0086 D154     		strb	r1, [r2, r3]
 4367 0088 0133     		adds	r3, r3, #1
 4368 008a 102B     		cmp	r3, #16
 4369 008c FAD1     		bne	.L412
 4370 008e 2000     		movs	r0, r4
 4371 0090 FFF7FEFF 		bl	smtc_real_update_cflist
 4372              	.L413:
 4373 0094 364B     		ldr	r3, .L421+28
 4374 0096 2700     		movs	r7, r4
 4375 0098 E118     		adds	r1, r4, r3
 4376 009a E25C     		ldrb	r2, [r4, r3]
 4377 009c 4B78     		ldrb	r3, [r1, #1]
 4378 009e 2600     		movs	r6, r4
 4379 00a0 1B02     		lsls	r3, r3, #8
 4380 00a2 1343     		orrs	r3, r2
 4381 00a4 8A78     		ldrb	r2, [r1, #2]
 4382 00a6 5837     		adds	r7, r7, #88
 4383 00a8 1204     		lsls	r2, r2, #16
 4384 00aa 1A43     		orrs	r2, r3
ARM GAS  /tmp/ccEvku90.s 			page 83


 4385 00ac CB78     		ldrb	r3, [r1, #3]
 4386 00ae 5336     		adds	r6, r6, #83
 4387 00b0 1B06     		lsls	r3, r3, #24
 4388 00b2 1343     		orrs	r3, r2
 4389 00b4 0F22     		movs	r2, #15
 4390 00b6 E366     		str	r3, [r4, #108]
 4391 00b8 2E4B     		ldr	r3, .L421+32
 4392 00ba E35C     		ldrb	r3, [r4, r3]
 4393 00bc 5906     		lsls	r1, r3, #25
 4394 00be 490F     		lsrs	r1, r1, #29
 4395 00c0 1340     		ands	r3, r2
 4396 00c2 3970     		strb	r1, [r7]
 4397 00c4 3370     		strb	r3, [r6]
 4398 00c6 8723     		movs	r3, #135
 4399 00c8 9B00     		lsls	r3, r3, #2
 4400 00ca E35C     		ldrb	r3, [r4, r3]
 4401 00cc 1340     		ands	r3, r2
 4402 00ce 1A1C     		adds	r2, r3, #0
 4403 00d0 002B     		cmp	r3, #0
 4404 00d2 00D1     		bne	.L414
 4405 00d4 0122     		movs	r2, #1
 4406              	.L414:
 4407 00d6 2300     		movs	r3, r4
 4408 00d8 5933     		adds	r3, r3, #89
 4409 00da 1A70     		strb	r2, [r3]
 4410 00dc 2000     		movs	r0, r4
 4411 00de 0193     		str	r3, [sp, #4]
 4412 00e0 FFF7FEFF 		bl	smtc_real_is_rx1_dr_offset_valid
 4413 00e4 1F4B     		ldr	r3, .L421+16
 4414 00e6 0093     		str	r3, [sp]
 4415 00e8 0028     		cmp	r0, #0
 4416 00ea 09D0     		beq	.L415
 4417 00ec 3978     		ldrb	r1, [r7]
 4418 00ee 2248     		ldr	r0, .L421+36
 4419              	.L420:
 4420 00f0 FFF7FEFF 		bl	smtc_modem_hal_print_trace
 4421 00f4 0098     		ldr	r0, [sp]
 4422 00f6 A6E7     		b	.L419
 4423              	.L411:
 4424 00f8 2000     		movs	r0, r4
 4425 00fa FFF7FEFF 		bl	smtc_real_init_after_join_snapshot_channel_mask
 4426 00fe C9E7     		b	.L413
 4427              	.L415:
 4428 0100 2000     		movs	r0, r4
 4429 0102 3178     		ldrb	r1, [r6]
 4430 0104 FFF7FEFF 		bl	smtc_real_is_rx_dr_valid
 4431 0108 051E     		subs	r5, r0, #0
 4432 010a 02D0     		beq	.L417
 4433 010c 3178     		ldrb	r1, [r6]
 4434 010e 1B48     		ldr	r0, .L421+40
 4435 0110 EEE7     		b	.L420
 4436              	.L417:
 4437 0112 0222     		movs	r2, #2
 4438 0114 1A4B     		ldr	r3, .L421+44
 4439 0116 2000     		movs	r0, r4
 4440 0118 E254     		strb	r2, [r4, r3]
 4441 011a FFF7FEFF 		bl	lr1_stack_mac_session_init
ARM GAS  /tmp/ccEvku90.s 			page 84


 4442 011e 2000     		movs	r0, r4
 4443 0120 FFF7FEFF 		bl	smtc_real_init_session
 4444 0124 E16E     		ldr	r1, [r4, #108]
 4445 0126 1748     		ldr	r0, .L421+48
 4446 0128 FFF7FEFF 		bl	smtc_modem_hal_print_trace
 4447 012c 3978     		ldrb	r1, [r7]
 4448 012e 1648     		ldr	r0, .L421+52
 4449 0130 FFF7FEFF 		bl	smtc_modem_hal_print_trace
 4450 0134 3178     		ldrb	r1, [r6]
 4451 0136 1548     		ldr	r0, .L421+56
 4452 0138 FFF7FEFF 		bl	smtc_modem_hal_print_trace
 4453 013c 019B     		ldr	r3, [sp, #4]
 4454 013e 1448     		ldr	r0, .L421+60
 4455 0140 1978     		ldrb	r1, [r3]
 4456 0142 FFF7FEFF 		bl	smtc_modem_hal_print_trace
 4457 0146 134A     		ldr	r2, .L421+64
 4458 0148 1348     		ldr	r0, .L421+68
 4459 014a 0099     		ldr	r1, [sp]
 4460 014c FFF7FEFF 		bl	smtc_modem_hal_print_trace
 4461 0150 7DE7     		b	.L416
 4462              	.L422:
 4463 0152 C046     		.align	2
 4464              	.L421:
 4465 0154 11020000 		.word	529
 4466 0158 1E030000 		.word	798
 4467 015c 1F030000 		.word	799
 4468 0160 00000000 		.word	.LC186
 4469 0164 1E000000 		.word	.LC8
 4470 0168 0F020000 		.word	527
 4471 016c 1D020000 		.word	541
 4472 0170 17020000 		.word	535
 4473 0174 1B020000 		.word	539
 4474 0178 35000000 		.word	.LC189
 4475 017c 66000000 		.word	.LC191
 4476 0180 CE040000 		.word	1230
 4477 0184 97000000 		.word	.LC193
 4478 0188 A6000000 		.word	.LC195
 4479 018c C2000000 		.word	.LC197
 4480 0190 D8000000 		.word	.LC199
 4481 0194 EB000000 		.word	.LC201
 4482 0198 8E000000 		.word	.LC52
 4484              		.section	.text.lr1_stack_network_next_free_duty_cycle_ms_get,"ax",%progbits
 4485              		.align	1
 4486              		.global	lr1_stack_network_next_free_duty_cycle_ms_get
 4487              		.syntax unified
 4488              		.code	16
 4489              		.thumb_func
 4491              	lr1_stack_network_next_free_duty_cycle_ms_get:
 4492              		@ args = 0, pretend = 0, frame = 0
 4493              		@ frame_needed = 0, uses_anonymous_args = 0
 4494 0000 70B5     		push	{r4, r5, r6, lr}
 4495 0002 C525     		movs	r5, #197
 4496 0004 AD00     		lsls	r5, r5, #2
 4497 0006 4359     		ldr	r3, [r0, r5]
 4498 0008 0400     		movs	r4, r0
 4499 000a 002B     		cmp	r3, #0
 4500 000c 01D1     		bne	.L424
ARM GAS  /tmp/ccEvku90.s 			page 85


 4501              	.L428:
 4502 000e 0020     		movs	r0, #0
 4503              	.L423:
 4504              		@ sp needed
 4505 0010 70BD     		pop	{r4, r5, r6, pc}
 4506              	.L424:
 4507 0012 FFF7FEFF 		bl	smtc_modem_hal_get_time_in_ms
 4508 0016 C623     		movs	r3, #198
 4509 0018 9B00     		lsls	r3, r3, #2
 4510 001a E158     		ldr	r1, [r4, r3]
 4511 001c 421A     		subs	r2, r0, r1
 4512 001e 531E     		subs	r3, r2, #1
 4513 0020 8142     		cmp	r1, r0
 4514 0022 00D8     		bhi	.L427
 4515 0024 1300     		movs	r3, r2
 4516              	.L427:
 4517 0026 6059     		ldr	r0, [r4, r5]
 4518 0028 9842     		cmp	r0, r3
 4519 002a F0D3     		bcc	.L428
 4520 002c C01A     		subs	r0, r0, r3
 4521 002e EFE7     		b	.L423
 4523              		.section	.text.lr1_stack_toa_get,"ax",%progbits
 4524              		.align	1
 4525              		.global	lr1_stack_toa_get
 4526              		.syntax unified
 4527              		.code	16
 4528              		.thumb_func
 4530              	lr1_stack_toa_get:
 4531              		@ args = 0, pretend = 0, frame = 56
 4532              		@ frame_needed = 0, uses_anonymous_args = 0
 4533 0000 F0B5     		push	{r4, r5, r6, r7, lr}
 4534 0002 0500     		movs	r5, r0
 4535 0004 0027     		movs	r7, #0
 4536 0006 8FB0     		sub	sp, sp, #60
 4537 0008 0297     		str	r7, [sp, #8]
 4538 000a 4E35     		adds	r5, r5, #78
 4539 000c 2978     		ldrb	r1, [r5]
 4540 000e 0400     		movs	r4, r0
 4541 0010 FFF7FEFF 		bl	smtc_real_get_modulation_type_from_datarate
 4542 0014 0600     		movs	r6, r0
 4543 0016 B842     		cmp	r0, r7
 4544 0018 36D1     		bne	.L430
 4545 001a 6B46     		mov	r3, sp
 4546 001c 9F1D     		adds	r7, r3, #6
 4547 001e 3A00     		movs	r2, r7
 4548 0020 2978     		ldrb	r1, [r5]
 4549 0022 0733     		adds	r3, r3, #7
 4550 0024 03AD     		add	r5, sp, #12
 4551 0026 2000     		movs	r0, r4
 4552 0028 FFF7FEFF 		bl	smtc_real_lora_dr_to_sf_bw
 4553 002c 1422     		movs	r2, #20
 4554 002e 3100     		movs	r1, r6
 4555 0030 2800     		movs	r0, r5
 4556 0032 FFF7FEFF 		bl	memset
 4557 0036 3B78     		ldrb	r3, [r7]
 4558 0038 2000     		movs	r0, r4
 4559 003a 2B70     		strb	r3, [r5]
ARM GAS  /tmp/ccEvku90.s 			page 86


 4560 003c 6B46     		mov	r3, sp
 4561 003e DB79     		ldrb	r3, [r3, #7]
 4562 0040 6B70     		strb	r3, [r5, #1]
 4563 0042 FFF7FEFF 		bl	smtc_real_get_coding_rate
 4564 0046 2F78     		ldrb	r7, [r5]
 4565 0048 6978     		ldrb	r1, [r5, #1]
 4566 004a A870     		strb	r0, [r5, #2]
 4567 004c 3800     		movs	r0, r7
 4568 004e FFF7FEFF 		bl	ral_compute_lora_ldro
 4569 0052 0123     		movs	r3, #1
 4570 0054 2B81     		strh	r3, [r5, #8]
 4571 0056 2300     		movs	r3, r4
 4572 0058 E870     		strb	r0, [r5, #3]
 4573 005a 7933     		adds	r3, r3, #121
 4574 005c 1B78     		ldrb	r3, [r3]
 4575 005e 3900     		movs	r1, r7
 4576 0060 EB71     		strb	r3, [r5, #7]
 4577 0062 2000     		movs	r0, r4
 4578 0064 FFF7FEFF 		bl	smtc_real_get_preamble_len
 4579 0068 454B     		ldr	r3, .L435
 4580 006a 2900     		movs	r1, r5
 4581 006c E258     		ldr	r2, [r4, r3]
 4582 006e 9C23     		movs	r3, #156
 4583 0070 AE71     		strb	r6, [r5, #6]
 4584 0072 1B01     		lsls	r3, r3, #4
 4585 0074 D358     		ldr	r3, [r2, r3]
 4586 0076 A880     		strh	r0, [r5, #4]
 4587 0078 A033     		adds	r3, r3, #160
 4588 007a 1B68     		ldr	r3, [r3]
 4589 007c 04A8     		add	r0, sp, #16
 4590              	.L434:
 4591 007e 9847     		blx	r3
 4592 0080 0290     		str	r0, [sp, #8]
 4593              	.L431:
 4594 0082 0298     		ldr	r0, [sp, #8]
 4595 0084 0FB0     		add	sp, sp, #60
 4596              		@ sp needed
 4597 0086 F0BD     		pop	{r4, r5, r6, r7, pc}
 4598              	.L430:
 4599 0088 0128     		cmp	r0, #1
 4600 008a 3AD1     		bne	.L432
 4601 008c 6B46     		mov	r3, sp
 4602 008e 2978     		ldrb	r1, [r5]
 4603 0090 DA1D     		adds	r2, r3, #7
 4604 0092 03AD     		add	r5, sp, #12
 4605 0094 2000     		movs	r0, r4
 4606 0096 FFF7FEFF 		bl	smtc_real_fsk_dr_to_bitrate
 4607 009a 2C22     		movs	r2, #44
 4608 009c 3900     		movs	r1, r7
 4609 009e 2800     		movs	r0, r5
 4610 00a0 FFF7FEFF 		bl	memset
 4611 00a4 9623     		movs	r3, #150
 4612 00a6 DB00     		lsls	r3, r3, #3
 4613 00a8 E358     		ldr	r3, [r4, r3]
 4614 00aa 2000     		movs	r0, r4
 4615 00ac 0B93     		str	r3, [sp, #44]
 4616 00ae FFF7FEFF 		bl	smtc_real_get_gfsk_sync_word
ARM GAS  /tmp/ccEvku90.s 			page 87


 4617 00b2 3623     		movs	r3, #54
 4618 00b4 6B44     		add	r3, r3, sp
 4619 00b6 0A90     		str	r0, [sp, #40]
 4620 00b8 1E70     		strb	r6, [r3]
 4621 00ba 324B     		ldr	r3, .L435+4
 4622 00bc 2900     		movs	r1, r5
 4623 00be 2B85     		strh	r3, [r5, #40]
 4624 00c0 314B     		ldr	r3, .L435+8
 4625 00c2 07A8     		add	r0, sp, #28
 4626 00c4 0C93     		str	r3, [sp, #48]
 4627 00c6 314B     		ldr	r3, .L435+12
 4628 00c8 0493     		str	r3, [sp, #16]
 4629 00ca 6B46     		mov	r3, sp
 4630 00cc DA79     		ldrb	r2, [r3, #7]
 4631 00ce FA23     		movs	r3, #250
 4632 00d0 9B00     		lsls	r3, r3, #2
 4633 00d2 5343     		muls	r3, r2
 4634 00d4 0393     		str	r3, [sp, #12]
 4635 00d6 2E4B     		ldr	r3, .L435+16
 4636 00d8 0593     		str	r3, [sp, #20]
 4637 00da 2300     		movs	r3, r4
 4638 00dc 7933     		adds	r3, r3, #121
 4639 00de 1B78     		ldrb	r3, [r3]
 4640 00e0 6E75     		strb	r6, [r5, #21]
 4641 00e2 AB75     		strb	r3, [r5, #22]
 4642 00e4 2823     		movs	r3, #40
 4643 00e6 2B82     		strh	r3, [r5, #16]
 4644 00e8 103B     		subs	r3, r3, #16
 4645 00ea EB74     		strb	r3, [r5, #19]
 4646 00ec 143B     		subs	r3, r3, #20
 4647 00ee EB75     		strb	r3, [r5, #23]
 4648 00f0 234B     		ldr	r3, .L435
 4649 00f2 2E76     		strb	r6, [r5, #24]
 4650 00f4 E258     		ldr	r2, [r4, r3]
 4651 00f6 9C23     		movs	r3, #156
 4652 00f8 1B01     		lsls	r3, r3, #4
 4653 00fa D358     		ldr	r3, [r2, r3]
 4654 00fc A433     		adds	r3, r3, #164
 4655 00fe 1B68     		ldr	r3, [r3]
 4656 0100 BDE7     		b	.L434
 4657              	.L432:
 4658 0102 0228     		cmp	r0, #2
 4659 0104 23D1     		bne	.L433
 4660 0106 6B46     		mov	r3, sp
 4661 0108 9E1D     		adds	r6, r3, #6
 4662 010a 3200     		movs	r2, r6
 4663 010c 2000     		movs	r0, r4
 4664 010e 2978     		ldrb	r1, [r5]
 4665 0110 0733     		adds	r3, r3, #7
 4666 0112 03AD     		add	r5, sp, #12
 4667 0114 FFF7FEFF 		bl	smtc_real_lr_fhss_dr_to_cr_bw
 4668 0118 3900     		movs	r1, r7
 4669 011a 1822     		movs	r2, #24
 4670 011c 2800     		movs	r0, r5
 4671 011e FFF7FEFF 		bl	memset
 4672 0122 0123     		movs	r3, #1
 4673 0124 3078     		ldrb	r0, [r6]
ARM GAS  /tmp/ccEvku90.s 			page 88


 4674 0126 2B72     		strb	r3, [r5, #8]
 4675 0128 6871     		strb	r0, [r5, #5]
 4676 012a FFF7FEFF 		bl	smtc_real_lr_fhss_get_header_count
 4677 012e 144B     		ldr	r3, .L435
 4678 0130 6872     		strb	r0, [r5, #9]
 4679 0132 E258     		ldr	r2, [r4, r3]
 4680 0134 9C23     		movs	r3, #156
 4681 0136 1B01     		lsls	r3, r3, #4
 4682 0138 D058     		ldr	r0, [r2, r3]
 4683 013a 7934     		adds	r4, r4, #121
 4684 013c 0300     		movs	r3, r0
 4685 013e D433     		adds	r3, r3, #212
 4686 0140 2278     		ldrb	r2, [r4]
 4687 0142 2900     		movs	r1, r5
 4688 0144 1C68     		ldr	r4, [r3]
 4689 0146 0068     		ldr	r0, [r0]
 4690 0148 02AB     		add	r3, sp, #8
 4691 014a A047     		blx	r4
 4692 014c 99E7     		b	.L431
 4693              	.L433:
 4694 014e 114C     		ldr	r4, .L435+20
 4695 0150 2000     		movs	r0, r4
 4696 0152 FFF7FEFF 		bl	smtc_modem_hal_store_crashlog
 4697 0156 0120     		movs	r0, #1
 4698 0158 FFF7FEFF 		bl	smtc_modem_hal_set_crashlog_status
 4699 015c 2100     		movs	r1, r4
 4700 015e 0E48     		ldr	r0, .L435+24
 4701 0160 FFF7FEFF 		bl	smtc_modem_hal_print_trace
 4702 0164 0D4C     		ldr	r4, .L435+28
 4703 0166 2000     		movs	r0, r4
 4704 0168 FFF7FEFF 		bl	smtc_modem_hal_print_trace
 4705 016c 0C48     		ldr	r0, .L435+32
 4706 016e FFF7FEFF 		bl	smtc_modem_hal_print_trace
 4707 0172 2000     		movs	r0, r4
 4708 0174 FFF7FEFF 		bl	smtc_modem_hal_print_trace
 4709 0178 FFF7FEFF 		bl	smtc_modem_hal_reset_mcu
 4710 017c 81E7     		b	.L431
 4711              	.L436:
 4712 017e C046     		.align	2
 4713              	.L435:
 4714 0180 BC040000 		.word	1212
 4715 0184 FF010000 		.word	511
 4716 0188 0F1D2110 		.word	270605583
 4717 018c A8610000 		.word	25000
 4718 0190 A0860100 		.word	100000
 4719 0194 00000000 		.word	__func__.0
 4720 0198 00000000 		.word	.LC6
 4721 019c 1E000000 		.word	.LC8
 4722 01a0 00000000 		.word	.LC20
 4724              		.global	__aeabi_uidiv
 4725              		.section	.rodata.lr1_stack_mac_update.str1.1,"aMS",%progbits,1
 4726              	.LC211:
 4727 0000 1B5B303B 		.ascii	"\033[0;31mERROR: -> Reach max tx frame without dl, "
 4727      33316D45 
 4727      52524F52 
 4727      3A202D3E 
 4727      20526561 
ARM GAS  /tmp/ccEvku90.s 			page 89


 4728 0030 756C2063 		.ascii	"ul cnt:%d\012\015\000"
 4728      6E743A25 
 4728      640A0D00 
 4729              	.LC213:
 4730 003c 1B5B303B 		.ascii	"\033[0;31mERROR: ->  Data Rate incompatible with ch"
 4730      33316D45 
 4730      52524F52 
 4730      3A202D3E 
 4730      20204461 
 4731 006c 616E6E65 		.ascii	"annel mask\012\015\000"
 4731      6C206D61 
 4731      736B0A0D 
 4731      00
 4732              		.section	.text.lr1_stack_mac_update,"ax",%progbits
 4733              		.align	1
 4734              		.global	lr1_stack_mac_update
 4735              		.syntax unified
 4736              		.code	16
 4737              		.thumb_func
 4739              	lr1_stack_mac_update:
 4740              		@ args = 0, pretend = 0, frame = 8
 4741              		@ frame_needed = 0, uses_anonymous_args = 0
 4742 0000 F7B5     		push	{r0, r1, r2, r4, r5, r6, r7, lr}
 4743 0002 934B     		ldr	r3, .L469
 4744 0004 934D     		ldr	r5, .L469+4
 4745 0006 C35A     		ldrh	r3, [r0, r3]
 4746 0008 0022     		movs	r2, #0
 4747 000a 5BBA     		rev16	r3, r3
 4748 000c 4353     		strh	r3, [r0, r5]
 4749 000e A223     		movs	r3, #162
 4750 0010 DB00     		lsls	r3, r3, #3
 4751 0012 C254     		strb	r2, [r0, r3]
 4752 0014 904B     		ldr	r3, .L469+8
 4753 0016 0400     		movs	r4, r0
 4754 0018 C35C     		ldrb	r3, [r0, r3]
 4755 001a 012B     		cmp	r3, #1
 4756 001c 1BD1     		bne	.L438
 4757 001e FFF7FEFF 		bl	smtc_modem_hal_get_time_in_s
 4758 0022 9522     		movs	r2, #149
 4759 0024 D200     		lsls	r2, r2, #3
 4760 0026 A358     		ldr	r3, [r4, r2]
 4761 0028 0600     		movs	r6, r0
 4762 002a 0133     		adds	r3, r3, #1
 4763 002c A350     		str	r3, [r4, r2]
 4764 002e E122     		movs	r2, #225
 4765 0030 8A4B     		ldr	r3, .L469+12
 4766 0032 1201     		lsls	r2, r2, #4
 4767 0034 E358     		ldr	r3, [r4, r3]
 4768 0036 9A18     		adds	r2, r3, r2
 4769 0038 8242     		cmp	r2, r0
 4770 003a 00D8     		bhi	.LCB4973
 4771 003c E7E0     		b	.L439	@long jump
 4772              	.LCB4973:
 4773 003e 2000     		movs	r0, r4
 4774 0040 FFF7FEFF 		bl	lr1_stack_toa_get
 4775 0044 0A21     		movs	r1, #10
 4776 0046 FFF7FEFF 		bl	__aeabi_uidiv
ARM GAS  /tmp/ccEvku90.s 			page 90


 4777              	.L468:
 4778 004a 8619     		adds	r6, r0, r6
 4779              	.L440:
 4780 004c 844B     		ldr	r3, .L469+16
 4781 004e 824A     		ldr	r2, .L469+8
 4782 0050 E650     		str	r6, [r4, r3]
 4783 0052 0023     		movs	r3, #0
 4784 0054 A354     		strb	r3, [r4, r2]
 4785              	.L438:
 4786 0056 9120     		movs	r0, #145
 4787 0058 0026     		movs	r6, #0
 4788 005a C000     		lsls	r0, r0, #3
 4789 005c 2258     		ldr	r2, [r4, r0]
 4790 005e 615D     		ldrb	r1, [r4, r5]
 4791 0060 D317     		asrs	r3, r2, #31
 4792 0062 8A42     		cmp	r2, r1
 4793 0064 7341     		adcs	r3, r3, r6
 4794 0066 9226     		movs	r6, #146
 4795 0068 F600     		lsls	r6, r6, #3
 4796 006a A355     		strb	r3, [r4, r6]
 4797 006c 2600     		movs	r6, r4
 4798 006e 5236     		adds	r6, r6, #82
 4799 0070 3378     		ldrb	r3, [r6]
 4800 0072 012B     		cmp	r3, #1
 4801 0074 00D9     		bls	.LCB5005
 4802 0076 D8E0     		b	.L442	@long jump
 4803              	.LCB5005:
 4804 0078 636E     		ldr	r3, [r4, #100]
 4805 007a 0132     		adds	r2, r2, #1
 4806 007c 0133     		adds	r3, r3, #1
 4807 007e 6366     		str	r3, [r4, #100]
 4808 0080 0123     		movs	r3, #1
 4809 0082 2250     		str	r2, [r4, r0]
 4810              	.L443:
 4811 0084 9127     		movs	r7, #145
 4812 0086 3370     		strb	r3, [r6]
 4813 0088 764B     		ldr	r3, .L469+20
 4814 008a FF00     		lsls	r7, r7, #3
 4815 008c E35C     		ldrb	r3, [r4, r3]
 4816 008e E259     		ldr	r2, [r4, r7]
 4817 0090 5B18     		adds	r3, r3, r1
 4818 0092 9A42     		cmp	r2, r3
 4819 0094 18DB     		blt	.L445
 4820 0096 A223     		movs	r3, #162
 4821 0098 DB00     		lsls	r3, r3, #3
 4822 009a E35C     		ldrb	r3, [r4, r3]
 4823 009c 2000     		movs	r0, r4
 4824 009e 032B     		cmp	r3, #3
 4825 00a0 0ED1     		bne	.L446
 4826 00a2 FFF7FEFF 		bl	smtc_real_decrement_dr_simulation
 4827 00a6 2300     		movs	r3, r4
 4828 00a8 2200     		movs	r2, r4
 4829 00aa 5B33     		adds	r3, r3, #91
 4830 00ac 7832     		adds	r2, r2, #120
 4831 00ae 0100     		movs	r1, r0
 4832 00b0 1B78     		ldrb	r3, [r3]
 4833 00b2 2000     		movs	r0, r4
ARM GAS  /tmp/ccEvku90.s 			page 91


 4834 00b4 1278     		ldrb	r2, [r2]
 4835 00b6 FFF7FEFF 		bl	smtc_real_is_payload_size_valid
 4836 00ba 0028     		cmp	r0, #0
 4837 00bc 04D1     		bne	.L445
 4838 00be 2000     		movs	r0, r4
 4839              	.L446:
 4840 00c0 FFF7FEFF 		bl	smtc_real_decrement_dr
 4841 00c4 635D     		ldrb	r3, [r4, r5]
 4842 00c6 E351     		str	r3, [r4, r7]
 4843              	.L445:
 4844 00c8 9127     		movs	r7, #145
 4845 00ca 674B     		ldr	r3, .L469+24
 4846 00cc FF00     		lsls	r7, r7, #3
 4847 00ce E35A     		ldrh	r3, [r4, r3]
 4848 00d0 E259     		ldr	r2, [r4, r7]
 4849 00d2 9A42     		cmp	r2, r3
 4850 00d4 19DB     		blt	.L448
 4851 00d6 002B     		cmp	r3, #0
 4852 00d8 17D0     		beq	.L448
 4853 00da 644D     		ldr	r5, .L469+28
 4854 00dc 2800     		movs	r0, r5
 4855 00de FFF7FEFF 		bl	smtc_modem_hal_store_crashlog
 4856 00e2 0120     		movs	r0, #1
 4857 00e4 FFF7FEFF 		bl	smtc_modem_hal_set_crashlog_status
 4858 00e8 2900     		movs	r1, r5
 4859 00ea 6148     		ldr	r0, .L469+32
 4860 00ec FFF7FEFF 		bl	smtc_modem_hal_print_trace
 4861 00f0 604D     		ldr	r5, .L469+36
 4862 00f2 2800     		movs	r0, r5
 4863 00f4 FFF7FEFF 		bl	smtc_modem_hal_print_trace
 4864 00f8 5F48     		ldr	r0, .L469+40
 4865 00fa E159     		ldr	r1, [r4, r7]
 4866 00fc FFF7FEFF 		bl	smtc_modem_hal_print_trace
 4867 0100 2800     		movs	r0, r5
 4868 0102 FFF7FEFF 		bl	smtc_modem_hal_print_trace
 4869 0106 FFF7FEFF 		bl	smtc_modem_hal_reset_mcu
 4870              	.L448:
 4871 010a 7A25     		movs	r5, #122
 4872 010c ED22     		movs	r2, #237
 4873 010e FF35     		adds	r5, r5, #255
 4874 0110 5200     		lsls	r2, r2, #1
 4875 0112 635D     		ldrb	r3, [r4, r5]
 4876 0114 A25C     		ldrb	r2, [r4, r2]
 4877 0116 9342     		cmp	r3, r2
 4878 0118 00D2     		bcs	.LCB5085
 4879 011a 8DE0     		b	.L449	@long jump
 4880              	.LCB5085:
 4881 011c 002B     		cmp	r3, #0
 4882 011e 00D1     		bne	.LCB5087
 4883 0120 8AE0     		b	.L449	@long jump
 4884              	.LCB5087:
 4885 0122 2100     		movs	r1, r4
 4886 0124 554A     		ldr	r2, .L469+44
 4887 0126 7B31     		adds	r1, r1, #123
 4888 0128 A354     		strb	r3, [r4, r2]
 4889 012a 1A00     		movs	r2, r3
 4890 012c 544B     		ldr	r3, .L469+48
ARM GAS  /tmp/ccEvku90.s 			page 92


 4891 012e FF31     		adds	r1, r1, #255
 4892 0130 E018     		adds	r0, r4, r3
 4893 0132 FFF7FEFF 		bl	memcpy1
 4894 0136 A223     		movs	r3, #162
 4895 0138 0122     		movs	r2, #1
 4896 013a DB00     		lsls	r3, r3, #3
 4897 013c E254     		strb	r2, [r4, r3]
 4898 013e 2300     		movs	r3, r4
 4899 0140 5133     		adds	r3, r3, #81
 4900 0142 1B78     		ldrb	r3, [r3]
 4901 0144 3370     		strb	r3, [r6]
 4902              	.L450:
 4903 0146 0023     		movs	r3, #0
 4904 0148 6355     		strb	r3, [r4, r5]
 4905 014a A223     		movs	r3, #162
 4906 014c 424A     		ldr	r2, .L469+8
 4907 014e DB00     		lsls	r3, r3, #3
 4908 0150 A25C     		ldrb	r2, [r4, r2]
 4909 0152 E35C     		ldrb	r3, [r4, r3]
 4910 0154 022A     		cmp	r2, #2
 4911 0156 1DD1     		bne	.L452
 4912 0158 032B     		cmp	r3, #3
 4913 015a 57D0     		beq	.L437
 4914 015c 2000     		movs	r0, r4
 4915 015e FFF7FEFF 		bl	smtc_real_get_next_dr
 4916 0162 0130     		adds	r0, r0, #1
 4917 0164 16D1     		bne	.L452
 4918 0166 414D     		ldr	r5, .L469+28
 4919 0168 2800     		movs	r0, r5
 4920 016a FFF7FEFF 		bl	smtc_modem_hal_store_crashlog
 4921 016e 0120     		movs	r0, #1
 4922 0170 FFF7FEFF 		bl	smtc_modem_hal_set_crashlog_status
 4923 0174 2900     		movs	r1, r5
 4924 0176 3E48     		ldr	r0, .L469+32
 4925 0178 FFF7FEFF 		bl	smtc_modem_hal_print_trace
 4926 017c 3D4D     		ldr	r5, .L469+36
 4927 017e 2800     		movs	r0, r5
 4928 0180 FFF7FEFF 		bl	smtc_modem_hal_print_trace
 4929 0184 3F48     		ldr	r0, .L469+52
 4930 0186 FFF7FEFF 		bl	smtc_modem_hal_print_trace
 4931 018a 2800     		movs	r0, r5
 4932 018c FFF7FEFF 		bl	smtc_modem_hal_print_trace
 4933 0190 FFF7FEFF 		bl	smtc_modem_hal_reset_mcu
 4934              	.L452:
 4935 0194 A223     		movs	r3, #162
 4936 0196 DB00     		lsls	r3, r3, #3
 4937 0198 E35C     		ldrb	r3, [r4, r3]
 4938 019a 012B     		cmp	r3, #1
 4939 019c 36D1     		bne	.L437
 4940 019e 2700     		movs	r7, r4
 4941 01a0 2600     		movs	r6, r4
 4942 01a2 364D     		ldr	r5, .L469+44
 4943 01a4 5B37     		adds	r7, r7, #91
 4944 01a6 4E36     		adds	r6, r6, #78
 4945 01a8 3B78     		ldrb	r3, [r7]
 4946 01aa 2000     		movs	r0, r4
 4947 01ac 625D     		ldrb	r2, [r4, r5]
ARM GAS  /tmp/ccEvku90.s 			page 93


 4948 01ae 3178     		ldrb	r1, [r6]
 4949 01b0 FFF7FEFF 		bl	smtc_real_is_payload_size_valid
 4950 01b4 324B     		ldr	r3, .L469+48
 4951 01b6 E318     		adds	r3, r4, r3
 4952 01b8 0093     		str	r3, [sp]
 4953 01ba 0028     		cmp	r0, #0
 4954 01bc 0DD0     		beq	.L457
 4955 01be 635D     		ldrb	r3, [r4, r5]
 4956 01c0 2000     		movs	r0, r4
 4957 01c2 0193     		str	r3, [sp, #4]
 4958 01c4 3A78     		ldrb	r2, [r7]
 4959 01c6 3178     		ldrb	r1, [r6]
 4960 01c8 FFF7FEFF 		bl	smtc_real_get_max_payload_size
 4961 01cc 0838     		subs	r0, r0, #8
 4962 01ce C2B2     		uxtb	r2, r0
 4963 01d0 0199     		ldr	r1, [sp, #4]
 4964 01d2 0098     		ldr	r0, [sp]
 4965 01d4 FFF7FEFF 		bl	lr1_stack_mac_cmd_ans_cut
 4966 01d8 6055     		strb	r0, [r4, r5]
 4967              	.L457:
 4968 01da 2300     		movs	r3, r4
 4969 01dc 0122     		movs	r2, #1
 4970 01de 2000     		movs	r0, r4
 4971 01e0 7233     		adds	r3, r3, #114
 4972 01e2 1A70     		strb	r2, [r3]
 4973 01e4 625D     		ldrb	r2, [r4, r5]
 4974 01e6 0099     		ldr	r1, [sp]
 4975 01e8 8330     		adds	r0, r0, #131
 4976 01ea FFF7FEFF 		bl	memcpy1
 4977 01ee 2300     		movs	r3, r4
 4978 01f0 625D     		ldrb	r2, [r4, r5]
 4979 01f2 7833     		adds	r3, r3, #120
 4980 01f4 1A70     		strb	r2, [r3]
 4981 01f6 0022     		movs	r2, #0
 4982 01f8 073B     		subs	r3, r3, #7
 4983 01fa 1A70     		strb	r2, [r3]
 4984 01fc 0232     		adds	r2, r2, #2
 4985 01fe 2000     		movs	r0, r4
 4986 0200 9A70     		strb	r2, [r3, #2]
 4987 0202 FFF7FEFF 		bl	lr1_stack_mac_tx_frame_build
 4988 0206 2000     		movs	r0, r4
 4989 0208 FFF7FEFF 		bl	lr1_stack_mac_tx_frame_encrypt
 4990              	.L437:
 4991              		@ sp needed
 4992 020c F7BD     		pop	{r0, r1, r2, r4, r5, r6, r7, pc}
 4993              	.L439:
 4994 020e 1E4A     		ldr	r2, .L469+56
 4995 0210 2000     		movs	r0, r4
 4996 0212 9B18     		adds	r3, r3, r2
 4997 0214 B342     		cmp	r3, r6
 4998 0216 02D9     		bls	.L441
 4999 0218 FFF7FEFF 		bl	lr1_stack_toa_get
 5000 021c 15E7     		b	.L468
 5001              	.L441:
 5002 021e FFF7FEFF 		bl	lr1_stack_toa_get
 5003 0222 0A23     		movs	r3, #10
 5004 0224 4343     		muls	r3, r0
ARM GAS  /tmp/ccEvku90.s 			page 94


 5005 0226 9E19     		adds	r6, r3, r6
 5006 0228 10E7     		b	.L440
 5007              	.L442:
 5008 022a A222     		movs	r2, #162
 5009 022c 0320     		movs	r0, #3
 5010 022e D200     		lsls	r2, r2, #3
 5011 0230 013B     		subs	r3, r3, #1
 5012 0232 A054     		strb	r0, [r4, r2]
 5013 0234 DBB2     		uxtb	r3, r3
 5014 0236 25E7     		b	.L443
 5015              	.L449:
 5016 0238 2100     		movs	r1, r4
 5017 023a 2000     		movs	r0, r4
 5018 023c F523     		movs	r3, #245
 5019 023e DC31     		adds	r1, r1, #220
 5020 0240 5B00     		lsls	r3, r3, #1
 5021 0242 EC30     		adds	r0, r0, #236
 5022 0244 E254     		strb	r2, [r4, r3]
 5023 0246 FF31     		adds	r1, r1, #255
 5024 0248 FF30     		adds	r0, r0, #255
 5025 024a FFF7FEFF 		bl	memcpy1
 5026 024e 7AE7     		b	.L450
 5027              	.L470:
 5028              		.align	2
 5029              	.L469:
 5030 0250 8C040000 		.word	1164
 5031 0254 8E040000 		.word	1166
 5032 0258 CE040000 		.word	1230
 5033 025c AC040000 		.word	1196
 5034 0260 A4040000 		.word	1188
 5035 0264 8F040000 		.word	1167
 5036 0268 9C040000 		.word	1180
 5037 026c 00000000 		.word	__func__.2
 5038 0270 00000000 		.word	.LC6
 5039 0274 1E000000 		.word	.LC8
 5040 0278 00000000 		.word	.LC211
 5041 027c 87040000 		.word	1159
 5042 0280 27040000 		.word	1063
 5043 0284 3C000000 		.word	.LC213
 5044 0288 B09A0000 		.word	39600
 5046              		.section	.text.lr1_stack_nb_trans_get,"ax",%progbits
 5047              		.align	1
 5048              		.global	lr1_stack_nb_trans_get
 5049              		.syntax unified
 5050              		.code	16
 5051              		.thumb_func
 5053              	lr1_stack_nb_trans_get:
 5054              		@ args = 0, pretend = 0, frame = 0
 5055              		@ frame_needed = 0, uses_anonymous_args = 0
 5056              		@ link register save eliminated.
 5057 0000 5130     		adds	r0, r0, #81
 5058 0002 0078     		ldrb	r0, [r0]
 5059              		@ sp needed
 5060 0004 7047     		bx	lr
 5062              		.section	.text.lr1_stack_nb_trans_set,"ax",%progbits
 5063              		.align	1
 5064              		.global	lr1_stack_nb_trans_set
ARM GAS  /tmp/ccEvku90.s 			page 95


 5065              		.syntax unified
 5066              		.code	16
 5067              		.thumb_func
 5069              	lr1_stack_nb_trans_set:
 5070              		@ args = 0, pretend = 0, frame = 0
 5071              		@ frame_needed = 0, uses_anonymous_args = 0
 5072              		@ link register save eliminated.
 5073 0000 064B     		ldr	r3, .L476
 5074 0002 C35C     		ldrb	r3, [r0, r3]
 5075 0004 002B     		cmp	r3, #0
 5076 0006 06D0     		beq	.L475
 5077 0008 4B1E     		subs	r3, r1, #1
 5078 000a 0E2B     		cmp	r3, #14
 5079 000c 03D8     		bhi	.L475
 5080 000e 5130     		adds	r0, r0, #81
 5081 0010 0170     		strb	r1, [r0]
 5082 0012 0020     		movs	r0, #0
 5083              	.L473:
 5084              		@ sp needed
 5085 0014 7047     		bx	lr
 5086              	.L475:
 5087 0016 0120     		movs	r0, #1
 5088 0018 4042     		rsbs	r0, r0, #0
 5089 001a FBE7     		b	.L473
 5090              	.L477:
 5091              		.align	2
 5092              	.L476:
 5093 001c 92040000 		.word	1170
 5095              		.section	.text.lr1_stack_get_crystal_error,"ax",%progbits
 5096              		.align	1
 5097              		.global	lr1_stack_get_crystal_error
 5098              		.syntax unified
 5099              		.code	16
 5100              		.thumb_func
 5102              	lr1_stack_get_crystal_error:
 5103              		@ args = 0, pretend = 0, frame = 0
 5104              		@ frame_needed = 0, uses_anonymous_args = 0
 5105              		@ link register save eliminated.
 5106 0000 014B     		ldr	r3, .L479
 5107              		@ sp needed
 5108 0002 C058     		ldr	r0, [r0, r3]
 5109 0004 7047     		bx	lr
 5110              	.L480:
 5111 0006 C046     		.align	2
 5112              	.L479:
 5113 0008 1C050000 		.word	1308
 5115              		.section	.text.lr1_stack_set_crystal_error,"ax",%progbits
 5116              		.align	1
 5117              		.global	lr1_stack_set_crystal_error
 5118              		.syntax unified
 5119              		.code	16
 5120              		.thumb_func
 5122              	lr1_stack_set_crystal_error:
 5123              		@ args = 0, pretend = 0, frame = 0
 5124              		@ frame_needed = 0, uses_anonymous_args = 0
 5125              		@ link register save eliminated.
 5126 0000 014B     		ldr	r3, .L482
ARM GAS  /tmp/ccEvku90.s 			page 96


 5127              		@ sp needed
 5128 0002 C150     		str	r1, [r0, r3]
 5129 0004 7047     		bx	lr
 5130              	.L483:
 5131 0006 C046     		.align	2
 5132              	.L482:
 5133 0008 1C050000 		.word	1308
 5135              		.section	.rodata.lr1mac_rx_payload_max_size_check.str1.1,"aMS",%progbits,1
 5136              	.LC215:
 5137 0000 73697A65 		.ascii	"size (%d)> size_max (%d)\000"
 5137      20282564 
 5137      293E2073 
 5137      697A655F 
 5137      6D617820 
 5138              		.section	.text.lr1mac_rx_payload_max_size_check,"ax",%progbits
 5139              		.align	1
 5140              		.global	lr1mac_rx_payload_max_size_check
 5141              		.syntax unified
 5142              		.code	16
 5143              		.thumb_func
 5145              	lr1mac_rx_payload_max_size_check:
 5146              		@ args = 0, pretend = 0, frame = 0
 5147              		@ frame_needed = 0, uses_anonymous_args = 0
 5148 0000 0300     		movs	r3, r0
 5149 0002 10B5     		push	{r4, lr}
 5150 0004 5C33     		adds	r3, r3, #92
 5151 0006 0C00     		movs	r4, r1
 5152 0008 1100     		movs	r1, r2
 5153 000a 1A78     		ldrb	r2, [r3]
 5154 000c FFF7FEFF 		bl	smtc_real_get_max_payload_size
 5155 0010 0530     		adds	r0, r0, #5
 5156 0012 C2B2     		uxtb	r2, r0
 5157 0014 0020     		movs	r0, #0
 5158 0016 A242     		cmp	r2, r4
 5159 0018 05D2     		bcs	.L485
 5160 001a 0348     		ldr	r0, .L487
 5161 001c 2100     		movs	r1, r4
 5162 001e FFF7FEFF 		bl	smtc_modem_hal_print_trace
 5163 0022 0120     		movs	r0, #1
 5164 0024 4042     		rsbs	r0, r0, #0
 5165              	.L485:
 5166              		@ sp needed
 5167 0026 10BD     		pop	{r4, pc}
 5168              	.L488:
 5169              		.align	2
 5170              	.L487:
 5171 0028 00000000 		.word	.LC215
 5173              		.section	.rodata.lr1_stack_mac_rx_frame_decode.str1.1,"aMS",%progbits,1
 5174              	.LC217:
 5175 0000 1B5B303B 		.ascii	"\033[0;31mERROR:  Process join accept failed with c"
 5175      33316D45 
 5175      52524F52 
 5175      3A202050 
 5175      726F6365 
 5176 0030 6F646520 		.ascii	"ode = %d\012\015\000"
 5176      3D202564 
 5176      0A0D00
ARM GAS  /tmp/ccEvku90.s 			page 97


 5177              	.LC222:
 5178 003b 1B5B303B 		.ascii	"\033[0;31mERROR: -> Rx Window invalid\012\015\000"
 5178      33316D45 
 5178      52524F52 
 5178      3A202D3E 
 5178      20527820 
 5179              	.LC224:
 5180 0060 1B5B303B 		.ascii	"\033[0;31mERROR: -> Crypto error during payload dec"
 5180      33316D45 
 5180      52524F52 
 5180      3A202D3E 
 5180      20437279 
 5181 0090 72797074 		.ascii	"ryption\012\015\000"
 5181      696F6E0A 
 5181      0D00
 5182              	.LC226:
 5183 009a 1B5B303B 		.ascii	"\033[0;33mWARN:  Receive too many nwk frames\012\015"
 5183      33336D57 
 5183      41524E3A 
 5183      20205265 
 5183      63656976 
 5184 00c5 00       		.ascii	"\000"
 5185              	.LC228:
 5186 00c6 1B5B303B 		.ascii	"\033[0;33mWARN:  Receive an not valid packet with F"
 5186      33336D57 
 5186      41524E3A 
 5186      20205265 
 5186      63656976 
 5187 00f6 4F707473 		.ascii	"Opts bytes on port zero\012\015\000"
 5187      20627974 
 5187      6573206F 
 5187      6E20706F 
 5187      7274207A 
 5188              	.LC230:
 5189 0110 2072785F 		.ascii	" rx_packet_type = %d\012\015\000"
 5189      7061636B 
 5189      65745F74 
 5189      79706520 
 5189      3D202564 
 5190              		.section	.text.lr1_stack_mac_rx_frame_decode,"ax",%progbits
 5191              		.align	1
 5192              		.global	lr1_stack_mac_rx_frame_decode
 5193              		.syntax unified
 5194              		.code	16
 5195              		.thumb_func
 5197              	lr1_stack_mac_rx_frame_decode:
 5198              		@ args = 0, pretend = 0, frame = 24
 5199              		@ frame_needed = 0, uses_anonymous_args = 0
 5200 0000 0023     		movs	r3, #0
 5201 0002 F0B5     		push	{r4, r5, r6, r7, lr}
 5202 0004 BE4E     		ldr	r6, .L524
 5203 0006 8DB0     		sub	sp, sp, #52
 5204 0008 0B93     		str	r3, [sp, #44]
 5205 000a 0400     		movs	r4, r0
 5206 000c 805D     		ldrb	r0, [r0, r6]
 5207 000e FFF7FEFF 		bl	lr1mac_rx_payload_min_size_check
 5208 0012 9723     		movs	r3, #151
ARM GAS  /tmp/ccEvku90.s 			page 98


 5209 0014 DB00     		lsls	r3, r3, #3
 5210 0016 0500     		movs	r5, r0
 5211 0018 E25C     		ldrb	r2, [r4, r3]
 5212 001a 2000     		movs	r0, r4
 5213 001c A15D     		ldrb	r1, [r4, r6]
 5214 001e FFF7FEFF 		bl	lr1mac_rx_payload_max_size_check
 5215 0022 2D18     		adds	r5, r5, r0
 5216 0024 002D     		cmp	r5, #0
 5217 0026 03D0     		beq	.L490
 5218              	.L492:
 5219 0028 0025     		movs	r5, #0
 5220              	.L491:
 5221 002a 2800     		movs	r0, r5
 5222 002c 0DB0     		add	sp, sp, #52
 5223              		@ sp needed
 5224 002e F0BD     		pop	{r4, r5, r6, r7, pc}
 5225              	.L490:
 5226 0030 8423     		movs	r3, #132
 5227 0032 1B27     		movs	r7, #27
 5228 0034 9B00     		lsls	r3, r3, #2
 5229 0036 E318     		adds	r3, r4, r3
 5230 0038 0693     		str	r3, [sp, #24]
 5231 003a 02AB     		add	r3, sp, #8
 5232 003c FF18     		adds	r7, r7, r3
 5233 003e 1D23     		movs	r3, #29
 5234 0040 02AA     		add	r2, sp, #8
 5235 0042 9B18     		adds	r3, r3, r2
 5236 0044 3900     		movs	r1, r7
 5237 0046 0698     		ldr	r0, [sp, #24]
 5238 0048 09AA     		add	r2, sp, #36
 5239 004a FFF7FEFF 		bl	lr1mac_rx_mhdr_extract
 5240 004e 051E     		subs	r5, r0, #0
 5241 0050 EAD1     		bne	.L492
 5242 0052 3B78     		ldrb	r3, [r7]
 5243 0054 A15D     		ldrb	r1, [r4, r6]
 5244 0056 012B     		cmp	r3, #1
 5245 0058 33D1     		bne	.L493
 5246 005a 069A     		ldr	r2, [sp, #24]
 5247 005c 1000     		movs	r0, r2
 5248 005e FFF7FEFF 		bl	smtc_modem_crypto_process_join_accept
 5249 0062 011E     		subs	r1, r0, #0
 5250 0064 26D1     		bne	.L494
 5251 0066 A35D     		ldrb	r3, [r4, r6]
 5252 0068 0435     		adds	r5, r5, #4
 5253 006a 043B     		subs	r3, r3, #4
 5254 006c A355     		strb	r3, [r4, r6]
 5255              	.L495:
 5256 006e 1B23     		movs	r3, #27
 5257 0070 02AA     		add	r2, sp, #8
 5258 0072 9B18     		adds	r3, r3, r2
 5259 0074 1A78     		ldrb	r2, [r3]
 5260 0076 FD23     		movs	r3, #253
 5261 0078 5B00     		lsls	r3, r3, #1
 5262 007a E254     		strb	r2, [r4, r3]
 5263 007c 02AB     		add	r3, sp, #8
 5264 007e 1A7F     		ldrb	r2, [r3, #28]
 5265 0080 FC23     		movs	r3, #252
ARM GAS  /tmp/ccEvku90.s 			page 99


 5266 0082 FF33     		adds	r3, r3, #255
 5267 0084 E254     		strb	r2, [r4, r3]
 5268 0086 1D22     		movs	r2, #29
 5269 0088 2300     		movs	r3, r4
 5270 008a 02A9     		add	r1, sp, #8
 5271 008c 5218     		adds	r2, r2, r1
 5272 008e 1278     		ldrb	r2, [r2]
 5273 0090 7633     		adds	r3, r3, #118
 5274 0092 1A70     		strb	r2, [r3]
 5275 0094 0B9B     		ldr	r3, [sp, #44]
 5276 0096 9122     		movs	r2, #145
 5277 0098 A366     		str	r3, [r4, #104]
 5278 009a 0023     		movs	r3, #0
 5279 009c D200     		lsls	r2, r2, #3
 5280 009e A350     		str	r3, [r4, r2]
 5281 00a0 1832     		adds	r2, r2, #24
 5282 00a2 A352     		strh	r3, [r4, r2]
 5283 00a4 974A     		ldr	r2, .L524+4
 5284 00a6 A352     		strh	r3, [r4, r2]
 5285 00a8 F522     		movs	r2, #245
 5286 00aa 5200     		lsls	r2, r2, #1
 5287 00ac A354     		strb	r3, [r4, r2]
 5288 00ae 103A     		subs	r2, r2, #16
 5289 00b0 A354     		strb	r3, [r4, r2]
 5290 00b2 D7E0     		b	.L509
 5291              	.L494:
 5292 00b4 9448     		ldr	r0, .L524+8
 5293 00b6 FFF7FEFF 		bl	smtc_modem_hal_print_trace
 5294              	.L523:
 5295 00ba 9448     		ldr	r0, .L524+12
 5296 00bc FFF7FEFF 		bl	smtc_modem_hal_print_trace
 5297 00c0 D5E7     		b	.L495
 5298              	.L493:
 5299 00c2 02AB     		add	r3, sp, #8
 5300 00c4 D883     		strh	r0, [r3, #30]
 5301 00c6 A36E     		ldr	r3, [r4, #104]
 5302 00c8 02AA     		add	r2, sp, #8
 5303 00ca 0B93     		str	r3, [sp, #44]
 5304 00cc 8023     		movs	r3, #128
 5305 00ce 9B00     		lsls	r3, r3, #2
 5306 00d0 E318     		adds	r3, r4, r3
 5307 00d2 0493     		str	r3, [sp, #16]
 5308 00d4 0793     		str	r3, [sp, #28]
 5309 00d6 043B     		subs	r3, r3, #4
 5310 00d8 0393     		str	r3, [sp, #12]
 5311 00da 8D4B     		ldr	r3, .L524+16
 5312 00dc 0698     		ldr	r0, [sp, #24]
 5313 00de E318     		adds	r3, r4, r3
 5314 00e0 0293     		str	r3, [sp, #8]
 5315 00e2 9B23     		movs	r3, #155
 5316 00e4 DB00     		lsls	r3, r3, #3
 5317 00e6 E318     		adds	r3, r4, r3
 5318 00e8 0193     		str	r3, [sp, #4]
 5319 00ea E36E     		ldr	r3, [r4, #108]
 5320 00ec 0093     		str	r3, [sp]
 5321 00ee 1E23     		movs	r3, #30
 5322 00f0 9B18     		adds	r3, r3, r2
ARM GAS  /tmp/ccEvku90.s 			page 100


 5323 00f2 884A     		ldr	r2, .L524+20
 5324 00f4 A218     		adds	r2, r4, r2
 5325 00f6 FFF7FEFF 		bl	lr1mac_rx_fhdr_extract
 5326 00fa 0028     		cmp	r0, #0
 5327 00fc 00D0     		beq	.LCB5556
 5328 00fe B0E0     		b	.L499	@long jump
 5329              	.LCB5556:
 5330 0100 02AB     		add	r3, sp, #8
 5331 0102 D88B     		ldrh	r0, [r3, #30]
 5332 0104 0BA9     		add	r1, sp, #44
 5333 0106 FFF7FEFF 		bl	lr1mac_fcnt_dwn_accept
 5334 010a 0028     		cmp	r0, #0
 5335 010c 00D0     		beq	.LCB5563
 5336 010e A8E0     		b	.L499	@long jump
 5337              	.LCB5563:
 5338 0110 8423     		movs	r3, #132
 5339 0112 0125     		movs	r5, #1
 5340 0114 A15D     		ldrb	r1, [r4, r6]
 5341 0116 9B00     		lsls	r3, r3, #2
 5342 0118 0439     		subs	r1, r1, #4
 5343 011a C9B2     		uxtb	r1, r1
 5344 011c A155     		strb	r1, [r4, r6]
 5345 011e C918     		adds	r1, r1, r3
 5346 0120 0422     		movs	r2, #4
 5347 0122 6118     		adds	r1, r4, r1
 5348 0124 0AA8     		add	r0, sp, #40
 5349 0126 FFF7FEFF 		bl	memcpy1
 5350 012a 0A9B     		ldr	r3, [sp, #40]
 5351 012c A15D     		ldrb	r1, [r4, r6]
 5352 012e 0293     		str	r3, [sp, #8]
 5353 0130 0B9B     		ldr	r3, [sp, #44]
 5354 0132 0095     		str	r5, [sp]
 5355 0134 0193     		str	r3, [sp, #4]
 5356 0136 0622     		movs	r2, #6
 5357 0138 E36E     		ldr	r3, [r4, #108]
 5358 013a 0698     		ldr	r0, [sp, #24]
 5359 013c FFF7FEFF 		bl	smtc_modem_crypto_verify_mic
 5360 0140 0028     		cmp	r0, #0
 5361 0142 00D0     		beq	.LCB5589
 5362 0144 8DE0     		b	.L499	@long jump
 5363              	.LCB5589:
 5364 0146 2300     		movs	r3, r4
 5365 0148 5233     		adds	r3, r3, #82
 5366 014a 1D70     		strb	r5, [r3]
 5367 014c FE23     		movs	r3, #254
 5368 014e 5B00     		lsls	r3, r3, #1
 5369 0150 E35C     		ldrb	r3, [r4, r3]
 5370 0152 9A06     		lsls	r2, r3, #26
 5371 0154 07D5     		bpl	.L498
 5372 0156 2200     		movs	r2, r4
 5373 0158 7332     		adds	r2, r2, #115
 5374 015a 1278     		ldrb	r2, [r2]
 5375 015c 042A     		cmp	r2, #4
 5376 015e 02D1     		bne	.L498
 5377 0160 FE22     		movs	r2, #254
 5378 0162 FF32     		adds	r2, r2, #255
 5379 0164 A554     		strb	r5, [r4, r2]
ARM GAS  /tmp/ccEvku90.s 			page 101


 5380              	.L498:
 5381 0166 0127     		movs	r7, #1
 5382 0168 FF22     		movs	r2, #255
 5383 016a 1B09     		lsrs	r3, r3, #4
 5384 016c 3B40     		ands	r3, r7
 5385 016e 5200     		lsls	r2, r2, #1
 5386 0170 A354     		strb	r3, [r4, r2]
 5387 0172 694A     		ldr	r2, .L524+24
 5388 0174 A354     		strb	r3, [r4, r2]
 5389 0176 694B     		ldr	r3, .L524+28
 5390 0178 E35C     		ldrb	r3, [r4, r3]
 5391 017a 002B     		cmp	r3, #0
 5392 017c 4BD1     		bne	.L500
 5393 017e 684B     		ldr	r3, .L524+32
 5394 0180 E258     		ldr	r2, [r4, r3]
 5395              	.L522:
 5396 0182 684B     		ldr	r3, .L524+36
 5397 0184 E250     		str	r2, [r4, r3]
 5398              	.L501:
 5399 0186 9723     		movs	r3, #151
 5400 0188 DB00     		lsls	r3, r3, #3
 5401 018a E25C     		ldrb	r2, [r4, r3]
 5402 018c 2833     		adds	r3, r3, #40
 5403 018e E254     		strb	r2, [r4, r3]
 5404 0190 5F4B     		ldr	r3, .L524+16
 5405 0192 604F     		ldr	r7, .L524+20
 5406 0194 E35C     		ldrb	r3, [r4, r3]
 5407 0196 E55D     		ldrb	r5, [r4, r7]
 5408 0198 002B     		cmp	r3, #0
 5409 019a 00D0     		beq	.LCB5642
 5410 019c A0E0     		b	.L503	@long jump
 5411              	.LCB5642:
 5412 019e 9B23     		movs	r3, #155
 5413 01a0 A15D     		ldrb	r1, [r4, r6]
 5414 01a2 DB00     		lsls	r3, r3, #3
 5415 01a4 0939     		subs	r1, r1, #9
 5416 01a6 491B     		subs	r1, r1, r5
 5417 01a8 C9B2     		uxtb	r1, r1
 5418 01aa A155     		strb	r1, [r4, r6]
 5419 01ac E35C     		ldrb	r3, [r4, r3]
 5420 01ae 002B     		cmp	r3, #0
 5421 01b0 5DD1     		bne	.L504
 5422 01b2 002D     		cmp	r5, #0
 5423 01b4 4FD1     		bne	.L505
 5424 01b6 CD23     		movs	r3, #205
 5425 01b8 9B00     		lsls	r3, r3, #2
 5426 01ba E318     		adds	r3, r4, r3
 5427 01bc 0293     		str	r3, [sp, #8]
 5428 01be FF3F     		subs	r7, r7, #255
 5429 01c0 0B9B     		ldr	r3, [sp, #44]
 5430 01c2 5948     		ldr	r0, .L524+40
 5431 01c4 FF3F     		subs	r7, r7, #255
 5432 01c6 0193     		str	r3, [sp, #4]
 5433 01c8 0097     		str	r7, [sp]
 5434 01ca 0622     		movs	r2, #6
 5435 01cc E36E     		ldr	r3, [r4, #108]
 5436 01ce 2018     		adds	r0, r4, r0
ARM GAS  /tmp/ccEvku90.s 			page 102


 5437 01d0 FFF7FEFF 		bl	smtc_modem_crypto_payload_decrypt
 5438 01d4 0028     		cmp	r0, #0
 5439 01d6 17D0     		beq	.L506
 5440 01d8 544B     		ldr	r3, .L524+44
 5441 01da 1800     		movs	r0, r3
 5442 01dc 0693     		str	r3, [sp, #24]
 5443 01de FFF7FEFF 		bl	smtc_modem_hal_store_crashlog
 5444 01e2 3800     		movs	r0, r7
 5445 01e4 FFF7FEFF 		bl	smtc_modem_hal_set_crashlog_status
 5446 01e8 0699     		ldr	r1, [sp, #24]
 5447 01ea 5148     		ldr	r0, .L524+48
 5448 01ec FFF7FEFF 		bl	smtc_modem_hal_print_trace
 5449 01f0 464F     		ldr	r7, .L524+12
 5450 01f2 3800     		movs	r0, r7
 5451 01f4 FFF7FEFF 		bl	smtc_modem_hal_print_trace
 5452 01f8 4E48     		ldr	r0, .L524+52
 5453 01fa FFF7FEFF 		bl	smtc_modem_hal_print_trace
 5454 01fe 3800     		movs	r0, r7
 5455 0200 FFF7FEFF 		bl	smtc_modem_hal_print_trace
 5456 0204 FFF7FEFF 		bl	smtc_modem_hal_reset_mcu
 5457              	.L506:
 5458 0208 A35D     		ldrb	r3, [r4, r6]
 5459 020a F22B     		cmp	r3, #242
 5460 020c 1FD9     		bls	.L507
 5461 020e 4A48     		ldr	r0, .L524+56
 5462 0210 FFF7FEFF 		bl	smtc_modem_hal_print_trace
 5463 0214 51E7     		b	.L523
 5464              	.L500:
 5465 0216 012B     		cmp	r3, #1
 5466 0218 01D1     		bne	.L502
 5467 021a 626D     		ldr	r2, [r4, #84]
 5468 021c B1E7     		b	.L522
 5469              	.L502:
 5470 021e 434D     		ldr	r5, .L524+44
 5471 0220 2800     		movs	r0, r5
 5472 0222 FFF7FEFF 		bl	smtc_modem_hal_store_crashlog
 5473 0226 3800     		movs	r0, r7
 5474 0228 FFF7FEFF 		bl	smtc_modem_hal_set_crashlog_status
 5475 022c 2900     		movs	r1, r5
 5476 022e 4048     		ldr	r0, .L524+48
 5477 0230 FFF7FEFF 		bl	smtc_modem_hal_print_trace
 5478 0234 354D     		ldr	r5, .L524+12
 5479 0236 2800     		movs	r0, r5
 5480 0238 FFF7FEFF 		bl	smtc_modem_hal_print_trace
 5481 023c 3F48     		ldr	r0, .L524+60
 5482 023e FFF7FEFF 		bl	smtc_modem_hal_print_trace
 5483 0242 2800     		movs	r0, r5
 5484 0244 FFF7FEFF 		bl	smtc_modem_hal_print_trace
 5485 0248 FFF7FEFF 		bl	smtc_modem_hal_reset_mcu
 5486 024c 9BE7     		b	.L501
 5487              	.L507:
 5488 024e 3C4A     		ldr	r2, .L524+64
 5489 0250 0325     		movs	r5, #3
 5490 0252 A354     		strb	r3, [r4, r2]
 5491 0254 0BE7     		b	.L495
 5492              	.L505:
 5493 0256 3B48     		ldr	r0, .L524+68
ARM GAS  /tmp/ccEvku90.s 			page 103


 5494 0258 FFF7FEFF 		bl	smtc_modem_hal_print_trace
 5495 025c 2B48     		ldr	r0, .L524+12
 5496 025e FFF7FEFF 		bl	smtc_modem_hal_print_trace
 5497              	.L499:
 5498 0262 0025     		movs	r5, #0
 5499              	.L509:
 5500 0264 2900     		movs	r1, r5
 5501 0266 3848     		ldr	r0, .L524+72
 5502 0268 FFF7FEFF 		bl	smtc_modem_hal_print_trace
 5503 026c DDE6     		b	.L491
 5504              	.L504:
 5505 026e 0126     		movs	r6, #1
 5506 0270 2D4B     		ldr	r3, .L524+40
 5507 0272 0096     		str	r6, [sp]
 5508 0274 ED18     		adds	r5, r5, r3
 5509 0276 069B     		ldr	r3, [sp, #24]
 5510 0278 0722     		movs	r2, #7
 5511 027a 0293     		str	r3, [sp, #8]
 5512 027c 0B9B     		ldr	r3, [sp, #44]
 5513 027e 6019     		adds	r0, r4, r5
 5514 0280 0193     		str	r3, [sp, #4]
 5515 0282 E36E     		ldr	r3, [r4, #108]
 5516 0284 FFF7FEFF 		bl	smtc_modem_crypto_payload_decrypt
 5517 0288 0028     		cmp	r0, #0
 5518 028a 16D0     		beq	.L510
 5519 028c 274D     		ldr	r5, .L524+44
 5520 028e 2800     		movs	r0, r5
 5521 0290 FFF7FEFF 		bl	smtc_modem_hal_store_crashlog
 5522 0294 3000     		movs	r0, r6
 5523 0296 FFF7FEFF 		bl	smtc_modem_hal_set_crashlog_status
 5524 029a 2900     		movs	r1, r5
 5525 029c 2448     		ldr	r0, .L524+48
 5526 029e FFF7FEFF 		bl	smtc_modem_hal_print_trace
 5527 02a2 1A4D     		ldr	r5, .L524+12
 5528 02a4 2800     		movs	r0, r5
 5529 02a6 FFF7FEFF 		bl	smtc_modem_hal_print_trace
 5530 02aa 2248     		ldr	r0, .L524+52
 5531 02ac FFF7FEFF 		bl	smtc_modem_hal_print_trace
 5532 02b0 2800     		movs	r0, r5
 5533 02b2 FFF7FEFF 		bl	smtc_modem_hal_print_trace
 5534 02b6 FFF7FEFF 		bl	smtc_modem_hal_reset_mcu
 5535              	.L510:
 5536 02ba E25D     		ldrb	r2, [r4, r7]
 5537 02bc 0125     		movs	r5, #1
 5538 02be 002A     		cmp	r2, #0
 5539 02c0 09D0     		beq	.L511
 5540 02c2 CD23     		movs	r3, #205
 5541 02c4 9B00     		lsls	r3, r3, #2
 5542 02c6 E018     		adds	r0, r4, r3
 5543 02c8 0799     		ldr	r1, [sp, #28]
 5544 02ca FFF7FEFF 		bl	memcpy1
 5545 02ce E25D     		ldrb	r2, [r4, r7]
 5546 02d0 1B4B     		ldr	r3, .L524+64
 5547 02d2 6D19     		adds	r5, r5, r5
 5548 02d4 E254     		strb	r2, [r4, r3]
 5549              	.L511:
 5550 02d6 C423     		movs	r3, #196
ARM GAS  /tmp/ccEvku90.s 			page 104


 5551 02d8 0122     		movs	r2, #1
 5552 02da 9B00     		lsls	r3, r3, #2
 5553 02dc E254     		strb	r2, [r4, r3]
 5554 02de C6E6     		b	.L495
 5555              	.L503:
 5556 02e0 002D     		cmp	r5, #0
 5557 02e2 0BD0     		beq	.L513
 5558 02e4 CD23     		movs	r3, #205
 5559 02e6 9B00     		lsls	r3, r3, #2
 5560 02e8 2A00     		movs	r2, r5
 5561 02ea E018     		adds	r0, r4, r3
 5562 02ec 0799     		ldr	r1, [sp, #28]
 5563 02ee FFF7FEFF 		bl	memcpy1
 5564 02f2 E25D     		ldrb	r2, [r4, r7]
 5565 02f4 124B     		ldr	r3, .L524+64
 5566 02f6 0225     		movs	r5, #2
 5567 02f8 E254     		strb	r2, [r4, r3]
 5568 02fa B8E6     		b	.L495
 5569              	.L513:
 5570 02fc 0125     		movs	r5, #1
 5571 02fe B6E6     		b	.L495
 5572              	.L525:
 5573              		.align	2
 5574              	.L524:
 5575 0300 0F020000 		.word	527
 5576 0304 9E040000 		.word	1182
 5577 0308 00000000 		.word	.LC217
 5578 030c 1E000000 		.word	.LC8
 5579 0310 0F030000 		.word	783
 5580 0314 FF010000 		.word	511
 5581 0318 DA040000 		.word	1242
 5582 031c BA040000 		.word	1210
 5583 0320 B4040000 		.word	1204
 5584 0324 DC040000 		.word	1244
 5585 0328 19020000 		.word	537
 5586 032c 00000000 		.word	__func__.3
 5587 0330 00000000 		.word	.LC6
 5588 0334 60000000 		.word	.LC224
 5589 0338 9A000000 		.word	.LC226
 5590 033c 3B000000 		.word	.LC222
 5591 0340 26040000 		.word	1062
 5592 0344 C6000000 		.word	.LC228
 5593 0348 10010000 		.word	.LC230
 5595              		.section	.rodata.__func__.0,"a"
 5598              	__func__.0:
 5599 0000 6C72315F 		.ascii	"lr1_stack_toa_get\000"
 5599      73746163 
 5599      6B5F746F 
 5599      615F6765 
 5599      7400
 5600              		.section	.rodata.__func__.1,"a"
 5603              	__func__.1:
 5604 0000 6C72315F 		.ascii	"lr1_stack_mac_join_request_build\000"
 5604      73746163 
 5604      6B5F6D61 
 5604      635F6A6F 
 5604      696E5F72 
ARM GAS  /tmp/ccEvku90.s 			page 105


 5605              		.section	.rodata.__func__.2,"a"
 5608              	__func__.2:
 5609 0000 6C72315F 		.ascii	"lr1_stack_mac_update\000"
 5609      73746163 
 5609      6B5F6D61 
 5609      635F7570 
 5609      64617465 
 5610              		.section	.rodata.__func__.3,"a"
 5613              	__func__.3:
 5614 0000 6C72315F 		.ascii	"lr1_stack_mac_rx_frame_decode\000"
 5614      73746163 
 5614      6B5F6D61 
 5614      635F7278 
 5614      5F667261 
 5615              		.section	.rodata.__func__.4,"a"
 5618              	__func__.4:
 5619 0000 6C72315F 		.ascii	"lr1_stack_mac_rx_timer_configure\000"
 5619      73746163 
 5619      6B5F6D61 
 5619      635F7278 
 5619      5F74696D 
 5620              		.section	.rodata.__func__.5,"a"
 5623              	__func__.5:
 5624 0000 6C72315F 		.ascii	"lr1_stack_mac_rp_callback\000"
 5624      73746163 
 5624      6B5F6D61 
 5624      635F7270 
 5624      5F63616C 
 5625              		.section	.rodata.__func__.6,"a"
 5628              	__func__.6:
 5629 0000 6C72315F 		.ascii	"lr1_stack_mac_rx_radio_start\000"
 5629      73746163 
 5629      6B5F6D61 
 5629      635F7278 
 5629      5F726164 
 5630              		.section	.rodata.__func__.7,"a"
 5633              	__func__.7:
 5634 0000 6C72315F 		.ascii	"lr1_stack_mac_tx_radio_start\000"
 5634      73746163 
 5634      6B5F6D61 
 5634      635F7478 
 5634      5F726164 
 5635              		.section	.rodata.__func__.8,"a"
 5638              	__func__.8:
 5639 0000 6C72315F 		.ascii	"lr1_stack_mac_rx_gfsk_launch_callback_for_rp\000"
 5639      73746163 
 5639      6B5F6D61 
 5639      635F7278 
 5639      5F676673 
 5640              		.section	.rodata.__func__.9,"a"
 5643              	__func__.9:
 5644 0000 6C72315F 		.ascii	"lr1_stack_mac_rx_lora_launch_callback_for_rp\000"
 5644      73746163 
 5644      6B5F6D61 
 5644      635F7278 
 5644      5F6C6F72 
 5645              		.section	.rodata.__func__.10,"a"
ARM GAS  /tmp/ccEvku90.s 			page 106


 5648              	__func__.10:
 5649 0000 6C72315F 		.ascii	"lr1_stack_mac_tx_lr_fhss_launch_callback_for_rp\000"
 5649      73746163 
 5649      6B5F6D61 
 5649      635F7478 
 5649      5F6C725F 
 5650              		.section	.rodata.__func__.11,"a"
 5653              	__func__.11:
 5654 0000 6C72315F 		.ascii	"lr1_stack_mac_tx_gfsk_launch_callback_for_rp\000"
 5654      73746163 
 5654      6B5F6D61 
 5654      635F7478 
 5654      5F676673 
 5655              		.section	.rodata.__func__.12,"a"
 5658              	__func__.12:
 5659 0000 6C72315F 		.ascii	"lr1_stack_mac_tx_lora_launch_callback_for_rp\000"
 5659      73746163 
 5659      6B5F6D61 
 5659      635F7478 
 5659      5F6C6F72 
 5660              		.section	.rodata.__func__.13,"a"
 5663              	__func__.13:
 5664 0000 6C72315F 		.ascii	"lr1_stack_mac_tx_frame_encrypt\000"
 5664      73746163 
 5664      6B5F6D61 
 5664      635F7478 
 5664      5F667261 
 5665              		.section	.rodata.str1.1,"aMS",%progbits,1
 5666              	.LC232:
 5667 0000 42573030 		.ascii	"BW007\000"
 5667      3700
 5668              	.LC233:
 5669 0006 42573031 		.ascii	"BW010\000"
 5669      3000
 5670              	.LC234:
 5671 000c 42573031 		.ascii	"BW015\000"
 5671      3500
 5672              	.LC235:
 5673 0012 42573032 		.ascii	"BW020\000"
 5673      3000
 5674              	.LC236:
 5675 0018 42573033 		.ascii	"BW031\000"
 5675      3100
 5676              	.LC237:
 5677 001e 42573034 		.ascii	"BW041\000"
 5677      3100
 5678              	.LC238:
 5679 0024 42573036 		.ascii	"BW062\000"
 5679      3200
 5680              	.LC239:
 5681 002a 42573132 		.ascii	"BW125\000"
 5681      3500
 5682              	.LC240:
 5683 0030 42573230 		.ascii	"BW200\000"
 5683      3000
 5684              	.LC241:
 5685 0036 42573235 		.ascii	"BW250\000"
ARM GAS  /tmp/ccEvku90.s 			page 107


 5685      3000
 5686              	.LC242:
 5687 003c 42573430 		.ascii	"BW400\000"
 5687      3000
 5688              	.LC243:
 5689 0042 42573530 		.ascii	"BW500\000"
 5689      3000
 5690              	.LC244:
 5691 0048 42573830 		.ascii	"BW800\000"
 5691      3000
 5692              	.LC245:
 5693 004e 42573136 		.ascii	"BW1600\000"
 5693      303000
 5694              		.section	.rodata.smtc_name_bw,"a"
 5695              		.align	2
 5698              	smtc_name_bw:
 5699 0000 00000000 		.word	.LC232
 5700 0004 06000000 		.word	.LC233
 5701 0008 0C000000 		.word	.LC234
 5702 000c 12000000 		.word	.LC235
 5703 0010 18000000 		.word	.LC236
 5704 0014 1E000000 		.word	.LC237
 5705 0018 24000000 		.word	.LC238
 5706 001c 2A000000 		.word	.LC239
 5707 0020 30000000 		.word	.LC240
 5708 0024 36000000 		.word	.LC241
 5709 0028 3C000000 		.word	.LC242
 5710 002c 42000000 		.word	.LC243
 5711 0030 48000000 		.word	.LC244
 5712 0034 4E000000 		.word	.LC245
 5713              		.section	.rodata.str1.1
 5714              	.LC246:
 5715 0055 52583100 		.ascii	"RX1\000"
 5716              	.LC247:
 5717 0059 52583200 		.ascii	"RX2\000"
 5718              		.section	.rodata.smtc_name_rx_windows,"a"
 5719              		.align	2
 5722              	smtc_name_rx_windows:
 5723 0000 55000000 		.word	.LC246
 5724 0004 59000000 		.word	.LC247
 5725              		.section	.rodata.smtc_real_max_eirp_dbm_from_idx,"a"
 5726              		.align	2
 5729              	smtc_real_max_eirp_dbm_from_idx:
 5730 0000 080A0C0D 		.ascii	"\010\012\014\015\016\020\022\024\025\030\032\033\035"
 5730      0E101214 
 5730      15181A1B 
 5730      1D
 5731 000d 1E2124   		.ascii	"\036!$"
 5732              		.ident	"GCC: (Arch Repository) 13.2.0"
ARM GAS  /tmp/ccEvku90.s 			page 108

