ARM GAS  /tmp/ccXGECJv.s 			page 1


   1              		.cpu cortex-m0
   2              		.arch armv6s-m
   3              		.fpu softvfp
   4              		.eabi_attribute 23, 1
   5              		.eabi_attribute 24, 1
   6              		.eabi_attribute 25, 1
   7              		.eabi_attribute 26, 1
   8              		.eabi_attribute 30, 4
   9              		.eabi_attribute 34, 0
  10              		.eabi_attribute 18, 4
  11              		.file	"lr1mac_core.c"
  12              		.text
  13              		.section	.text.save_devnonce_rst,"ax",%progbits
  14              		.align	1
  15              		.syntax unified
  16              		.code	16
  17              		.thumb_func
  19              	save_devnonce_rst:
  20              		@ args = 0, pretend = 0, frame = 64
  21              		@ frame_needed = 0, uses_anonymous_args = 0
  22 0000 10B5     		push	{r4, lr}
  23 0002 90B0     		sub	sp, sp, #64
  24 0004 6B46     		mov	r3, sp
  25 0006 0400     		movs	r4, r0
  26 0008 1E22     		movs	r2, #30
  27 000a 0021     		movs	r1, #0
  28 000c 981C     		adds	r0, r3, #2
  29 000e FFF7FEFF 		bl	memset
  30 0012 C723     		movs	r3, #199
  31 0014 6A46     		mov	r2, sp
  32 0016 9B00     		lsls	r3, r3, #2
  33 0018 E35A     		ldrh	r3, [r4, r3]
  34 001a 02A8     		add	r0, sp, #8
  35 001c 1380     		strh	r3, [r2]
  36 001e 2300     		movs	r3, r4
  37 0020 4C33     		adds	r3, r3, #76
  38 0022 1B88     		ldrh	r3, [r3]
  39 0024 0622     		movs	r2, #6
  40 0026 0193     		str	r3, [sp, #4]
  41 0028 0D4B     		ldr	r3, .L2
  42 002a E118     		adds	r1, r4, r3
  43 002c FFF7FEFF 		bl	memcpy
  44 0030 1C21     		movs	r1, #28
  45 0032 6846     		mov	r0, sp
  46 0034 FFF7FEFF 		bl	lr1mac_utilities_crc
  47 0038 2024     		movs	r4, #32
  48 003a 6946     		mov	r1, sp
  49 003c 0790     		str	r0, [sp, #28]
  50 003e 2022     		movs	r2, #32
  51 0040 0220     		movs	r0, #2
  52 0042 FFF7FEFF 		bl	smtc_modem_hal_context_store
  53 0046 2200     		movs	r2, r4
  54 0048 0021     		movs	r1, #0
  55 004a 08A8     		add	r0, sp, #32
  56 004c FFF7FEFF 		bl	memset
  57 0050 2200     		movs	r2, r4
  58 0052 0220     		movs	r0, #2
ARM GAS  /tmp/ccXGECJv.s 			page 2


  59 0054 08A9     		add	r1, sp, #32
  60 0056 FFF7FEFF 		bl	smtc_modem_hal_context_restore
  61 005a 10B0     		add	sp, sp, #64
  62              		@ sp needed
  63 005c 10BD     		pop	{r4, pc}
  64              	.L3:
  65 005e C046     		.align	2
  66              	.L2:
  67 0060 1E030000 		.word	798
  69              		.section	.rodata.lr1mac_mac_update.str1.1,"aMS",%progbits,1
  70              	.LC1:
  71 0000 20757064 		.ascii	" update join procedure\012\015\000"
  71      61746520 
  71      6A6F696E 
  71      2070726F 
  71      63656475 
  72              	.LC3:
  73 0019 1B5B306D 		.ascii	"\033[0m\000"
  73      00
  74              	.LC5:
  75 001e 25732573 		.ascii	"%s%s\000"
  75      00
  76              	.LC7:
  77 0023 1B5B303B 		.ascii	"\033[0;33mWARN: Not Joined\012\015\000"
  77      33336D57 
  77      41524E3A 
  77      204E6F74 
  77      204A6F69 
  78              		.section	.text.lr1mac_mac_update,"ax",%progbits
  79              		.align	1
  80              		.syntax unified
  81              		.code	16
  82              		.thumb_func
  84              	lr1mac_mac_update:
  85              		@ args = 0, pretend = 0, frame = 8
  86              		@ frame_needed = 0, uses_anonymous_args = 0
  87 0000 F7B5     		push	{r0, r1, r2, r4, r5, r6, r7, lr}
  88 0002 0022     		movs	r2, #0
  89 0004 3D4B     		ldr	r3, .L16
  90 0006 3E4D     		ldr	r5, .L16+4
  91 0008 C254     		strb	r2, [r0, r3]
  92 000a 435D     		ldrb	r3, [r0, r5]
  93 000c 0400     		movs	r4, r0
  94 000e 042B     		cmp	r3, #4
  95 0010 14D1     		bne	.L5
  96 0012 3C4E     		ldr	r6, .L16+8
  97 0014 3C48     		ldr	r0, .L16+12
  98 0016 3100     		movs	r1, r6
  99 0018 3C4A     		ldr	r2, .L16+16
 100 001a FFF7FEFF 		bl	smtc_modem_hal_print_trace
 101 001e 2000     		movs	r0, r4
 102 0020 FFF7FEFF 		bl	lr1_stack_mac_join_accept
 103 0024 0028     		cmp	r0, #0
 104 0026 4ED1     		bne	.L6
 105 0028 394B     		ldr	r3, .L16+20
 106 002a 2000     		movs	r0, r4
 107 002c E15C     		ldrb	r1, [r4, r3]
ARM GAS  /tmp/ccXGECJv.s 			page 3


 108 002e 394B     		ldr	r3, .L16+24
 109 0030 E154     		strb	r1, [r4, r3]
 110 0032 FFF7FEFF 		bl	smtc_real_set_dr_distribution
 111 0036 2000     		movs	r0, r4
 112 0038 FFF7FEFF 		bl	save_devnonce_rst
 113              	.L5:
 114 003c 635D     		ldrb	r3, [r4, r5]
 115 003e 023B     		subs	r3, r3, #2
 116 0040 012B     		cmp	r3, #1
 117 0042 02D8     		bhi	.L7
 118 0044 2000     		movs	r0, r4
 119 0046 FFF7FEFF 		bl	lr1_stack_mac_cmd_parse
 120              	.L7:
 121 004a 2000     		movs	r0, r4
 122 004c FFF7FEFF 		bl	lr1_stack_mac_update
 123 0050 314B     		ldr	r3, .L16+28
 124 0052 E25C     		ldrb	r2, [r4, r3]
 125 0054 022A     		cmp	r2, #2
 126 0056 01D1     		bne	.L8
 127 0058 0022     		movs	r2, #0
 128 005a E254     		strb	r2, [r4, r3]
 129              	.L8:
 130 005c 2F4B     		ldr	r3, .L16+32
 131 005e E25C     		ldrb	r2, [r4, r3]
 132 0060 022A     		cmp	r2, #2
 133 0062 01D1     		bne	.L9
 134 0064 0022     		movs	r2, #0
 135 0066 E254     		strb	r2, [r4, r3]
 136              	.L9:
 137 0068 2D4B     		ldr	r3, .L16+36
 138 006a E25C     		ldrb	r2, [r4, r3]
 139 006c 022A     		cmp	r2, #2
 140 006e 01D1     		bne	.L10
 141 0070 0022     		movs	r2, #0
 142 0072 E254     		strb	r2, [r4, r3]
 143              	.L10:
 144 0074 C423     		movs	r3, #196
 145 0076 9B00     		lsls	r3, r3, #2
 146 0078 E35C     		ldrb	r3, [r4, r3]
 147 007a 012B     		cmp	r3, #1
 148 007c 02D1     		bne	.L11
 149 007e 636C     		ldr	r3, [r4, #68]
 150 0080 A06C     		ldr	r0, [r4, #72]
 151 0082 9847     		blx	r3
 152              	.L11:
 153 0084 A227     		movs	r7, #162
 154 0086 0222     		movs	r2, #2
 155 0088 FF00     		lsls	r7, r7, #3
 156 008a E35D     		ldrb	r3, [r4, r7]
 157 008c 254E     		ldr	r6, .L16+40
 158 008e 9343     		bics	r3, r2
 159 0090 0193     		str	r3, [sp, #4]
 160 0092 012B     		cmp	r3, #1
 161 0094 2FD1     		bne	.L12
 162 0096 E06B     		ldr	r0, [r4, #60]
 163 0098 FFF7FEFF 		bl	smtc_duty_cycle_update
 164 009c 2000     		movs	r0, r4
ARM GAS  /tmp/ccXGECJv.s 			page 4


 165 009e FFF7FEFF 		bl	smtc_real_get_next_channel
 166 00a2 0028     		cmp	r0, #0
 167 00a4 16D0     		beq	.L13
 168 00a6 0023     		movs	r3, #0
 169 00a8 A355     		strb	r3, [r4, r6]
 170 00aa E35D     		ldrb	r3, [r4, r7]
 171 00ac 032B     		cmp	r3, #3
 172 00ae 07D1     		bne	.L14
 173 00b0 9122     		movs	r2, #145
 174 00b2 636E     		ldr	r3, [r4, #100]
 175 00b4 D200     		lsls	r2, r2, #3
 176 00b6 0133     		adds	r3, r3, #1
 177 00b8 6366     		str	r3, [r4, #100]
 178 00ba A358     		ldr	r3, [r4, r2]
 179 00bc 0133     		adds	r3, r3, #1
 180 00be A350     		str	r3, [r4, r2]
 181              	.L14:
 182 00c0 0023     		movs	r3, #0
 183              		@ sp needed
 184 00c2 6355     		strb	r3, [r4, r5]
 185 00c4 F7BD     		pop	{r0, r1, r2, r4, r5, r6, r7, pc}
 186              	.L6:
 187 00c6 1848     		ldr	r0, .L16+44
 188 00c8 FFF7FEFF 		bl	smtc_modem_hal_print_trace
 189 00cc 3000     		movs	r0, r6
 190 00ce FFF7FEFF 		bl	smtc_modem_hal_print_trace
 191 00d2 B3E7     		b	.L5
 192              	.L13:
 193 00d4 E055     		strb	r0, [r4, r7]
 194 00d6 FFF7FEFF 		bl	smtc_modem_hal_get_time_in_ms
 195 00da 0321     		movs	r1, #3
 196 00dc 0700     		movs	r7, r0
 197 00de 0198     		ldr	r0, [sp, #4]
 198 00e0 FFF7FEFF 		bl	smtc_modem_hal_get_random_nb_in_range
 199 00e4 FA23     		movs	r3, #250
 200 00e6 9B00     		lsls	r3, r3, #2
 201 00e8 4343     		muls	r3, r0
 202 00ea DF19     		adds	r7, r3, r7
 203 00ec 0F4B     		ldr	r3, .L16+48
 204 00ee E750     		str	r7, [r4, r3]
 205 00f0 0423     		movs	r3, #4
 206              	.L15:
 207 00f2 A355     		strb	r3, [r4, r6]
 208 00f4 E4E7     		b	.L14
 209              	.L12:
 210 00f6 0023     		movs	r3, #0
 211 00f8 FBE7     		b	.L15
 212              	.L17:
 213 00fa C046     		.align	2
 214              	.L16:
 215 00fc BB040000 		.word	1211
 216 0100 11030000 		.word	785
 217 0104 19000000 		.word	.LC3
 218 0108 1E000000 		.word	.LC5
 219 010c 00000000 		.word	.LC1
 220 0110 93040000 		.word	1171
 221 0114 92040000 		.word	1170
ARM GAS  /tmp/ccXGECJv.s 			page 5


 222 0118 44050000 		.word	1348
 223 011c 45050000 		.word	1349
 224 0120 46050000 		.word	1350
 225 0124 12050000 		.word	1298
 226 0128 23000000 		.word	.LC7
 227 012c 14050000 		.word	1300
 229              		.section	.rodata.lr1mac_core_process.str1.1,"aMS",%progbits,1
 230              	.LC9:
 231 0000 544F4F20 		.ascii	"TOO SOON TO JOIN time is  %d time target is : %d\012"
 231      534F4F4E 
 231      20544F20 
 231      4A4F494E 
 231      2074696D 
 232 0031 0D00     		.ascii	"\015\000"
 233              	.LC12:
 234 0033 1B5B303B 		.ascii	"\033[0;31mERROR: crash log :%s\012\015\000"
 234      33316D45 
 234      52524F52 
 234      3A206372 
 234      61736820 
 235              	.LC15:
 236 0051 1B5B303B 		.ascii	"\033[0;31mERROR: -> FAILSAFE EVENT OCCUR (lr1mac_st"
 236      33316D45 
 236      52524F52 
 236      3A202D3E 
 236      20464149 
 237 0081 6174653A 		.ascii	"ate:0x%x)\012\015\000"
 237      30782578 
 237      290A0D00 
 238              	.LC17:
 239 008d 0A0D2020 		.ascii	"\012\015  *************************************\012"
 239      2A2A2A2A 
 239      2A2A2A2A 
 239      2A2A2A2A 
 239      2A2A2A2A 
 240 00b7 0D20202A 		.ascii	"\015  * \000"
 240      2000
 241              	.LC20:
 242 00bd 53656E64 		.ascii	"Send Payload  HOOK ID = %d\000"
 242      20506179 
 242      6C6F6164 
 242      2020484F 
 242      4F4B2049 
 243              	.LC22:
 244 00d8 0A0D2020 		.ascii	"\012\015  *************************************\012"
 244      2A2A2A2A 
 244      2A2A2A2A 
 244      2A2A2A2A 
 244      2A2A2A2A 
 245 0102 0D00     		.ascii	"\015\000"
 246              	.LC25:
 247 0104 20205478 		.ascii	"  Tx  LoRa at %u ms: freq:%u, SF%u, %s, len %u byte"
 247      20204C6F 
 247      52612061 
 247      74202575 
 247      206D733A 
 248 0137 73202564 		.ascii	"s %d dBm, fcnt_up %d, toa = %d\012\015\000"
ARM GAS  /tmp/ccXGECJv.s 			page 6


 248      2064426D 
 248      2C206663 
 248      6E745F75 
 248      70202564 
 249              	.LC27:
 250 0158 20205478 		.ascii	"  Tx  FSK  at %u ms: freq:%u, len %u bytes %d dBm, "
 250      20204653 
 250      4B202061 
 250      74202575 
 250      206D733A 
 251 018b 66636E74 		.ascii	"fcnt_up %d, toa = %d\012\015\000"
 251      5F757020 
 251      25642C20 
 251      746F6120 
 251      3D202564 
 252              	.LC31:
 253 01a2 20205478 		.ascii	"  Tx  LR FHSS at %u ms: freq:%u, DR%u (%s, %s Hz), "
 253      20204C52 
 253      20464853 
 253      53206174 
 253      20257520 
 254 01d5 6C656E20 		.ascii	"len %u bytes, %d dBm, fcnt_up %d, toa = %d\012\015\000"
 254      25752062 
 254      79746573 
 254      2C202564 
 254      2064426D 
 255              	.LC33:
 256 0202 20545820 		.ascii	" TX DONE\000"
 256      444F4E45 
 256      00
 257              	.LC35:
 258 020b 52656365 		.ascii	"Receive a bad packet on RX1 for Hook Id = %d contin"
 258      69766520 
 258      61206261 
 258      64207061 
 258      636B6574 
 259 023e 75652077 		.ascii	"ue with RX2 \000"
 259      69746820 
 259      52583220 
 259      00
 260              	.LC37:
 261 024b 52656365 		.ascii	"Receive a Valid downlink RX1 for Hook Id = %d\000"
 261      69766520 
 261      61205661 
 261      6C696420 
 261      646F776E 
 262              	.LC39:
 263 0279 52583120 		.ascii	"RX1 Timeout for Hook Id = %d\000"
 263      54696D65 
 263      6F757420 
 263      666F7220 
 263      486F6F6B 
 264              	.LC41:
 265 0296 52656365 		.ascii	"Receive a bad packet on RX2 for Hook Id = %d\000"
 265      69766520 
 265      61206261 
 265      64207061 
ARM GAS  /tmp/ccXGECJv.s 			page 7


 265      636B6574 
 266              	.LC43:
 267 02c3 52656365 		.ascii	"Receive a Valid downlink RX2 for Hook Id = %d\000"
 267      69766520 
 267      61205661 
 267      6C696420 
 267      646F776E 
 268              	.LC45:
 269 02f1 52583220 		.ascii	"RX2 Timeout for Hook Id = %d\000"
 269      54696D65 
 269      6F757420 
 269      666F7220 
 269      486F6F6B 
 270              	.LC47:
 271 030e 202E00   		.ascii	" .\000"
 272              	.LC49:
 273 0311 1B5B303B 		.ascii	"\033[0;31mERROR: -> Illegal state in lorawan proces"
 273      33316D45 
 273      52524F52 
 273      3A202D3E 
 273      20496C6C 
 274 0341 730A0D00 		.ascii	"s\012\015\000"
 275              		.section	.text.lr1mac_core_process,"ax",%progbits
 276              		.align	1
 277              		.global	lr1mac_core_process
 278              		.syntax unified
 279              		.code	16
 280              		.thumb_func
 282              	lr1mac_core_process:
 283              		@ args = 0, pretend = 0, frame = 32
 284              		@ frame_needed = 0, uses_anonymous_args = 0
 285 0000 F0B5     		push	{r4, r5, r6, r7, lr}
 286 0002 1D24     		movs	r4, #29
 287 0004 0700     		movs	r7, r0
 288 0006 8FB0     		sub	sp, sp, #60
 289 0008 06AB     		add	r3, sp, #24
 290 000a E418     		adds	r4, r4, r3
 291 000c D54B     		ldr	r3, .L48
 292 000e 0100     		movs	r1, r0
 293 0010 2200     		movs	r2, r4
 294 0012 C058     		ldr	r0, [r0, r3]
 295 0014 FFF7FEFF 		bl	rp_hook_get_id
 296 0018 D34B     		ldr	r3, .L48+4
 297 001a FE5C     		ldrb	r6, [r7, r3]
 298 001c 002E     		cmp	r6, #0
 299 001e 28D1     		bne	.L19
 300 0020 D24B     		ldr	r3, .L48+8
 301 0022 FB5C     		ldrb	r3, [r7, r3]
 302 0024 012B     		cmp	r3, #1
 303 0026 24D1     		bne	.L19
 304 0028 D14B     		ldr	r3, .L48+12
 305 002a FD58     		ldr	r5, [r7, r3]
 306 002c FFF7FEFF 		bl	smtc_modem_hal_get_time_in_s
 307 0030 2D1A     		subs	r5, r5, r0
 308 0032 002D     		cmp	r5, #0
 309 0034 1DDD     		ble	.L19
 310 0036 FFF7FEFF 		bl	smtc_modem_hal_get_time_in_s
ARM GAS  /tmp/ccXGECJv.s 			page 8


 311 003a CE4B     		ldr	r3, .L48+16
 312 003c CC4A     		ldr	r2, .L48+12
 313 003e 0100     		movs	r1, r0
 314 0040 BA58     		ldr	r2, [r7, r2]
 315 0042 1800     		movs	r0, r3
 316 0044 FFF7FEFF 		bl	smtc_modem_hal_print_trace
 317 0048 CB4B     		ldr	r3, .L48+20
 318 004a FE54     		strb	r6, [r7, r3]
 319              	.L20:
 320 004c CB4D     		ldr	r5, .L48+24
 321 004e 7B5D     		ldrb	r3, [r7, r5]
 322 0050 062B     		cmp	r3, #6
 323 0052 02D1     		bne	.L23
 324 0054 3800     		movs	r0, r7
 325 0056 FFF7FEFF 		bl	lr1mac_mac_update
 326              	.L23:
 327 005a C74B     		ldr	r3, .L48+20
 328 005c F85C     		ldrb	r0, [r7, r3]
 329 005e 0428     		cmp	r0, #4
 330 0060 00D9     		bls	.LCB290
 331 0062 09E2     		b	.L24	@long jump
 332              	.LCB290:
 333 0064 FFF7FEFF 		bl	__gnu_thumb1_case_uhi
 334              	.L26:
 335 0068 3400     		.2byte	(.L30-.L26)/2
 336 006a 2E00     		.2byte	(.L29-.L26)/2
 337 006c 3F01     		.2byte	(.L28-.L26)/2
 338 006e C601     		.2byte	(.L27-.L26)/2
 339 0070 F701     		.2byte	(.L25-.L26)/2
 340              		.p2align 1
 341              	.L19:
 342 0072 C14B     		ldr	r3, .L48+20
 343 0074 FB5C     		ldrb	r3, [r7, r3]
 344 0076 002B     		cmp	r3, #0
 345 0078 E8D0     		beq	.L20
 346 007a FFF7FEFF 		bl	smtc_modem_hal_get_time_in_s
 347 007e C04B     		ldr	r3, .L48+28
 348 0080 FB58     		ldr	r3, [r7, r3]
 349 0082 C01A     		subs	r0, r0, r3
 350 0084 2D38     		subs	r0, r0, #45
 351 0086 FF38     		subs	r0, r0, #255
 352 0088 0028     		cmp	r0, #0
 353 008a DFDD     		ble	.L20
 354 008c BD4D     		ldr	r5, .L48+32
 355 008e BA4E     		ldr	r6, .L48+20
 356 0090 2800     		movs	r0, r5
 357 0092 FFF7FEFF 		bl	smtc_modem_hal_store_crashlog
 358 0096 0120     		movs	r0, #1
 359 0098 FFF7FEFF 		bl	smtc_modem_hal_set_crashlog_status
 360 009c 2900     		movs	r1, r5
 361 009e BA48     		ldr	r0, .L48+36
 362 00a0 FFF7FEFF 		bl	smtc_modem_hal_print_trace
 363 00a4 B94D     		ldr	r5, .L48+40
 364 00a6 2800     		movs	r0, r5
 365 00a8 FFF7FEFF 		bl	smtc_modem_hal_print_trace
 366 00ac B95D     		ldrb	r1, [r7, r6]
 367 00ae B848     		ldr	r0, .L48+44
ARM GAS  /tmp/ccXGECJv.s 			page 9


 368 00b0 FFF7FEFF 		bl	smtc_modem_hal_print_trace
 369 00b4 2800     		movs	r0, r5
 370 00b6 FFF7FEFF 		bl	smtc_modem_hal_print_trace
 371 00ba FFF7FEFF 		bl	smtc_modem_hal_reset_mcu
 372 00be 0623     		movs	r3, #6
 373 00c0 BB55     		strb	r3, [r7, r6]
 374 00c2 C3E7     		b	.L20
 375              	.L29:
 376 00c4 7B5D     		ldrb	r3, [r7, r5]
 377 00c6 002B     		cmp	r3, #0
 378 00c8 06D0     		beq	.L31
 379 00ca 032B     		cmp	r3, #3
 380 00cc 00D1     		bne	.LCB340
 381 00ce C6E0     		b	.L32	@long jump
 382              	.LCB340:
 383              	.L30:
 384 00d0 A94B     		ldr	r3, .L48+20
 385 00d2 F85C     		ldrb	r0, [r7, r3]
 386 00d4 0FB0     		add	sp, sp, #60
 387              		@ sp needed
 388 00d6 F0BD     		pop	{r4, r5, r6, r7, pc}
 389              	.L31:
 390 00d8 0123     		movs	r3, #1
 391 00da AC4E     		ldr	r6, .L48+40
 392 00dc 7B55     		strb	r3, [r7, r5]
 393 00de AD4D     		ldr	r5, .L48+48
 394 00e0 AD4A     		ldr	r2, .L48+52
 395 00e2 3100     		movs	r1, r6
 396 00e4 2800     		movs	r0, r5
 397 00e6 FFF7FEFF 		bl	smtc_modem_hal_print_trace
 398 00ea 2178     		ldrb	r1, [r4]
 399 00ec 3C00     		movs	r4, r7
 400 00ee AB48     		ldr	r0, .L48+56
 401 00f0 FFF7FEFF 		bl	smtc_modem_hal_print_trace
 402 00f4 4E34     		adds	r4, r4, #78
 403 00f6 3100     		movs	r1, r6
 404 00f8 2800     		movs	r0, r5
 405 00fa A94A     		ldr	r2, .L48+60
 406 00fc FFF7FEFF 		bl	smtc_modem_hal_print_trace
 407 0100 3800     		movs	r0, r7
 408 0102 2178     		ldrb	r1, [r4]
 409 0104 FFF7FEFF 		bl	smtc_real_get_modulation_type_from_datarate
 410 0108 0028     		cmp	r0, #0
 411 010a 4CD1     		bne	.L33
 412 010c 1F25     		movs	r5, #31
 413 010e 1E26     		movs	r6, #30
 414 0110 06AB     		add	r3, sp, #24
 415 0112 F618     		adds	r6, r6, r3
 416 0114 ED18     		adds	r5, r5, r3
 417 0116 2178     		ldrb	r1, [r4]
 418 0118 2B00     		movs	r3, r5
 419 011a 3200     		movs	r2, r6
 420 011c 3800     		movs	r0, r7
 421 011e FFF7FEFF 		bl	smtc_real_lora_dr_to_sf_bw
 422 0122 A04B     		ldr	r3, .L48+64
 423 0124 2A78     		ldrb	r2, [r5]
 424 0126 FB58     		ldr	r3, [r7, r3]
ARM GAS  /tmp/ccXGECJv.s 			page 10


 425 0128 9200     		lsls	r2, r2, #2
 426 012a 0793     		str	r3, [sp, #28]
 427 012c 9623     		movs	r3, #150
 428 012e DB00     		lsls	r3, r3, #3
 429 0130 FB58     		ldr	r3, [r7, r3]
 430 0132 2924     		movs	r4, #41
 431 0134 0893     		str	r3, [sp, #32]
 432 0136 3378     		ldrb	r3, [r6]
 433 0138 3800     		movs	r0, r7
 434 013a 0993     		str	r3, [sp, #36]
 435 013c 9A4B     		ldr	r3, .L48+68
 436 013e 6442     		rsbs	r4, r4, #0
 437 0140 D358     		ldr	r3, [r2, r3]
 438 0142 7D6E     		ldr	r5, [r7, #100]
 439 0144 0A93     		str	r3, [sp, #40]
 440 0146 3B00     		movs	r3, r7
 441 0148 7933     		adds	r3, r3, #121
 442 014a 1E78     		ldrb	r6, [r3]
 443 014c 1C57     		ldrsb	r4, [r3, r4]
 444 014e FFF7FEFF 		bl	lr1_stack_toa_get
 445 0152 0300     		movs	r3, r0
 446 0154 0493     		str	r3, [sp, #16]
 447 0156 0A9B     		ldr	r3, [sp, #40]
 448 0158 9448     		ldr	r0, .L48+72
 449 015a 0093     		str	r3, [sp]
 450 015c 089A     		ldr	r2, [sp, #32]
 451 015e 099B     		ldr	r3, [sp, #36]
 452 0160 0799     		ldr	r1, [sp, #28]
 453 0162 0395     		str	r5, [sp, #12]
 454 0164 0294     		str	r4, [sp, #8]
 455 0166 0196     		str	r6, [sp, #4]
 456 0168 FFF7FEFF 		bl	smtc_modem_hal_print_trace
 457              	.L34:
 458 016c 386C     		ldr	r0, [r7, #64]
 459 016e FFF7FEFF 		bl	smtc_lbt_get_state
 460 0172 0028     		cmp	r0, #0
 461 0174 6FD0     		beq	.L36
 462 0176 9623     		movs	r3, #150
 463 0178 DB00     		lsls	r3, r3, #3
 464 017a FB58     		ldr	r3, [r7, r3]
 465 017c 3800     		movs	r0, r7
 466 017e 0793     		str	r3, [sp, #28]
 467 0180 A323     		movs	r3, #163
 468 0182 DB00     		lsls	r3, r3, #3
 469 0184 FC5C     		ldrb	r4, [r7, r3]
 470 0186 3D6C     		ldr	r5, [r7, #64]
 471 0188 631E     		subs	r3, r4, #1
 472 018a 9C41     		sbcs	r4, r4, r3
 473 018c 854B     		ldr	r3, .L48+64
 474 018e E4B2     		uxtb	r4, r4
 475 0190 FE58     		ldr	r6, [r7, r3]
 476 0192 FFF7FEFF 		bl	lr1_stack_toa_get
 477 0196 3300     		movs	r3, r6
 478 0198 0090     		str	r0, [sp]
 479 019a 2200     		movs	r2, r4
 480 019c 2800     		movs	r0, r5
 481 019e 0799     		ldr	r1, [sp, #28]
ARM GAS  /tmp/ccXGECJv.s 			page 11


 482 01a0 FFF7FEFF 		bl	smtc_lbt_listen_channel
 483 01a4 94E7     		b	.L30
 484              	.L33:
 485 01a6 0128     		cmp	r0, #1
 486 01a8 1BD1     		bne	.L35
 487 01aa 7E4B     		ldr	r3, .L48+64
 488 01ac 2925     		movs	r5, #41
 489 01ae FB58     		ldr	r3, [r7, r3]
 490 01b0 3800     		movs	r0, r7
 491 01b2 0793     		str	r3, [sp, #28]
 492 01b4 9623     		movs	r3, #150
 493 01b6 DB00     		lsls	r3, r3, #3
 494 01b8 FB58     		ldr	r3, [r7, r3]
 495 01ba 6D42     		rsbs	r5, r5, #0
 496 01bc 0893     		str	r3, [sp, #32]
 497 01be 3B00     		movs	r3, r7
 498 01c0 7933     		adds	r3, r3, #121
 499 01c2 1C78     		ldrb	r4, [r3]
 500 01c4 5D57     		ldrsb	r5, [r3, r5]
 501 01c6 7E6E     		ldr	r6, [r7, #100]
 502 01c8 FFF7FEFF 		bl	lr1_stack_toa_get
 503 01cc 0300     		movs	r3, r0
 504 01ce 089A     		ldr	r2, [sp, #32]
 505 01d0 0293     		str	r3, [sp, #8]
 506 01d2 7748     		ldr	r0, .L48+76
 507 01d4 2300     		movs	r3, r4
 508 01d6 0799     		ldr	r1, [sp, #28]
 509 01d8 0196     		str	r6, [sp, #4]
 510 01da 0095     		str	r5, [sp]
 511 01dc FFF7FEFF 		bl	smtc_modem_hal_print_trace
 512 01e0 C4E7     		b	.L34
 513              	.L35:
 514 01e2 0228     		cmp	r0, #2
 515 01e4 C2D1     		bne	.L34
 516 01e6 1F25     		movs	r5, #31
 517 01e8 1E26     		movs	r6, #30
 518 01ea 06AB     		add	r3, sp, #24
 519 01ec F618     		adds	r6, r6, r3
 520 01ee ED18     		adds	r5, r5, r3
 521 01f0 2178     		ldrb	r1, [r4]
 522 01f2 2B00     		movs	r3, r5
 523 01f4 3200     		movs	r2, r6
 524 01f6 3800     		movs	r0, r7
 525 01f8 FFF7FEFF 		bl	smtc_real_lr_fhss_dr_to_cr_bw
 526 01fc 694B     		ldr	r3, .L48+64
 527 01fe 3278     		ldrb	r2, [r6]
 528 0200 FB58     		ldr	r3, [r7, r3]
 529 0202 9200     		lsls	r2, r2, #2
 530 0204 0793     		str	r3, [sp, #28]
 531 0206 9623     		movs	r3, #150
 532 0208 DB00     		lsls	r3, r3, #3
 533 020a FB58     		ldr	r3, [r7, r3]
 534 020c 3800     		movs	r0, r7
 535 020e 0893     		str	r3, [sp, #32]
 536 0210 2378     		ldrb	r3, [r4]
 537 0212 2924     		movs	r4, #41
 538 0214 0993     		str	r3, [sp, #36]
ARM GAS  /tmp/ccXGECJv.s 			page 12


 539 0216 674B     		ldr	r3, .L48+80
 540 0218 6442     		rsbs	r4, r4, #0
 541 021a D358     		ldr	r3, [r2, r3]
 542 021c 2A78     		ldrb	r2, [r5]
 543 021e 0A93     		str	r3, [sp, #40]
 544 0220 654B     		ldr	r3, .L48+84
 545 0222 9200     		lsls	r2, r2, #2
 546 0224 D358     		ldr	r3, [r2, r3]
 547 0226 7D6E     		ldr	r5, [r7, #100]
 548 0228 0B93     		str	r3, [sp, #44]
 549 022a 3B00     		movs	r3, r7
 550 022c 7933     		adds	r3, r3, #121
 551 022e 1E78     		ldrb	r6, [r3]
 552 0230 1C57     		ldrsb	r4, [r3, r4]
 553 0232 FFF7FEFF 		bl	lr1_stack_toa_get
 554 0236 0300     		movs	r3, r0
 555 0238 0593     		str	r3, [sp, #20]
 556 023a 0B9B     		ldr	r3, [sp, #44]
 557 023c 5F48     		ldr	r0, .L48+88
 558 023e 0193     		str	r3, [sp, #4]
 559 0240 0A9B     		ldr	r3, [sp, #40]
 560 0242 089A     		ldr	r2, [sp, #32]
 561 0244 0093     		str	r3, [sp]
 562 0246 0799     		ldr	r1, [sp, #28]
 563 0248 099B     		ldr	r3, [sp, #36]
 564 024a 0495     		str	r5, [sp, #16]
 565 024c 0394     		str	r4, [sp, #12]
 566 024e 0296     		str	r6, [sp, #8]
 567 0250 FFF7FEFF 		bl	smtc_modem_hal_print_trace
 568 0254 8AE7     		b	.L34
 569              	.L36:
 570 0256 3800     		movs	r0, r7
 571 0258 FFF7FEFF 		bl	lr1_stack_mac_tx_radio_start
 572 025c 38E7     		b	.L30
 573              	.L32:
 574 025e 4B4B     		ldr	r3, .L48+40
 575 0260 4C4D     		ldr	r5, .L48+48
 576 0262 1E00     		movs	r6, r3
 577 0264 1900     		movs	r1, r3
 578 0266 4C4A     		ldr	r2, .L48+52
 579 0268 2800     		movs	r0, r5
 580 026a FFF7FEFF 		bl	smtc_modem_hal_print_trace
 581 026e 5448     		ldr	r0, .L48+92
 582 0270 FFF7FEFF 		bl	smtc_modem_hal_print_trace
 583 0274 3100     		movs	r1, r6
 584 0276 4A4A     		ldr	r2, .L48+60
 585 0278 2800     		movs	r0, r5
 586 027a FFF7FEFF 		bl	smtc_modem_hal_print_trace
 587 027e 0223     		movs	r3, #2
 588 0280 3D4A     		ldr	r2, .L48+20
 589 0282 BB54     		strb	r3, [r7, r2]
 590 0284 4F4B     		ldr	r3, .L48+96
 591 0286 FA58     		ldr	r2, [r7, r3]
 592 0288 CD3B     		subs	r3, r3, #205
 593 028a FF3B     		subs	r3, r3, #255
 594 028c FA50     		str	r2, [r7, r3]
 595 028e 354B     		ldr	r3, .L48
ARM GAS  /tmp/ccXGECJv.s 			page 13


 596 0290 FA58     		ldr	r2, [r7, r3]
 597 0292 2378     		ldrb	r3, [r4]
 598 0294 FD33     		adds	r3, r3, #253
 599 0296 FF33     		adds	r3, r3, #255
 600 0298 9B00     		lsls	r3, r3, #2
 601 029a D318     		adds	r3, r2, r3
 602 029c 5A68     		ldr	r2, [r3, #4]
 603 029e 3B6E     		ldr	r3, [r7, #96]
 604 02a0 1100     		movs	r1, r2
 605 02a2 9940     		lsls	r1, r1, r3
 606 02a4 8B1A     		subs	r3, r1, r2
 607 02a6 C522     		movs	r2, #197
 608 02a8 9200     		lsls	r2, r2, #2
 609 02aa BB50     		str	r3, [r7, r2]
 610 02ac 2F4B     		ldr	r3, .L48+8
 611 02ae FB5C     		ldrb	r3, [r7, r3]
 612 02b0 012B     		cmp	r3, #1
 613 02b2 02D1     		bne	.L37
 614 02b4 3800     		movs	r0, r7
 615 02b6 FFF7FEFF 		bl	save_devnonce_rst
 616              	.L37:
 617 02ba 0021     		movs	r1, #0
 618 02bc 3800     		movs	r0, r7
 619 02be FFF7FEFF 		bl	lr1_stack_mac_rx_timer_configure
 620 02c2 3800     		movs	r0, r7
 621 02c4 FFF7FEFF 		bl	lr1_stack_mac_update_tx_done
 622 02c8 264B     		ldr	r3, .L48
 623 02ca F86B     		ldr	r0, [r7, #60]
 624 02cc FA58     		ldr	r2, [r7, r3]
 625 02ce 2378     		ldrb	r3, [r4]
 626 02d0 FD33     		adds	r3, r3, #253
 627 02d2 FF33     		adds	r3, r3, #255
 628 02d4 9B00     		lsls	r3, r3, #2
 629 02d6 D318     		adds	r3, r2, r3
 630 02d8 5A68     		ldr	r2, [r3, #4]
 631 02da 9623     		movs	r3, #150
 632 02dc DB00     		lsls	r3, r3, #3
 633 02de F958     		ldr	r1, [r7, r3]
 634 02e0 FFF7FEFF 		bl	smtc_duty_cycle_sum
 635 02e4 F4E6     		b	.L30
 636              	.L28:
 637 02e6 7B5D     		ldrb	r3, [r7, r5]
 638 02e8 052B     		cmp	r3, #5
 639 02ea 00D0     		beq	.LCB622
 640 02ec F0E6     		b	.L30	@long jump
 641              	.LCB622:
 642 02ee 364B     		ldr	r3, .L48+100
 643 02f0 294A     		ldr	r2, .L48+52
 644 02f2 FB5C     		ldrb	r3, [r7, r3]
 645 02f4 254D     		ldr	r5, .L48+40
 646 02f6 0792     		str	r2, [sp, #28]
 647 02f8 042B     		cmp	r3, #4
 648 02fa 6FD1     		bne	.L39
 649 02fc 0122     		movs	r2, #1
 650 02fe 334B     		ldr	r3, .L48+104
 651 0300 3800     		movs	r0, r7
 652 0302 FA54     		strb	r2, [r7, r3]
ARM GAS  /tmp/ccXGECJv.s 			page 14


 653 0304 FFF7FEFF 		bl	lr1_stack_mac_rx_frame_decode
 654 0308 314B     		ldr	r3, .L48+108
 655 030a F854     		strb	r0, [r7, r3]
 656 030c 0028     		cmp	r0, #0
 657 030e 16D1     		bne	.L40
 658 0310 0323     		movs	r3, #3
 659 0312 194A     		ldr	r2, .L48+20
 660 0314 1F4E     		ldr	r6, .L48+48
 661 0316 2900     		movs	r1, r5
 662 0318 3000     		movs	r0, r6
 663 031a BB54     		strb	r3, [r7, r2]
 664 031c 079A     		ldr	r2, [sp, #28]
 665 031e FFF7FEFF 		bl	smtc_modem_hal_print_trace
 666 0322 2178     		ldrb	r1, [r4]
 667 0324 2B48     		ldr	r0, .L48+112
 668              	.L46:
 669 0326 FFF7FEFF 		bl	smtc_modem_hal_print_trace
 670 032a 2900     		movs	r1, r5
 671 032c 3000     		movs	r0, r6
 672 032e 1C4A     		ldr	r2, .L48+60
 673 0330 FFF7FEFF 		bl	smtc_modem_hal_print_trace
 674 0334 0121     		movs	r1, #1
 675 0336 3800     		movs	r0, r7
 676 0338 FFF7FEFF 		bl	lr1_stack_mac_rx_timer_configure
 677 033c C8E6     		b	.L30
 678              	.L40:
 679 033e 154E     		ldr	r6, .L48+48
 680 0340 079A     		ldr	r2, [sp, #28]
 681 0342 2900     		movs	r1, r5
 682 0344 3000     		movs	r0, r6
 683 0346 FFF7FEFF 		bl	smtc_modem_hal_print_trace
 684 034a 2178     		ldrb	r1, [r4]
 685 034c 2248     		ldr	r0, .L48+116
 686 034e FFF7FEFF 		bl	smtc_modem_hal_print_trace
 687 0352 2900     		movs	r1, r5
 688 0354 3000     		movs	r0, r6
 689 0356 124A     		ldr	r2, .L48+60
 690              	.L47:
 691 0358 FFF7FEFF 		bl	smtc_modem_hal_print_trace
 692 035c 3800     		movs	r0, r7
 693 035e FFF7FEFF 		bl	lr1mac_mac_update
 694 0362 B5E6     		b	.L30
 695              	.L49:
 696              		.align	2
 697              	.L48:
 698 0364 BC040000 		.word	1212
 699 0368 1A050000 		.word	1306
 700 036c CE040000 		.word	1230
 701 0370 A4040000 		.word	1188
 702 0374 00000000 		.word	.LC9
 703 0378 12050000 		.word	1298
 704 037c BB040000 		.word	1211
 705 0380 0C050000 		.word	1292
 706 0384 00000000 		.word	__func__.0
 707 0388 33000000 		.word	.LC12
 708 038c 19000000 		.word	.LC3
 709 0390 51000000 		.word	.LC15
ARM GAS  /tmp/ccXGECJv.s 			page 15


 710 0394 1E000000 		.word	.LC5
 711 0398 8D000000 		.word	.LC17
 712 039c BD000000 		.word	.LC20
 713 03a0 D8000000 		.word	.LC22
 714 03a4 14050000 		.word	1300
 715 03a8 00000000 		.word	smtc_name_bw
 716 03ac 04010000 		.word	.LC25
 717 03b0 58010000 		.word	.LC27
 718 03b4 00000000 		.word	smtc_name_lr_fhss_cr
 719 03b8 00000000 		.word	smtc_name_lr_fhss_bw
 720 03bc A2010000 		.word	.LC31
 721 03c0 02020000 		.word	.LC33
 722 03c4 E4040000 		.word	1252
 723 03c8 CF040000 		.word	1231
 724 03cc D9040000 		.word	1241
 725 03d0 11030000 		.word	785
 726 03d4 0B020000 		.word	.LC35
 727 03d8 4B020000 		.word	.LC37
 728              	.L39:
 729 03dc 0323     		movs	r3, #3
 730 03de 324A     		ldr	r2, .L50
 731 03e0 324E     		ldr	r6, .L50+4
 732 03e2 2900     		movs	r1, r5
 733 03e4 3000     		movs	r0, r6
 734 03e6 BB54     		strb	r3, [r7, r2]
 735 03e8 079A     		ldr	r2, [sp, #28]
 736 03ea FFF7FEFF 		bl	smtc_modem_hal_print_trace
 737 03ee 2178     		ldrb	r1, [r4]
 738 03f0 2F48     		ldr	r0, .L50+8
 739 03f2 98E7     		b	.L46
 740              	.L27:
 741 03f4 7B5D     		ldrb	r3, [r7, r5]
 742 03f6 052B     		cmp	r3, #5
 743 03f8 00D0     		beq	.LCB735
 744 03fa 69E6     		b	.L30	@long jump
 745              	.LCB735:
 746 03fc 2D4B     		ldr	r3, .L50+12
 747 03fe 2E4A     		ldr	r2, .L50+16
 748 0400 FB5C     		ldrb	r3, [r7, r3]
 749 0402 2E4E     		ldr	r6, .L50+20
 750 0404 294D     		ldr	r5, .L50+4
 751 0406 0792     		str	r2, [sp, #28]
 752 0408 042B     		cmp	r3, #4
 753 040a 1CD1     		bne	.L42
 754 040c 0222     		movs	r2, #2
 755 040e 2C4B     		ldr	r3, .L50+24
 756 0410 3800     		movs	r0, r7
 757 0412 FA54     		strb	r2, [r7, r3]
 758 0414 FFF7FEFF 		bl	lr1_stack_mac_rx_frame_decode
 759 0418 2A4B     		ldr	r3, .L50+28
 760 041a 3100     		movs	r1, r6
 761 041c 079A     		ldr	r2, [sp, #28]
 762 041e F854     		strb	r0, [r7, r3]
 763 0420 0028     		cmp	r0, #0
 764 0422 0AD1     		bne	.L43
 765 0424 2800     		movs	r0, r5
 766 0426 FFF7FEFF 		bl	smtc_modem_hal_print_trace
ARM GAS  /tmp/ccXGECJv.s 			page 16


 767 042a 2178     		ldrb	r1, [r4]
 768 042c 2648     		ldr	r0, .L50+32
 769              	.L45:
 770 042e FFF7FEFF 		bl	smtc_modem_hal_print_trace
 771 0432 3100     		movs	r1, r6
 772 0434 2800     		movs	r0, r5
 773 0436 254A     		ldr	r2, .L50+36
 774 0438 8EE7     		b	.L47
 775              	.L43:
 776 043a 2800     		movs	r0, r5
 777 043c FFF7FEFF 		bl	smtc_modem_hal_print_trace
 778 0440 2178     		ldrb	r1, [r4]
 779 0442 2348     		ldr	r0, .L50+40
 780 0444 F3E7     		b	.L45
 781              	.L42:
 782 0446 3100     		movs	r1, r6
 783 0448 2800     		movs	r0, r5
 784 044a 079A     		ldr	r2, [sp, #28]
 785 044c FFF7FEFF 		bl	smtc_modem_hal_print_trace
 786 0450 2178     		ldrb	r1, [r4]
 787 0452 2048     		ldr	r0, .L50+44
 788 0454 EBE7     		b	.L45
 789              	.L25:
 790 0456 204A     		ldr	r2, .L50+48
 791 0458 1849     		ldr	r1, .L50+20
 792 045a 1448     		ldr	r0, .L50+4
 793 045c FFF7FEFF 		bl	smtc_modem_hal_print_trace
 794 0460 FFF7FEFF 		bl	smtc_modem_hal_get_time_in_ms
 795 0464 1D4B     		ldr	r3, .L50+52
 796 0466 FB58     		ldr	r3, [r7, r3]
 797 0468 C01A     		subs	r0, r0, r3
 798 046a 0028     		cmp	r0, #0
 799 046c 00DC     		bgt	.LCB797
 800 046e 2FE6     		b	.L30	@long jump
 801              	.LCB797:
 802 0470 0123     		movs	r3, #1
 803 0472 0D4A     		ldr	r2, .L50
 804 0474 BB54     		strb	r3, [r7, r2]
 805 0476 2BE6     		b	.L30
 806              	.L24:
 807 0478 194C     		ldr	r4, .L50+56
 808 047a 2000     		movs	r0, r4
 809 047c FFF7FEFF 		bl	smtc_modem_hal_store_crashlog
 810 0480 0120     		movs	r0, #1
 811 0482 FFF7FEFF 		bl	smtc_modem_hal_set_crashlog_status
 812 0486 2100     		movs	r1, r4
 813 0488 1648     		ldr	r0, .L50+60
 814 048a FFF7FEFF 		bl	smtc_modem_hal_print_trace
 815 048e 0B4C     		ldr	r4, .L50+20
 816 0490 2000     		movs	r0, r4
 817 0492 FFF7FEFF 		bl	smtc_modem_hal_print_trace
 818 0496 1448     		ldr	r0, .L50+64
 819 0498 FFF7FEFF 		bl	smtc_modem_hal_print_trace
 820 049c 2000     		movs	r0, r4
 821 049e FFF7FEFF 		bl	smtc_modem_hal_print_trace
 822 04a2 FFF7FEFF 		bl	smtc_modem_hal_reset_mcu
 823 04a6 13E6     		b	.L30
ARM GAS  /tmp/ccXGECJv.s 			page 17


 824              	.L51:
 825              		.align	2
 826              	.L50:
 827 04a8 12050000 		.word	1298
 828 04ac 1E000000 		.word	.LC5
 829 04b0 79020000 		.word	.LC39
 830 04b4 CF040000 		.word	1231
 831 04b8 8D000000 		.word	.LC17
 832 04bc 19000000 		.word	.LC3
 833 04c0 D9040000 		.word	1241
 834 04c4 11030000 		.word	785
 835 04c8 96020000 		.word	.LC41
 836 04cc D8000000 		.word	.LC22
 837 04d0 C3020000 		.word	.LC43
 838 04d4 F1020000 		.word	.LC45
 839 04d8 0E030000 		.word	.LC47
 840 04dc 14050000 		.word	1300
 841 04e0 00000000 		.word	__func__.0
 842 04e4 33000000 		.word	.LC12
 843 04e8 11030000 		.word	.LC49
 845              		.section	.rodata.lr1mac_core_join.str1.1,"aMS",%progbits,1
 846              	.LC51:
 847 0000 1B5B303B 		.ascii	"\033[0;31mERROR: LP STATE NOT EQUAL TO IDLE\012\015"
 847      33316D45 
 847      52524F52 
 847      3A204C50 
 847      20535441 
 848 002a 00       		.ascii	"\000"
 849              	.LC54:
 850 002b 1B5B303B 		.ascii	"\033[0;31mERROR: ABP DEVICE CAN'T PROCCED A JOIN RE"
 850      33316D45 
 850      52524F52 
 850      3A204142 
 850      50204445 
 851 005b 51554553 		.ascii	"QUEST\012\015\000"
 851      540A0D00 
 852              		.section	.text.lr1mac_core_join,"ax",%progbits
 853              		.align	1
 854              		.global	lr1mac_core_join
 855              		.syntax unified
 856              		.code	16
 857              		.thumb_func
 859              	lr1mac_core_join:
 860              		@ args = 0, pretend = 0, frame = 0
 861              		@ frame_needed = 0, uses_anonymous_args = 0
 862 0000 F8B5     		push	{r3, r4, r5, r6, r7, lr}
 863 0002 2C4F     		ldr	r7, .L61
 864 0004 0400     		movs	r4, r0
 865 0006 C35D     		ldrb	r3, [r0, r7]
 866 0008 0D00     		movs	r5, r1
 867 000a 2B48     		ldr	r0, .L61+4
 868 000c 002B     		cmp	r3, #0
 869 000e 05D1     		bne	.L60
 870 0010 2300     		movs	r3, r4
 871 0012 7033     		adds	r3, r3, #112
 872 0014 1B78     		ldrb	r3, [r3]
 873 0016 012B     		cmp	r3, #1
ARM GAS  /tmp/ccXGECJv.s 			page 18


 874 0018 09D1     		bne	.L55
 875 001a 2848     		ldr	r0, .L61+8
 876              	.L60:
 877 001c FFF7FEFF 		bl	smtc_modem_hal_print_trace
 878 0020 2748     		ldr	r0, .L61+12
 879 0022 FFF7FEFF 		bl	smtc_modem_hal_print_trace
 880              	.L54:
 881 0026 0125     		movs	r5, #1
 882 0028 6D42     		rsbs	r5, r5, #0
 883              	.L56:
 884 002a 2800     		movs	r0, r5
 885              		@ sp needed
 886 002c F8BD     		pop	{r3, r4, r5, r6, r7, pc}
 887              	.L55:
 888 002e FFF7FEFF 		bl	smtc_modem_hal_get_time_in_s
 889 0032 0122     		movs	r2, #1
 890 0034 234B     		ldr	r3, .L61+16
 891 0036 0600     		movs	r6, r0
 892 0038 E050     		str	r0, [r4, r3]
 893 003a 234B     		ldr	r3, .L61+20
 894 003c 2000     		movs	r0, r4
 895 003e E550     		str	r5, [r4, r3]
 896 0040 224B     		ldr	r3, .L61+24
 897 0042 234D     		ldr	r5, .L61+28
 898 0044 E254     		strb	r2, [r4, r3]
 899 0046 FFF7FEFF 		bl	smtc_real_init
 900 004a 635D     		ldrb	r3, [r4, r5]
 901 004c 042B     		cmp	r3, #4
 902 004e 04D1     		bne	.L57
 903 0050 9522     		movs	r2, #149
 904 0052 D200     		lsls	r2, r2, #3
 905 0054 A258     		ldr	r2, [r4, r2]
 906 0056 002A     		cmp	r2, #0
 907 0058 07D1     		bne	.L58
 908              	.L57:
 909 005a 1E4A     		ldr	r2, .L61+32
 910 005c 0421     		movs	r1, #4
 911 005e A354     		strb	r3, [r4, r2]
 912 0060 2000     		movs	r0, r4
 913 0062 FFF7FEFF 		bl	smtc_real_set_dr_distribution
 914 0066 0423     		movs	r3, #4
 915 0068 6355     		strb	r3, [r4, r5]
 916              	.L58:
 917 006a 2000     		movs	r0, r4
 918 006c FFF7FEFF 		bl	smtc_real_get_next_dr
 919 0070 E06B     		ldr	r0, [r4, #60]
 920 0072 FFF7FEFF 		bl	smtc_duty_cycle_update
 921 0076 2000     		movs	r0, r4
 922 0078 FFF7FEFF 		bl	smtc_real_get_join_next_channel
 923 007c 051E     		subs	r5, r0, #0
 924 007e D2D1     		bne	.L54
 925 0080 2000     		movs	r0, r4
 926 0082 FFF7FEFF 		bl	lr1_stack_mac_join_request_build
 927 0086 2000     		movs	r0, r4
 928 0088 FFF7FEFF 		bl	smtc_real_get_rx1_join_delay
 929 008c 2300     		movs	r3, r4
 930 008e 5933     		adds	r3, r3, #89
ARM GAS  /tmp/ccXGECJv.s 			page 19


 931 0090 1870     		strb	r0, [r3]
 932 0092 2000     		movs	r0, r4
 933 0094 FFF7FEFF 		bl	smtc_real_get_rx2_join_dr
 934 0098 2300     		movs	r3, r4
 935 009a 5333     		adds	r3, r3, #83
 936 009c 1870     		strb	r0, [r3]
 937 009e 9523     		movs	r3, #149
 938 00a0 DB00     		lsls	r3, r3, #3
 939 00a2 E358     		ldr	r3, [r4, r3]
 940 00a4 002B     		cmp	r3, #0
 941 00a6 01D1     		bne	.L59
 942 00a8 0B4B     		ldr	r3, .L61+36
 943 00aa E650     		str	r6, [r4, r3]
 944              	.L59:
 945 00ac 0123     		movs	r3, #1
 946 00ae E355     		strb	r3, [r4, r7]
 947 00b0 BBE7     		b	.L56
 948              	.L62:
 949 00b2 C046     		.align	2
 950              	.L61:
 951 00b4 12050000 		.word	1298
 952 00b8 00000000 		.word	.LC51
 953 00bc 2B000000 		.word	.LC54
 954 00c0 19000000 		.word	.LC3
 955 00c4 0C050000 		.word	1292
 956 00c8 14050000 		.word	1300
 957 00cc CE040000 		.word	1230
 958 00d0 92040000 		.word	1170
 959 00d4 93040000 		.word	1171
 960 00d8 AC040000 		.word	1196
 962              		.section	.text.lr1_mac_joined_status_get,"ax",%progbits
 963              		.align	1
 964              		.global	lr1_mac_joined_status_get
 965              		.syntax unified
 966              		.code	16
 967              		.thumb_func
 969              	lr1_mac_joined_status_get:
 970              		@ args = 0, pretend = 0, frame = 0
 971              		@ frame_needed = 0, uses_anonymous_args = 0
 972              		@ link register save eliminated.
 973 0000 014B     		ldr	r3, .L64
 974              		@ sp needed
 975 0002 C05C     		ldrb	r0, [r0, r3]
 976 0004 7047     		bx	lr
 977              	.L65:
 978 0006 C046     		.align	2
 979              	.L64:
 980 0008 CE040000 		.word	1230
 982              		.section	.text.lr1mac_core_dr_strategy_set,"ax",%progbits
 983              		.align	1
 984              		.global	lr1mac_core_dr_strategy_set
 985              		.syntax unified
 986              		.code	16
 987              		.thumb_func
 989              	lr1mac_core_dr_strategy_set:
 990              		@ args = 0, pretend = 0, frame = 0
 991              		@ frame_needed = 0, uses_anonymous_args = 0
ARM GAS  /tmp/ccXGECJv.s 			page 20


 992 0000 F8B5     		push	{r3, r4, r5, r6, r7, lr}
 993 0002 124E     		ldr	r6, .L72
 994 0004 0400     		movs	r4, r0
 995 0006 875D     		ldrb	r7, [r0, r6]
 996 0008 0D1E     		subs	r5, r1, #0
 997 000a 8155     		strb	r1, [r0, r6]
 998 000c 18D1     		bne	.L67
 999 000e FFF7FEFF 		bl	smtc_real_get_min_tx_channel_dr
 1000 0012 2300     		movs	r3, r4
 1001 0014 4F33     		adds	r3, r3, #79
 1002              	.L71:
 1003 0016 2900     		movs	r1, r5
 1004 0018 1870     		strb	r0, [r3]
 1005 001a 2000     		movs	r0, r4
 1006 001c FFF7FEFF 		bl	smtc_real_set_dr_distribution
 1007 0020 2000     		movs	r0, r4
 1008 0022 FFF7FEFF 		bl	smtc_real_get_next_dr
 1009 0026 0500     		movs	r5, r0
 1010 0028 431C     		adds	r3, r0, #1
 1011 002a 07D1     		bne	.L69
 1012 002c 2000     		movs	r0, r4
 1013 002e 3900     		movs	r1, r7
 1014 0030 A755     		strb	r7, [r4, r6]
 1015 0032 FFF7FEFF 		bl	smtc_real_set_dr_distribution
 1016 0036 2000     		movs	r0, r4
 1017 0038 FFF7FEFF 		bl	smtc_real_get_next_dr
 1018              	.L69:
 1019              		@ sp needed
 1020 003c 2800     		movs	r0, r5
 1021 003e F8BD     		pop	{r3, r4, r5, r6, r7, pc}
 1022              	.L67:
 1023 0040 FFF7FEFF 		bl	smtc_real_get_default_max_eirp
 1024 0044 2300     		movs	r3, r4
 1025 0046 5033     		adds	r3, r3, #80
 1026 0048 E5E7     		b	.L71
 1027              	.L73:
 1028 004a C046     		.align	2
 1029              	.L72:
 1030 004c 92040000 		.word	1170
 1032              		.section	.text.lr1mac_core_dr_strategy_get,"ax",%progbits
 1033              		.align	1
 1034              		.global	lr1mac_core_dr_strategy_get
 1035              		.syntax unified
 1036              		.code	16
 1037              		.thumb_func
 1039              	lr1mac_core_dr_strategy_get:
 1040              		@ args = 0, pretend = 0, frame = 0
 1041              		@ frame_needed = 0, uses_anonymous_args = 0
 1042              		@ link register save eliminated.
 1043 0000 014B     		ldr	r3, .L75
 1044              		@ sp needed
 1045 0002 C05C     		ldrb	r0, [r0, r3]
 1046 0004 7047     		bx	lr
 1047              	.L76:
 1048 0006 C046     		.align	2
 1049              	.L75:
 1050 0008 92040000 		.word	1170
ARM GAS  /tmp/ccXGECJv.s 			page 21


 1052              		.section	.text.lr1mac_core_devaddr_get,"ax",%progbits
 1053              		.align	1
 1054              		.global	lr1mac_core_devaddr_get
 1055              		.syntax unified
 1056              		.code	16
 1057              		.thumb_func
 1059              	lr1mac_core_devaddr_get:
 1060              		@ args = 0, pretend = 0, frame = 0
 1061              		@ frame_needed = 0, uses_anonymous_args = 0
 1062              		@ link register save eliminated.
 1063 0000 C06E     		ldr	r0, [r0, #108]
 1064              		@ sp needed
 1065 0002 7047     		bx	lr
 1067              		.section	.text.lr1mac_core_next_power_get,"ax",%progbits
 1068              		.align	1
 1069              		.global	lr1mac_core_next_power_get
 1070              		.syntax unified
 1071              		.code	16
 1072              		.thumb_func
 1074              	lr1mac_core_next_power_get:
 1075              		@ args = 0, pretend = 0, frame = 0
 1076              		@ frame_needed = 0, uses_anonymous_args = 0
 1077              		@ link register save eliminated.
 1078 0000 5030     		adds	r0, r0, #80
 1079 0002 0078     		ldrb	r0, [r0]
 1080              		@ sp needed
 1081 0004 7047     		bx	lr
 1083              		.section	.text.lr1mac_core_state_get,"ax",%progbits
 1084              		.align	1
 1085              		.global	lr1mac_core_state_get
 1086              		.syntax unified
 1087              		.code	16
 1088              		.thumb_func
 1090              	lr1mac_core_state_get:
 1091              		@ args = 0, pretend = 0, frame = 0
 1092              		@ frame_needed = 0, uses_anonymous_args = 0
 1093              		@ link register save eliminated.
 1094 0000 014B     		ldr	r3, .L80
 1095              		@ sp needed
 1096 0002 C05C     		ldrb	r0, [r0, r3]
 1097 0004 7047     		bx	lr
 1098              	.L81:
 1099 0006 C046     		.align	2
 1100              	.L80:
 1101 0008 12050000 		.word	1298
 1103              		.section	.text.lr1mac_core_context_save,"ax",%progbits
 1104              		.align	1
 1105              		.global	lr1mac_core_context_save
 1106              		.syntax unified
 1107              		.code	16
 1108              		.thumb_func
 1110              	lr1mac_core_context_save:
 1111              		@ args = 0, pretend = 0, frame = 56
 1112              		@ frame_needed = 0, uses_anonymous_args = 0
 1113 0000 70B5     		push	{r4, r5, r6, lr}
 1114 0002 0400     		movs	r4, r0
 1115 0004 154B     		ldr	r3, .L85
ARM GAS  /tmp/ccXGECJv.s 			page 22


 1116 0006 266A     		ldr	r6, [r4, #32]
 1117 0008 C558     		ldr	r5, [r0, r3]
 1118 000a 836B     		ldr	r3, [r0, #56]
 1119 000c 8EB0     		sub	sp, sp, #56
 1120 000e 1878     		ldrb	r0, [r3]
 1121 0010 134B     		ldr	r3, .L85+4
 1122 0012 611D     		adds	r1, r4, #5
 1123 0014 E25C     		ldrb	r2, [r4, r3]
 1124 0016 A31D     		adds	r3, r4, #6
 1125 0018 AE42     		cmp	r6, r5
 1126 001a 05D1     		bne	.L83
 1127 001c CE7F     		ldrb	r6, [r1, #31]
 1128 001e 8642     		cmp	r6, r0
 1129 0020 02D1     		bne	.L83
 1130 0022 DE7F     		ldrb	r6, [r3, #31]
 1131 0024 9642     		cmp	r6, r2
 1132 0026 16D0     		beq	.L82
 1133              	.L83:
 1134 0028 2562     		str	r5, [r4, #32]
 1135 002a C877     		strb	r0, [r1, #31]
 1136 002c DA77     		strb	r2, [r3, #31]
 1137 002e 3421     		movs	r1, #52
 1138 0030 2000     		movs	r0, r4
 1139 0032 FFF7FEFF 		bl	lr1mac_utilities_crc
 1140 0036 3822     		movs	r2, #56
 1141 0038 2100     		movs	r1, r4
 1142 003a 6063     		str	r0, [r4, #52]
 1143 003c 0120     		movs	r0, #1
 1144 003e FFF7FEFF 		bl	smtc_modem_hal_context_store
 1145 0042 3822     		movs	r2, #56
 1146 0044 0021     		movs	r1, #0
 1147 0046 6846     		mov	r0, sp
 1148 0048 FFF7FEFF 		bl	memset
 1149 004c 3822     		movs	r2, #56
 1150 004e 6946     		mov	r1, sp
 1151 0050 0120     		movs	r0, #1
 1152 0052 FFF7FEFF 		bl	smtc_modem_hal_context_restore
 1153              	.L82:
 1154 0056 0EB0     		add	sp, sp, #56
 1155              		@ sp needed
 1156 0058 70BD     		pop	{r4, r5, r6, pc}
 1157              	.L86:
 1158 005a C046     		.align	2
 1159              	.L85:
 1160 005c 94040000 		.word	1172
 1161 0060 1A050000 		.word	1306
 1163              		.section	.text.lr1mac_core_dr_custom_set,"ax",%progbits
 1164              		.align	1
 1165              		.global	lr1mac_core_dr_custom_set
 1166              		.syntax unified
 1167              		.code	16
 1168              		.thumb_func
 1170              	lr1mac_core_dr_custom_set:
 1171              		@ args = 0, pretend = 0, frame = 0
 1172              		@ frame_needed = 0, uses_anonymous_args = 0
 1173 0000 0A68     		ldr	r2, [r1]
 1174 0002 044B     		ldr	r3, .L88
ARM GAS  /tmp/ccXGECJv.s 			page 23


 1175 0004 10B5     		push	{r4, lr}
 1176 0006 C250     		str	r2, [r0, r3]
 1177 0008 4A68     		ldr	r2, [r1, #4]
 1178 000a 0433     		adds	r3, r3, #4
 1179 000c C250     		str	r2, [r0, r3]
 1180 000e FFF7FEFF 		bl	lr1mac_core_context_save
 1181              		@ sp needed
 1182 0012 10BD     		pop	{r4, pc}
 1183              	.L89:
 1184              		.align	2
 1185              	.L88:
 1186 0014 94040000 		.word	1172
 1188              		.section	.text.lr1mac_core_next_max_payload_length_get,"ax",%progbits
 1189              		.align	1
 1190              		.global	lr1mac_core_next_max_payload_length_get
 1191              		.syntax unified
 1192              		.code	16
 1193              		.thumb_func
 1195              	lr1mac_core_next_max_payload_length_get:
 1196              		@ args = 0, pretend = 0, frame = 0
 1197              		@ frame_needed = 0, uses_anonymous_args = 0
 1198 0000 0300     		movs	r3, r0
 1199 0002 10B5     		push	{r4, lr}
 1200 0004 5B33     		adds	r3, r3, #91
 1201 0006 1A78     		ldrb	r2, [r3]
 1202 0008 0D3B     		subs	r3, r3, #13
 1203 000a 1978     		ldrb	r1, [r3]
 1204 000c 0400     		movs	r4, r0
 1205              		@ sp needed
 1206 000e FFF7FEFF 		bl	smtc_real_get_max_payload_size
 1207 0012 F523     		movs	r3, #245
 1208 0014 5B00     		lsls	r3, r3, #1
 1209 0016 E35C     		ldrb	r3, [r4, r3]
 1210 0018 C01A     		subs	r0, r0, r3
 1211 001a 0838     		subs	r0, r0, #8
 1212 001c 10BD     		pop	{r4, pc}
 1214              		.section	.text.lr1mac_core_next_dr_get,"ax",%progbits
 1215              		.align	1
 1216              		.global	lr1mac_core_next_dr_get
 1217              		.syntax unified
 1218              		.code	16
 1219              		.thumb_func
 1221              	lr1mac_core_next_dr_get:
 1222              		@ args = 0, pretend = 0, frame = 0
 1223              		@ frame_needed = 0, uses_anonymous_args = 0
 1224              		@ link register save eliminated.
 1225 0000 4E30     		adds	r0, r0, #78
 1226 0002 0078     		ldrb	r0, [r0]
 1227              		@ sp needed
 1228 0004 7047     		bx	lr
 1230              		.section	.text.lr1mac_core_next_frequency_get,"ax",%progbits
 1231              		.align	1
 1232              		.global	lr1mac_core_next_frequency_get
 1233              		.syntax unified
 1234              		.code	16
 1235              		.thumb_func
 1237              	lr1mac_core_next_frequency_get:
ARM GAS  /tmp/ccXGECJv.s 			page 24


 1238              		@ args = 0, pretend = 0, frame = 0
 1239              		@ frame_needed = 0, uses_anonymous_args = 0
 1240              		@ link register save eliminated.
 1241 0000 9623     		movs	r3, #150
 1242              		@ sp needed
 1243 0002 DB00     		lsls	r3, r3, #3
 1244 0004 C058     		ldr	r0, [r0, r3]
 1245 0006 7047     		bx	lr
 1247              		.section	.text.lr1mac_core_factory_reset,"ax",%progbits
 1248              		.align	1
 1249              		.global	lr1mac_core_factory_reset
 1250              		.syntax unified
 1251              		.code	16
 1252              		.thumb_func
 1254              	lr1mac_core_factory_reset:
 1255              		@ args = 0, pretend = 0, frame = 56
 1256              		@ frame_needed = 0, uses_anonymous_args = 0
 1257 0000 124B     		ldr	r3, .L94
 1258 0002 826B     		ldr	r2, [r0, #56]
 1259 0004 10B5     		push	{r4, lr}
 1260 0006 C358     		ldr	r3, [r0, r3]
 1261 0008 1278     		ldrb	r2, [r2]
 1262 000a 0362     		str	r3, [r0, #32]
 1263 000c 431D     		adds	r3, r0, #5
 1264 000e DA77     		strb	r2, [r3, #31]
 1265 0010 0F4A     		ldr	r2, .L94+4
 1266 0012 831D     		adds	r3, r0, #6
 1267 0014 825C     		ldrb	r2, [r0, r2]
 1268 0016 8EB0     		sub	sp, sp, #56
 1269 0018 DA77     		strb	r2, [r3, #31]
 1270 001a 3421     		movs	r1, #52
 1271 001c 0400     		movs	r4, r0
 1272 001e FFF7FEFF 		bl	lr1mac_utilities_crc
 1273 0022 0130     		adds	r0, r0, #1
 1274 0024 2100     		movs	r1, r4
 1275 0026 6063     		str	r0, [r4, #52]
 1276 0028 3824     		movs	r4, #56
 1277 002a 3822     		movs	r2, #56
 1278 002c 0120     		movs	r0, #1
 1279 002e FFF7FEFF 		bl	smtc_modem_hal_context_store
 1280 0032 2200     		movs	r2, r4
 1281 0034 0021     		movs	r1, #0
 1282 0036 6846     		mov	r0, sp
 1283 0038 FFF7FEFF 		bl	memset
 1284 003c 2200     		movs	r2, r4
 1285 003e 6946     		mov	r1, sp
 1286 0040 0120     		movs	r0, #1
 1287 0042 FFF7FEFF 		bl	smtc_modem_hal_context_restore
 1288 0046 0EB0     		add	sp, sp, #56
 1289              		@ sp needed
 1290 0048 10BD     		pop	{r4, pc}
 1291              	.L95:
 1292 004a C046     		.align	2
 1293              	.L94:
 1294 004c 94040000 		.word	1172
 1295 0050 1A050000 		.word	1306
 1297              		.section	.text.lr1mac_core_get_activation_mode,"ax",%progbits
ARM GAS  /tmp/ccXGECJv.s 			page 25


 1298              		.align	1
 1299              		.global	lr1mac_core_get_activation_mode
 1300              		.syntax unified
 1301              		.code	16
 1302              		.thumb_func
 1304              	lr1mac_core_get_activation_mode:
 1305              		@ args = 0, pretend = 0, frame = 0
 1306              		@ frame_needed = 0, uses_anonymous_args = 0
 1307              		@ link register save eliminated.
 1308 0000 7030     		adds	r0, r0, #112
 1309 0002 0078     		ldrb	r0, [r0]
 1310              		@ sp needed
 1311 0004 7047     		bx	lr
 1313              		.section	.text.lr1mac_core_set_activation_mode,"ax",%progbits
 1314              		.align	1
 1315              		.global	lr1mac_core_set_activation_mode
 1316              		.syntax unified
 1317              		.code	16
 1318              		.thumb_func
 1320              	lr1mac_core_set_activation_mode:
 1321              		@ args = 0, pretend = 0, frame = 0
 1322              		@ frame_needed = 0, uses_anonymous_args = 0
 1323              		@ link register save eliminated.
 1324 0000 7030     		adds	r0, r0, #112
 1325 0002 0170     		strb	r1, [r0]
 1326              		@ sp needed
 1327 0004 7047     		bx	lr
 1329              		.section	.text.lr1mac_core_rp_get,"ax",%progbits
 1330              		.align	1
 1331              		.global	lr1mac_core_rp_get
 1332              		.syntax unified
 1333              		.code	16
 1334              		.thumb_func
 1336              	lr1mac_core_rp_get:
 1337              		@ args = 0, pretend = 0, frame = 0
 1338              		@ frame_needed = 0, uses_anonymous_args = 0
 1339              		@ link register save eliminated.
 1340 0000 014B     		ldr	r3, .L99
 1341              		@ sp needed
 1342 0002 C058     		ldr	r0, [r0, r3]
 1343 0004 7047     		bx	lr
 1344              	.L100:
 1345 0006 C046     		.align	2
 1346              	.L99:
 1347 0008 BC040000 		.word	1212
 1349              		.section	.text.lr1mac_core_nb_reset_get,"ax",%progbits
 1350              		.align	1
 1351              		.global	lr1mac_core_nb_reset_get
 1352              		.syntax unified
 1353              		.code	16
 1354              		.thumb_func
 1356              	lr1mac_core_nb_reset_get:
 1357              		@ args = 0, pretend = 0, frame = 0
 1358              		@ frame_needed = 0, uses_anonymous_args = 0
 1359              		@ link register save eliminated.
 1360 0000 4C30     		adds	r0, r0, #76
 1361 0002 0088     		ldrh	r0, [r0]
ARM GAS  /tmp/ccXGECJv.s 			page 26


 1362              		@ sp needed
 1363 0004 7047     		bx	lr
 1365              		.section	.text.lr1mac_core_devnonce_get,"ax",%progbits
 1366              		.align	1
 1367              		.global	lr1mac_core_devnonce_get
 1368              		.syntax unified
 1369              		.code	16
 1370              		.thumb_func
 1372              	lr1mac_core_devnonce_get:
 1373              		@ args = 0, pretend = 0, frame = 0
 1374              		@ frame_needed = 0, uses_anonymous_args = 0
 1375              		@ link register save eliminated.
 1376 0000 C723     		movs	r3, #199
 1377              		@ sp needed
 1378 0002 9B00     		lsls	r3, r3, #2
 1379 0004 C05A     		ldrh	r0, [r0, r3]
 1380 0006 7047     		bx	lr
 1382              		.section	.text.lr1mac_core_last_snr_get,"ax",%progbits
 1383              		.align	1
 1384              		.global	lr1mac_core_last_snr_get
 1385              		.syntax unified
 1386              		.code	16
 1387              		.thumb_func
 1389              	lr1mac_core_last_snr_get:
 1390              		@ args = 0, pretend = 0, frame = 0
 1391              		@ frame_needed = 0, uses_anonymous_args = 0
 1392              		@ link register save eliminated.
 1393 0000 014B     		ldr	r3, .L104
 1394              		@ sp needed
 1395 0002 C05E     		ldrsh	r0, [r0, r3]
 1396 0004 7047     		bx	lr
 1397              	.L105:
 1398 0006 C046     		.align	2
 1399              	.L104:
 1400 0008 D4040000 		.word	1236
 1402              		.section	.text.lr1mac_core_last_rssi_get,"ax",%progbits
 1403              		.align	1
 1404              		.global	lr1mac_core_last_rssi_get
 1405              		.syntax unified
 1406              		.code	16
 1407              		.thumb_func
 1409              	lr1mac_core_last_rssi_get:
 1410              		@ args = 0, pretend = 0, frame = 0
 1411              		@ frame_needed = 0, uses_anonymous_args = 0
 1412              		@ link register save eliminated.
 1413 0000 014B     		ldr	r3, .L107
 1414              		@ sp needed
 1415 0002 C05E     		ldrsh	r0, [r0, r3]
 1416 0004 7047     		bx	lr
 1417              	.L108:
 1418 0006 C046     		.align	2
 1419              	.L107:
 1420 0008 D6040000 		.word	1238
 1422              		.section	.text.lr1mac_core_context_load,"ax",%progbits
 1423              		.align	1
 1424              		.global	lr1mac_core_context_load
 1425              		.syntax unified
ARM GAS  /tmp/ccXGECJv.s 			page 27


 1426              		.code	16
 1427              		.thumb_func
 1429              	lr1mac_core_context_load:
 1430              		@ args = 0, pretend = 0, frame = 0
 1431              		@ frame_needed = 0, uses_anonymous_args = 0
 1432 0000 10B5     		push	{r4, lr}
 1433 0002 0400     		movs	r4, r0
 1434 0004 0100     		movs	r1, r0
 1435 0006 3822     		movs	r2, #56
 1436 0008 0120     		movs	r0, #1
 1437 000a FFF7FEFF 		bl	smtc_modem_hal_context_restore
 1438 000e 3421     		movs	r1, #52
 1439 0010 2000     		movs	r0, r4
 1440 0012 FFF7FEFF 		bl	lr1mac_utilities_crc
 1441 0016 636B     		ldr	r3, [r4, #52]
 1442 0018 9842     		cmp	r0, r3
 1443 001a 0CD1     		bne	.L111
 1444 001c 0020     		movs	r0, #0
 1445 001e 226A     		ldr	r2, [r4, #32]
 1446 0020 064B     		ldr	r3, .L112
 1447 0022 E250     		str	r2, [r4, r3]
 1448 0024 621D     		adds	r2, r4, #5
 1449 0026 A36B     		ldr	r3, [r4, #56]
 1450 0028 D27F     		ldrb	r2, [r2, #31]
 1451 002a 1A70     		strb	r2, [r3]
 1452 002c A31D     		adds	r3, r4, #6
 1453 002e DA7F     		ldrb	r2, [r3, #31]
 1454 0030 034B     		ldr	r3, .L112+4
 1455 0032 E254     		strb	r2, [r4, r3]
 1456              	.L110:
 1457              		@ sp needed
 1458 0034 10BD     		pop	{r4, pc}
 1459              	.L111:
 1460 0036 0120     		movs	r0, #1
 1461 0038 4042     		rsbs	r0, r0, #0
 1462 003a FBE7     		b	.L110
 1463              	.L113:
 1464              		.align	2
 1465              	.L112:
 1466 003c 94040000 		.word	1172
 1467 0040 1A050000 		.word	1306
 1469              		.section	.rodata.lr1mac_core_init.str1.1,"aMS",%progbits,1
 1470              	.LC56:
 1471 0000 4C72316D 		.ascii	"Lr1mac context : Try recover NVM\012\015\000"
 1471      61632063 
 1471      6F6E7465 
 1471      7874203A 
 1471      20547279 
 1472              	.LC58:
 1473 0023 5265636F 		.ascii	"Recover success from 1.0.7 !\012\015\000"
 1473      76657220 
 1473      73756363 
 1473      65737320 
 1473      66726F6D 
 1474              	.LC60:
 1475 0042 1B5B303B 		.ascii	"\033[0;33mWARN: Fail to recover\012\015\000"
 1475      33336D57 
ARM GAS  /tmp/ccXGECJv.s 			page 28


 1475      41524E3A 
 1475      20466169 
 1475      6C20746F 
 1476              	.LC63:
 1477 0061 1B5B303B 		.ascii	"\033[0;33mWARN: No valid lr1mac context --> Use def"
 1477      33336D57 
 1477      41524E3A 
 1477      204E6F20 
 1477      76616C69 
 1478 0091 61756C74 		.ascii	"ault value\012\015\000"
 1478      2076616C 
 1478      75650A0D 
 1478      00
 1479              	.LC65:
 1480 009e 1B5B303B 		.ascii	"\033[0;33mWARN: No valid DevNonce in NVM, use defau"
 1480      33336D57 
 1480      41524E3A 
 1480      204E6F20 
 1480      76616C69 
 1481 00ce 6C742028 		.ascii	"lt (0)\012\015\000"
 1481      30290A0D 
 1481      00
 1482              	.LC67:
 1483 00d7 20446576 		.ascii	" DevNonce = %d\012\015\000"
 1483      4E6F6E63 
 1483      65203D20 
 1483      25640A0D 
 1483      00
 1484              	.LC69:
 1485 00e8 204A6F69 		.ascii	" JoinNonce = 0x%02x %02x %02x, NetID = 0x%02x %02x "
 1485      6E4E6F6E 
 1485      6365203D 
 1485      20307825 
 1485      30327820 
 1486 011b 25303278 		.ascii	"%02x\012\015\000"
 1486      0A0D00
 1487              	.LC71:
 1488 0122 204E624F 		.ascii	" NbOfReset = %d\012\015\000"
 1488      66526573 
 1488      6574203D 
 1488      2025640A 
 1488      0D00
 1489              	.LC74:
 1490 0134 20526567 		.ascii	" Region = %s\012\015\000"
 1490      696F6E20 
 1490      3D202573 
 1490      0A0D00
 1491              		.section	.text.lr1mac_core_init,"ax",%progbits
 1492              		.align	1
 1493              		.global	lr1mac_core_init
 1494              		.syntax unified
 1495              		.code	16
 1496              		.thumb_func
 1498              	lr1mac_core_init:
 1499              		@ args = 20, pretend = 0, frame = 64
 1500              		@ frame_needed = 0, uses_anonymous_args = 0
 1501 0000 F0B5     		push	{r4, r5, r6, r7, lr}
ARM GAS  /tmp/ccXGECJv.s 			page 29


 1502 0002 95B0     		sub	sp, sp, #84
 1503 0004 1E00     		movs	r6, r3
 1504 0006 1AAB     		add	r3, sp, #104
 1505 0008 20CB     		ldmia	r3!, {r5}
 1506 000a 1700     		movs	r7, r2
 1507 000c 1B78     		ldrb	r3, [r3]
 1508 000e 784A     		ldr	r2, .L136
 1509 0010 0693     		str	r3, [sp, #24]
 1510 0012 1CAB     		add	r3, sp, #112
 1511 0014 1B78     		ldrb	r3, [r3]
 1512 0016 0591     		str	r1, [sp, #20]
 1513 0018 0021     		movs	r1, #0
 1514 001a 0400     		movs	r4, r0
 1515 001c 0793     		str	r3, [sp, #28]
 1516 001e FFF7FEFF 		bl	memset
 1517 0022 0023     		movs	r3, #0
 1518 0024 0321     		movs	r1, #3
 1519 0026 734A     		ldr	r2, .L136+4
 1520 0028 2000     		movs	r0, r4
 1521 002a A354     		strb	r3, [r4, r2]
 1522 002c 724A     		ldr	r2, .L136+8
 1523 002e A354     		strb	r3, [r4, r2]
 1524 0030 724A     		ldr	r2, .L136+12
 1525 0032 A354     		strb	r3, [r4, r2]
 1526 0034 193A     		subs	r2, r2, #25
 1527 0036 A154     		strb	r1, [r4, r2]
 1528 0038 059A     		ldr	r2, [sp, #20]
 1529 003a E663     		str	r6, [r4, #60]
 1530 003c A263     		str	r2, [r4, #56]
 1531 003e A322     		movs	r2, #163
 1532 0040 D200     		lsls	r2, r2, #3
 1533 0042 2764     		str	r7, [r4, #64]
 1534 0044 A354     		strb	r3, [r4, r2]
 1535 0046 0A22     		movs	r2, #10
 1536 0048 1D9B     		ldr	r3, [sp, #116]
 1537 004a 0699     		ldr	r1, [sp, #24]
 1538 004c 6364     		str	r3, [r4, #68]
 1539 004e 1E9B     		ldr	r3, [sp, #120]
 1540 0050 2600     		movs	r6, r4
 1541 0052 A364     		str	r3, [r4, #72]
 1542 0054 6A4B     		ldr	r3, .L136+16
 1543 0056 4C36     		adds	r6, r6, #76
 1544 0058 E250     		str	r2, [r4, r3]
 1545 005a 6A4A     		ldr	r2, .L136+20
 1546 005c 2433     		adds	r3, r3, #36
 1547 005e E250     		str	r2, [r4, r3]
 1548 0060 079A     		ldr	r2, [sp, #28]
 1549 0062 FFF7FEFF 		bl	lr1_stack_mac_init
 1550 0066 2000     		movs	r0, r4
 1551 0068 FFF7FEFF 		bl	lr1mac_core_context_load
 1552 006c 0028     		cmp	r0, #0
 1553 006e 00D0     		beq	.LCB1548
 1554 0070 7EE0     		b	.L115	@long jump
 1555              	.LCB1548:
 1556              	.L120:
 1557 0072 A36B     		ldr	r3, [r4, #56]
 1558 0074 1878     		ldrb	r0, [r3]
ARM GAS  /tmp/ccXGECJv.s 			page 30


 1559 0076 FFF7FEFF 		bl	smtc_real_is_supported_region
 1560 007a 0028     		cmp	r0, #0
 1561 007c 12D0     		beq	.L122
 1562              	.L117:
 1563 007e 6248     		ldr	r0, .L136+24
 1564 0080 FFF7FEFF 		bl	smtc_modem_hal_print_trace
 1565 0084 6148     		ldr	r0, .L136+28
 1566 0086 FFF7FEFF 		bl	smtc_modem_hal_print_trace
 1567 008a 8022     		movs	r2, #128
 1568 008c 604B     		ldr	r3, .L136+32
 1569 008e 5205     		lsls	r2, r2, #21
 1570 0090 E250     		str	r2, [r4, r3]
 1571 0092 0022     		movs	r2, #0
 1572 0094 0433     		adds	r3, r3, #4
 1573 0096 E250     		str	r2, [r4, r3]
 1574 0098 A36B     		ldr	r3, [r4, #56]
 1575 009a 0132     		adds	r2, r2, #1
 1576 009c 2000     		movs	r0, r4
 1577 009e 1A70     		strb	r2, [r3]
 1578 00a0 FFF7FEFF 		bl	lr1mac_core_context_save
 1579              	.L122:
 1580 00a4 2022     		movs	r2, #32
 1581 00a6 0021     		movs	r1, #0
 1582 00a8 08A8     		add	r0, sp, #32
 1583 00aa FFF7FEFF 		bl	memset
 1584 00ae 2022     		movs	r2, #32
 1585 00b0 0220     		movs	r0, #2
 1586 00b2 08A9     		add	r1, sp, #32
 1587 00b4 FFF7FEFF 		bl	smtc_modem_hal_context_restore
 1588 00b8 1C21     		movs	r1, #28
 1589 00ba 08A8     		add	r0, sp, #32
 1590 00bc FFF7FEFF 		bl	lr1mac_utilities_crc
 1591 00c0 0F9B     		ldr	r3, [sp, #60]
 1592 00c2 9842     		cmp	r0, r3
 1593 00c4 00D0     		beq	.LCB1589
 1594 00c6 8CE0     		b	.L123	@long jump
 1595              	.LCB1589:
 1596 00c8 04AB     		add	r3, sp, #16
 1597 00ca 1A8A     		ldrh	r2, [r3, #16]
 1598 00cc C723     		movs	r3, #199
 1599 00ce 9B00     		lsls	r3, r3, #2
 1600 00d0 E252     		strh	r2, [r4, r3]
 1601 00d2 099B     		ldr	r3, [sp, #36]
 1602 00d4 0622     		movs	r2, #6
 1603 00d6 3380     		strh	r3, [r6]
 1604 00d8 4E4B     		ldr	r3, .L136+36
 1605 00da 0AA9     		add	r1, sp, #40
 1606 00dc E018     		adds	r0, r4, r3
 1607 00de FFF7FEFF 		bl	memcpy
 1608              	.L124:
 1609 00e2 3388     		ldrh	r3, [r6]
 1610 00e4 4C48     		ldr	r0, .L136+40
 1611 00e6 0133     		adds	r3, r3, #1
 1612 00e8 3380     		strh	r3, [r6]
 1613 00ea C723     		movs	r3, #199
 1614 00ec 9B00     		lsls	r3, r3, #2
 1615 00ee E15A     		ldrh	r1, [r4, r3]
ARM GAS  /tmp/ccXGECJv.s 			page 31


 1616 00f0 FFF7FEFF 		bl	smtc_modem_hal_print_trace
 1617 00f4 C823     		movs	r3, #200
 1618 00f6 494F     		ldr	r7, .L136+44
 1619 00f8 494A     		ldr	r2, .L136+48
 1620 00fa E75D     		ldrb	r7, [r4, r7]
 1621 00fc 4549     		ldr	r1, .L136+36
 1622 00fe 9B00     		lsls	r3, r3, #2
 1623 0100 E35C     		ldrb	r3, [r4, r3]
 1624 0102 A25C     		ldrb	r2, [r4, r2]
 1625 0104 615C     		ldrb	r1, [r4, r1]
 1626 0106 0297     		str	r7, [sp, #8]
 1627 0108 464F     		ldr	r7, .L136+52
 1628 010a 4748     		ldr	r0, .L136+56
 1629 010c E75D     		ldrb	r7, [r4, r7]
 1630 010e 0197     		str	r7, [sp, #4]
 1631 0110 464F     		ldr	r7, .L136+60
 1632 0112 E75D     		ldrb	r7, [r4, r7]
 1633 0114 0097     		str	r7, [sp]
 1634 0116 FFF7FEFF 		bl	smtc_modem_hal_print_trace
 1635 011a 3188     		ldrh	r1, [r6]
 1636 011c 4448     		ldr	r0, .L136+64
 1637 011e FFF7FEFF 		bl	smtc_modem_hal_print_trace
 1638 0122 A26B     		ldr	r2, [r4, #56]
 1639 0124 434B     		ldr	r3, .L136+68
 1640 0126 1278     		ldrb	r2, [r2]
 1641 0128 4348     		ldr	r0, .L136+72
 1642 012a 9200     		lsls	r2, r2, #2
 1643 012c D158     		ldr	r1, [r2, r3]
 1644 012e FFF7FEFF 		bl	smtc_modem_hal_print_trace
 1645 0132 9622     		movs	r2, #150
 1646 0134 414B     		ldr	r3, .L136+76
 1647 0136 1201     		lsls	r2, r2, #4
 1648 0138 E550     		str	r5, [r4, r3]
 1649 013a 414B     		ldr	r3, .L136+80
 1650 013c 2800     		movs	r0, r5
 1651 013e E252     		strh	r2, [r4, r3]
 1652 0140 2433     		adds	r3, r3, #36
 1653 0142 E15C     		ldrb	r1, [r4, r3]
 1654 0144 3F4A     		ldr	r2, .L136+84
 1655 0146 2300     		movs	r3, r4
 1656 0148 FFF7FEFF 		bl	rp_hook_init
 1657 014c 2000     		movs	r0, r4
 1658 014e FFF7FEFF 		bl	smtc_real_config
 1659 0152 2000     		movs	r0, r4
 1660 0154 FFF7FEFF 		bl	smtc_real_init
 1661 0158 2000     		movs	r0, r4
 1662 015a FFF7FEFF 		bl	smtc_real_get_adr_ack_limit
 1663 015e 3A4B     		ldr	r3, .L136+88
 1664 0160 E054     		strb	r0, [r4, r3]
 1665 0162 2000     		movs	r0, r4
 1666 0164 FFF7FEFF 		bl	smtc_real_get_adr_ack_delay
 1667 0168 384B     		ldr	r3, .L136+92
 1668 016a E054     		strb	r0, [r4, r3]
 1669 016c 15B0     		add	sp, sp, #84
 1670              		@ sp needed
 1671 016e F0BD     		pop	{r4, r5, r6, r7, pc}
 1672              	.L115:
ARM GAS  /tmp/ccXGECJv.s 			page 32


 1673 0170 3748     		ldr	r0, .L136+96
 1674 0172 FFF7FEFF 		bl	smtc_modem_hal_print_trace
 1675 0176 3022     		movs	r2, #48
 1676 0178 0120     		movs	r0, #1
 1677 017a 08A9     		add	r1, sp, #32
 1678 017c FFF7FEFF 		bl	smtc_modem_hal_context_restore
 1679 0180 2C21     		movs	r1, #44
 1680 0182 08A8     		add	r0, sp, #32
 1681 0184 FFF7FEFF 		bl	lr1mac_utilities_crc
 1682 0188 139B     		ldr	r3, [sp, #76]
 1683 018a 9842     		cmp	r0, r3
 1684 018c 22D1     		bne	.L118
 1685 018e 3148     		ldr	r0, .L136+100
 1686 0190 FFF7FEFF 		bl	smtc_modem_hal_print_trace
 1687 0194 C722     		movs	r2, #199
 1688 0196 04AB     		add	r3, sp, #16
 1689 0198 1B8E     		ldrh	r3, [r3, #48]
 1690 019a 9200     		lsls	r2, r2, #2
 1691 019c 0A33     		adds	r3, r3, #10
 1692 019e A352     		strh	r3, [r4, r2]
 1693 01a0 119A     		ldr	r2, [sp, #68]
 1694 01a2 1B4B     		ldr	r3, .L136+32
 1695 01a4 2000     		movs	r0, r4
 1696 01a6 E250     		str	r2, [r4, r3]
 1697 01a8 04AB     		add	r3, sp, #16
 1698 01aa 5B8E     		ldrh	r3, [r3, #50]
 1699 01ac 12AA     		add	r2, sp, #72
 1700 01ae 3380     		strh	r3, [r6]
 1701 01b0 1278     		ldrb	r2, [r2]
 1702 01b2 A36B     		ldr	r3, [r4, #56]
 1703 01b4 1A70     		strb	r2, [r3]
 1704 01b6 FFF7FEFF 		bl	save_devnonce_rst
 1705 01ba 2000     		movs	r0, r4
 1706 01bc FFF7FEFF 		bl	lr1mac_core_context_save
 1707              	.L119:
 1708 01c0 2000     		movs	r0, r4
 1709 01c2 FFF7FEFF 		bl	lr1mac_core_context_load
 1710 01c6 0028     		cmp	r0, #0
 1711 01c8 00D1     		bne	.LCB1718
 1712 01ca 52E7     		b	.L120	@long jump
 1713              	.LCB1718:
 1714 01cc 0130     		adds	r0, r0, #1
 1715 01ce 00D0     		beq	.LCB1720
 1716 01d0 68E7     		b	.L122	@long jump
 1717              	.LCB1720:
 1718 01d2 54E7     		b	.L117
 1719              	.L118:
 1720 01d4 2048     		ldr	r0, .L136+104
 1721 01d6 FFF7FEFF 		bl	smtc_modem_hal_print_trace
 1722 01da 0C48     		ldr	r0, .L136+28
 1723 01dc FFF7FEFF 		bl	smtc_modem_hal_print_trace
 1724 01e0 EEE7     		b	.L119
 1725              	.L123:
 1726 01e2 1E48     		ldr	r0, .L136+108
 1727 01e4 FFF7FEFF 		bl	smtc_modem_hal_print_trace
 1728 01e8 0848     		ldr	r0, .L136+28
 1729 01ea FFF7FEFF 		bl	smtc_modem_hal_print_trace
ARM GAS  /tmp/ccXGECJv.s 			page 33


 1730 01ee 78E7     		b	.L124
 1731              	.L137:
 1732              		.align	2
 1733              	.L136:
 1734 01f0 54050000 		.word	1364
 1735 01f4 12050000 		.word	1298
 1736 01f8 11030000 		.word	785
 1737 01fc D9040000 		.word	1241
 1738 0200 1C050000 		.word	1308
 1739 0204 80994000 		.word	4233600
 1740 0208 61000000 		.word	.LC63
 1741 020c 19000000 		.word	.LC3
 1742 0210 94040000 		.word	1172
 1743 0214 1E030000 		.word	798
 1744 0218 D7000000 		.word	.LC67
 1745 021c 23030000 		.word	803
 1746 0220 1F030000 		.word	799
 1747 0224 22030000 		.word	802
 1748 0228 E8000000 		.word	.LC69
 1749 022c 21030000 		.word	801
 1750 0230 22010000 		.word	.LC71
 1751 0234 00000000 		.word	smtc_real_region_list_str
 1752 0238 34010000 		.word	.LC74
 1753 023c BC040000 		.word	1212
 1754 0240 9C040000 		.word	1180
 1755 0244 00000000 		.word	lr1_stack_mac_rp_callback
 1756 0248 8D040000 		.word	1165
 1757 024c 8C040000 		.word	1164
 1758 0250 00000000 		.word	.LC56
 1759 0254 23000000 		.word	.LC58
 1760 0258 42000000 		.word	.LC60
 1761 025c 9E000000 		.word	.LC65
 1763              		.section	.text.lr1mac_core_rx_window_get,"ax",%progbits
 1764              		.align	1
 1765              		.global	lr1mac_core_rx_window_get
 1766              		.syntax unified
 1767              		.code	16
 1768              		.thumb_func
 1770              	lr1mac_core_rx_window_get:
 1771              		@ args = 0, pretend = 0, frame = 0
 1772              		@ frame_needed = 0, uses_anonymous_args = 0
 1773              		@ link register save eliminated.
 1774 0000 014B     		ldr	r3, .L139
 1775              		@ sp needed
 1776 0002 C05C     		ldrb	r0, [r0, r3]
 1777 0004 7047     		bx	lr
 1778              	.L140:
 1779 0006 C046     		.align	2
 1780              	.L139:
 1781 0008 D9040000 		.word	1241
 1783              		.section	.text.lr1mac_core_fcnt_up_get,"ax",%progbits
 1784              		.align	1
 1785              		.global	lr1mac_core_fcnt_up_get
 1786              		.syntax unified
 1787              		.code	16
 1788              		.thumb_func
 1790              	lr1mac_core_fcnt_up_get:
ARM GAS  /tmp/ccXGECJv.s 			page 34


 1791              		@ args = 0, pretend = 0, frame = 0
 1792              		@ frame_needed = 0, uses_anonymous_args = 0
 1793              		@ link register save eliminated.
 1794 0000 406E     		ldr	r0, [r0, #100]
 1795              		@ sp needed
 1796 0002 7047     		bx	lr
 1798              		.section	.text.lr1mac_core_next_join_time_second_get,"ax",%progbits
 1799              		.align	1
 1800              		.global	lr1mac_core_next_join_time_second_get
 1801              		.syntax unified
 1802              		.code	16
 1803              		.thumb_func
 1805              	lr1mac_core_next_join_time_second_get:
 1806              		@ args = 0, pretend = 0, frame = 0
 1807              		@ frame_needed = 0, uses_anonymous_args = 0
 1808              		@ link register save eliminated.
 1809 0000 014B     		ldr	r3, .L143
 1810              		@ sp needed
 1811 0002 C058     		ldr	r0, [r0, r3]
 1812 0004 7047     		bx	lr
 1813              	.L144:
 1814 0006 C046     		.align	2
 1815              	.L143:
 1816 0008 A4040000 		.word	1188
 1818              		.section	.text.lr1mac_core_next_free_duty_cycle_ms_get,"ax",%progbits
 1819              		.align	1
 1820              		.global	lr1mac_core_next_free_duty_cycle_ms_get
 1821              		.syntax unified
 1822              		.code	16
 1823              		.thumb_func
 1825              	lr1mac_core_next_free_duty_cycle_ms_get:
 1826              		@ args = 0, pretend = 0, frame = 72
 1827              		@ frame_needed = 0, uses_anonymous_args = 0
 1828 0000 30B5     		push	{r4, r5, lr}
 1829 0002 93B0     		sub	sp, sp, #76
 1830 0004 0400     		movs	r4, r0
 1831 0006 0021     		movs	r1, #0
 1832 0008 6B46     		mov	r3, sp
 1833 000a 4022     		movs	r2, #64
 1834 000c 02A8     		add	r0, sp, #8
 1835 000e D971     		strb	r1, [r3, #7]
 1836 0010 FFF7FEFF 		bl	memset
 1837 0014 2000     		movs	r0, r4
 1838 0016 FFF7FEFF 		bl	lr1_stack_network_next_free_duty_cycle_ms_get
 1839 001a 0500     		movs	r5, r0
 1840 001c 2000     		movs	r0, r4
 1841 001e FFF7FEFF 		bl	smtc_real_is_dtc_supported
 1842 0022 0028     		cmp	r0, #0
 1843 0024 07D1     		bne	.L146
 1844              	.L148:
 1845 0026 0020     		movs	r0, #0
 1846              	.L147:
 1847 0028 002D     		cmp	r5, #0
 1848 002a 02D0     		beq	.L145
 1849 002c A842     		cmp	r0, r5
 1850 002e 00DA     		bge	.L145
 1851 0030 2800     		movs	r0, r5
ARM GAS  /tmp/ccXGECJv.s 			page 35


 1852              	.L145:
 1853 0032 13B0     		add	sp, sp, #76
 1854              		@ sp needed
 1855 0034 30BD     		pop	{r4, r5, pc}
 1856              	.L146:
 1857 0036 6946     		mov	r1, sp
 1858 0038 1023     		movs	r3, #16
 1859 003a 2000     		movs	r0, r4
 1860 003c 02AA     		add	r2, sp, #8
 1861 003e 0731     		adds	r1, r1, #7
 1862 0040 FFF7FEFF 		bl	smtc_real_get_current_enabled_frequency_list
 1863 0044 0128     		cmp	r0, #1
 1864 0046 EED1     		bne	.L148
 1865 0048 6B46     		mov	r3, sp
 1866 004a E06B     		ldr	r0, [r4, #60]
 1867 004c D979     		ldrb	r1, [r3, #7]
 1868 004e 02AA     		add	r2, sp, #8
 1869 0050 FFF7FEFF 		bl	smtc_duty_cycle_get_next_free_time_ms
 1870 0054 E8E7     		b	.L147
 1872              		.section	.rodata.lr1mac_core_payload_send.str1.1,"aMS",%progbits,1
 1873              	.LC77:
 1874 0000 1B5B303B 		.ascii	"\033[0;31mERROR: PAYLOAD SIZE TOO HIGH\012\015\000"
 1874      33316D45 
 1874      52524F52 
 1874      3A205041 
 1874      594C4F41 
 1875              	.LC80:
 1876 0026 1B5B303B 		.ascii	"\033[0;31mERROR: PAYLOAD PACKET TYPE INVALID\012\015"
 1876      33316D45 
 1876      52524F52 
 1876      3A205041 
 1876      594C4F41 
 1877 0051 00       		.ascii	"\000"
 1878              	.LC82:
 1879 0052 1B5B303B 		.ascii	"\033[0;31mERROR: OTAA DEVICE NOT JOINED YET\012\015"
 1879      33316D45 
 1879      52524F52 
 1879      3A204F54 
 1879      41412044 
 1880 007c 00       		.ascii	"\000"
 1881              	.LC85:
 1882 007d 1B5B303B 		.ascii	"\033[0;33mWARN: Duty Cycle is full\012\015\000"
 1882      33336D57 
 1882      41524E3A 
 1882      20447574 
 1882      79204379 
 1883              		.section	.text.lr1mac_core_payload_send,"ax",%progbits
 1884              		.align	1
 1885              		.global	lr1mac_core_payload_send
 1886              		.syntax unified
 1887              		.code	16
 1888              		.thumb_func
 1890              	lr1mac_core_payload_send:
 1891              		@ args = 12, pretend = 0, frame = 16
 1892              		@ frame_needed = 0, uses_anonymous_args = 0
 1893 0000 F0B5     		push	{r4, r5, r6, r7, lr}
 1894 0002 85B0     		sub	sp, sp, #20
ARM GAS  /tmp/ccXGECJv.s 			page 36


 1895 0004 0393     		str	r3, [sp, #12]
 1896 0006 0AAB     		add	r3, sp, #40
 1897 0008 1F78     		ldrb	r7, [r3]
 1898 000a 0BAB     		add	r3, sp, #44
 1899 000c 1B78     		ldrb	r3, [r3]
 1900 000e 0192     		str	r2, [sp, #4]
 1901 0010 0293     		str	r3, [sp, #8]
 1902 0012 1300     		movs	r3, r2
 1903 0014 5A1E     		subs	r2, r3, #1
 1904 0016 9341     		sbcs	r3, r3, r2
 1905 0018 5B42     		rsbs	r3, r3, #0
 1906 001a 1F40     		ands	r7, r3
 1907 001c 0200     		movs	r2, r0
 1908 001e 0300     		movs	r3, r0
 1909 0020 4E32     		adds	r2, r2, #78
 1910 0022 5B33     		adds	r3, r3, #91
 1911 0024 0D00     		movs	r5, r1
 1912 0026 1B78     		ldrb	r3, [r3]
 1913 0028 1178     		ldrb	r1, [r2]
 1914 002a 3A00     		movs	r2, r7
 1915 002c 0400     		movs	r4, r0
 1916 002e FFF7FEFF 		bl	smtc_real_is_payload_size_valid
 1917 0032 0130     		adds	r0, r0, #1
 1918 0034 0AD1     		bne	.L156
 1919 0036 3148     		ldr	r0, .L172
 1920              	.L171:
 1921 0038 FFF7FEFF 		bl	smtc_modem_hal_print_trace
 1922 003c 3048     		ldr	r0, .L172+4
 1923 003e FFF7FEFF 		bl	smtc_modem_hal_print_trace
 1924              	.L157:
 1925 0042 0126     		movs	r6, #1
 1926 0044 7642     		rsbs	r6, r6, #0
 1927              	.L159:
 1928 0046 3000     		movs	r0, r6
 1929 0048 05B0     		add	sp, sp, #20
 1930              		@ sp needed
 1931 004a F0BD     		pop	{r4, r5, r6, r7, pc}
 1932              	.L156:
 1933 004c FD22     		movs	r2, #253
 1934 004e 029B     		ldr	r3, [sp, #8]
 1935 0050 023B     		subs	r3, r3, #2
 1936 0052 1342     		tst	r3, r2
 1937 0054 01D0     		beq	.L158
 1938 0056 2B48     		ldr	r0, .L172+8
 1939 0058 EEE7     		b	.L171
 1940              	.L158:
 1941 005a 2300     		movs	r3, r4
 1942 005c 7033     		adds	r3, r3, #112
 1943 005e 1B78     		ldrb	r3, [r3]
 1944 0060 002B     		cmp	r3, #0
 1945 0062 04D1     		bne	.L160
 1946 0064 284B     		ldr	r3, .L172+12
 1947 0066 2948     		ldr	r0, .L172+16
 1948 0068 E35C     		ldrb	r3, [r4, r3]
 1949 006a 022B     		cmp	r3, #2
 1950 006c E4D1     		bne	.L171
 1951              	.L160:
ARM GAS  /tmp/ccXGECJv.s 			page 37


 1952 006e 284B     		ldr	r3, .L172+20
 1953 0070 2848     		ldr	r0, .L172+24
 1954 0072 E35C     		ldrb	r3, [r4, r3]
 1955 0074 002B     		cmp	r3, #0
 1956 0076 DFD1     		bne	.L171
 1957 0078 E06B     		ldr	r0, [r4, #60]
 1958 007a FFF7FEFF 		bl	smtc_duty_cycle_update
 1959 007e 2000     		movs	r0, r4
 1960 0080 FFF7FEFF 		bl	smtc_real_get_next_channel
 1961 0084 061E     		subs	r6, r0, #0
 1962 0086 DCD1     		bne	.L157
 1963 0088 2000     		movs	r0, r4
 1964 008a FFF7FEFF 		bl	lr1mac_core_next_free_duty_cycle_ms_get
 1965 008e 0028     		cmp	r0, #0
 1966 0090 01DD     		ble	.L162
 1967 0092 2148     		ldr	r0, .L172+28
 1968 0094 D0E7     		b	.L171
 1969              	.L162:
 1970 0096 FFF7FEFF 		bl	smtc_modem_hal_get_time_in_s
 1971 009a 204B     		ldr	r3, .L172+32
 1972 009c 0C9A     		ldr	r2, [sp, #48]
 1973 009e E050     		str	r0, [r4, r3]
 1974 00a0 1F4B     		ldr	r3, .L172+36
 1975 00a2 E250     		str	r2, [r4, r3]
 1976 00a4 2300     		movs	r3, r4
 1977 00a6 019A     		ldr	r2, [sp, #4]
 1978 00a8 7833     		adds	r3, r3, #120
 1979 00aa 1F70     		strb	r7, [r3]
 1980 00ac 073B     		subs	r3, r3, #7
 1981 00ae 5A70     		strb	r2, [r3, #1]
 1982 00b0 029A     		ldr	r2, [sp, #8]
 1983 00b2 1D70     		strb	r5, [r3]
 1984 00b4 9A70     		strb	r2, [r3, #2]
 1985 00b6 FE23     		movs	r3, #254
 1986 00b8 FF33     		adds	r3, r3, #255
 1987 00ba E654     		strb	r6, [r4, r3]
 1988 00bc 002D     		cmp	r5, #0
 1989 00be 01D0     		beq	.L163
 1990 00c0 133B     		subs	r3, r3, #19
 1991 00c2 E55C     		ldrb	r5, [r4, r3]
 1992              	.L163:
 1993 00c4 019B     		ldr	r3, [sp, #4]
 1994 00c6 3A00     		movs	r2, r7
 1995 00c8 E818     		adds	r0, r5, r3
 1996 00ca 8230     		adds	r0, r0, #130
 1997 00cc 0399     		ldr	r1, [sp, #12]
 1998 00ce 2018     		adds	r0, r4, r0
 1999 00d0 FFF7FEFF 		bl	memcpy1
 2000 00d4 2000     		movs	r0, r4
 2001 00d6 FFF7FEFF 		bl	lr1_stack_mac_tx_frame_build
 2002 00da 2000     		movs	r0, r4
 2003 00dc FFF7FEFF 		bl	lr1_stack_mac_tx_frame_encrypt
 2004 00e0 0022     		movs	r2, #0
 2005 00e2 104B     		ldr	r3, .L172+40
 2006 00e4 E254     		strb	r2, [r4, r3]
 2007 00e6 2200     		movs	r2, r4
 2008 00e8 2300     		movs	r3, r4
ARM GAS  /tmp/ccXGECJv.s 			page 38


 2009 00ea 5132     		adds	r2, r2, #81
 2010 00ec 1278     		ldrb	r2, [r2]
 2011 00ee 5233     		adds	r3, r3, #82
 2012 00f0 1A70     		strb	r2, [r3]
 2013 00f2 0123     		movs	r3, #1
 2014 00f4 064A     		ldr	r2, .L172+20
 2015 00f6 A354     		strb	r3, [r4, r2]
 2016 00f8 A5E7     		b	.L159
 2017              	.L173:
 2018 00fa C046     		.align	2
 2019              	.L172:
 2020 00fc 00000000 		.word	.LC77
 2021 0100 19000000 		.word	.LC3
 2022 0104 26000000 		.word	.LC80
 2023 0108 CE040000 		.word	1230
 2024 010c 52000000 		.word	.LC82
 2025 0110 12050000 		.word	1298
 2026 0114 00000000 		.word	.LC51
 2027 0118 7D000000 		.word	.LC85
 2028 011c 0C050000 		.word	1292
 2029 0120 14050000 		.word	1300
 2030 0124 D9040000 		.word	1241
 2032              		.section	.text.lr1mac_core_send_stack_cid_req,"ax",%progbits
 2033              		.align	1
 2034              		.global	lr1mac_core_send_stack_cid_req
 2035              		.syntax unified
 2036              		.code	16
 2037              		.thumb_func
 2039              	lr1mac_core_send_stack_cid_req:
 2040              		@ args = 0, pretend = 0, frame = 256
 2041              		@ frame_needed = 0, uses_anonymous_args = 0
 2042 0000 F0B5     		push	{r4, r5, r6, r7, lr}
 2043 0002 C5B0     		sub	sp, sp, #276
 2044 0004 0500     		movs	r5, r0
 2045 0006 0E00     		movs	r6, r1
 2046 0008 FFF7FEFF 		bl	smtc_modem_hal_get_time_in_ms
 2047 000c 0321     		movs	r1, #3
 2048 000e 0400     		movs	r4, r0
 2049 0010 0120     		movs	r0, #1
 2050 0012 FFF7FEFF 		bl	smtc_modem_hal_get_random_nb_in_range
 2051 0016 FA23     		movs	r3, #250
 2052 0018 9B00     		lsls	r3, r3, #2
 2053 001a 4343     		muls	r3, r0
 2054 001c 2D4F     		ldr	r7, .L196
 2055 001e 1B19     		adds	r3, r3, r4
 2056 0020 0593     		str	r3, [sp, #20]
 2057 0022 EB5D     		ldrb	r3, [r5, r7]
 2058 0024 0024     		movs	r4, #0
 2059 0026 012B     		cmp	r3, #1
 2060 0028 13D0     		beq	.L175
 2061 002a 2B4B     		ldr	r3, .L196+4
 2062 002c EB5C     		ldrb	r3, [r5, r3]
 2063 002e 012B     		cmp	r3, #1
 2064 0030 0FD0     		beq	.L175
 2065 0032 2A4B     		ldr	r3, .L196+8
 2066 0034 EB5C     		ldrb	r3, [r5, r3]
 2067 0036 012B     		cmp	r3, #1
ARM GAS  /tmp/ccXGECJv.s 			page 39


 2068 0038 0BD0     		beq	.L175
 2069 003a F523     		movs	r3, #245
 2070 003c 5B00     		lsls	r3, r3, #1
 2071 003e EC5C     		ldrb	r4, [r5, r3]
 2072 0040 002C     		cmp	r4, #0
 2073 0042 06D0     		beq	.L175
 2074 0044 2900     		movs	r1, r5
 2075 0046 EC31     		adds	r1, r1, #236
 2076 0048 2200     		movs	r2, r4
 2077 004a FF31     		adds	r1, r1, #255
 2078 004c 07A8     		add	r0, sp, #28
 2079 004e FFF7FEFF 		bl	memcpy1
 2080              	.L175:
 2081 0052 0D2E     		cmp	r6, #13
 2082 0054 1DD0     		beq	.L178
 2083 0056 102E     		cmp	r6, #16
 2084 0058 23D0     		beq	.L179
 2085 005a 022E     		cmp	r6, #2
 2086 005c 37D1     		bne	.L185
 2087 005e EB5D     		ldrb	r3, [r5, r7]
 2088 0060 012B     		cmp	r3, #1
 2089 0062 09D0     		beq	.L181
 2090 0064 0123     		movs	r3, #1
 2091 0066 EB55     		strb	r3, [r5, r7]
 2092 0068 A423     		movs	r3, #164
 2093 006a 0022     		movs	r2, #0
 2094 006c DB00     		lsls	r3, r3, #3
 2095 006e EA52     		strh	r2, [r5, r3]
 2096 0070 631C     		adds	r3, r4, #1
 2097              	.L195:
 2098 0072 07AA     		add	r2, sp, #28
 2099 0074 1655     		strb	r6, [r2, r4]
 2100 0076 DCB2     		uxtb	r4, r3
 2101              	.L181:
 2102 0078 059B     		ldr	r3, [sp, #20]
 2103 007a 0122     		movs	r2, #1
 2104 007c 0293     		str	r3, [sp, #8]
 2105 007e 0223     		movs	r3, #2
 2106 0080 0021     		movs	r1, #0
 2107 0082 0193     		str	r3, [sp, #4]
 2108 0084 2800     		movs	r0, r5
 2109 0086 0094     		str	r4, [sp]
 2110 0088 07AB     		add	r3, sp, #28
 2111 008a FFF7FEFF 		bl	lr1mac_core_payload_send
 2112              	.L180:
 2113 008e 45B0     		add	sp, sp, #276
 2114              		@ sp needed
 2115 0090 F0BD     		pop	{r4, r5, r6, r7, pc}
 2116              	.L178:
 2117 0092 114B     		ldr	r3, .L196+4
 2118 0094 EA5C     		ldrb	r2, [r5, r3]
 2119 0096 012A     		cmp	r2, #1
 2120 0098 EED0     		beq	.L181
 2121 009a 0122     		movs	r2, #1
 2122 009c EA54     		strb	r2, [r5, r3]
 2123 009e A318     		adds	r3, r4, r2
 2124 00a0 E7E7     		b	.L195
ARM GAS  /tmp/ccXGECJv.s 			page 40


 2125              	.L179:
 2126 00a2 0E4B     		ldr	r3, .L196+8
 2127 00a4 EA5C     		ldrb	r2, [r5, r3]
 2128 00a6 012A     		cmp	r2, #1
 2129 00a8 E6D0     		beq	.L181
 2130 00aa 0122     		movs	r2, #1
 2131 00ac 0720     		movs	r0, #7
 2132 00ae EA54     		strb	r2, [r5, r3]
 2133 00b0 07A9     		add	r1, sp, #28
 2134 00b2 A318     		adds	r3, r4, r2
 2135 00b4 0A4A     		ldr	r2, .L196+12
 2136 00b6 0E55     		strb	r6, [r1, r4]
 2137 00b8 AA5C     		ldrb	r2, [r5, r2]
 2138 00ba DBB2     		uxtb	r3, r3
 2139 00bc 0240     		ands	r2, r0
 2140 00be CA54     		strb	r2, [r1, r3]
 2141 00c0 2B00     		movs	r3, r5
 2142 00c2 0022     		movs	r2, #0
 2143 00c4 0234     		adds	r4, r4, #2
 2144 00c6 7733     		adds	r3, r3, #119
 2145 00c8 E4B2     		uxtb	r4, r4
 2146 00ca 1A70     		strb	r2, [r3]
 2147 00cc D4E7     		b	.L181
 2148              	.L185:
 2149 00ce 0120     		movs	r0, #1
 2150 00d0 4042     		rsbs	r0, r0, #0
 2151 00d2 DCE7     		b	.L180
 2152              	.L197:
 2153              		.align	2
 2154              	.L196:
 2155 00d4 44050000 		.word	1348
 2156 00d8 45050000 		.word	1349
 2157 00dc 46050000 		.word	1350
 2158 00e0 51050000 		.word	1361
 2160              		.section	.text.lr1mac_core_payload_send_at_time,"ax",%progbits
 2161              		.align	1
 2162              		.global	lr1mac_core_payload_send_at_time
 2163              		.syntax unified
 2164              		.code	16
 2165              		.thumb_func
 2167              	lr1mac_core_payload_send_at_time:
 2168              		@ args = 12, pretend = 0, frame = 0
 2169              		@ frame_needed = 0, uses_anonymous_args = 0
 2170 0000 7FB5     		push	{r0, r1, r2, r3, r4, r5, r6, lr}
 2171 0002 0400     		movs	r4, r0
 2172 0004 09AD     		add	r5, sp, #36
 2173 0006 08A8     		add	r0, sp, #32
 2174 0008 0078     		ldrb	r0, [r0]
 2175 000a 2D78     		ldrb	r5, [r5]
 2176 000c 0A9E     		ldr	r6, [sp, #40]
 2177 000e 0090     		str	r0, [sp]
 2178 0010 0296     		str	r6, [sp, #8]
 2179 0012 2000     		movs	r0, r4
 2180 0014 0195     		str	r5, [sp, #4]
 2181 0016 FFF7FEFF 		bl	lr1mac_core_payload_send
 2182 001a 0028     		cmp	r0, #0
 2183 001c 05D1     		bne	.L199
ARM GAS  /tmp/ccXGECJv.s 			page 41


 2184 001e A322     		movs	r2, #163
 2185 0020 0123     		movs	r3, #1
 2186 0022 D200     		lsls	r2, r2, #3
 2187 0024 A354     		strb	r3, [r4, r2]
 2188 0026 5234     		adds	r4, r4, #82
 2189 0028 2370     		strb	r3, [r4]
 2190              	.L199:
 2191 002a 04B0     		add	sp, sp, #16
 2192              		@ sp needed
 2193 002c 70BD     		pop	{r4, r5, r6, pc}
 2195              		.section	.text.lr1mac_core_rx_ack_bit_get,"ax",%progbits
 2196              		.align	1
 2197              		.global	lr1mac_core_rx_ack_bit_get
 2198              		.syntax unified
 2199              		.code	16
 2200              		.thumb_func
 2202              	lr1mac_core_rx_ack_bit_get:
 2203              		@ args = 0, pretend = 0, frame = 0
 2204              		@ frame_needed = 0, uses_anonymous_args = 0
 2205              		@ link register save eliminated.
 2206 0000 FE23     		movs	r3, #254
 2207              		@ sp needed
 2208 0002 FF33     		adds	r3, r3, #255
 2209 0004 C05C     		ldrb	r0, [r0, r3]
 2210 0006 7047     		bx	lr
 2212              		.section	.text.lr1mac_core_rx_fpending_bit_get,"ax",%progbits
 2213              		.align	1
 2214              		.global	lr1mac_core_rx_fpending_bit_get
 2215              		.syntax unified
 2216              		.code	16
 2217              		.thumb_func
 2219              	lr1mac_core_rx_fpending_bit_get:
 2220              		@ args = 0, pretend = 0, frame = 0
 2221              		@ frame_needed = 0, uses_anonymous_args = 0
 2222              		@ link register save eliminated.
 2223 0000 FF23     		movs	r3, #255
 2224              		@ sp needed
 2225 0002 5B00     		lsls	r3, r3, #1
 2226 0004 C05C     		ldrb	r0, [r0, r3]
 2227 0006 7047     		bx	lr
 2229              		.section	.text.lr1mac_core_get_region,"ax",%progbits
 2230              		.align	1
 2231              		.global	lr1mac_core_get_region
 2232              		.syntax unified
 2233              		.code	16
 2234              		.thumb_func
 2236              	lr1mac_core_get_region:
 2237              		@ args = 0, pretend = 0, frame = 0
 2238              		@ frame_needed = 0, uses_anonymous_args = 0
 2239              		@ link register save eliminated.
 2240 0000 836B     		ldr	r3, [r0, #56]
 2241              		@ sp needed
 2242 0002 1878     		ldrb	r0, [r3]
 2243 0004 7047     		bx	lr
 2245              		.section	.text.lr1mac_core_set_region,"ax",%progbits
 2246              		.align	1
 2247              		.global	lr1mac_core_set_region
ARM GAS  /tmp/ccXGECJv.s 			page 42


 2248              		.syntax unified
 2249              		.code	16
 2250              		.thumb_func
 2252              	lr1mac_core_set_region:
 2253              		@ args = 0, pretend = 0, frame = 0
 2254              		@ frame_needed = 0, uses_anonymous_args = 0
 2255 0000 70B5     		push	{r4, r5, r6, lr}
 2256 0002 0500     		movs	r5, r0
 2257 0004 0800     		movs	r0, r1
 2258 0006 0E00     		movs	r6, r1
 2259 0008 FFF7FEFF 		bl	smtc_real_is_supported_region
 2260 000c 041E     		subs	r4, r0, #0
 2261 000e 0FD1     		bne	.L205
 2262 0010 AB6B     		ldr	r3, [r5, #56]
 2263 0012 2800     		movs	r0, r5
 2264 0014 1E70     		strb	r6, [r3]
 2265 0016 FFF7FEFF 		bl	lr1mac_core_context_save
 2266 001a 2800     		movs	r0, r5
 2267 001c FFF7FEFF 		bl	smtc_real_config
 2268 0020 2800     		movs	r0, r5
 2269 0022 FFF7FEFF 		bl	smtc_real_init
 2270 0026 9523     		movs	r3, #149
 2271 0028 2000     		movs	r0, r4
 2272 002a DB00     		lsls	r3, r3, #3
 2273 002c EC50     		str	r4, [r5, r3]
 2274              	.L204:
 2275              		@ sp needed
 2276 002e 70BD     		pop	{r4, r5, r6, pc}
 2277              	.L205:
 2278 0030 0120     		movs	r0, #1
 2279 0032 4042     		rsbs	r0, r0, #0
 2280 0034 FBE7     		b	.L204
 2282              		.section	.text.lr1mac_core_set_no_rx_packet_threshold,"ax",%progbits
 2283              		.align	1
 2284              		.global	lr1mac_core_set_no_rx_packet_threshold
 2285              		.syntax unified
 2286              		.code	16
 2287              		.thumb_func
 2289              	lr1mac_core_set_no_rx_packet_threshold:
 2290              		@ args = 0, pretend = 0, frame = 0
 2291              		@ frame_needed = 0, uses_anonymous_args = 0
 2292              		@ link register save eliminated.
 2293 0000 014B     		ldr	r3, .L207
 2294              		@ sp needed
 2295 0002 C152     		strh	r1, [r0, r3]
 2296 0004 7047     		bx	lr
 2297              	.L208:
 2298 0006 C046     		.align	2
 2299              	.L207:
 2300 0008 9C040000 		.word	1180
 2302              		.section	.text.lr1mac_core_get_no_rx_packet_threshold,"ax",%progbits
 2303              		.align	1
 2304              		.global	lr1mac_core_get_no_rx_packet_threshold
 2305              		.syntax unified
 2306              		.code	16
 2307              		.thumb_func
 2309              	lr1mac_core_get_no_rx_packet_threshold:
ARM GAS  /tmp/ccXGECJv.s 			page 43


 2310              		@ args = 0, pretend = 0, frame = 0
 2311              		@ frame_needed = 0, uses_anonymous_args = 0
 2312              		@ link register save eliminated.
 2313 0000 014B     		ldr	r3, .L210
 2314              		@ sp needed
 2315 0002 C05A     		ldrh	r0, [r0, r3]
 2316 0004 7047     		bx	lr
 2317              	.L211:
 2318 0006 C046     		.align	2
 2319              	.L210:
 2320 0008 9C040000 		.word	1180
 2322              		.section	.text.lr1mac_core_get_current_adr_ack_cnt,"ax",%progbits
 2323              		.align	1
 2324              		.global	lr1mac_core_get_current_adr_ack_cnt
 2325              		.syntax unified
 2326              		.code	16
 2327              		.thumb_func
 2329              	lr1mac_core_get_current_adr_ack_cnt:
 2330              		@ args = 0, pretend = 0, frame = 0
 2331              		@ frame_needed = 0, uses_anonymous_args = 0
 2332              		@ link register save eliminated.
 2333 0000 9123     		movs	r3, #145
 2334              		@ sp needed
 2335 0002 DB00     		lsls	r3, r3, #3
 2336 0004 C058     		ldr	r0, [r0, r3]
 2337 0006 80B2     		uxth	r0, r0
 2338 0008 7047     		bx	lr
 2340              		.section	.text.lr1mac_core_get_current_no_rx_packet_in_mobile_mode,"ax",%progbits
 2341              		.align	1
 2342              		.global	lr1mac_core_get_current_no_rx_packet_in_mobile_mode
 2343              		.syntax unified
 2344              		.code	16
 2345              		.thumb_func
 2347              	lr1mac_core_get_current_no_rx_packet_in_mobile_mode:
 2348              		@ args = 0, pretend = 0, frame = 0
 2349              		@ frame_needed = 0, uses_anonymous_args = 0
 2350              		@ link register save eliminated.
 2351 0000 9423     		movs	r3, #148
 2352              		@ sp needed
 2353 0002 DB00     		lsls	r3, r3, #3
 2354 0004 C05A     		ldrh	r0, [r0, r3]
 2355 0006 7047     		bx	lr
 2357              		.section	.text.lr1mac_core_reset_no_rx_packet_in_mobile_mode_cnt,"ax",%progbits
 2358              		.align	1
 2359              		.global	lr1mac_core_reset_no_rx_packet_in_mobile_mode_cnt
 2360              		.syntax unified
 2361              		.code	16
 2362              		.thumb_func
 2364              	lr1mac_core_reset_no_rx_packet_in_mobile_mode_cnt:
 2365              		@ args = 0, pretend = 0, frame = 0
 2366              		@ frame_needed = 0, uses_anonymous_args = 0
 2367              		@ link register save eliminated.
 2368 0000 9423     		movs	r3, #148
 2369              		@ sp needed
 2370 0002 0022     		movs	r2, #0
 2371 0004 DB00     		lsls	r3, r3, #3
 2372 0006 C252     		strh	r2, [r0, r3]
ARM GAS  /tmp/ccXGECJv.s 			page 44


 2373 0008 7047     		bx	lr
 2375              		.section	.text.lr1mac_core_get_current_no_rx_packet_cnt,"ax",%progbits
 2376              		.align	1
 2377              		.global	lr1mac_core_get_current_no_rx_packet_cnt
 2378              		.syntax unified
 2379              		.code	16
 2380              		.thumb_func
 2382              	lr1mac_core_get_current_no_rx_packet_cnt:
 2383              		@ args = 0, pretend = 0, frame = 0
 2384              		@ frame_needed = 0, uses_anonymous_args = 0
 2385              		@ link register save eliminated.
 2386 0000 014B     		ldr	r3, .L216
 2387              		@ sp needed
 2388 0002 C05A     		ldrh	r0, [r0, r3]
 2389 0004 7047     		bx	lr
 2390              	.L217:
 2391 0006 C046     		.align	2
 2392              	.L216:
 2393 0008 9E040000 		.word	1182
 2395              		.section	.text.lr1mac_core_available_link_adr_get,"ax",%progbits
 2396              		.align	1
 2397              		.global	lr1mac_core_available_link_adr_get
 2398              		.syntax unified
 2399              		.code	16
 2400              		.thumb_func
 2402              	lr1mac_core_available_link_adr_get:
 2403              		@ args = 0, pretend = 0, frame = 0
 2404              		@ frame_needed = 0, uses_anonymous_args = 0
 2405              		@ link register save eliminated.
 2406 0000 034A     		ldr	r2, .L223
 2407 0002 0300     		movs	r3, r0
 2408 0004 805C     		ldrb	r0, [r0, r2]
 2409 0006 0028     		cmp	r0, #0
 2410 0008 01D0     		beq	.L219
 2411 000a 0021     		movs	r1, #0
 2412 000c 9954     		strb	r1, [r3, r2]
 2413              	.L219:
 2414              		@ sp needed
 2415 000e 7047     		bx	lr
 2416              	.L224:
 2417              		.align	2
 2418              	.L223:
 2419 0010 19050000 		.word	1305
 2421              		.section	.text.lr1mac_core_certification_set,"ax",%progbits
 2422              		.align	1
 2423              		.global	lr1mac_core_certification_set
 2424              		.syntax unified
 2425              		.code	16
 2426              		.thumb_func
 2428              	lr1mac_core_certification_set:
 2429              		@ args = 0, pretend = 0, frame = 0
 2430              		@ frame_needed = 0, uses_anonymous_args = 0
 2431 0000 10B5     		push	{r4, lr}
 2432 0002 024B     		ldr	r3, .L226
 2433              		@ sp needed
 2434 0004 C154     		strb	r1, [r0, r3]
 2435 0006 FFF7FEFF 		bl	lr1mac_core_context_save
ARM GAS  /tmp/ccXGECJv.s 			page 45


 2436 000a 10BD     		pop	{r4, pc}
 2437              	.L227:
 2438              		.align	2
 2439              	.L226:
 2440 000c 1A050000 		.word	1306
 2442              		.section	.text.lr1mac_core_certification_get,"ax",%progbits
 2443              		.align	1
 2444              		.global	lr1mac_core_certification_get
 2445              		.syntax unified
 2446              		.code	16
 2447              		.thumb_func
 2449              	lr1mac_core_certification_get:
 2450              		@ args = 0, pretend = 0, frame = 0
 2451              		@ frame_needed = 0, uses_anonymous_args = 0
 2452              		@ link register save eliminated.
 2453 0000 014B     		ldr	r3, .L229
 2454              		@ sp needed
 2455 0002 C05C     		ldrb	r0, [r0, r3]
 2456 0004 7047     		bx	lr
 2457              	.L230:
 2458 0006 C046     		.align	2
 2459              	.L229:
 2460 0008 1A050000 		.word	1306
 2462              		.section	.text.lr1mac_core_get_lorawan_version,"ax",%progbits
 2463              		.align	1
 2464              		.global	lr1mac_core_get_lorawan_version
 2465              		.syntax unified
 2466              		.code	16
 2467              		.thumb_func
 2469              	lr1mac_core_get_lorawan_version:
 2470              		@ args = 0, pretend = 0, frame = 8
 2471              		@ frame_needed = 0, uses_anonymous_args = 0
 2472              		@ link register save eliminated.
 2473 0000 0148     		ldr	r0, .L232
 2474 0002 82B0     		sub	sp, sp, #8
 2475 0004 02B0     		add	sp, sp, #8
 2476              		@ sp needed
 2477 0006 7047     		bx	lr
 2478              	.L233:
 2479              		.align	2
 2480              	.L232:
 2481 0008 01000401 		.word	17039361
 2483              		.section	.text.lr1mac_core_is_time_valid,"ax",%progbits
 2484              		.align	1
 2485              		.global	lr1mac_core_is_time_valid
 2486              		.syntax unified
 2487              		.code	16
 2488              		.thumb_func
 2490              	lr1mac_core_is_time_valid:
 2491              		@ args = 0, pretend = 0, frame = 0
 2492              		@ frame_needed = 0, uses_anonymous_args = 0
 2493 0000 10B5     		push	{r4, lr}
 2494 0002 0400     		movs	r4, r0
 2495 0004 FFF7FEFF 		bl	smtc_modem_hal_get_time_in_s
 2496 0008 0300     		movs	r3, r0
 2497 000a 0020     		movs	r0, #0
 2498 000c 054A     		ldr	r2, .L238
ARM GAS  /tmp/ccXGECJv.s 			page 46


 2499 000e A258     		ldr	r2, [r4, r2]
 2500 0010 8242     		cmp	r2, r0
 2501 0012 05D0     		beq	.L235
 2502 0014 A821     		movs	r1, #168
 2503 0016 C900     		lsls	r1, r1, #3
 2504 0018 6158     		ldr	r1, [r4, r1]
 2505 001a 5218     		adds	r2, r2, r1
 2506 001c 9B1A     		subs	r3, r3, r2
 2507 001e D80F     		lsrs	r0, r3, #31
 2508              	.L235:
 2509              		@ sp needed
 2510 0020 10BD     		pop	{r4, pc}
 2511              	.L239:
 2512 0022 C046     		.align	2
 2513              	.L238:
 2514 0024 34050000 		.word	1332
 2516              		.global	__aeabi_uidiv
 2517              		.global	__aeabi_uidivmod
 2518              		.section	.text.lr1mac_core_convert_rtc_to_gps_epoch_time,"ax",%progbits
 2519              		.align	1
 2520              		.global	lr1mac_core_convert_rtc_to_gps_epoch_time
 2521              		.syntax unified
 2522              		.code	16
 2523              		.thumb_func
 2525              	lr1mac_core_convert_rtc_to_gps_epoch_time:
 2526              		@ args = 0, pretend = 0, frame = 0
 2527              		@ frame_needed = 0, uses_anonymous_args = 0
 2528 0000 F8B5     		push	{r3, r4, r5, r6, r7, lr}
 2529 0002 1E00     		movs	r6, r3
 2530              		@ sp needed
 2531 0004 A523     		movs	r3, #165
 2532 0006 DB00     		lsls	r3, r3, #3
 2533 0008 C558     		ldr	r5, [r0, r3]
 2534 000a 0C4B     		ldr	r3, .L241
 2535 000c 4D19     		adds	r5, r1, r5
 2536 000e FA21     		movs	r1, #250
 2537 0010 C358     		ldr	r3, [r0, r3]
 2538 0012 0400     		movs	r4, r0
 2539 0014 ED1A     		subs	r5, r5, r3
 2540 0016 2800     		movs	r0, r5
 2541 0018 8900     		lsls	r1, r1, #2
 2542 001a 1700     		movs	r7, r2
 2543 001c FFF7FEFF 		bl	__aeabi_uidiv
 2544 0020 FA21     		movs	r1, #250
 2545 0022 074B     		ldr	r3, .L241+4
 2546 0024 8900     		lsls	r1, r1, #2
 2547 0026 E358     		ldr	r3, [r4, r3]
 2548 0028 1B18     		adds	r3, r3, r0
 2549 002a 3B60     		str	r3, [r7]
 2550 002c 2800     		movs	r0, r5
 2551 002e FFF7FEFF 		bl	__aeabi_uidivmod
 2552 0032 2000     		movs	r0, r4
 2553 0034 3160     		str	r1, [r6]
 2554 0036 FFF7FEFF 		bl	lr1mac_core_is_time_valid
 2555 003a F8BD     		pop	{r3, r4, r5, r6, r7, pc}
 2556              	.L242:
 2557              		.align	2
ARM GAS  /tmp/ccXGECJv.s 			page 47


 2558              	.L241:
 2559 003c 2C050000 		.word	1324
 2560 0040 24050000 		.word	1316
 2562              		.section	.text.lr1mac_core_get_timestamp_last_device_time_ans_s,"ax",%progbits
 2563              		.align	1
 2564              		.global	lr1mac_core_get_timestamp_last_device_time_ans_s
 2565              		.syntax unified
 2566              		.code	16
 2567              		.thumb_func
 2569              	lr1mac_core_get_timestamp_last_device_time_ans_s:
 2570              		@ args = 0, pretend = 0, frame = 0
 2571              		@ frame_needed = 0, uses_anonymous_args = 0
 2572              		@ link register save eliminated.
 2573 0000 014B     		ldr	r3, .L244
 2574              		@ sp needed
 2575 0002 C058     		ldr	r0, [r0, r3]
 2576 0004 7047     		bx	lr
 2577              	.L245:
 2578 0006 C046     		.align	2
 2579              	.L244:
 2580 0008 34050000 		.word	1332
 2582              		.section	.text.lr1mac_core_get_time_left_connection_lost,"ax",%progbits
 2583              		.align	1
 2584              		.global	lr1mac_core_get_time_left_connection_lost
 2585              		.syntax unified
 2586              		.code	16
 2587              		.thumb_func
 2589              	lr1mac_core_get_time_left_connection_lost:
 2590              		@ args = 0, pretend = 0, frame = 0
 2591              		@ frame_needed = 0, uses_anonymous_args = 0
 2592 0000 10B5     		push	{r4, lr}
 2593 0002 0400     		movs	r4, r0
 2594 0004 FFF7FEFF 		bl	smtc_modem_hal_get_time_in_s
 2595 0008 A823     		movs	r3, #168
 2596 000a DB00     		lsls	r3, r3, #3
 2597 000c 0200     		movs	r2, r0
 2598 000e E058     		ldr	r0, [r4, r3]
 2599 0010 074B     		ldr	r3, .L252
 2600 0012 E358     		ldr	r3, [r4, r3]
 2601 0014 002B     		cmp	r3, #0
 2602 0016 07D0     		beq	.L246
 2603 0018 D11A     		subs	r1, r2, r3
 2604 001a 8842     		cmp	r0, r1
 2605 001c 04D3     		bcc	.L246
 2606 001e 1B18     		adds	r3, r3, r0
 2607 0020 9B1A     		subs	r3, r3, r2
 2608 0022 9842     		cmp	r0, r3
 2609 0024 01D3     		bcc	.L248
 2610 0026 1800     		movs	r0, r3
 2611              	.L246:
 2612              		@ sp needed
 2613 0028 10BD     		pop	{r4, pc}
 2614              	.L248:
 2615 002a E120     		movs	r0, #225
 2616 002c 0001     		lsls	r0, r0, #4
 2617 002e FBE7     		b	.L246
 2618              	.L253:
ARM GAS  /tmp/ccXGECJv.s 			page 48


 2619              		.align	2
 2620              	.L252:
 2621 0030 34050000 		.word	1332
 2623              		.section	.text.lr1mac_core_set_device_time_callback,"ax",%progbits
 2624              		.align	1
 2625              		.global	lr1mac_core_set_device_time_callback
 2626              		.syntax unified
 2627              		.code	16
 2628              		.thumb_func
 2630              	lr1mac_core_set_device_time_callback:
 2631              		@ args = 0, pretend = 0, frame = 0
 2632              		@ frame_needed = 0, uses_anonymous_args = 0
 2633              		@ link register save eliminated.
 2634 0000 0029     		cmp	r1, #0
 2635 0002 04D0     		beq	.L254
 2636 0004 A723     		movs	r3, #167
 2637 0006 DB00     		lsls	r3, r3, #3
 2638 0008 C150     		str	r1, [r0, r3]
 2639 000a 014B     		ldr	r3, .L259
 2640 000c C250     		str	r2, [r0, r3]
 2641              	.L254:
 2642              		@ sp needed
 2643 000e 7047     		bx	lr
 2644              	.L260:
 2645              		.align	2
 2646              	.L259:
 2647 0010 3C050000 		.word	1340
 2649              		.section	.text.lr1_mac_core_set_device_time_invalid_delay_s,"ax",%progbits
 2650              		.align	1
 2651              		.global	lr1_mac_core_set_device_time_invalid_delay_s
 2652              		.syntax unified
 2653              		.code	16
 2654              		.thumb_func
 2656              	lr1_mac_core_set_device_time_invalid_delay_s:
 2657              		@ args = 0, pretend = 0, frame = 0
 2658              		@ frame_needed = 0, uses_anonymous_args = 0
 2659              		@ link register save eliminated.
 2660 0000 054B     		ldr	r3, .L264
 2661 0002 9942     		cmp	r1, r3
 2662 0004 04D8     		bhi	.L263
 2663 0006 A823     		movs	r3, #168
 2664 0008 DB00     		lsls	r3, r3, #3
 2665 000a C150     		str	r1, [r0, r3]
 2666 000c 0020     		movs	r0, #0
 2667              	.L262:
 2668              		@ sp needed
 2669 000e 7047     		bx	lr
 2670              	.L263:
 2671 0010 0120     		movs	r0, #1
 2672 0012 4042     		rsbs	r0, r0, #0
 2673 0014 FBE7     		b	.L262
 2674              	.L265:
 2675 0016 C046     		.align	2
 2676              	.L264:
 2677 0018 80994000 		.word	4233600
 2679              		.section	.text.lr1_mac_core_get_device_time_invalid_delay_s,"ax",%progbits
 2680              		.align	1
ARM GAS  /tmp/ccXGECJv.s 			page 49


 2681              		.global	lr1_mac_core_get_device_time_invalid_delay_s
 2682              		.syntax unified
 2683              		.code	16
 2684              		.thumb_func
 2686              	lr1_mac_core_get_device_time_invalid_delay_s:
 2687              		@ args = 0, pretend = 0, frame = 0
 2688              		@ frame_needed = 0, uses_anonymous_args = 0
 2689              		@ link register save eliminated.
 2690 0000 A823     		movs	r3, #168
 2691              		@ sp needed
 2692 0002 DB00     		lsls	r3, r3, #3
 2693 0004 C058     		ldr	r0, [r0, r3]
 2694 0006 7047     		bx	lr
 2696              		.section	.text.lr1mac_core_set_ping_slot_periodicity,"ax",%progbits
 2697              		.align	1
 2698              		.global	lr1mac_core_set_ping_slot_periodicity
 2699              		.syntax unified
 2700              		.code	16
 2701              		.thumb_func
 2703              	lr1mac_core_set_ping_slot_periodicity:
 2704              		@ args = 0, pretend = 0, frame = 0
 2705              		@ frame_needed = 0, uses_anonymous_args = 0
 2706              		@ link register save eliminated.
 2707 0000 0729     		cmp	r1, #7
 2708 0002 08D8     		bhi	.L270
 2709 0004 054B     		ldr	r3, .L271
 2710 0006 C35C     		ldrb	r3, [r0, r3]
 2711 0008 013B     		subs	r3, r3, #1
 2712 000a 012B     		cmp	r3, #1
 2713 000c 03D9     		bls	.L270
 2714 000e 044B     		ldr	r3, .L271+4
 2715 0010 C154     		strb	r1, [r0, r3]
 2716 0012 0020     		movs	r0, #0
 2717              	.L268:
 2718              		@ sp needed
 2719 0014 7047     		bx	lr
 2720              	.L270:
 2721 0016 0120     		movs	r0, #1
 2722 0018 4042     		rsbs	r0, r0, #0
 2723 001a FBE7     		b	.L268
 2724              	.L272:
 2725              		.align	2
 2726              	.L271:
 2727 001c 46050000 		.word	1350
 2728 0020 51050000 		.word	1361
 2730              		.section	.text.lr1mac_core_get_ping_slot_periodicity,"ax",%progbits
 2731              		.align	1
 2732              		.global	lr1mac_core_get_ping_slot_periodicity
 2733              		.syntax unified
 2734              		.code	16
 2735              		.thumb_func
 2737              	lr1mac_core_get_ping_slot_periodicity:
 2738              		@ args = 0, pretend = 0, frame = 0
 2739              		@ frame_needed = 0, uses_anonymous_args = 0
 2740              		@ link register save eliminated.
 2741 0000 014B     		ldr	r3, .L274
 2742              		@ sp needed
ARM GAS  /tmp/ccXGECJv.s 			page 50


 2743 0002 C05C     		ldrb	r0, [r0, r3]
 2744 0004 7047     		bx	lr
 2745              	.L275:
 2746 0006 C046     		.align	2
 2747              	.L274:
 2748 0008 51050000 		.word	1361
 2750              		.section	.text.lr1mac_core_get_class_b_status,"ax",%progbits
 2751              		.align	1
 2752              		.global	lr1mac_core_get_class_b_status
 2753              		.syntax unified
 2754              		.code	16
 2755              		.thumb_func
 2757              	lr1mac_core_get_class_b_status:
 2758              		@ args = 0, pretend = 0, frame = 0
 2759              		@ frame_needed = 0, uses_anonymous_args = 0
 2760              		@ link register save eliminated.
 2761 0000 7730     		adds	r0, r0, #119
 2762 0002 0078     		ldrb	r0, [r0]
 2763              		@ sp needed
 2764 0004 431E     		subs	r3, r0, #1
 2765 0006 9841     		sbcs	r0, r0, r3
 2766 0008 C0B2     		uxtb	r0, r0
 2767 000a 7047     		bx	lr
 2769              		.section	.text.lr1_mac_core_get_link_check_ans,"ax",%progbits
 2770              		.align	1
 2771              		.global	lr1_mac_core_get_link_check_ans
 2772              		.syntax unified
 2773              		.code	16
 2774              		.thumb_func
 2776              	lr1_mac_core_get_link_check_ans:
 2777              		@ args = 0, pretend = 0, frame = 0
 2778              		@ frame_needed = 0, uses_anonymous_args = 0
 2779              		@ link register save eliminated.
 2780 0000 084B     		ldr	r3, .L280
 2781 0002 C35C     		ldrb	r3, [r0, r3]
 2782 0004 032B     		cmp	r3, #3
 2783 0006 08D1     		bne	.L278
 2784 0008 A423     		movs	r3, #164
 2785 000a DB00     		lsls	r3, r3, #3
 2786 000c C35C     		ldrb	r3, [r0, r3]
 2787 000e 0B70     		strb	r3, [r1]
 2788 0010 054B     		ldr	r3, .L280+4
 2789 0012 C35C     		ldrb	r3, [r0, r3]
 2790 0014 0020     		movs	r0, #0
 2791              	.L279:
 2792              		@ sp needed
 2793 0016 1370     		strb	r3, [r2]
 2794 0018 7047     		bx	lr
 2795              	.L278:
 2796 001a 0023     		movs	r3, #0
 2797 001c 0120     		movs	r0, #1
 2798 001e 0B70     		strb	r3, [r1]
 2799 0020 4042     		rsbs	r0, r0, #0
 2800 0022 F8E7     		b	.L279
 2801              	.L281:
 2802              		.align	2
 2803              	.L280:
ARM GAS  /tmp/ccXGECJv.s 			page 51


 2804 0024 44050000 		.word	1348
 2805 0028 21050000 		.word	1313
 2807              		.section	.text.lr1_mac_core_get_device_time_req_status,"ax",%progbits
 2808              		.align	1
 2809              		.global	lr1_mac_core_get_device_time_req_status
 2810              		.syntax unified
 2811              		.code	16
 2812              		.thumb_func
 2814              	lr1_mac_core_get_device_time_req_status:
 2815              		@ args = 0, pretend = 0, frame = 0
 2816              		@ frame_needed = 0, uses_anonymous_args = 0
 2817              		@ link register save eliminated.
 2818 0000 034B     		ldr	r3, .L283
 2819              		@ sp needed
 2820 0002 C05C     		ldrb	r0, [r0, r3]
 2821 0004 0338     		subs	r0, r0, #3
 2822 0006 431E     		subs	r3, r0, #1
 2823 0008 9841     		sbcs	r0, r0, r3
 2824 000a 4042     		rsbs	r0, r0, #0
 2825 000c 7047     		bx	lr
 2826              	.L284:
 2827 000e C046     		.align	2
 2828              	.L283:
 2829 0010 45050000 		.word	1349
 2831              		.section	.text.lr1_mac_core_get_ping_slot_info_req_status,"ax",%progbits
 2832              		.align	1
 2833              		.global	lr1_mac_core_get_ping_slot_info_req_status
 2834              		.syntax unified
 2835              		.code	16
 2836              		.thumb_func
 2838              	lr1_mac_core_get_ping_slot_info_req_status:
 2839              		@ args = 0, pretend = 0, frame = 0
 2840              		@ frame_needed = 0, uses_anonymous_args = 0
 2841              		@ link register save eliminated.
 2842 0000 034B     		ldr	r3, .L286
 2843              		@ sp needed
 2844 0002 C05C     		ldrb	r0, [r0, r3]
 2845 0004 0338     		subs	r0, r0, #3
 2846 0006 431E     		subs	r3, r0, #1
 2847 0008 9841     		sbcs	r0, r0, r3
 2848 000a 4042     		rsbs	r0, r0, #0
 2849 000c 7047     		bx	lr
 2850              	.L287:
 2851 000e C046     		.align	2
 2852              	.L286:
 2853 0010 46050000 		.word	1350
 2855              		.section	.text.lr1mac_core_get_status_push_network_downlink_to_user,"ax",%progbits
 2856              		.align	1
 2857              		.global	lr1mac_core_get_status_push_network_downlink_to_user
 2858              		.syntax unified
 2859              		.code	16
 2860              		.thumb_func
 2862              	lr1mac_core_get_status_push_network_downlink_to_user:
 2863              		@ args = 0, pretend = 0, frame = 0
 2864              		@ frame_needed = 0, uses_anonymous_args = 0
 2865              		@ link register save eliminated.
 2866 0000 014B     		ldr	r3, .L289
ARM GAS  /tmp/ccXGECJv.s 			page 52


 2867              		@ sp needed
 2868 0002 C05C     		ldrb	r0, [r0, r3]
 2869 0004 7047     		bx	lr
 2870              	.L290:
 2871 0006 C046     		.align	2
 2872              	.L289:
 2873 0008 53050000 		.word	1363
 2875              		.section	.text.lr1mac_core_set_status_push_network_downlink_to_user,"ax",%progbits
 2876              		.align	1
 2877              		.global	lr1mac_core_set_status_push_network_downlink_to_user
 2878              		.syntax unified
 2879              		.code	16
 2880              		.thumb_func
 2882              	lr1mac_core_set_status_push_network_downlink_to_user:
 2883              		@ args = 0, pretend = 0, frame = 0
 2884              		@ frame_needed = 0, uses_anonymous_args = 0
 2885              		@ link register save eliminated.
 2886 0000 014B     		ldr	r3, .L292
 2887              		@ sp needed
 2888 0002 C154     		strb	r1, [r0, r3]
 2889 0004 7047     		bx	lr
 2890              	.L293:
 2891 0006 C046     		.align	2
 2892              	.L292:
 2893 0008 53050000 		.word	1363
 2895              		.section	.text.lr1mac_core_set_adr_ack_limit_delay,"ax",%progbits
 2896              		.align	1
 2897              		.global	lr1mac_core_set_adr_ack_limit_delay
 2898              		.syntax unified
 2899              		.code	16
 2900              		.thumb_func
 2902              	lr1mac_core_set_adr_ack_limit_delay:
 2903              		@ args = 0, pretend = 0, frame = 0
 2904              		@ frame_needed = 0, uses_anonymous_args = 0
 2905              		@ link register save eliminated.
 2906 0000 0300     		movs	r3, r0
 2907 0002 881E     		subs	r0, r1, #2
 2908 0004 7D28     		cmp	r0, #125
 2909 0006 0BD8     		bhi	.L297
 2910 0008 901E     		subs	r0, r2, #2
 2911 000a 7D28     		cmp	r0, #125
 2912 000c 08D8     		bhi	.L297
 2913 000e 0648     		ldr	r0, .L298
 2914 0010 1954     		strb	r1, [r3, r0]
 2915 0012 0649     		ldr	r1, .L298+4
 2916 0014 0020     		movs	r0, #0
 2917 0016 5A54     		strb	r2, [r3, r1]
 2918 0018 9122     		movs	r2, #145
 2919 001a D200     		lsls	r2, r2, #3
 2920 001c 9850     		str	r0, [r3, r2]
 2921              	.L295:
 2922              		@ sp needed
 2923 001e 7047     		bx	lr
 2924              	.L297:
 2925 0020 0120     		movs	r0, #1
 2926 0022 4042     		rsbs	r0, r0, #0
 2927 0024 FBE7     		b	.L295
ARM GAS  /tmp/ccXGECJv.s 			page 53


 2928              	.L299:
 2929 0026 C046     		.align	2
 2930              	.L298:
 2931 0028 8D040000 		.word	1165
 2932 002c 8C040000 		.word	1164
 2934              		.section	.text.lr1mac_core_get_adr_ack_limit_delay,"ax",%progbits
 2935              		.align	1
 2936              		.global	lr1mac_core_get_adr_ack_limit_delay
 2937              		.syntax unified
 2938              		.code	16
 2939              		.thumb_func
 2941              	lr1mac_core_get_adr_ack_limit_delay:
 2942              		@ args = 0, pretend = 0, frame = 0
 2943              		@ frame_needed = 0, uses_anonymous_args = 0
 2944              		@ link register save eliminated.
 2945 0000 034B     		ldr	r3, .L301
 2946              		@ sp needed
 2947 0002 C35C     		ldrb	r3, [r0, r3]
 2948 0004 0B70     		strb	r3, [r1]
 2949 0006 034B     		ldr	r3, .L301+4
 2950 0008 C35C     		ldrb	r3, [r0, r3]
 2951 000a 1370     		strb	r3, [r2]
 2952 000c 7047     		bx	lr
 2953              	.L302:
 2954 000e C046     		.align	2
 2955              	.L301:
 2956 0010 8D040000 		.word	1165
 2957 0014 8C040000 		.word	1164
 2959              		.section	.text.lr1mac_core_abort,"ax",%progbits
 2960              		.align	1
 2961              		.global	lr1mac_core_abort
 2962              		.syntax unified
 2963              		.code	16
 2964              		.thumb_func
 2966              	lr1mac_core_abort:
 2967              		@ args = 0, pretend = 0, frame = 0
 2968              		@ frame_needed = 0, uses_anonymous_args = 0
 2969 0000 0023     		movs	r3, #0
 2970 0002 0A4A     		ldr	r2, .L304
 2971 0004 10B5     		push	{r4, lr}
 2972 0006 8354     		strb	r3, [r0, r2]
 2973 0008 A222     		movs	r2, #162
 2974              		@ sp needed
 2975 000a D200     		lsls	r2, r2, #3
 2976 000c 8354     		strb	r3, [r0, r2]
 2977 000e 084A     		ldr	r2, .L304+4
 2978 0010 8354     		strb	r3, [r0, r2]
 2979 0012 0300     		movs	r3, r0
 2980 0014 0122     		movs	r2, #1
 2981 0016 5233     		adds	r3, r3, #82
 2982 0018 1A70     		strb	r2, [r3]
 2983 001a 9823     		movs	r3, #152
 2984 001c DB00     		lsls	r3, r3, #3
 2985 001e C15C     		ldrb	r1, [r0, r3]
 2986 0020 044B     		ldr	r3, .L304+8
 2987 0022 C058     		ldr	r0, [r0, r3]
 2988 0024 FFF7FEFF 		bl	rp_task_abort
ARM GAS  /tmp/ccXGECJv.s 			page 54


 2989 0028 10BD     		pop	{r4, pc}
 2990              	.L305:
 2991 002a C046     		.align	2
 2992              	.L304:
 2993 002c 11030000 		.word	785
 2994 0030 D9040000 		.word	1241
 2995 0034 BC040000 		.word	1212
 2997              		.section	.text.lr1mac_core_join_status_clear,"ax",%progbits
 2998              		.align	1
 2999              		.global	lr1mac_core_join_status_clear
 3000              		.syntax unified
 3001              		.code	16
 3002              		.thumb_func
 3004              	lr1mac_core_join_status_clear:
 3005              		@ args = 0, pretend = 0, frame = 0
 3006              		@ frame_needed = 0, uses_anonymous_args = 0
 3007 0000 70B5     		push	{r4, r5, r6, lr}
 3008 0002 0025     		movs	r5, #0
 3009              		@ sp needed
 3010 0004 0400     		movs	r4, r0
 3011 0006 054B     		ldr	r3, .L307
 3012 0008 C554     		strb	r5, [r0, r3]
 3013 000a FFF7FEFF 		bl	lr1mac_core_abort
 3014 000e 2000     		movs	r0, r4
 3015 0010 FFF7FEFF 		bl	smtc_real_init_join_snapshot_channel_mask
 3016 0014 9523     		movs	r3, #149
 3017 0016 DB00     		lsls	r3, r3, #3
 3018 0018 E550     		str	r5, [r4, r3]
 3019 001a 70BD     		pop	{r4, r5, r6, pc}
 3020              	.L308:
 3021              		.align	2
 3022              	.L307:
 3023 001c CE040000 		.word	1230
 3025              		.section	.rodata.__func__.0,"a"
 3028              	__func__.0:
 3029 0000 6C72316D 		.ascii	"lr1mac_core_process\000"
 3029      61635F63 
 3029      6F72655F 
 3029      70726F63 
 3029      65737300 
 3030              		.section	.rodata.str1.1,"aMS",%progbits,1
 3031              	.LC87:
 3032 0000 43522035 		.ascii	"CR 5/6\000"
 3032      2F3600
 3033              	.LC88:
 3034 0007 43522032 		.ascii	"CR 2/3\000"
 3034      2F3300
 3035              	.LC89:
 3036 000e 43522031 		.ascii	"CR 1/2\000"
 3036      2F3200
 3037              	.LC90:
 3038 0015 43522031 		.ascii	"CR 1/3\000"
 3038      2F3300
 3039              		.section	.rodata.smtc_name_lr_fhss_cr,"a"
 3040              		.align	2
 3043              	smtc_name_lr_fhss_cr:
 3044 0000 00000000 		.word	.LC87
ARM GAS  /tmp/ccXGECJv.s 			page 55


 3045 0004 07000000 		.word	.LC88
 3046 0008 0E000000 		.word	.LC89
 3047 000c 15000000 		.word	.LC90
 3048              		.section	.rodata.str1.1
 3049              	.LC91:
 3050 001c 42572033 		.ascii	"BW 39063\000"
 3050      39303633 
 3050      00
 3051              	.LC92:
 3052 0025 42572038 		.ascii	"BW 85938\000"
 3052      35393338 
 3052      00
 3053              	.LC93:
 3054 002e 42572031 		.ascii	"BW 136719\000"
 3054      33363731 
 3054      3900
 3055              	.LC94:
 3056 0038 42572031 		.ascii	"BW 183594\000"
 3056      38333539 
 3056      3400
 3057              	.LC95:
 3058 0042 42572033 		.ascii	"BW 335938\000"
 3058      33353933 
 3058      3800
 3059              	.LC96:
 3060 004c 42572033 		.ascii	"BW 386719\000"
 3060      38363731 
 3060      3900
 3061              	.LC97:
 3062 0056 42572037 		.ascii	"BW 722656\000"
 3062      32323635 
 3062      3600
 3063              	.LC98:
 3064 0060 42572037 		.ascii	"BW 773438\000"
 3064      37333433 
 3064      3800
 3065              	.LC99:
 3066 006a 42572031 		.ascii	"BW 1523438\000"
 3066      35323334 
 3066      333800
 3067              	.LC100:
 3068 0075 42572031 		.ascii	"BW 1574219\000"
 3068      35373432 
 3068      313900
 3069              		.section	.rodata.smtc_name_lr_fhss_bw,"a"
 3070              		.align	2
 3073              	smtc_name_lr_fhss_bw:
 3074 0000 1C000000 		.word	.LC91
 3075 0004 25000000 		.word	.LC92
 3076 0008 2E000000 		.word	.LC93
 3077 000c 38000000 		.word	.LC94
 3078 0010 42000000 		.word	.LC95
 3079 0014 4C000000 		.word	.LC96
 3080 0018 56000000 		.word	.LC97
 3081 001c 60000000 		.word	.LC98
 3082 0020 6A000000 		.word	.LC99
 3083 0024 75000000 		.word	.LC100
ARM GAS  /tmp/ccXGECJv.s 			page 56


 3084              		.section	.rodata.str1.1
 3085              	.LC101:
 3086 0080 42573030 		.ascii	"BW007\000"
 3086      3700
 3087              	.LC102:
 3088 0086 42573031 		.ascii	"BW010\000"
 3088      3000
 3089              	.LC103:
 3090 008c 42573031 		.ascii	"BW015\000"
 3090      3500
 3091              	.LC104:
 3092 0092 42573032 		.ascii	"BW020\000"
 3092      3000
 3093              	.LC105:
 3094 0098 42573033 		.ascii	"BW031\000"
 3094      3100
 3095              	.LC106:
 3096 009e 42573034 		.ascii	"BW041\000"
 3096      3100
 3097              	.LC107:
 3098 00a4 42573036 		.ascii	"BW062\000"
 3098      3200
 3099              	.LC108:
 3100 00aa 42573132 		.ascii	"BW125\000"
 3100      3500
 3101              	.LC109:
 3102 00b0 42573230 		.ascii	"BW200\000"
 3102      3000
 3103              	.LC110:
 3104 00b6 42573235 		.ascii	"BW250\000"
 3104      3000
 3105              	.LC111:
 3106 00bc 42573430 		.ascii	"BW400\000"
 3106      3000
 3107              	.LC112:
 3108 00c2 42573530 		.ascii	"BW500\000"
 3108      3000
 3109              	.LC113:
 3110 00c8 42573830 		.ascii	"BW800\000"
 3110      3000
 3111              	.LC114:
 3112 00ce 42573136 		.ascii	"BW1600\000"
 3112      303000
 3113              		.section	.rodata.smtc_name_bw,"a"
 3114              		.align	2
 3117              	smtc_name_bw:
 3118 0000 80000000 		.word	.LC101
 3119 0004 86000000 		.word	.LC102
 3120 0008 8C000000 		.word	.LC103
 3121 000c 92000000 		.word	.LC104
 3122 0010 98000000 		.word	.LC105
 3123 0014 9E000000 		.word	.LC106
 3124 0018 A4000000 		.word	.LC107
 3125 001c AA000000 		.word	.LC108
 3126 0020 B0000000 		.word	.LC109
 3127 0024 B6000000 		.word	.LC110
 3128 0028 BC000000 		.word	.LC111
ARM GAS  /tmp/ccXGECJv.s 			page 57


 3129 002c C2000000 		.word	.LC112
 3130 0030 C8000000 		.word	.LC113
 3131 0034 CE000000 		.word	.LC114
 3132              		.section	.rodata.str1.1
 3133              	.LC115:
 3134 00d5 45553836 		.ascii	"EU868\000"
 3134      3800
 3135              		.section	.rodata.smtc_real_region_list_str,"a"
 3136              		.align	2
 3139              	smtc_real_region_list_str:
 3140 0000 00000000 		.space	4
 3141 0004 D5000000 		.word	.LC115
 3142              		.ident	"GCC: (Arch Repository) 13.2.0"
ARM GAS  /tmp/ccXGECJv.s 			page 58

