ARM GAS  /tmp/ccFUrRgl.s 			page 1


   1              		.cpu cortex-m0
   2              		.arch armv6s-m
   3              		.fpu softvfp
   4              		.eabi_attribute 23, 1
   5              		.eabi_attribute 24, 1
   6              		.eabi_attribute 25, 1
   7              		.eabi_attribute 26, 1
   8              		.eabi_attribute 30, 4
   9              		.eabi_attribute 34, 0
  10              		.eabi_attribute 18, 4
  11              		.file	"modem_context.c"
  12              		.text
  13              		.section	.text.modem_context_empty_callback,"ax",%progbits
  14              		.align	1
  15              		.global	modem_context_empty_callback
  16              		.syntax unified
  17              		.code	16
  18              		.thumb_func
  20              	modem_context_empty_callback:
  21              		@ args = 0, pretend = 0, frame = 0
  22              		@ frame_needed = 0, uses_anonymous_args = 0
  23              		@ link register save eliminated.
  24              		@ sp needed
  25 0000 7047     		bx	lr
  27              		.section	.text.modem_context_init,"ax",%progbits
  28              		.align	1
  29              		.global	modem_context_init
  30              		.syntax unified
  31              		.code	16
  32              		.thumb_func
  34              	modem_context_init:
  35              		@ args = 0, pretend = 0, frame = 0
  36              		@ frame_needed = 0, uses_anonymous_args = 0
  37 0000 10B5     		push	{r4, lr}
  38 0002 0024     		movs	r4, #0
  39              		@ sp needed
  40 0004 8122     		movs	r2, #129
  41 0006 334B     		ldr	r3, .L3
  42 0008 1C70     		strb	r4, [r3]
  43 000a 334B     		ldr	r3, .L3+4
  44 000c 1A70     		strb	r2, [r3]
  45 000e 334B     		ldr	r3, .L3+8
  46 0010 4632     		adds	r2, r2, #70
  47 0012 1A70     		strb	r2, [r3]
  48 0014 324B     		ldr	r3, .L3+12
  49 0016 1C70     		strb	r4, [r3]
  50 0018 324B     		ldr	r3, .L3+16
  51 001a 1C70     		strb	r4, [r3]
  52 001c 324B     		ldr	r3, .L3+20
  53 001e 1C60     		str	r4, [r3]
  54 0020 324B     		ldr	r3, .L3+24
  55 0022 1C70     		strb	r4, [r3]
  56 0024 324B     		ldr	r3, .L3+28
  57 0026 1C70     		strb	r4, [r3]
  58 0028 324B     		ldr	r3, .L3+32
  59 002a 1A80     		strh	r2, [r3]
  60 002c 9C70     		strb	r4, [r3, #2]
ARM GAS  /tmp/ccFUrRgl.s 			page 2


  61 002e 324B     		ldr	r3, .L3+36
  62 0030 4C3A     		subs	r2, r2, #76
  63 0032 1A60     		str	r2, [r3]
  64 0034 314B     		ldr	r3, .L3+40
  65 0036 1C60     		str	r4, [r3]
  66 0038 314B     		ldr	r3, .L3+44
  67 003a 1C70     		strb	r4, [r3]
  68 003c 314B     		ldr	r3, .L3+48
  69 003e 1C70     		strb	r4, [r3]
  70 0040 314B     		ldr	r3, .L3+52
  71 0042 1C70     		strb	r4, [r3]
  72 0044 314B     		ldr	r3, .L3+56
  73 0046 1C80     		strh	r4, [r3]
  74 0048 314B     		ldr	r3, .L3+60
  75 004a 1C60     		str	r4, [r3]
  76 004c 314B     		ldr	r3, .L3+64
  77 004e 1C70     		strb	r4, [r3]
  78 0050 314B     		ldr	r3, .L3+68
  79 0052 1C70     		strb	r4, [r3]
  80 0054 314B     		ldr	r3, .L3+72
  81 0056 1C60     		str	r4, [r3]
  82 0058 314B     		ldr	r3, .L3+76
  83 005a 1C70     		strb	r4, [r3]
  84 005c 314B     		ldr	r3, .L3+80
  85 005e 1C80     		strh	r4, [r3]
  86 0060 314B     		ldr	r3, .L3+84
  87 0062 1C70     		strb	r4, [r3]
  88 0064 314B     		ldr	r3, .L3+88
  89 0066 1C70     		strb	r4, [r3]
  90 0068 314B     		ldr	r3, .L3+92
  91 006a 1C70     		strb	r4, [r3]
  92 006c FFF7FEFF 		bl	compute_crc_fw
  93 0070 0122     		movs	r2, #1
  94 0072 304B     		ldr	r3, .L3+96
  95 0074 2100     		movs	r1, r4
  96 0076 1C70     		strb	r4, [r3]
  97 0078 2F4B     		ldr	r3, .L3+100
  98 007a 3048     		ldr	r0, .L3+104
  99 007c 1C80     		strh	r4, [r3]
 100 007e 304B     		ldr	r3, .L3+108
 101 0080 1C70     		strb	r4, [r3]
 102 0082 304B     		ldr	r3, .L3+112
 103 0084 1C70     		strb	r4, [r3]
 104 0086 304B     		ldr	r3, .L3+116
 105 0088 1C70     		strb	r4, [r3]
 106 008a 304B     		ldr	r3, .L3+120
 107 008c 1C60     		str	r4, [r3]
 108 008e 304B     		ldr	r3, .L3+124
 109 0090 1A80     		strh	r2, [r3]
 110 0092 304B     		ldr	r3, .L3+128
 111 0094 0732     		adds	r2, r2, #7
 112 0096 1C60     		str	r4, [r3]
 113 0098 FFF7FEFF 		bl	memset
 114 009c 1922     		movs	r2, #25
 115 009e 2100     		movs	r1, r4
 116 00a0 2D48     		ldr	r0, .L3+132
 117 00a2 FFF7FEFF 		bl	memset
ARM GAS  /tmp/ccFUrRgl.s 			page 3


 118 00a6 1922     		movs	r2, #25
 119 00a8 2100     		movs	r1, r4
 120 00aa 2C48     		ldr	r0, .L3+136
 121 00ac FFF7FEFF 		bl	memset
 122 00b0 1922     		movs	r2, #25
 123 00b2 2100     		movs	r1, r4
 124 00b4 2A48     		ldr	r0, .L3+140
 125 00b6 FFF7FEFF 		bl	memset
 126 00ba 8422     		movs	r2, #132
 127 00bc 2100     		movs	r1, r4
 128 00be 5200     		lsls	r2, r2, #1
 129 00c0 2848     		ldr	r0, .L3+144
 130 00c2 FFF7FEFF 		bl	memset
 131 00c6 1E22     		movs	r2, #30
 132 00c8 8021     		movs	r1, #128
 133 00ca 2748     		ldr	r0, .L3+148
 134 00cc FFF7FEFF 		bl	memset
 135 00d0 10BD     		pop	{r4, pc}
 136              	.L4:
 137 00d2 C046     		.align	2
 138              	.L3:
 139 00d4 00000000 		.word	modem_status
 140 00d8 00000000 		.word	modem_dm_interval
 141 00dc 00000000 		.word	modem_dm_port
 142 00e0 00000000 		.word	modem_dm_class
 143 00e4 00000000 		.word	is_modem_suspend
 144 00e8 00000000 		.word	modem_start_time
 145 00ec 00000000 		.word	modem_dm_upload_sctr
 146 00f0 00000000 		.word	modem_upload_state
 147 00f4 00000000 		.word	modem_stream_state
 148 00f8 00000000 		.word	dm_info_bitfield_periodic
 149 00fc 00000000 		.word	dm_info_bitfield_now
 150 0100 00000000 		.word	tag_number
 151 0104 00000000 		.word	tag_number_now
 152 0108 00000000 		.word	number_of_muted_day
 153 010c 00000000 		.word	dm_pending_dl
 154 0110 00000000 		.word	user_alarm
 155 0114 00000000 		.word	asynchronous_msgnumber
 156 0118 00000000 		.word	is_modem_reset_requested
 157 011c 00000000 		.word	modem_charge_offset
 158 0120 00000000 		.word	start_time_was_set
 159 0124 00000000 		.word	user_define_charge_counter
 160 0128 00000000 		.word	charge_counter_to_send
 161 012c 00000000 		.word	modem_rf_output
 162 0130 00000000 		.word	duty_cycle_disabled_by_host
 163 0134 00000000 		.word	modem_adr_profile
 164 0138 00000000 		.word	nb_adr_mobile_timeout
 165 013c 00000000 		.word	modem_appstatus
 166 0140 00000000 		.word	is_modem_in_test_mode
 167 0144 00000000 		.word	rx_pathloss_db
 168 0148 00000000 		.word	tx_power_offset_db
 169 014c 00000000 		.word	modem_rp
 170 0150 00000000 		.word	modem_appkey_status
 171 0154 00000000 		.word	modem_appkey_crc
 172 0158 00000000 		.word	modem_event_count
 173 015c 00000000 		.word	modem_event_status
 174 0160 00000000 		.word	asynch_msg
ARM GAS  /tmp/ccFUrRgl.s 			page 4


 175 0164 00000000 		.word	modem_dwn_pkt
 176 0168 00000000 		.word	power_config_lut
 178              		.section	.rodata.get_modem_event_count.str1.1,"aMS",%progbits,1
 179              	.LC39:
 180 0000 1B5B303B 		.ascii	"\033[0;31mERROR: crash log :%s\012\000"
 180      33316D45 
 180      52524F52 
 180      3A206372 
 180      61736820 
 181              	.LC41:
 182 001d 1B5B306D 		.ascii	"\033[0m\000"
 182      00
 183              	.LC43:
 184 0022 1B5B303B 		.ascii	"\033[0;31mERROR: -> \000"
 184      33316D45 
 184      52524F52 
 184      3A202D3E 
 184      2000
 185              		.section	.text.get_modem_event_count,"ax",%progbits
 186              		.align	1
 187              		.global	get_modem_event_count
 188              		.syntax unified
 189              		.code	16
 190              		.thumb_func
 192              	get_modem_event_count:
 193              		@ args = 0, pretend = 0, frame = 0
 194              		@ frame_needed = 0, uses_anonymous_args = 0
 195 0000 70B5     		push	{r4, r5, r6, lr}
 196 0002 0400     		movs	r4, r0
 197 0004 1828     		cmp	r0, #24
 198 0006 16D9     		bls	.L6
 199 0008 0C4D     		ldr	r5, .L7
 200 000a 2800     		movs	r0, r5
 201 000c FFF7FEFF 		bl	smtc_modem_hal_store_crashlog
 202 0010 0120     		movs	r0, #1
 203 0012 FFF7FEFF 		bl	smtc_modem_hal_set_crashlog_status
 204 0016 2900     		movs	r1, r5
 205 0018 0948     		ldr	r0, .L7+4
 206 001a FFF7FEFF 		bl	smtc_modem_hal_print_trace
 207 001e 094D     		ldr	r5, .L7+8
 208 0020 2800     		movs	r0, r5
 209 0022 FFF7FEFF 		bl	smtc_modem_hal_print_trace
 210 0026 0848     		ldr	r0, .L7+12
 211 0028 FFF7FEFF 		bl	smtc_modem_hal_print_trace
 212 002c 2800     		movs	r0, r5
 213 002e FFF7FEFF 		bl	smtc_modem_hal_print_trace
 214 0032 FFF7FEFF 		bl	smtc_modem_hal_reset_mcu
 215              	.L6:
 216              		@ sp needed
 217 0036 054B     		ldr	r3, .L7+16
 218 0038 185D     		ldrb	r0, [r3, r4]
 219 003a 70BD     		pop	{r4, r5, r6, pc}
 220              	.L8:
 221              		.align	2
 222              	.L7:
 223 003c 00000000 		.word	__func__.2
 224 0040 00000000 		.word	.LC39
ARM GAS  /tmp/ccFUrRgl.s 			page 5


 225 0044 1D000000 		.word	.LC41
 226 0048 22000000 		.word	.LC43
 227 004c 00000000 		.word	modem_event_count
 229              		.section	.text.get_modem_event_status,"ax",%progbits
 230              		.align	1
 231              		.global	get_modem_event_status
 232              		.syntax unified
 233              		.code	16
 234              		.thumb_func
 236              	get_modem_event_status:
 237              		@ args = 0, pretend = 0, frame = 0
 238              		@ frame_needed = 0, uses_anonymous_args = 0
 239 0000 70B5     		push	{r4, r5, r6, lr}
 240 0002 0400     		movs	r4, r0
 241 0004 1828     		cmp	r0, #24
 242 0006 16D9     		bls	.L10
 243 0008 0C4D     		ldr	r5, .L11
 244 000a 2800     		movs	r0, r5
 245 000c FFF7FEFF 		bl	smtc_modem_hal_store_crashlog
 246 0010 0120     		movs	r0, #1
 247 0012 FFF7FEFF 		bl	smtc_modem_hal_set_crashlog_status
 248 0016 2900     		movs	r1, r5
 249 0018 0948     		ldr	r0, .L11+4
 250 001a FFF7FEFF 		bl	smtc_modem_hal_print_trace
 251 001e 094D     		ldr	r5, .L11+8
 252 0020 2800     		movs	r0, r5
 253 0022 FFF7FEFF 		bl	smtc_modem_hal_print_trace
 254 0026 0848     		ldr	r0, .L11+12
 255 0028 FFF7FEFF 		bl	smtc_modem_hal_print_trace
 256 002c 2800     		movs	r0, r5
 257 002e FFF7FEFF 		bl	smtc_modem_hal_print_trace
 258 0032 FFF7FEFF 		bl	smtc_modem_hal_reset_mcu
 259              	.L10:
 260              		@ sp needed
 261 0036 054B     		ldr	r3, .L11+16
 262 0038 185D     		ldrb	r0, [r3, r4]
 263 003a 70BD     		pop	{r4, r5, r6, pc}
 264              	.L12:
 265              		.align	2
 266              	.L11:
 267 003c 00000000 		.word	__func__.1
 268 0040 00000000 		.word	.LC39
 269 0044 1D000000 		.word	.LC41
 270 0048 22000000 		.word	.LC43
 271 004c 00000000 		.word	modem_event_status
 273              		.section	.text.set_modem_event_count_and_status,"ax",%progbits
 274              		.align	1
 275              		.global	set_modem_event_count_and_status
 276              		.syntax unified
 277              		.code	16
 278              		.thumb_func
 280              	set_modem_event_count_and_status:
 281              		@ args = 0, pretend = 0, frame = 0
 282              		@ frame_needed = 0, uses_anonymous_args = 0
 283              		@ link register save eliminated.
 284 0000 1828     		cmp	r0, #24
 285 0002 03D8     		bhi	.L13
ARM GAS  /tmp/ccFUrRgl.s 			page 6


 286 0004 024B     		ldr	r3, .L15
 287 0006 1954     		strb	r1, [r3, r0]
 288 0008 024B     		ldr	r3, .L15+4
 289 000a 1A54     		strb	r2, [r3, r0]
 290              	.L13:
 291              		@ sp needed
 292 000c 7047     		bx	lr
 293              	.L16:
 294 000e C046     		.align	2
 295              	.L15:
 296 0010 00000000 		.word	modem_event_count
 297 0014 00000000 		.word	modem_event_status
 299              		.section	.text.modem_event_init,"ax",%progbits
 300              		.align	1
 301              		.global	modem_event_init
 302              		.syntax unified
 303              		.code	16
 304              		.thumb_func
 306              	modem_event_init:
 307              		@ args = 0, pretend = 0, frame = 0
 308              		@ frame_needed = 0, uses_anonymous_args = 0
 309 0000 10B5     		push	{r4, lr}
 310 0002 0024     		movs	r4, #0
 311              	.L18:
 312 0004 0022     		movs	r2, #0
 313 0006 E0B2     		uxtb	r0, r4
 314 0008 1100     		movs	r1, r2
 315 000a 0134     		adds	r4, r4, #1
 316 000c FFF7FEFF 		bl	set_modem_event_count_and_status
 317 0010 192C     		cmp	r4, #25
 318 0012 F7D1     		bne	.L18
 319              		@ sp needed
 320 0014 10BD     		pop	{r4, pc}
 322              		.section	.text.increment_modem_event_count_and_status,"ax",%progbits
 323              		.align	1
 324              		.global	increment_modem_event_count_and_status
 325              		.syntax unified
 326              		.code	16
 327              		.thumb_func
 329              	increment_modem_event_count_and_status:
 330              		@ args = 0, pretend = 0, frame = 0
 331              		@ frame_needed = 0, uses_anonymous_args = 0
 332              		@ link register save eliminated.
 333 0000 1828     		cmp	r0, #24
 334 0002 07D8     		bhi	.L20
 335 0004 044A     		ldr	r2, .L26
 336 0006 135C     		ldrb	r3, [r2, r0]
 337 0008 FF2B     		cmp	r3, #255
 338 000a 01D0     		beq	.L22
 339 000c 0133     		adds	r3, r3, #1
 340 000e 1354     		strb	r3, [r2, r0]
 341              	.L22:
 342 0010 024B     		ldr	r3, .L26+4
 343 0012 1954     		strb	r1, [r3, r0]
 344              	.L20:
 345              		@ sp needed
 346 0014 7047     		bx	lr
ARM GAS  /tmp/ccFUrRgl.s 			page 7


 347              	.L27:
 348 0016 C046     		.align	2
 349              	.L26:
 350 0018 00000000 		.word	modem_event_count
 351 001c 00000000 		.word	modem_event_status
 353              		.section	.text.decrement_asynchronous_msgnumber,"ax",%progbits
 354              		.align	1
 355              		.global	decrement_asynchronous_msgnumber
 356              		.syntax unified
 357              		.code	16
 358              		.thumb_func
 360              	decrement_asynchronous_msgnumber:
 361              		@ args = 0, pretend = 0, frame = 0
 362              		@ frame_needed = 0, uses_anonymous_args = 0
 363              		@ link register save eliminated.
 364 0000 034A     		ldr	r2, .L33
 365 0002 1378     		ldrb	r3, [r2]
 366 0004 002B     		cmp	r3, #0
 367 0006 01D0     		beq	.L29
 368 0008 013B     		subs	r3, r3, #1
 369 000a DBB2     		uxtb	r3, r3
 370              	.L29:
 371 000c 1370     		strb	r3, [r2]
 372              		@ sp needed
 373 000e 7047     		bx	lr
 374              	.L34:
 375              		.align	2
 376              	.L33:
 377 0010 00000000 		.word	asynchronous_msgnumber
 379              		.section	.text.get_asynchronous_msgnumber,"ax",%progbits
 380              		.align	1
 381              		.global	get_asynchronous_msgnumber
 382              		.syntax unified
 383              		.code	16
 384              		.thumb_func
 386              	get_asynchronous_msgnumber:
 387              		@ args = 0, pretend = 0, frame = 0
 388              		@ frame_needed = 0, uses_anonymous_args = 0
 389              		@ link register save eliminated.
 390 0000 014B     		ldr	r3, .L36
 391              		@ sp needed
 392 0002 1878     		ldrb	r0, [r3]
 393 0004 7047     		bx	lr
 394              	.L37:
 395 0006 C046     		.align	2
 396              	.L36:
 397 0008 00000000 		.word	asynchronous_msgnumber
 399              		.section	.rodata.increment_asynchronous_msgnumber.str1.1,"aMS",%progbits,1
 400              	.LC58:
 401 0000 1B5B303B 		.ascii	"\033[0;31mERROR:  Modem reach the max number of asy"
 401      33316D45 
 401      52524F52 
 401      3A20204D 
 401      6F64656D 
 402 0030 6E636820 		.ascii	"nch message\012\000"
 402      6D657373 
 402      6167650A 
ARM GAS  /tmp/ccFUrRgl.s 			page 8


 402      00
 403              		.section	.text.increment_asynchronous_msgnumber,"ax",%progbits
 404              		.align	1
 405              		.global	increment_asynchronous_msgnumber
 406              		.syntax unified
 407              		.code	16
 408              		.thumb_func
 410              	increment_asynchronous_msgnumber:
 411              		@ args = 0, pretend = 0, frame = 0
 412              		@ frame_needed = 0, uses_anonymous_args = 0
 413 0000 70B5     		push	{r4, r5, r6, lr}
 414 0002 0E4E     		ldr	r6, .L42
 415 0004 0400     		movs	r4, r0
 416 0006 3378     		ldrb	r3, [r6]
 417 0008 0D00     		movs	r5, r1
 418 000a 192B     		cmp	r3, #25
 419 000c 06D9     		bls	.L39
 420 000e 0C48     		ldr	r0, .L42+4
 421 0010 FFF7FEFF 		bl	smtc_modem_hal_print_trace
 422 0014 0B48     		ldr	r0, .L42+8
 423 0016 FFF7FEFF 		bl	smtc_modem_hal_print_trace
 424              	.L38:
 425              		@ sp needed
 426 001a 70BD     		pop	{r4, r5, r6, pc}
 427              	.L39:
 428 001c FFF7FEFF 		bl	get_modem_event_count
 429 0020 0028     		cmp	r0, #0
 430 0022 05D1     		bne	.L41
 431 0024 3378     		ldrb	r3, [r6]
 432 0026 084A     		ldr	r2, .L42+12
 433 0028 0133     		adds	r3, r3, #1
 434 002a DBB2     		uxtb	r3, r3
 435 002c 3370     		strb	r3, [r6]
 436 002e D454     		strb	r4, [r2, r3]
 437              	.L41:
 438 0030 2900     		movs	r1, r5
 439 0032 2000     		movs	r0, r4
 440 0034 FFF7FEFF 		bl	increment_modem_event_count_and_status
 441 0038 EFE7     		b	.L38
 442              	.L43:
 443 003a C046     		.align	2
 444              	.L42:
 445 003c 00000000 		.word	asynchronous_msgnumber
 446 0040 00000000 		.word	.LC58
 447 0044 1D000000 		.word	.LC41
 448 0048 00000000 		.word	asynch_msg
 450              		.section	.text.get_last_msg_event,"ax",%progbits
 451              		.align	1
 452              		.global	get_last_msg_event
 453              		.syntax unified
 454              		.code	16
 455              		.thumb_func
 457              	get_last_msg_event:
 458              		@ args = 0, pretend = 0, frame = 0
 459              		@ frame_needed = 0, uses_anonymous_args = 0
 460              		@ link register save eliminated.
 461 0000 024A     		ldr	r2, .L45
ARM GAS  /tmp/ccFUrRgl.s 			page 9


 462 0002 034B     		ldr	r3, .L45+4
 463 0004 1278     		ldrb	r2, [r2]
 464              		@ sp needed
 465 0006 985C     		ldrb	r0, [r3, r2]
 466 0008 7047     		bx	lr
 467              	.L46:
 468 000a C046     		.align	2
 469              	.L45:
 470 000c 00000000 		.word	asynchronous_msgnumber
 471 0010 00000000 		.word	asynch_msg
 473              		.section	.text.get_modem_uptime_s,"ax",%progbits
 474              		.align	1
 475              		.global	get_modem_uptime_s
 476              		.syntax unified
 477              		.code	16
 478              		.thumb_func
 480              	get_modem_uptime_s:
 481              		@ args = 0, pretend = 0, frame = 0
 482              		@ frame_needed = 0, uses_anonymous_args = 0
 483 0000 10B5     		push	{r4, lr}
 484 0002 FFF7FEFF 		bl	smtc_modem_hal_get_time_in_s
 485              		@ sp needed
 486 0006 024B     		ldr	r3, .L48
 487 0008 1B68     		ldr	r3, [r3]
 488 000a C01A     		subs	r0, r0, r3
 489 000c 10BD     		pop	{r4, pc}
 490              	.L49:
 491 000e C046     		.align	2
 492              	.L48:
 493 0010 00000000 		.word	modem_start_time
 495              		.section	.text.set_modem_start_time_s,"ax",%progbits
 496              		.align	1
 497              		.global	set_modem_start_time_s
 498              		.syntax unified
 499              		.code	16
 500              		.thumb_func
 502              	set_modem_start_time_s:
 503              		@ args = 0, pretend = 0, frame = 0
 504              		@ frame_needed = 0, uses_anonymous_args = 0
 505              		@ link register save eliminated.
 506 0000 044B     		ldr	r3, .L52
 507 0002 1A78     		ldrb	r2, [r3]
 508 0004 002A     		cmp	r2, #0
 509 0006 03D1     		bne	.L50
 510 0008 0132     		adds	r2, r2, #1
 511 000a 1A70     		strb	r2, [r3]
 512 000c 024B     		ldr	r3, .L52+4
 513 000e 1860     		str	r0, [r3]
 514              	.L50:
 515              		@ sp needed
 516 0010 7047     		bx	lr
 517              	.L53:
 518 0012 C046     		.align	2
 519              	.L52:
 520 0014 00000000 		.word	start_time_was_set
 521 0018 00000000 		.word	modem_start_time
 523              		.section	.text.set_modem_dm_interval,"ax",%progbits
ARM GAS  /tmp/ccFUrRgl.s 			page 10


 524              		.align	1
 525              		.global	set_modem_dm_interval
 526              		.syntax unified
 527              		.code	16
 528              		.thumb_func
 530              	set_modem_dm_interval:
 531              		@ args = 0, pretend = 0, frame = 0
 532              		@ frame_needed = 0, uses_anonymous_args = 0
 533              		@ link register save eliminated.
 534 0000 034B     		ldr	r3, .L56
 535 0002 1A78     		ldrb	r2, [r3]
 536 0004 8242     		cmp	r2, r0
 537 0006 00D0     		beq	.L55
 538 0008 1870     		strb	r0, [r3]
 539              	.L55:
 540 000a 0120     		movs	r0, #1
 541              		@ sp needed
 542 000c 7047     		bx	lr
 543              	.L57:
 544 000e C046     		.align	2
 545              	.L56:
 546 0010 00000000 		.word	modem_dm_interval
 548              		.section	.text.get_modem_dm_interval,"ax",%progbits
 549              		.align	1
 550              		.global	get_modem_dm_interval
 551              		.syntax unified
 552              		.code	16
 553              		.thumb_func
 555              	get_modem_dm_interval:
 556              		@ args = 0, pretend = 0, frame = 0
 557              		@ frame_needed = 0, uses_anonymous_args = 0
 558              		@ link register save eliminated.
 559 0000 014B     		ldr	r3, .L59
 560              		@ sp needed
 561 0002 1878     		ldrb	r0, [r3]
 562 0004 7047     		bx	lr
 563              	.L60:
 564 0006 C046     		.align	2
 565              	.L59:
 566 0008 00000000 		.word	modem_dm_interval
 568              		.section	.text.get_modem_dm_interval_second,"ax",%progbits
 569              		.align	1
 570              		.global	get_modem_dm_interval_second
 571              		.syntax unified
 572              		.code	16
 573              		.thumb_func
 575              	get_modem_dm_interval_second:
 576              		@ args = 0, pretend = 0, frame = 0
 577              		@ frame_needed = 0, uses_anonymous_args = 0
 578              		@ link register save eliminated.
 579 0000 0B4B     		ldr	r3, .L67
 580 0002 1878     		ldrb	r0, [r3]
 581 0004 8309     		lsrs	r3, r0, #6
 582 0006 022B     		cmp	r3, #2
 583 0008 08D0     		beq	.L62
 584 000a 032B     		cmp	r3, #3
 585 000c 0BD0     		beq	.L63
ARM GAS  /tmp/ccFUrRgl.s 			page 11


 586 000e 012B     		cmp	r3, #1
 587 0010 03D1     		bne	.L61
 588 0012 3E33     		adds	r3, r3, #62
 589 0014 1840     		ands	r0, r3
 590 0016 074B     		ldr	r3, .L67+4
 591              	.L66:
 592 0018 5843     		muls	r0, r3
 593              	.L61:
 594              		@ sp needed
 595 001a 7047     		bx	lr
 596              	.L62:
 597 001c 3F23     		movs	r3, #63
 598 001e 1840     		ands	r0, r3
 599 0020 E123     		movs	r3, #225
 600 0022 1B01     		lsls	r3, r3, #4
 601 0024 F8E7     		b	.L66
 602              	.L63:
 603 0026 3F23     		movs	r3, #63
 604 0028 1840     		ands	r0, r3
 605 002a 033B     		subs	r3, r3, #3
 606 002c F4E7     		b	.L66
 607              	.L68:
 608 002e C046     		.align	2
 609              	.L67:
 610 0030 00000000 		.word	modem_dm_interval
 611 0034 80510100 		.word	86400
 613              		.section	.text.set_modem_class,"ax",%progbits
 614              		.align	1
 615              		.global	set_modem_class
 616              		.syntax unified
 617              		.code	16
 618              		.thumb_func
 620              	set_modem_class:
 621              		@ args = 0, pretend = 0, frame = 0
 622              		@ frame_needed = 0, uses_anonymous_args = 0
 623              		@ link register save eliminated.
 624 0000 014B     		ldr	r3, .L70
 625              		@ sp needed
 626 0002 1870     		strb	r0, [r3]
 627 0004 7047     		bx	lr
 628              	.L71:
 629 0006 C046     		.align	2
 630              	.L70:
 631 0008 00000000 		.word	modem_dm_class
 633              		.section	.text.get_modem_class,"ax",%progbits
 634              		.align	1
 635              		.global	get_modem_class
 636              		.syntax unified
 637              		.code	16
 638              		.thumb_func
 640              	get_modem_class:
 641              		@ args = 0, pretend = 0, frame = 0
 642              		@ frame_needed = 0, uses_anonymous_args = 0
 643              		@ link register save eliminated.
 644 0000 014B     		ldr	r3, .L73
 645              		@ sp needed
 646 0002 1878     		ldrb	r0, [r3]
ARM GAS  /tmp/ccFUrRgl.s 			page 12


 647 0004 7047     		bx	lr
 648              	.L74:
 649 0006 C046     		.align	2
 650              	.L73:
 651 0008 00000000 		.word	modem_dm_class
 653              		.section	.text.get_modem_dm_port,"ax",%progbits
 654              		.align	1
 655              		.global	get_modem_dm_port
 656              		.syntax unified
 657              		.code	16
 658              		.thumb_func
 660              	get_modem_dm_port:
 661              		@ args = 0, pretend = 0, frame = 0
 662              		@ frame_needed = 0, uses_anonymous_args = 0
 663              		@ link register save eliminated.
 664 0000 014B     		ldr	r3, .L76
 665              		@ sp needed
 666 0002 1878     		ldrb	r0, [r3]
 667 0004 7047     		bx	lr
 668              	.L77:
 669 0006 C046     		.align	2
 670              	.L76:
 671 0008 00000000 		.word	modem_dm_port
 673              		.section	.text.get_modem_adr_profile,"ax",%progbits
 674              		.align	1
 675              		.global	get_modem_adr_profile
 676              		.syntax unified
 677              		.code	16
 678              		.thumb_func
 680              	get_modem_adr_profile:
 681              		@ args = 0, pretend = 0, frame = 0
 682              		@ frame_needed = 0, uses_anonymous_args = 0
 683              		@ link register save eliminated.
 684 0000 014B     		ldr	r3, .L79
 685              		@ sp needed
 686 0002 1878     		ldrb	r0, [r3]
 687 0004 7047     		bx	lr
 688              	.L80:
 689 0006 C046     		.align	2
 690              	.L79:
 691 0008 00000000 		.word	modem_adr_profile
 693              		.section	.text.get_modem_region,"ax",%progbits
 694              		.align	1
 695              		.global	get_modem_region
 696              		.syntax unified
 697              		.code	16
 698              		.thumb_func
 700              	get_modem_region:
 701              		@ args = 0, pretend = 0, frame = 0
 702              		@ frame_needed = 0, uses_anonymous_args = 0
 703 0000 10B5     		push	{r4, lr}
 704 0002 FFF7FEFF 		bl	lorawan_api_get_region
 705              		@ sp needed
 706 0006 10BD     		pop	{r4, pc}
 708              		.section	.text.set_modem_region,"ax",%progbits
 709              		.align	1
 710              		.global	set_modem_region
ARM GAS  /tmp/ccFUrRgl.s 			page 13


 711              		.syntax unified
 712              		.code	16
 713              		.thumb_func
 715              	set_modem_region:
 716              		@ args = 0, pretend = 0, frame = 0
 717              		@ frame_needed = 0, uses_anonymous_args = 0
 718 0000 10B5     		push	{r4, lr}
 719 0002 FFF7FEFF 		bl	lorawan_api_set_region
 720              		@ sp needed
 721 0006 4342     		rsbs	r3, r0, #0
 722 0008 5841     		adcs	r0, r0, r3
 723 000a C0B2     		uxtb	r0, r0
 724 000c 10BD     		pop	{r4, pc}
 726              		.section	.text.set_modem_appstatus,"ax",%progbits
 727              		.align	1
 728              		.global	set_modem_appstatus
 729              		.syntax unified
 730              		.code	16
 731              		.thumb_func
 733              	set_modem_appstatus:
 734              		@ args = 0, pretend = 0, frame = 0
 735              		@ frame_needed = 0, uses_anonymous_args = 0
 736 0000 10B5     		push	{r4, lr}
 737 0002 034B     		ldr	r3, .L84
 738 0004 0100     		movs	r1, r0
 739              		@ sp needed
 740 0006 0822     		movs	r2, #8
 741 0008 1800     		movs	r0, r3
 742 000a FFF7FEFF 		bl	memcpy
 743 000e 10BD     		pop	{r4, pc}
 744              	.L85:
 745              		.align	2
 746              	.L84:
 747 0010 00000000 		.word	modem_appstatus
 749              		.section	.text.get_modem_appstatus,"ax",%progbits
 750              		.align	1
 751              		.global	get_modem_appstatus
 752              		.syntax unified
 753              		.code	16
 754              		.thumb_func
 756              	get_modem_appstatus:
 757              		@ args = 0, pretend = 0, frame = 0
 758              		@ frame_needed = 0, uses_anonymous_args = 0
 759 0000 10B5     		push	{r4, lr}
 760 0002 0822     		movs	r2, #8
 761              		@ sp needed
 762 0004 0149     		ldr	r1, .L87
 763 0006 FFF7FEFF 		bl	memcpy
 764 000a 10BD     		pop	{r4, pc}
 765              	.L88:
 766              		.align	2
 767              	.L87:
 768 000c 00000000 		.word	modem_appstatus
 770              		.section	.text.modem_supervisor_add_task_dm_status_now,"ax",%progbits
 771              		.align	1
 772              		.global	modem_supervisor_add_task_dm_status_now
 773              		.syntax unified
ARM GAS  /tmp/ccFUrRgl.s 			page 14


 774              		.code	16
 775              		.thumb_func
 777              	modem_supervisor_add_task_dm_status_now:
 778              		@ args = 0, pretend = 0, frame = 24
 779              		@ frame_needed = 0, uses_anonymous_args = 0
 780 0000 70B5     		push	{r4, r5, r6, lr}
 781 0002 0323     		movs	r3, #3
 782 0004 0226     		movs	r6, #2
 783 0006 86B0     		sub	sp, sp, #24
 784 0008 01AC     		add	r4, sp, #4
 785 000a 2370     		strb	r3, [r4]
 786 000c 2372     		strb	r3, [r4, #8]
 787 000e 6674     		strb	r6, [r4, #17]
 788 0010 FFF7FEFF 		bl	smtc_modem_hal_get_time_in_s
 789 0014 0521     		movs	r1, #5
 790 0016 0500     		movs	r5, r0
 791 0018 3000     		movs	r0, r6
 792 001a FFF7FEFF 		bl	smtc_modem_hal_get_random_nb_in_range
 793 001e 2D18     		adds	r5, r5, r0
 794 0020 2000     		movs	r0, r4
 795 0022 0295     		str	r5, [sp, #8]
 796 0024 FFF7FEFF 		bl	modem_supervisor_add_task
 797 0028 06B0     		add	sp, sp, #24
 798              		@ sp needed
 799 002a 70BD     		pop	{r4, r5, r6, pc}
 801              		.section	.text.modem_supervisor_add_task_crash_log,"ax",%progbits
 802              		.align	1
 803              		.global	modem_supervisor_add_task_crash_log
 804              		.syntax unified
 805              		.code	16
 806              		.thumb_func
 808              	modem_supervisor_add_task_crash_log:
 809              		@ args = 0, pretend = 0, frame = 24
 810              		@ frame_needed = 0, uses_anonymous_args = 0
 811 0000 0E23     		movs	r3, #14
 812 0002 F0B5     		push	{r4, r5, r6, r7, lr}
 813 0004 0227     		movs	r7, #2
 814 0006 87B0     		sub	sp, sp, #28
 815 0008 01AD     		add	r5, sp, #4
 816 000a 2B70     		strb	r3, [r5]
 817 000c 0B3B     		subs	r3, r3, #11
 818 000e 2B72     		strb	r3, [r5, #8]
 819 0010 0600     		movs	r6, r0
 820 0012 6F74     		strb	r7, [r5, #17]
 821 0014 FFF7FEFF 		bl	smtc_modem_hal_get_time_in_s
 822 0018 0521     		movs	r1, #5
 823 001a 0400     		movs	r4, r0
 824 001c 3800     		movs	r0, r7
 825 001e FFF7FEFF 		bl	smtc_modem_hal_get_random_nb_in_range
 826 0022 2418     		adds	r4, r4, r0
 827 0024 A419     		adds	r4, r4, r6
 828 0026 2800     		movs	r0, r5
 829 0028 0294     		str	r4, [sp, #8]
 830 002a FFF7FEFF 		bl	modem_supervisor_add_task
 831 002e 07B0     		add	sp, sp, #28
 832              		@ sp needed
 833 0030 F0BD     		pop	{r4, r5, r6, r7, pc}
ARM GAS  /tmp/ccFUrRgl.s 			page 15


 835              		.section	.text.modem_supervisor_add_task_clock_sync_time_req,"ax",%progbits
 836              		.align	1
 837              		.global	modem_supervisor_add_task_clock_sync_time_req
 838              		.syntax unified
 839              		.code	16
 840              		.thumb_func
 842              	modem_supervisor_add_task_clock_sync_time_req:
 843              		@ args = 0, pretend = 0, frame = 24
 844              		@ frame_needed = 0, uses_anonymous_args = 0
 845 0000 0923     		movs	r3, #9
 846 0002 30B5     		push	{r4, r5, lr}
 847 0004 87B0     		sub	sp, sp, #28
 848 0006 01AC     		add	r4, sp, #4
 849 0008 2370     		strb	r3, [r4]
 850 000a 083B     		subs	r3, r3, #8
 851 000c 2372     		strb	r3, [r4, #8]
 852 000e 0133     		adds	r3, r3, #1
 853 0010 0500     		movs	r5, r0
 854 0012 6374     		strb	r3, [r4, #17]
 855 0014 FFF7FEFF 		bl	smtc_modem_hal_get_time_in_s
 856 0018 4019     		adds	r0, r0, r5
 857 001a 0290     		str	r0, [sp, #8]
 858 001c 2000     		movs	r0, r4
 859 001e FFF7FEFF 		bl	modem_supervisor_add_task
 860 0022 07B0     		add	sp, sp, #28
 861              		@ sp needed
 862 0024 30BD     		pop	{r4, r5, pc}
 864              		.section	.text.modem_supervisor_remove_task_clock_sync,"ax",%progbits
 865              		.align	1
 866              		.global	modem_supervisor_remove_task_clock_sync
 867              		.syntax unified
 868              		.code	16
 869              		.thumb_func
 871              	modem_supervisor_remove_task_clock_sync:
 872              		@ args = 0, pretend = 0, frame = 0
 873              		@ frame_needed = 0, uses_anonymous_args = 0
 874 0000 10B5     		push	{r4, lr}
 875 0002 0920     		movs	r0, #9
 876 0004 FFF7FEFF 		bl	modem_supervisor_get_task_priority
 877 0008 0428     		cmp	r0, #4
 878 000a 02D0     		beq	.L93
 879 000c 0920     		movs	r0, #9
 880 000e FFF7FEFF 		bl	modem_supervisor_remove_task
 881              	.L93:
 882 0012 0A20     		movs	r0, #10
 883 0014 FFF7FEFF 		bl	modem_supervisor_get_task_priority
 884 0018 0428     		cmp	r0, #4
 885 001a 02D0     		beq	.L92
 886 001c 0A20     		movs	r0, #10
 887 001e FFF7FEFF 		bl	modem_supervisor_remove_task
 888              	.L92:
 889              		@ sp needed
 890 0022 10BD     		pop	{r4, pc}
 892              		.section	.text.modem_supervisor_is_clock_sync_running,"ax",%progbits
 893              		.align	1
 894              		.global	modem_supervisor_is_clock_sync_running
 895              		.syntax unified
ARM GAS  /tmp/ccFUrRgl.s 			page 16


 896              		.code	16
 897              		.thumb_func
 899              	modem_supervisor_is_clock_sync_running:
 900              		@ args = 0, pretend = 0, frame = 0
 901              		@ frame_needed = 0, uses_anonymous_args = 0
 902 0000 10B5     		push	{r4, lr}
 903 0002 0920     		movs	r0, #9
 904              		@ sp needed
 905 0004 FFF7FEFF 		bl	modem_supervisor_get_task_priority
 906 0008 0438     		subs	r0, r0, #4
 907 000a 431E     		subs	r3, r0, #1
 908 000c 9841     		sbcs	r0, r0, r3
 909 000e C0B2     		uxtb	r0, r0
 910 0010 10BD     		pop	{r4, pc}
 912              		.section	.text.modem_supervisor_add_task_modem_mute,"ax",%progbits
 913              		.align	1
 914              		.global	modem_supervisor_add_task_modem_mute
 915              		.syntax unified
 916              		.code	16
 917              		.thumb_func
 919              	modem_supervisor_add_task_modem_mute:
 920              		@ args = 0, pretend = 0, frame = 24
 921              		@ frame_needed = 0, uses_anonymous_args = 0
 922 0000 7FB5     		push	{r0, r1, r2, r3, r4, r5, r6, lr}
 923 0002 0623     		movs	r3, #6
 924 0004 6A46     		mov	r2, sp
 925 0006 1371     		strb	r3, [r2, #4]
 926 0008 043B     		subs	r3, r3, #4
 927 000a 1373     		strb	r3, [r2, #12]
 928 000c FFF7FEFF 		bl	smtc_modem_hal_get_time_in_s
 929 0010 034B     		ldr	r3, .L103
 930 0012 C018     		adds	r0, r0, r3
 931 0014 0290     		str	r0, [sp, #8]
 932 0016 01A8     		add	r0, sp, #4
 933 0018 FFF7FEFF 		bl	modem_supervisor_add_task
 934 001c 07B0     		add	sp, sp, #28
 935              		@ sp needed
 936 001e 00BD     		pop	{pc}
 937              	.L104:
 938              		.align	2
 939              	.L103:
 940 0020 80510100 		.word	86400
 942              		.section	.text.modem_supervisor_add_task_file_upload,"ax",%progbits
 943              		.align	1
 944              		.global	modem_supervisor_add_task_file_upload
 945              		.syntax unified
 946              		.code	16
 947              		.thumb_func
 949              	modem_supervisor_add_task_file_upload:
 950              		@ args = 0, pretend = 0, frame = 24
 951              		@ frame_needed = 0, uses_anonymous_args = 0
 952 0000 10B5     		push	{r4, lr}
 953 0002 86B0     		sub	sp, sp, #24
 954 0004 6A46     		mov	r2, sp
 955 0006 0423     		movs	r3, #4
 956 0008 1371     		strb	r3, [r2, #4]
 957 000a 033B     		subs	r3, r3, #3
ARM GAS  /tmp/ccFUrRgl.s 			page 17


 958 000c 0400     		movs	r4, r0
 959 000e 1373     		strb	r3, [r2, #12]
 960 0010 FFF7FEFF 		bl	smtc_modem_hal_get_time_in_s
 961 0014 0019     		adds	r0, r0, r4
 962 0016 0290     		str	r0, [sp, #8]
 963 0018 01A8     		add	r0, sp, #4
 964 001a FFF7FEFF 		bl	modem_supervisor_add_task
 965 001e 06B0     		add	sp, sp, #24
 966              		@ sp needed
 967 0020 10BD     		pop	{r4, pc}
 969              		.section	.text.get_modem_gnss_status,"ax",%progbits
 970              		.align	1
 971              		.global	get_modem_gnss_status
 972              		.syntax unified
 973              		.code	16
 974              		.thumb_func
 976              	get_modem_gnss_status:
 977              		@ args = 0, pretend = 0, frame = 8
 978              		@ frame_needed = 0, uses_anonymous_args = 0
 979 0000 13B5     		push	{r0, r1, r4, lr}
 980 0002 064B     		ldr	r3, .L107
 981 0004 0400     		movs	r4, r0
 982              		@ sp needed
 983 0006 6946     		mov	r1, sp
 984 0008 1868     		ldr	r0, [r3]
 985 000a FFF7FEFF 		bl	almanac_update_create_uplink_payload
 986 000e 6B46     		mov	r3, sp
 987 0010 0722     		movs	r2, #7
 988 0012 2000     		movs	r0, r4
 989 0014 591C     		adds	r1, r3, #1
 990 0016 FFF7FEFF 		bl	memcpy
 991 001a 13BD     		pop	{r0, r1, r4, pc}
 992              	.L108:
 993              		.align	2
 994              	.L107:
 995 001c 00000000 		.word	modem_radio_ctx
 997              		.section	.text.set_modem_status_reset_after_brownout,"ax",%progbits
 998              		.align	1
 999              		.global	set_modem_status_reset_after_brownout
 1000              		.syntax unified
 1001              		.code	16
 1002              		.thumb_func
 1004              	set_modem_status_reset_after_brownout:
 1005              		@ args = 0, pretend = 0, frame = 0
 1006              		@ frame_needed = 0, uses_anonymous_args = 0
 1007 0000 10B5     		push	{r4, lr}
 1008 0002 054B     		ldr	r3, .L112
 1009 0004 0124     		movs	r4, #1
 1010 0006 1978     		ldrb	r1, [r3]
 1011 0008 0A00     		movs	r2, r1
 1012 000a A243     		bics	r2, r4
 1013 000c 0028     		cmp	r0, #0
 1014 000e 01D0     		beq	.L111
 1015 0010 2200     		movs	r2, r4
 1016 0012 0A43     		orrs	r2, r1
 1017              	.L111:
 1018 0014 1A70     		strb	r2, [r3]
ARM GAS  /tmp/ccFUrRgl.s 			page 18


 1019              		@ sp needed
 1020 0016 10BD     		pop	{r4, pc}
 1021              	.L113:
 1022              		.align	2
 1023              	.L112:
 1024 0018 00000000 		.word	modem_status
 1026              		.section	.text.set_modem_status_reset_after_crash,"ax",%progbits
 1027              		.align	1
 1028              		.global	set_modem_status_reset_after_crash
 1029              		.syntax unified
 1030              		.code	16
 1031              		.thumb_func
 1033              	set_modem_status_reset_after_crash:
 1034              		@ args = 0, pretend = 0, frame = 0
 1035              		@ frame_needed = 0, uses_anonymous_args = 0
 1036 0000 10B5     		push	{r4, lr}
 1037 0002 054B     		ldr	r3, .L117
 1038 0004 0224     		movs	r4, #2
 1039 0006 1978     		ldrb	r1, [r3]
 1040 0008 0A00     		movs	r2, r1
 1041 000a A243     		bics	r2, r4
 1042 000c 0028     		cmp	r0, #0
 1043 000e 01D0     		beq	.L116
 1044 0010 2200     		movs	r2, r4
 1045 0012 0A43     		orrs	r2, r1
 1046              	.L116:
 1047 0014 1A70     		strb	r2, [r3]
 1048              		@ sp needed
 1049 0016 10BD     		pop	{r4, pc}
 1050              	.L118:
 1051              		.align	2
 1052              	.L117:
 1053 0018 00000000 		.word	modem_status
 1055              		.section	.text.set_modem_status_modem_mute,"ax",%progbits
 1056              		.align	1
 1057              		.global	set_modem_status_modem_mute
 1058              		.syntax unified
 1059              		.code	16
 1060              		.thumb_func
 1062              	set_modem_status_modem_mute:
 1063              		@ args = 0, pretend = 0, frame = 0
 1064              		@ frame_needed = 0, uses_anonymous_args = 0
 1065 0000 10B5     		push	{r4, lr}
 1066 0002 054B     		ldr	r3, .L122
 1067 0004 0424     		movs	r4, #4
 1068 0006 1978     		ldrb	r1, [r3]
 1069 0008 0A00     		movs	r2, r1
 1070 000a A243     		bics	r2, r4
 1071 000c 0028     		cmp	r0, #0
 1072 000e 01D0     		beq	.L121
 1073 0010 2200     		movs	r2, r4
 1074 0012 0A43     		orrs	r2, r1
 1075              	.L121:
 1076 0014 1A70     		strb	r2, [r3]
 1077              		@ sp needed
 1078 0016 10BD     		pop	{r4, pc}
 1079              	.L123:
ARM GAS  /tmp/ccFUrRgl.s 			page 19


 1080              		.align	2
 1081              	.L122:
 1082 0018 00000000 		.word	modem_status
 1084              		.section	.text.set_modem_status_modem_joined,"ax",%progbits
 1085              		.align	1
 1086              		.global	set_modem_status_modem_joined
 1087              		.syntax unified
 1088              		.code	16
 1089              		.thumb_func
 1091              	set_modem_status_modem_joined:
 1092              		@ args = 0, pretend = 0, frame = 0
 1093              		@ frame_needed = 0, uses_anonymous_args = 0
 1094 0000 10B5     		push	{r4, lr}
 1095 0002 054B     		ldr	r3, .L127
 1096 0004 0824     		movs	r4, #8
 1097 0006 1978     		ldrb	r1, [r3]
 1098 0008 0A00     		movs	r2, r1
 1099 000a A243     		bics	r2, r4
 1100 000c 0028     		cmp	r0, #0
 1101 000e 01D0     		beq	.L126
 1102 0010 2200     		movs	r2, r4
 1103 0012 0A43     		orrs	r2, r1
 1104              	.L126:
 1105 0014 1A70     		strb	r2, [r3]
 1106              		@ sp needed
 1107 0016 10BD     		pop	{r4, pc}
 1108              	.L128:
 1109              		.align	2
 1110              	.L127:
 1111 0018 00000000 		.word	modem_status
 1113              		.section	.text.set_modem_status_radio_suspend,"ax",%progbits
 1114              		.align	1
 1115              		.global	set_modem_status_radio_suspend
 1116              		.syntax unified
 1117              		.code	16
 1118              		.thumb_func
 1120              	set_modem_status_radio_suspend:
 1121              		@ args = 0, pretend = 0, frame = 0
 1122              		@ frame_needed = 0, uses_anonymous_args = 0
 1123 0000 10B5     		push	{r4, lr}
 1124 0002 054B     		ldr	r3, .L132
 1125 0004 1024     		movs	r4, #16
 1126 0006 1978     		ldrb	r1, [r3]
 1127 0008 0A00     		movs	r2, r1
 1128 000a A243     		bics	r2, r4
 1129 000c 0028     		cmp	r0, #0
 1130 000e 01D0     		beq	.L131
 1131 0010 2200     		movs	r2, r4
 1132 0012 0A43     		orrs	r2, r1
 1133              	.L131:
 1134 0014 1A70     		strb	r2, [r3]
 1135              		@ sp needed
 1136 0016 10BD     		pop	{r4, pc}
 1137              	.L133:
 1138              		.align	2
 1139              	.L132:
 1140 0018 00000000 		.word	modem_status
ARM GAS  /tmp/ccFUrRgl.s 			page 20


 1142              		.section	.text.set_modem_status_file_upload,"ax",%progbits
 1143              		.align	1
 1144              		.global	set_modem_status_file_upload
 1145              		.syntax unified
 1146              		.code	16
 1147              		.thumb_func
 1149              	set_modem_status_file_upload:
 1150              		@ args = 0, pretend = 0, frame = 0
 1151              		@ frame_needed = 0, uses_anonymous_args = 0
 1152 0000 10B5     		push	{r4, lr}
 1153 0002 054B     		ldr	r3, .L137
 1154 0004 2024     		movs	r4, #32
 1155 0006 1978     		ldrb	r1, [r3]
 1156 0008 0A00     		movs	r2, r1
 1157 000a A243     		bics	r2, r4
 1158 000c 0028     		cmp	r0, #0
 1159 000e 01D0     		beq	.L136
 1160 0010 2200     		movs	r2, r4
 1161 0012 0A43     		orrs	r2, r1
 1162              	.L136:
 1163 0014 1A70     		strb	r2, [r3]
 1164              		@ sp needed
 1165 0016 10BD     		pop	{r4, pc}
 1166              	.L138:
 1167              		.align	2
 1168              	.L137:
 1169 0018 00000000 		.word	modem_status
 1171              		.section	.text.set_modem_status_joining,"ax",%progbits
 1172              		.align	1
 1173              		.global	set_modem_status_joining
 1174              		.syntax unified
 1175              		.code	16
 1176              		.thumb_func
 1178              	set_modem_status_joining:
 1179              		@ args = 0, pretend = 0, frame = 0
 1180              		@ frame_needed = 0, uses_anonymous_args = 0
 1181 0000 10B5     		push	{r4, lr}
 1182 0002 054B     		ldr	r3, .L142
 1183 0004 4024     		movs	r4, #64
 1184 0006 1978     		ldrb	r1, [r3]
 1185 0008 0A00     		movs	r2, r1
 1186 000a A243     		bics	r2, r4
 1187 000c 0028     		cmp	r0, #0
 1188 000e 01D0     		beq	.L141
 1189 0010 2200     		movs	r2, r4
 1190 0012 0A43     		orrs	r2, r1
 1191              	.L141:
 1192 0014 1A70     		strb	r2, [r3]
 1193              		@ sp needed
 1194 0016 10BD     		pop	{r4, pc}
 1195              	.L143:
 1196              		.align	2
 1197              	.L142:
 1198 0018 00000000 		.word	modem_status
 1200              		.section	.rodata.modem_supervisor_add_task_join.str1.1,"aMS",%progbits,1
 1201              	.LC84:
 1202 0000 20537461 		.ascii	" Start a new join sequence now \012\000"
ARM GAS  /tmp/ccFUrRgl.s 			page 21


 1202      72742061 
 1202      206E6577 
 1202      206A6F69 
 1202      6E207365 
 1203              	.LC86:
 1204 0021 20537461 		.ascii	" Start a new join sequence in %d seconds \012\000"
 1204      72742061 
 1204      206E6577 
 1204      206A6F69 
 1204      6E207365 
 1205              		.section	.text.modem_supervisor_add_task_join,"ax",%progbits
 1206              		.align	1
 1207              		.global	modem_supervisor_add_task_join
 1208              		.syntax unified
 1209              		.code	16
 1210              		.thumb_func
 1212              	modem_supervisor_add_task_join:
 1213              		@ args = 0, pretend = 0, frame = 24
 1214              		@ frame_needed = 0, uses_anonymous_args = 0
 1215 0000 10B5     		push	{r4, lr}
 1216 0002 86B0     		sub	sp, sp, #24
 1217 0004 0123     		movs	r3, #1
 1218 0006 6A46     		mov	r2, sp
 1219 0008 1371     		strb	r3, [r2, #4]
 1220 000a 1373     		strb	r3, [r2, #12]
 1221 000c FFF7FEFF 		bl	smtc_modem_hal_get_time_in_s
 1222 0010 0521     		movs	r1, #5
 1223 0012 0400     		movs	r4, r0
 1224 0014 0020     		movs	r0, #0
 1225 0016 FFF7FEFF 		bl	smtc_modem_hal_get_random_nb_in_range
 1226 001a 0290     		str	r0, [sp, #8]
 1227 001c FFF7FEFF 		bl	lorawan_api_modem_certification_is_enabled
 1228 0020 0028     		cmp	r0, #0
 1229 0022 04D1     		bne	.L145
 1230 0024 FFF7FEFF 		bl	lorawan_api_next_join_time_second_get
 1231 0028 029B     		ldr	r3, [sp, #8]
 1232 002a 1B18     		adds	r3, r3, r0
 1233 002c 0293     		str	r3, [sp, #8]
 1234              	.L145:
 1235 002e 0299     		ldr	r1, [sp, #8]
 1236 0030 091B     		subs	r1, r1, r4
 1237 0032 0029     		cmp	r1, #0
 1238 0034 0ADC     		bgt	.L146
 1239 0036 0748     		ldr	r0, .L148
 1240 0038 FFF7FEFF 		bl	smtc_modem_hal_print_trace
 1241              	.L147:
 1242 003c 0120     		movs	r0, #1
 1243 003e FFF7FEFF 		bl	set_modem_status_joining
 1244 0042 01A8     		add	r0, sp, #4
 1245 0044 FFF7FEFF 		bl	modem_supervisor_add_task
 1246 0048 06B0     		add	sp, sp, #24
 1247              		@ sp needed
 1248 004a 10BD     		pop	{r4, pc}
 1249              	.L146:
 1250 004c 0248     		ldr	r0, .L148+4
 1251 004e FFF7FEFF 		bl	smtc_modem_hal_print_trace
 1252 0052 F3E7     		b	.L147
ARM GAS  /tmp/ccFUrRgl.s 			page 22


 1253              	.L149:
 1254              		.align	2
 1255              	.L148:
 1256 0054 00000000 		.word	.LC84
 1257 0058 21000000 		.word	.LC86
 1259              		.section	.text.set_modem_status_streaming,"ax",%progbits
 1260              		.align	1
 1261              		.global	set_modem_status_streaming
 1262              		.syntax unified
 1263              		.code	16
 1264              		.thumb_func
 1266              	set_modem_status_streaming:
 1267              		@ args = 0, pretend = 0, frame = 0
 1268              		@ frame_needed = 0, uses_anonymous_args = 0
 1269              		@ link register save eliminated.
 1270 0000 054A     		ldr	r2, .L153
 1271 0002 1378     		ldrb	r3, [r2]
 1272 0004 0028     		cmp	r0, #0
 1273 0006 03D0     		beq	.L151
 1274 0008 8021     		movs	r1, #128
 1275 000a 0B43     		orrs	r3, r1
 1276              	.L152:
 1277 000c 1370     		strb	r3, [r2]
 1278              		@ sp needed
 1279 000e 7047     		bx	lr
 1280              	.L151:
 1281 0010 7F21     		movs	r1, #127
 1282 0012 0B40     		ands	r3, r1
 1283 0014 FAE7     		b	.L152
 1284              	.L154:
 1285 0016 C046     		.align	2
 1286              	.L153:
 1287 0018 00000000 		.word	modem_status
 1289              		.section	.text.modem_supervisor_add_task_stream,"ax",%progbits
 1290              		.align	1
 1291              		.global	modem_supervisor_add_task_stream
 1292              		.syntax unified
 1293              		.code	16
 1294              		.thumb_func
 1296              	modem_supervisor_add_task_stream:
 1297              		@ args = 0, pretend = 0, frame = 24
 1298              		@ frame_needed = 0, uses_anonymous_args = 0
 1299 0000 0823     		movs	r3, #8
 1300 0002 30B5     		push	{r4, r5, lr}
 1301 0004 87B0     		sub	sp, sp, #28
 1302 0006 01AC     		add	r4, sp, #4
 1303 0008 2370     		strb	r3, [r4]
 1304 000a FFF7FEFF 		bl	smtc_modem_hal_get_time_in_s
 1305 000e 0321     		movs	r1, #3
 1306 0010 0500     		movs	r5, r0
 1307 0012 0120     		movs	r0, #1
 1308 0014 FFF7FEFF 		bl	smtc_modem_hal_get_random_nb_in_range
 1309 0018 2D18     		adds	r5, r5, r0
 1310 001a 0295     		str	r5, [sp, #8]
 1311 001c 0125     		movs	r5, #1
 1312 001e 064B     		ldr	r3, .L156
 1313 0020 2000     		movs	r0, r4
ARM GAS  /tmp/ccFUrRgl.s 			page 23


 1314 0022 1B78     		ldrb	r3, [r3]
 1315 0024 2572     		strb	r5, [r4, #8]
 1316 0026 6372     		strb	r3, [r4, #9]
 1317 0028 A572     		strb	r5, [r4, #10]
 1318 002a FFF7FEFF 		bl	modem_supervisor_add_task
 1319 002e 2800     		movs	r0, r5
 1320 0030 FFF7FEFF 		bl	set_modem_status_streaming
 1321 0034 07B0     		add	sp, sp, #28
 1322              		@ sp needed
 1323 0036 30BD     		pop	{r4, r5, pc}
 1324              	.L157:
 1325              		.align	2
 1326              	.L156:
 1327 0038 00000000 		.word	modem_stream_state
 1329              		.section	.text.get_modem_status_reset_after_crash,"ax",%progbits
 1330              		.align	1
 1331              		.global	get_modem_status_reset_after_crash
 1332              		.syntax unified
 1333              		.code	16
 1334              		.thumb_func
 1336              	get_modem_status_reset_after_crash:
 1337              		@ args = 0, pretend = 0, frame = 0
 1338              		@ frame_needed = 0, uses_anonymous_args = 0
 1339              		@ link register save eliminated.
 1340 0000 024B     		ldr	r3, .L159
 1341              		@ sp needed
 1342 0002 1878     		ldrb	r0, [r3]
 1343 0004 8007     		lsls	r0, r0, #30
 1344 0006 C00F     		lsrs	r0, r0, #31
 1345 0008 7047     		bx	lr
 1346              	.L160:
 1347 000a C046     		.align	2
 1348              	.L159:
 1349 000c 00000000 		.word	modem_status
 1351              		.section	.text.get_modem_status_file_upload,"ax",%progbits
 1352              		.align	1
 1353              		.global	get_modem_status_file_upload
 1354              		.syntax unified
 1355              		.code	16
 1356              		.thumb_func
 1358              	get_modem_status_file_upload:
 1359              		@ args = 0, pretend = 0, frame = 0
 1360              		@ frame_needed = 0, uses_anonymous_args = 0
 1361              		@ link register save eliminated.
 1362 0000 024B     		ldr	r3, .L162
 1363              		@ sp needed
 1364 0002 1878     		ldrb	r0, [r3]
 1365 0004 8006     		lsls	r0, r0, #26
 1366 0006 C00F     		lsrs	r0, r0, #31
 1367 0008 7047     		bx	lr
 1368              	.L163:
 1369 000a C046     		.align	2
 1370              	.L162:
 1371 000c 00000000 		.word	modem_status
 1373              		.section	.text.get_modem_status_joining,"ax",%progbits
 1374              		.align	1
 1375              		.global	get_modem_status_joining
ARM GAS  /tmp/ccFUrRgl.s 			page 24


 1376              		.syntax unified
 1377              		.code	16
 1378              		.thumb_func
 1380              	get_modem_status_joining:
 1381              		@ args = 0, pretend = 0, frame = 0
 1382              		@ frame_needed = 0, uses_anonymous_args = 0
 1383              		@ link register save eliminated.
 1384 0000 024B     		ldr	r3, .L165
 1385              		@ sp needed
 1386 0002 1878     		ldrb	r0, [r3]
 1387 0004 4006     		lsls	r0, r0, #25
 1388 0006 C00F     		lsrs	r0, r0, #31
 1389 0008 7047     		bx	lr
 1390              	.L166:
 1391 000a C046     		.align	2
 1392              	.L165:
 1393 000c 00000000 		.word	modem_status
 1395              		.section	.text.get_join_state,"ax",%progbits
 1396              		.align	1
 1397              		.global	get_join_state
 1398              		.syntax unified
 1399              		.code	16
 1400              		.thumb_func
 1402              	get_join_state:
 1403              		@ args = 0, pretend = 0, frame = 0
 1404              		@ frame_needed = 0, uses_anonymous_args = 0
 1405 0000 10B5     		push	{r4, lr}
 1406 0002 FFF7FEFF 		bl	get_modem_status_joining
 1407 0006 0300     		movs	r3, r0
 1408 0008 0120     		movs	r0, #1
 1409 000a 002B     		cmp	r3, #0
 1410 000c 05D1     		bne	.L168
 1411 000e FFF7FEFF 		bl	lorawan_api_isjoined
 1412 0012 0238     		subs	r0, r0, #2
 1413 0014 4342     		rsbs	r3, r0, #0
 1414 0016 5841     		adcs	r0, r0, r3
 1415 0018 4000     		lsls	r0, r0, #1
 1416              	.L168:
 1417              		@ sp needed
 1418 001a 10BD     		pop	{r4, pc}
 1420              		.section	.text.modem_supervisor_add_task_dm_status,"ax",%progbits
 1421              		.align	1
 1422              		.global	modem_supervisor_add_task_dm_status
 1423              		.syntax unified
 1424              		.code	16
 1425              		.thumb_func
 1427              	modem_supervisor_add_task_dm_status:
 1428              		@ args = 0, pretend = 0, frame = 24
 1429              		@ frame_needed = 0, uses_anonymous_args = 0
 1430 0000 0223     		movs	r3, #2
 1431 0002 0322     		movs	r2, #3
 1432 0004 30B5     		push	{r4, r5, lr}
 1433 0006 87B0     		sub	sp, sp, #28
 1434 0008 01AC     		add	r4, sp, #4
 1435 000a 0500     		movs	r5, r0
 1436 000c 2370     		strb	r3, [r4]
 1437 000e 2272     		strb	r2, [r4, #8]
ARM GAS  /tmp/ccFUrRgl.s 			page 25


 1438 0010 6374     		strb	r3, [r4, #17]
 1439 0012 FFF7FEFF 		bl	smtc_modem_hal_get_time_in_s
 1440 0016 4019     		adds	r0, r0, r5
 1441 0018 0290     		str	r0, [sp, #8]
 1442 001a FFF7FEFF 		bl	get_join_state
 1443 001e 0228     		cmp	r0, #2
 1444 0020 02D1     		bne	.L170
 1445 0022 2000     		movs	r0, r4
 1446 0024 FFF7FEFF 		bl	modem_supervisor_add_task
 1447              	.L170:
 1448 0028 07B0     		add	sp, sp, #28
 1449              		@ sp needed
 1450 002a 30BD     		pop	{r4, r5, pc}
 1452              		.section	.text.modem_supervisor_add_task_alc_sync_ans,"ax",%progbits
 1453              		.align	1
 1454              		.global	modem_supervisor_add_task_alc_sync_ans
 1455              		.syntax unified
 1456              		.code	16
 1457              		.thumb_func
 1459              	modem_supervisor_add_task_alc_sync_ans:
 1460              		@ args = 0, pretend = 0, frame = 24
 1461              		@ frame_needed = 0, uses_anonymous_args = 0
 1462 0000 0A23     		movs	r3, #10
 1463 0002 30B5     		push	{r4, r5, lr}
 1464 0004 87B0     		sub	sp, sp, #28
 1465 0006 01AC     		add	r4, sp, #4
 1466 0008 2370     		strb	r3, [r4]
 1467 000a 093B     		subs	r3, r3, #9
 1468 000c 2372     		strb	r3, [r4, #8]
 1469 000e 0133     		adds	r3, r3, #1
 1470 0010 0500     		movs	r5, r0
 1471 0012 6374     		strb	r3, [r4, #17]
 1472 0014 FFF7FEFF 		bl	smtc_modem_hal_get_time_in_s
 1473 0018 4019     		adds	r0, r0, r5
 1474 001a 0290     		str	r0, [sp, #8]
 1475 001c FFF7FEFF 		bl	get_join_state
 1476 0020 0228     		cmp	r0, #2
 1477 0022 02D1     		bne	.L172
 1478 0024 2000     		movs	r0, r4
 1479 0026 FFF7FEFF 		bl	modem_supervisor_add_task
 1480              	.L172:
 1481 002a 07B0     		add	sp, sp, #28
 1482              		@ sp needed
 1483 002c 30BD     		pop	{r4, r5, pc}
 1485              		.section	.text.modem_supervisor_add_task_alm_dbg_ans,"ax",%progbits
 1486              		.align	1
 1487              		.global	modem_supervisor_add_task_alm_dbg_ans
 1488              		.syntax unified
 1489              		.code	16
 1490              		.thumb_func
 1492              	modem_supervisor_add_task_alm_dbg_ans:
 1493              		@ args = 0, pretend = 0, frame = 24
 1494              		@ frame_needed = 0, uses_anonymous_args = 0
 1495 0000 0D23     		movs	r3, #13
 1496 0002 30B5     		push	{r4, r5, lr}
 1497 0004 87B0     		sub	sp, sp, #28
 1498 0006 01AC     		add	r4, sp, #4
ARM GAS  /tmp/ccFUrRgl.s 			page 26


 1499 0008 2370     		strb	r3, [r4]
 1500 000a 0C3B     		subs	r3, r3, #12
 1501 000c 2372     		strb	r3, [r4, #8]
 1502 000e 0133     		adds	r3, r3, #1
 1503 0010 0500     		movs	r5, r0
 1504 0012 6374     		strb	r3, [r4, #17]
 1505 0014 FFF7FEFF 		bl	smtc_modem_hal_get_time_in_s
 1506 0018 4019     		adds	r0, r0, r5
 1507 001a 0290     		str	r0, [sp, #8]
 1508 001c FFF7FEFF 		bl	get_join_state
 1509 0020 0228     		cmp	r0, #2
 1510 0022 02D1     		bne	.L174
 1511 0024 2000     		movs	r0, r4
 1512 0026 FFF7FEFF 		bl	modem_supervisor_add_task
 1513              	.L174:
 1514 002a 07B0     		add	sp, sp, #28
 1515              		@ sp needed
 1516 002c 30BD     		pop	{r4, r5, pc}
 1518              		.section	.text.modem_supervisor_add_task_retrieve_dl,"ax",%progbits
 1519              		.align	1
 1520              		.global	modem_supervisor_add_task_retrieve_dl
 1521              		.syntax unified
 1522              		.code	16
 1523              		.thumb_func
 1525              	modem_supervisor_add_task_retrieve_dl:
 1526              		@ args = 0, pretend = 0, frame = 24
 1527              		@ frame_needed = 0, uses_anonymous_args = 0
 1528 0000 0723     		movs	r3, #7
 1529 0002 30B5     		push	{r4, r5, lr}
 1530 0004 87B0     		sub	sp, sp, #28
 1531 0006 01AC     		add	r4, sp, #4
 1532 0008 2370     		strb	r3, [r4]
 1533 000a 043B     		subs	r3, r3, #4
 1534 000c 2372     		strb	r3, [r4, #8]
 1535 000e FE33     		adds	r3, r3, #254
 1536 0010 FF33     		adds	r3, r3, #255
 1537 0012 0500     		movs	r5, r0
 1538 0014 2382     		strh	r3, [r4, #16]
 1539 0016 FFF7FEFF 		bl	smtc_modem_hal_get_time_in_s
 1540 001a 4019     		adds	r0, r0, r5
 1541 001c 0290     		str	r0, [sp, #8]
 1542 001e FFF7FEFF 		bl	get_join_state
 1543 0022 0228     		cmp	r0, #2
 1544 0024 02D1     		bne	.L176
 1545 0026 2000     		movs	r0, r4
 1546 0028 FFF7FEFF 		bl	modem_supervisor_add_task
 1547              	.L176:
 1548 002c 07B0     		add	sp, sp, #28
 1549              		@ sp needed
 1550 002e 30BD     		pop	{r4, r5, pc}
 1552              		.section	.text.modem_supervisor_add_task_frag,"ax",%progbits
 1553              		.align	1
 1554              		.global	modem_supervisor_add_task_frag
 1555              		.syntax unified
 1556              		.code	16
 1557              		.thumb_func
 1559              	modem_supervisor_add_task_frag:
ARM GAS  /tmp/ccFUrRgl.s 			page 27


 1560              		@ args = 0, pretend = 0, frame = 24
 1561              		@ frame_needed = 0, uses_anonymous_args = 0
 1562 0000 0B23     		movs	r3, #11
 1563 0002 30B5     		push	{r4, r5, lr}
 1564 0004 87B0     		sub	sp, sp, #28
 1565 0006 01AC     		add	r4, sp, #4
 1566 0008 2370     		strb	r3, [r4]
 1567 000a 0A3B     		subs	r3, r3, #10
 1568 000c 2372     		strb	r3, [r4, #8]
 1569 000e 0133     		adds	r3, r3, #1
 1570 0010 0500     		movs	r5, r0
 1571 0012 6374     		strb	r3, [r4, #17]
 1572 0014 FFF7FEFF 		bl	smtc_modem_hal_get_time_in_s
 1573 0018 4019     		adds	r0, r0, r5
 1574 001a 0290     		str	r0, [sp, #8]
 1575 001c FFF7FEFF 		bl	get_join_state
 1576 0020 0228     		cmp	r0, #2
 1577 0022 02D1     		bne	.L178
 1578 0024 2000     		movs	r0, r4
 1579 0026 FFF7FEFF 		bl	modem_supervisor_add_task
 1580              	.L178:
 1581 002a 07B0     		add	sp, sp, #28
 1582              		@ sp needed
 1583 002c 30BD     		pop	{r4, r5, pc}
 1585              		.section	.text.modem_supervisor_add_task_link_check_req,"ax",%progbits
 1586              		.align	1
 1587              		.global	modem_supervisor_add_task_link_check_req
 1588              		.syntax unified
 1589              		.code	16
 1590              		.thumb_func
 1592              	modem_supervisor_add_task_link_check_req:
 1593              		@ args = 0, pretend = 0, frame = 24
 1594              		@ frame_needed = 0, uses_anonymous_args = 0
 1595 0000 0F23     		movs	r3, #15
 1596 0002 30B5     		push	{r4, r5, lr}
 1597 0004 87B0     		sub	sp, sp, #28
 1598 0006 01AC     		add	r4, sp, #4
 1599 0008 2370     		strb	r3, [r4]
 1600 000a 0E3B     		subs	r3, r3, #14
 1601 000c 2372     		strb	r3, [r4, #8]
 1602 000e 0133     		adds	r3, r3, #1
 1603 0010 0500     		movs	r5, r0
 1604 0012 6374     		strb	r3, [r4, #17]
 1605 0014 FFF7FEFF 		bl	smtc_modem_hal_get_time_in_s
 1606 0018 4019     		adds	r0, r0, r5
 1607 001a 0290     		str	r0, [sp, #8]
 1608 001c FFF7FEFF 		bl	get_join_state
 1609 0020 0228     		cmp	r0, #2
 1610 0022 02D1     		bne	.L180
 1611 0024 2000     		movs	r0, r4
 1612 0026 FFF7FEFF 		bl	modem_supervisor_add_task
 1613              	.L180:
 1614 002a 07B0     		add	sp, sp, #28
 1615              		@ sp needed
 1616 002c 30BD     		pop	{r4, r5, pc}
 1618              		.section	.text.modem_supervisor_add_task_device_time_req,"ax",%progbits
 1619              		.align	1
ARM GAS  /tmp/ccFUrRgl.s 			page 28


 1620              		.global	modem_supervisor_add_task_device_time_req
 1621              		.syntax unified
 1622              		.code	16
 1623              		.thumb_func
 1625              	modem_supervisor_add_task_device_time_req:
 1626              		@ args = 0, pretend = 0, frame = 24
 1627              		@ frame_needed = 0, uses_anonymous_args = 0
 1628 0000 1023     		movs	r3, #16
 1629 0002 30B5     		push	{r4, r5, lr}
 1630 0004 87B0     		sub	sp, sp, #28
 1631 0006 01AC     		add	r4, sp, #4
 1632 0008 2370     		strb	r3, [r4]
 1633 000a 0F3B     		subs	r3, r3, #15
 1634 000c 2372     		strb	r3, [r4, #8]
 1635 000e 0133     		adds	r3, r3, #1
 1636 0010 0500     		movs	r5, r0
 1637 0012 6374     		strb	r3, [r4, #17]
 1638 0014 FFF7FEFF 		bl	smtc_modem_hal_get_time_in_s
 1639 0018 4019     		adds	r0, r0, r5
 1640 001a 0290     		str	r0, [sp, #8]
 1641 001c FFF7FEFF 		bl	get_join_state
 1642 0020 0228     		cmp	r0, #2
 1643 0022 02D1     		bne	.L182
 1644 0024 2000     		movs	r0, r4
 1645 0026 FFF7FEFF 		bl	modem_supervisor_add_task
 1646              	.L182:
 1647 002a 07B0     		add	sp, sp, #28
 1648              		@ sp needed
 1649 002c 30BD     		pop	{r4, r5, pc}
 1651              		.section	.text.modem_supervisor_add_task_ping_slot_info_req,"ax",%progbits
 1652              		.align	1
 1653              		.global	modem_supervisor_add_task_ping_slot_info_req
 1654              		.syntax unified
 1655              		.code	16
 1656              		.thumb_func
 1658              	modem_supervisor_add_task_ping_slot_info_req:
 1659              		@ args = 0, pretend = 0, frame = 24
 1660              		@ frame_needed = 0, uses_anonymous_args = 0
 1661 0000 1123     		movs	r3, #17
 1662 0002 30B5     		push	{r4, r5, lr}
 1663 0004 87B0     		sub	sp, sp, #28
 1664 0006 01AC     		add	r4, sp, #4
 1665 0008 2370     		strb	r3, [r4]
 1666 000a 103B     		subs	r3, r3, #16
 1667 000c 2372     		strb	r3, [r4, #8]
 1668 000e 0133     		adds	r3, r3, #1
 1669 0010 0500     		movs	r5, r0
 1670 0012 6374     		strb	r3, [r4, #17]
 1671 0014 FFF7FEFF 		bl	smtc_modem_hal_get_time_in_s
 1672 0018 4019     		adds	r0, r0, r5
 1673 001a 0290     		str	r0, [sp, #8]
 1674 001c FFF7FEFF 		bl	get_join_state
 1675 0020 0228     		cmp	r0, #2
 1676 0022 02D1     		bne	.L184
 1677 0024 2000     		movs	r0, r4
 1678 0026 FFF7FEFF 		bl	modem_supervisor_add_task
 1679              	.L184:
ARM GAS  /tmp/ccFUrRgl.s 			page 29


 1680 002a 07B0     		add	sp, sp, #28
 1681              		@ sp needed
 1682 002c 30BD     		pop	{r4, r5, pc}
 1684              		.section	.text.get_modem_status,"ax",%progbits
 1685              		.align	1
 1686              		.global	get_modem_status
 1687              		.syntax unified
 1688              		.code	16
 1689              		.thumb_func
 1691              	get_modem_status:
 1692              		@ args = 0, pretend = 0, frame = 0
 1693              		@ frame_needed = 0, uses_anonymous_args = 0
 1694 0000 10B5     		push	{r4, lr}
 1695 0002 FFF7FEFF 		bl	get_join_state
 1696 0006 0228     		cmp	r0, #2
 1697 0008 02D0     		beq	.L187
 1698 000a 0020     		movs	r0, #0
 1699 000c FFF7FEFF 		bl	set_modem_status_modem_joined
 1700              	.L187:
 1701              		@ sp needed
 1702 0010 014B     		ldr	r3, .L191
 1703 0012 1878     		ldrb	r0, [r3]
 1704 0014 10BD     		pop	{r4, pc}
 1705              	.L192:
 1706 0016 C046     		.align	2
 1707              	.L191:
 1708 0018 00000000 		.word	modem_status
 1710              		.section	.text.get_modem_status_streaming,"ax",%progbits
 1711              		.align	1
 1712              		.global	get_modem_status_streaming
 1713              		.syntax unified
 1714              		.code	16
 1715              		.thumb_func
 1717              	get_modem_status_streaming:
 1718              		@ args = 0, pretend = 0, frame = 0
 1719              		@ frame_needed = 0, uses_anonymous_args = 0
 1720              		@ link register save eliminated.
 1721 0000 014B     		ldr	r3, .L194
 1722              		@ sp needed
 1723 0002 1878     		ldrb	r0, [r3]
 1724 0004 C009     		lsrs	r0, r0, #7
 1725 0006 7047     		bx	lr
 1726              	.L195:
 1727              		.align	2
 1728              	.L194:
 1729 0008 00000000 		.word	modem_status
 1731              		.section	.text.reset_modem_charge,"ax",%progbits
 1732              		.align	1
 1733              		.global	reset_modem_charge
 1734              		.syntax unified
 1735              		.code	16
 1736              		.thumb_func
 1738              	reset_modem_charge:
 1739              		@ args = 0, pretend = 0, frame = 0
 1740              		@ frame_needed = 0, uses_anonymous_args = 0
 1741 0000 C422     		movs	r2, #196
 1742 0002 054B     		ldr	r3, .L197
ARM GAS  /tmp/ccFUrRgl.s 			page 30


 1743 0004 10B5     		push	{r4, lr}
 1744 0006 1868     		ldr	r0, [r3]
 1745 0008 044B     		ldr	r3, .L197+4
 1746 000a 0021     		movs	r1, #0
 1747              		@ sp needed
 1748 000c C018     		adds	r0, r0, r3
 1749 000e 5200     		lsls	r2, r2, #1
 1750 0010 FFF7FEFF 		bl	memset
 1751 0014 10BD     		pop	{r4, pc}
 1752              	.L198:
 1753 0016 C046     		.align	2
 1754              	.L197:
 1755 0018 00000000 		.word	modem_rp
 1756 001c F4070000 		.word	2036
 1758              		.global	__aeabi_uidiv
 1759              		.section	.text.get_modem_charge_ma_s,"ax",%progbits
 1760              		.align	1
 1761              		.global	get_modem_charge_ma_s
 1762              		.syntax unified
 1763              		.code	16
 1764              		.thumb_func
 1766              	get_modem_charge_ma_s:
 1767              		@ args = 0, pretend = 0, frame = 0
 1768              		@ frame_needed = 0, uses_anonymous_args = 0
 1769 0000 FA21     		movs	r1, #250
 1770 0002 094B     		ldr	r3, .L200
 1771 0004 094A     		ldr	r2, .L200+4
 1772 0006 1B68     		ldr	r3, [r3]
 1773 0008 10B5     		push	{r4, lr}
 1774 000a 9858     		ldr	r0, [r3, r2]
 1775 000c 084A     		ldr	r2, .L200+8
 1776 000e 8900     		lsls	r1, r1, #2
 1777 0010 9A58     		ldr	r2, [r3, r2]
 1778              		@ sp needed
 1779 0012 8018     		adds	r0, r0, r2
 1780 0014 074A     		ldr	r2, .L200+12
 1781 0016 9B58     		ldr	r3, [r3, r2]
 1782 0018 C018     		adds	r0, r0, r3
 1783 001a FFF7FEFF 		bl	__aeabi_uidiv
 1784 001e 064B     		ldr	r3, .L200+16
 1785 0020 1B68     		ldr	r3, [r3]
 1786 0022 C018     		adds	r0, r0, r3
 1787 0024 10BD     		pop	{r4, pc}
 1788              	.L201:
 1789 0026 C046     		.align	2
 1790              	.L200:
 1791 0028 00000000 		.word	modem_rp
 1792 002c 34090000 		.word	2356
 1793 0030 38090000 		.word	2360
 1794 0034 3C090000 		.word	2364
 1795 0038 00000000 		.word	modem_charge_offset
 1797              		.section	.text.get_modem_charge_ma_h,"ax",%progbits
 1798              		.align	1
 1799              		.global	get_modem_charge_ma_h
 1800              		.syntax unified
 1801              		.code	16
 1802              		.thumb_func
ARM GAS  /tmp/ccFUrRgl.s 			page 31


 1804              	get_modem_charge_ma_h:
 1805              		@ args = 0, pretend = 0, frame = 0
 1806              		@ frame_needed = 0, uses_anonymous_args = 0
 1807 0000 10B5     		push	{r4, lr}
 1808 0002 FFF7FEFF 		bl	get_modem_charge_ma_s
 1809              		@ sp needed
 1810 0006 E121     		movs	r1, #225
 1811 0008 0901     		lsls	r1, r1, #4
 1812 000a FFF7FEFF 		bl	__aeabi_uidiv
 1813 000e 10BD     		pop	{r4, pc}
 1815              		.section	.text.get_modem_user_define_charge_ma_h,"ax",%progbits
 1816              		.align	1
 1817              		.global	get_modem_user_define_charge_ma_h
 1818              		.syntax unified
 1819              		.code	16
 1820              		.thumb_func
 1822              	get_modem_user_define_charge_ma_h:
 1823              		@ args = 0, pretend = 0, frame = 0
 1824              		@ frame_needed = 0, uses_anonymous_args = 0
 1825              		@ link register save eliminated.
 1826 0000 014B     		ldr	r3, .L204
 1827              		@ sp needed
 1828 0002 1888     		ldrh	r0, [r3]
 1829 0004 7047     		bx	lr
 1830              	.L205:
 1831 0006 C046     		.align	2
 1832              	.L204:
 1833 0008 00000000 		.word	user_define_charge_counter
 1835              		.section	.text.set_modem_user_define_charge_ma_h,"ax",%progbits
 1836              		.align	1
 1837              		.global	set_modem_user_define_charge_ma_h
 1838              		.syntax unified
 1839              		.code	16
 1840              		.thumb_func
 1842              	set_modem_user_define_charge_ma_h:
 1843              		@ args = 0, pretend = 0, frame = 0
 1844              		@ frame_needed = 0, uses_anonymous_args = 0
 1845              		@ link register save eliminated.
 1846 0000 014B     		ldr	r3, .L207
 1847              		@ sp needed
 1848 0002 1880     		strh	r0, [r3]
 1849 0004 7047     		bx	lr
 1850              	.L208:
 1851 0006 C046     		.align	2
 1852              	.L207:
 1853 0008 00000000 		.word	user_define_charge_counter
 1855              		.section	.text.choose_modem_charge_counter,"ax",%progbits
 1856              		.align	1
 1857              		.global	choose_modem_charge_counter
 1858              		.syntax unified
 1859              		.code	16
 1860              		.thumb_func
 1862              	choose_modem_charge_counter:
 1863              		@ args = 0, pretend = 0, frame = 0
 1864              		@ frame_needed = 0, uses_anonymous_args = 0
 1865              		@ link register save eliminated.
 1866 0000 0022     		movs	r2, #0
ARM GAS  /tmp/ccFUrRgl.s 			page 32


 1867              		@ sp needed
 1868 0002 014B     		ldr	r3, .L210
 1869 0004 1A70     		strb	r2, [r3]
 1870 0006 7047     		bx	lr
 1871              	.L211:
 1872              		.align	2
 1873              	.L210:
 1874 0008 00000000 		.word	charge_counter_to_send
 1876              		.section	.text.choose_user_define_charge_counter,"ax",%progbits
 1877              		.align	1
 1878              		.global	choose_user_define_charge_counter
 1879              		.syntax unified
 1880              		.code	16
 1881              		.thumb_func
 1883              	choose_user_define_charge_counter:
 1884              		@ args = 0, pretend = 0, frame = 0
 1885              		@ frame_needed = 0, uses_anonymous_args = 0
 1886              		@ link register save eliminated.
 1887 0000 0122     		movs	r2, #1
 1888              		@ sp needed
 1889 0002 014B     		ldr	r3, .L213
 1890 0004 1A70     		strb	r2, [r3]
 1891 0006 7047     		bx	lr
 1892              	.L214:
 1893              		.align	2
 1894              	.L213:
 1895 0008 00000000 		.word	charge_counter_to_send
 1897              		.section	.text.get_charge_counter_to_send,"ax",%progbits
 1898              		.align	1
 1899              		.global	get_charge_counter_to_send
 1900              		.syntax unified
 1901              		.code	16
 1902              		.thumb_func
 1904              	get_charge_counter_to_send:
 1905              		@ args = 0, pretend = 0, frame = 0
 1906              		@ frame_needed = 0, uses_anonymous_args = 0
 1907              		@ link register save eliminated.
 1908 0000 014B     		ldr	r3, .L216
 1909              		@ sp needed
 1910 0002 1878     		ldrb	r0, [r3]
 1911 0004 7047     		bx	lr
 1912              	.L217:
 1913 0006 C046     		.align	2
 1914              	.L216:
 1915 0008 00000000 		.word	charge_counter_to_send
 1917              		.section	.text.get_modem_voltage,"ax",%progbits
 1918              		.align	1
 1919              		.global	get_modem_voltage
 1920              		.syntax unified
 1921              		.code	16
 1922              		.thumb_func
 1924              	get_modem_voltage:
 1925              		@ args = 0, pretend = 0, frame = 0
 1926              		@ frame_needed = 0, uses_anonymous_args = 0
 1927 0000 10B5     		push	{r4, lr}
 1928 0002 FFF7FEFF 		bl	smtc_modem_hal_get_voltage
 1929              		@ sp needed
ARM GAS  /tmp/ccFUrRgl.s 			page 33


 1930 0006 10BD     		pop	{r4, pc}
 1932              		.section	.text.get_modem_temp,"ax",%progbits
 1933              		.align	1
 1934              		.global	get_modem_temp
 1935              		.syntax unified
 1936              		.code	16
 1937              		.thumb_func
 1939              	get_modem_temp:
 1940              		@ args = 0, pretend = 0, frame = 0
 1941              		@ frame_needed = 0, uses_anonymous_args = 0
 1942 0000 10B5     		push	{r4, lr}
 1943 0002 FFF7FEFF 		bl	smtc_modem_hal_get_temperature
 1944              		@ sp needed
 1945 0006 10BD     		pop	{r4, pc}
 1947              		.section	.rodata.dm_check_dminfo_size.str1.1,"aMS",%progbits,1
 1948              	.LC103:
 1949 0000 1B5B303B 		.ascii	"\033[0;31mERROR: Invalid DM command\012\000"
 1949      33316D45 
 1949      52524F52 
 1949      3A20496E 
 1949      76616C69 
 1950              	.LC107:
 1951 0022 1B5B303B 		.ascii	"\033[0;31mERROR: Invalid DM command size\012\000"
 1951      33316D45 
 1951      52524F52 
 1951      3A20496E 
 1951      76616C69 
 1952              		.section	.text.dm_check_dminfo_size,"ax",%progbits
 1953              		.align	1
 1954              		.global	dm_check_dminfo_size
 1955              		.syntax unified
 1956              		.code	16
 1957              		.thumb_func
 1959              	dm_check_dminfo_size:
 1960              		@ args = 0, pretend = 0, frame = 0
 1961              		@ frame_needed = 0, uses_anonymous_args = 0
 1962 0000 10B5     		push	{r4, lr}
 1963 0002 1B28     		cmp	r0, #27
 1964 0004 07D9     		bls	.L221
 1965 0006 0748     		ldr	r0, .L226
 1966              	.L225:
 1967 0008 FFF7FEFF 		bl	smtc_modem_hal_print_trace
 1968 000c 0648     		ldr	r0, .L226+4
 1969 000e FFF7FEFF 		bl	smtc_modem_hal_print_trace
 1970 0012 0120     		movs	r0, #1
 1971              	.L223:
 1972              		@ sp needed
 1973 0014 10BD     		pop	{r4, pc}
 1974              	.L221:
 1975 0016 054B     		ldr	r3, .L226+8
 1976 0018 1B5C     		ldrb	r3, [r3, r0]
 1977 001a 0020     		movs	r0, #0
 1978 001c 8B42     		cmp	r3, r1
 1979 001e F9D0     		beq	.L223
 1980 0020 0348     		ldr	r0, .L226+12
 1981 0022 F1E7     		b	.L225
 1982              	.L227:
ARM GAS  /tmp/ccFUrRgl.s 			page 34


 1983              		.align	2
 1984              	.L226:
 1985 0024 00000000 		.word	.LC103
 1986 0028 1D000000 		.word	.LC41
 1987 002c 00000000 		.word	dm_info_field_sz
 1988 0030 22000000 		.word	.LC107
 1990              		.section	.text.dm_set_conf,"ax",%progbits
 1991              		.align	1
 1992              		.global	dm_set_conf
 1993              		.syntax unified
 1994              		.code	16
 1995              		.thumb_func
 1997              	dm_set_conf:
 1998              		@ args = 0, pretend = 0, frame = 8
 1999              		@ frame_needed = 0, uses_anonymous_args = 0
 2000 0000 37B5     		push	{r0, r1, r2, r4, r5, lr}
 2001 0002 0C00     		movs	r4, r1
 2002 0004 1100     		movs	r1, r2
 2003 0006 0500     		movs	r5, r0
 2004 0008 FFF7FEFF 		bl	dm_check_dminfo_size
 2005 000c 0028     		cmp	r0, #0
 2006 000e 01D0     		beq	.L229
 2007              	.L230:
 2008 0010 0020     		movs	r0, #0
 2009              	.L231:
 2010              		@ sp needed
 2011 0012 3EBD     		pop	{r1, r2, r3, r4, r5, pc}
 2012              	.L229:
 2013 0014 2800     		movs	r0, r5
 2014 0016 0838     		subs	r0, r0, #8
 2015 0018 0328     		cmp	r0, #3
 2016 001a F9D8     		bhi	.L230
 2017 001c FFF7FEFF 		bl	__gnu_thumb1_case_uqi
 2018              	.L233:
 2019 0020 02       		.byte	(.L236-.L233)/2
 2020 0021 0F       		.byte	(.L235-.L233)/2
 2021 0022 18       		.byte	(.L234-.L233)/2
 2022 0023 20       		.byte	(.L232-.L233)/2
 2023              		.p2align 1
 2024              	.L236:
 2025 0024 2078     		ldrb	r0, [r4]
 2026 0026 124B     		ldr	r3, .L243
 2027 0028 1870     		strb	r0, [r3]
 2028 002a FFF7FEFF 		bl	lorawan_api_dr_strategy_set
 2029 002e 0130     		adds	r0, r0, #1
 2030 0030 EED0     		beq	.L230
 2031              	.L238:
 2032 0032 0620     		movs	r0, #6
 2033 0034 2900     		movs	r1, r5
 2034 0036 FFF7FEFF 		bl	increment_asynchronous_msgnumber
 2035 003a 0120     		movs	r0, #1
 2036 003c E9E7     		b	.L231
 2037              	.L235:
 2038 003e 6846     		mov	r0, sp
 2039 0040 0822     		movs	r2, #8
 2040 0042 2100     		movs	r1, r4
 2041 0044 FFF7FEFF 		bl	memcpy1_r
ARM GAS  /tmp/ccFUrRgl.s 			page 35


 2042 0048 6846     		mov	r0, sp
 2043 004a FFF7FEFF 		bl	lorawan_api_set_joineui
 2044 004e F0E7     		b	.L238
 2045              	.L234:
 2046 0050 2078     		ldrb	r0, [r4]
 2047 0052 FFF7FEFF 		bl	set_modem_dm_interval
 2048 0056 FFF7FEFF 		bl	get_modem_dm_interval_second
 2049 005a FFF7FEFF 		bl	modem_supervisor_add_task_dm_status
 2050 005e E8E7     		b	.L238
 2051              	.L232:
 2052 0060 0020     		movs	r0, #0
 2053 0062 FFF7FEFF 		bl	smtc_modem_leave_network
 2054 0066 2078     		ldrb	r0, [r4]
 2055 0068 FFF7FEFF 		bl	set_modem_region
 2056 006c E1E7     		b	.L238
 2057              	.L244:
 2058 006e C046     		.align	2
 2059              	.L243:
 2060 0070 00000000 		.word	modem_adr_profile
 2062              		.section	.text.get_modem_muted,"ax",%progbits
 2063              		.align	1
 2064              		.global	get_modem_muted
 2065              		.syntax unified
 2066              		.code	16
 2067              		.thumb_func
 2069              	get_modem_muted:
 2070              		@ args = 0, pretend = 0, frame = 0
 2071              		@ frame_needed = 0, uses_anonymous_args = 0
 2072              		@ link register save eliminated.
 2073 0000 034B     		ldr	r3, .L250
 2074 0002 1878     		ldrb	r0, [r3]
 2075 0004 FF28     		cmp	r0, #255
 2076 0006 02D0     		beq	.L246
 2077 0008 431E     		subs	r3, r0, #1
 2078 000a 9841     		sbcs	r0, r0, r3
 2079 000c C0B2     		uxtb	r0, r0
 2080              	.L246:
 2081              		@ sp needed
 2082 000e 7047     		bx	lr
 2083              	.L251:
 2084              		.align	2
 2085              	.L250:
 2086 0010 00000000 		.word	number_of_muted_day
 2088              		.section	.text.dm_get_number_of_days_mute,"ax",%progbits
 2089              		.align	1
 2090              		.global	dm_get_number_of_days_mute
 2091              		.syntax unified
 2092              		.code	16
 2093              		.thumb_func
 2095              	dm_get_number_of_days_mute:
 2096              		@ args = 0, pretend = 0, frame = 0
 2097              		@ frame_needed = 0, uses_anonymous_args = 0
 2098              		@ link register save eliminated.
 2099 0000 014B     		ldr	r3, .L253
 2100              		@ sp needed
 2101 0002 1878     		ldrb	r0, [r3]
 2102 0004 7047     		bx	lr
ARM GAS  /tmp/ccFUrRgl.s 			page 36


 2103              	.L254:
 2104 0006 C046     		.align	2
 2105              	.L253:
 2106 0008 00000000 		.word	number_of_muted_day
 2108              		.section	.rodata.dm_set_number_of_days_mute.str1.1,"aMS",%progbits,1
 2109              	.LC112:
 2110 0000 4D555445 		.ascii	"MUTE for %d days\012\000"
 2110      20666F72 
 2110      20256420 
 2110      64617973 
 2110      0A00
 2111              		.section	.text.dm_set_number_of_days_mute,"ax",%progbits
 2112              		.align	1
 2113              		.global	dm_set_number_of_days_mute
 2114              		.syntax unified
 2115              		.code	16
 2116              		.thumb_func
 2118              	dm_set_number_of_days_mute:
 2119              		@ args = 0, pretend = 0, frame = 0
 2120              		@ frame_needed = 0, uses_anonymous_args = 0
 2121 0000 10B5     		push	{r4, lr}
 2122 0002 0400     		movs	r4, r0
 2123 0004 0748     		ldr	r0, .L259
 2124 0006 2100     		movs	r1, r4
 2125 0008 FFF7FEFF 		bl	smtc_modem_hal_print_trace
 2126 000c 064B     		ldr	r3, .L259+4
 2127 000e 1A78     		ldrb	r2, [r3]
 2128 0010 A242     		cmp	r2, r4
 2129 0012 06D0     		beq	.L255
 2130 0014 0120     		movs	r0, #1
 2131 0016 1C70     		strb	r4, [r3]
 2132 0018 002C     		cmp	r4, #0
 2133 001a 00D1     		bne	.L258
 2134 001c 2000     		movs	r0, r4
 2135              	.L258:
 2136 001e FFF7FEFF 		bl	set_modem_status_modem_mute
 2137              	.L255:
 2138              		@ sp needed
 2139 0022 10BD     		pop	{r4, pc}
 2140              	.L260:
 2141              		.align	2
 2142              	.L259:
 2143 0024 00000000 		.word	.LC112
 2144 0028 00000000 		.word	number_of_muted_day
 2146              		.section	.text.get_dm_info_tag_list,"ax",%progbits
 2147              		.align	1
 2148              		.global	get_dm_info_tag_list
 2149              		.syntax unified
 2150              		.code	16
 2151              		.thumb_func
 2153              	get_dm_info_tag_list:
 2154              		@ args = 0, pretend = 0, frame = 0
 2155              		@ frame_needed = 0, uses_anonymous_args = 0
 2156 0000 30B5     		push	{r4, r5, lr}
 2157 0002 0A4B     		ldr	r3, .L271
 2158 0004 0129     		cmp	r1, #1
 2159 0006 00D0     		beq	.L270
ARM GAS  /tmp/ccFUrRgl.s 			page 37


 2160 0008 094B     		ldr	r3, .L271+4
 2161              	.L270:
 2162 000a 1968     		ldr	r1, [r3]
 2163 000c 0022     		movs	r2, #0
 2164 000e 0300     		movs	r3, r0
 2165 0010 0124     		movs	r4, #1
 2166              	.L265:
 2167 0012 2500     		movs	r5, r4
 2168 0014 9540     		lsls	r5, r5, r2
 2169 0016 2942     		tst	r1, r5
 2170 0018 01D0     		beq	.L264
 2171 001a 1A70     		strb	r2, [r3]
 2172 001c 0133     		adds	r3, r3, #1
 2173              	.L264:
 2174 001e 0132     		adds	r2, r2, #1
 2175 0020 1C2A     		cmp	r2, #28
 2176 0022 F6D1     		bne	.L265
 2177 0024 181A     		subs	r0, r3, r0
 2178 0026 C0B2     		uxtb	r0, r0
 2179              		@ sp needed
 2180 0028 30BD     		pop	{r4, r5, pc}
 2181              	.L272:
 2182 002a C046     		.align	2
 2183              	.L271:
 2184 002c 00000000 		.word	dm_info_bitfield_now
 2185 0030 00000000 		.word	dm_info_bitfield_periodic
 2187              		.section	.rodata.set_dm_info.str1.1,"aMS",%progbits,1
 2188              	.LC117:
 2189 0000 1B5B303B 		.ascii	"\033[0;31mERROR: invalid DM info code (0x%02x)\012\000"
 2189      33316D45 
 2189      52524F52 
 2189      3A20696E 
 2189      76616C69 
 2190              		.section	.text.set_dm_info,"ax",%progbits
 2191              		.align	1
 2192              		.global	set_dm_info
 2193              		.syntax unified
 2194              		.code	16
 2195              		.thumb_func
 2197              	set_dm_info:
 2198              		@ args = 0, pretend = 0, frame = 8
 2199              		@ frame_needed = 0, uses_anonymous_args = 0
 2200 0000 F7B5     		push	{r0, r1, r2, r4, r5, r6, r7, lr}
 2201 0002 0400     		movs	r4, r0
 2202 0004 0600     		movs	r6, r0
 2203 0006 0700     		movs	r7, r0
 2204 0008 0125     		movs	r5, #1
 2205 000a 4318     		adds	r3, r0, r1
 2206 000c 0192     		str	r2, [sp, #4]
 2207 000e 0093     		str	r3, [sp]
 2208              	.L274:
 2209 0010 009B     		ldr	r3, [sp]
 2210 0012 9F42     		cmp	r7, r3
 2211 0014 04D1     		bne	.L277
 2212 0016 012D     		cmp	r5, #1
 2213 0018 1DD0     		beq	.L278
 2214              	.L284:
ARM GAS  /tmp/ccFUrRgl.s 			page 38


 2215 001a 0025     		movs	r5, #0
 2216              	.L279:
 2217              		@ sp needed
 2218 001c 2800     		movs	r0, r5
 2219 001e FEBD     		pop	{r1, r2, r3, r4, r5, r6, r7, pc}
 2220              	.L277:
 2221 0020 3978     		ldrb	r1, [r7]
 2222 0022 1B29     		cmp	r1, #27
 2223 0024 04D8     		bhi	.L275
 2224 0026 1E4B     		ldr	r3, .L297
 2225 0028 0122     		movs	r2, #1
 2226 002a 0B41     		asrs	r3, r3, r1
 2227 002c 1342     		tst	r3, r2
 2228 002e 06D1     		bne	.L276
 2229              	.L275:
 2230 0030 1C48     		ldr	r0, .L297+4
 2231 0032 FFF7FEFF 		bl	smtc_modem_hal_print_trace
 2232 0036 1C48     		ldr	r0, .L297+8
 2233 0038 FFF7FEFF 		bl	smtc_modem_hal_print_trace
 2234 003c 0025     		movs	r5, #0
 2235              	.L276:
 2236 003e 0137     		adds	r7, r7, #1
 2237 0040 E6E7     		b	.L274
 2238              	.L282:
 2239 0042 2378     		ldrb	r3, [r4]
 2240 0044 0D2B     		cmp	r3, #13
 2241 0046 05D1     		bne	.L281
 2242 0048 019B     		ldr	r3, [sp, #4]
 2243 004a 012B     		cmp	r3, #1
 2244 004c 0BD1     		bne	.L291
 2245 004e 0020     		movs	r0, #0
 2246 0050 FFF7FEFF 		bl	modem_supervisor_add_task_crash_log
 2247              	.L281:
 2248 0054 0134     		adds	r4, r4, #1
 2249              	.L278:
 2250 0056 009B     		ldr	r3, [sp]
 2251 0058 9C42     		cmp	r4, r3
 2252 005a F2D1     		bne	.L282
 2253 005c 012D     		cmp	r5, #1
 2254 005e DCD1     		bne	.L284
 2255 0060 0023     		movs	r3, #0
 2256 0062 2900     		movs	r1, r5
 2257 0064 08E0     		b	.L283
 2258              	.L291:
 2259 0066 0025     		movs	r5, #0
 2260 0068 F4E7     		b	.L281
 2261              	.L286:
 2262 006a 3278     		ldrb	r2, [r6]
 2263 006c 0D2A     		cmp	r2, #13
 2264 006e 02D0     		beq	.L285
 2265 0070 0800     		movs	r0, r1
 2266 0072 9040     		lsls	r0, r0, r2
 2267 0074 0343     		orrs	r3, r0
 2268              	.L285:
 2269 0076 0136     		adds	r6, r6, #1
 2270              	.L283:
 2271 0078 009A     		ldr	r2, [sp]
ARM GAS  /tmp/ccFUrRgl.s 			page 39


 2272 007a 9642     		cmp	r6, r2
 2273 007c F5D1     		bne	.L286
 2274 007e 019A     		ldr	r2, [sp, #4]
 2275 0080 012A     		cmp	r2, #1
 2276 0082 05D1     		bne	.L287
 2277 0084 094A     		ldr	r2, .L297+12
 2278 0086 1360     		str	r3, [r2]
 2279 0088 094B     		ldr	r3, .L297+16
 2280              	.L296:
 2281 008a 0022     		movs	r2, #0
 2282 008c 1A70     		strb	r2, [r3]
 2283 008e C5E7     		b	.L279
 2284              	.L287:
 2285 0090 084A     		ldr	r2, .L297+20
 2286 0092 1168     		ldr	r1, [r2]
 2287 0094 9942     		cmp	r1, r3
 2288 0096 C1D0     		beq	.L279
 2289 0098 1360     		str	r3, [r2]
 2290 009a 074B     		ldr	r3, .L297+24
 2291 009c F5E7     		b	.L296
 2292              	.L298:
 2293 009e C046     		.align	2
 2294              	.L297:
 2295 00a0 FFAF6DF1 		.word	-244469761
 2296 00a4 00000000 		.word	.LC117
 2297 00a8 1D000000 		.word	.LC41
 2298 00ac 00000000 		.word	dm_info_bitfield_now
 2299 00b0 00000000 		.word	tag_number_now
 2300 00b4 00000000 		.word	dm_info_bitfield_periodic
 2301 00b8 00000000 		.word	tag_number
 2303              		.section	.text.set_modem_suspend,"ax",%progbits
 2304              		.align	1
 2305              		.global	set_modem_suspend
 2306              		.syntax unified
 2307              		.code	16
 2308              		.thumb_func
 2310              	set_modem_suspend:
 2311              		@ args = 0, pretend = 0, frame = 0
 2312              		@ frame_needed = 0, uses_anonymous_args = 0
 2313 0000 10B5     		push	{r4, lr}
 2314 0002 0400     		movs	r4, r0
 2315              		@ sp needed
 2316 0004 FFF7FEFF 		bl	set_modem_status_radio_suspend
 2317 0008 014B     		ldr	r3, .L300
 2318 000a 0120     		movs	r0, #1
 2319 000c 1C70     		strb	r4, [r3]
 2320 000e 10BD     		pop	{r4, pc}
 2321              	.L301:
 2322              		.align	2
 2323              	.L300:
 2324 0010 00000000 		.word	is_modem_suspend
 2326              		.section	.text.get_modem_suspend,"ax",%progbits
 2327              		.align	1
 2328              		.global	get_modem_suspend
 2329              		.syntax unified
 2330              		.code	16
 2331              		.thumb_func
ARM GAS  /tmp/ccFUrRgl.s 			page 40


 2333              	get_modem_suspend:
 2334              		@ args = 0, pretend = 0, frame = 0
 2335              		@ frame_needed = 0, uses_anonymous_args = 0
 2336              		@ link register save eliminated.
 2337 0000 034B     		ldr	r3, .L303
 2338              		@ sp needed
 2339 0002 1878     		ldrb	r0, [r3]
 2340 0004 0138     		subs	r0, r0, #1
 2341 0006 4342     		rsbs	r3, r0, #0
 2342 0008 5841     		adcs	r0, r0, r3
 2343 000a C0B2     		uxtb	r0, r0
 2344 000c 7047     		bx	lr
 2345              	.L304:
 2346 000e C046     		.align	2
 2347              	.L303:
 2348 0010 00000000 		.word	is_modem_suspend
 2350              		.section	.rodata.set_modem_adr_profile.str1.1,"aMS",%progbits,1
 2351              	.LC126:
 2352 0000 1B5B303B 		.ascii	"\033[0;31mERROR: user_dr = %d not compatible with a"
 2352      33316D45 
 2352      52524F52 
 2352      3A207573 
 2352      65725F64 
 2353 0030 64722064 		.ascii	"dr data length = %d \012 \000"
 2353      61746120 
 2353      6C656E67 
 2353      7468203D 
 2353      20256420 
 2354              	.LC130:
 2355 0047 1B5B303B 		.ascii	"\033[0;31mERROR: ADR with DataRate out of range\012"
 2355      33316D45 
 2355      52524F52 
 2355      3A204144 
 2355      52207769 
 2356 0074 00       		.ascii	"\000"
 2357              	.LC132:
 2358 0075 1B5B303B 		.ascii	"\033[0;31mERROR: ADR with a bad DataRate value\012\000"
 2358      33316D45 
 2358      52524F52 
 2358      3A204144 
 2358      52207769 
 2359              		.section	.text.set_modem_adr_profile,"ax",%progbits
 2360              		.align	1
 2361              		.global	set_modem_adr_profile
 2362              		.syntax unified
 2363              		.code	16
 2364              		.thumb_func
 2366              	set_modem_adr_profile:
 2367              		@ args = 0, pretend = 0, frame = 8
 2368              		@ frame_needed = 0, uses_anonymous_args = 0
 2369 0000 F7B5     		push	{r0, r1, r2, r4, r5, r6, r7, lr}
 2370 0002 0D00     		movs	r5, r1
 2371 0004 0328     		cmp	r0, #3
 2372 0006 19D8     		bhi	.L306
 2373 0008 16D1     		bne	.L307
 2374 000a 102A     		cmp	r2, #16
 2375 000c 16D1     		bne	.L306
ARM GAS  /tmp/ccFUrRgl.s 			page 41


 2376 000e 5E4B     		ldr	r3, .L344
 2377 0010 0126     		movs	r6, #1
 2378 0012 1870     		strb	r0, [r3]
 2379 0014 FFF7FEFF 		bl	lorawan_api_mask_tx_dr_channel_up_dwell_time_check
 2380 0018 0822     		movs	r2, #8
 2381 001a 0021     		movs	r1, #0
 2382 001c 0400     		movs	r4, r0
 2383 001e 6846     		mov	r0, sp
 2384 0020 FFF7FEFF 		bl	memset
 2385 0024 0022     		movs	r2, #0
 2386 0026 2900     		movs	r1, r5
 2387 0028 1035     		adds	r5, r5, #16
 2388              	.L311:
 2389 002a 0878     		ldrb	r0, [r1]
 2390 002c 0F28     		cmp	r0, #15
 2391 002e 1DD9     		bls	.L315
 2392 0030 5648     		ldr	r0, .L344+4
 2393              	.L341:
 2394 0032 FFF7FEFF 		bl	smtc_modem_hal_print_trace
 2395 0036 06E0     		b	.L342
 2396              	.L307:
 2397 0038 002A     		cmp	r2, #0
 2398 003a 09D0     		beq	.L309
 2399              	.L306:
 2400 003c 544B     		ldr	r3, .L344+8
 2401 003e 0100     		movs	r1, r0
 2402 0040 1800     		movs	r0, r3
 2403 0042 FFF7FEFF 		bl	smtc_modem_hal_print_trace
 2404              	.L342:
 2405 0046 5348     		ldr	r0, .L344+12
 2406 0048 FFF7FEFF 		bl	smtc_modem_hal_print_trace
 2407 004c 0020     		movs	r0, #0
 2408              	.L333:
 2409              		@ sp needed
 2410 004e FEBD     		pop	{r1, r2, r3, r4, r5, r6, r7, pc}
 2411              	.L309:
 2412 0050 4D4B     		ldr	r3, .L344
 2413 0052 1870     		strb	r0, [r3]
 2414 0054 0128     		cmp	r0, #1
 2415 0056 02D0     		beq	.L343
 2416 0058 0228     		cmp	r0, #2
 2417 005a 00D0     		beq	.L343
 2418 005c 1000     		movs	r0, r2
 2419              	.L343:
 2420 005e FFF7FEFF 		bl	lorawan_api_dr_strategy_set
 2421 0062 0130     		adds	r0, r0, #1
 2422 0064 431E     		subs	r3, r0, #1
 2423 0066 9841     		sbcs	r0, r0, r3
 2424 0068 C0B2     		uxtb	r0, r0
 2425 006a F0E7     		b	.L333
 2426              	.L315:
 2427 006c 2300     		movs	r3, r4
 2428 006e 0341     		asrs	r3, r3, r0
 2429 0070 3342     		tst	r3, r6
 2430 0072 13D0     		beq	.L317
 2431 0074 0B28     		cmp	r0, #11
 2432 0076 0FD8     		bhi	.L318
ARM GAS  /tmp/ccFUrRgl.s 			page 42


 2433 0078 FFF7FEFF 		bl	__gnu_thumb1_case_uqi
 2434              	.L320:
 2435 007c 06       		.byte	(.L331-.L320)/2
 2436 007d 17       		.byte	(.L330-.L320)/2
 2437 007e 22       		.byte	(.L329-.L320)/2
 2438 007f 2C       		.byte	(.L328-.L320)/2
 2439 0080 36       		.byte	(.L327-.L320)/2
 2440 0081 40       		.byte	(.L326-.L320)/2
 2441 0082 4A       		.byte	(.L325-.L320)/2
 2442 0083 52       		.byte	(.L324-.L320)/2
 2443 0084 59       		.byte	(.L323-.L320)/2
 2444 0085 62       		.byte	(.L322-.L320)/2
 2445 0086 6D       		.byte	(.L321-.L320)/2
 2446 0087 77       		.byte	(.L319-.L320)/2
 2447              		.p2align 1
 2448              	.L331:
 2449 0088 0098     		ldr	r0, [sp]
 2450 008a 030F     		lsrs	r3, r0, #28
 2451 008c 0F3B     		subs	r3, r3, #15
 2452 008e 5F1E     		subs	r7, r3, #1
 2453 0090 BB41     		sbcs	r3, r3, r7
 2454 0092 1B07     		lsls	r3, r3, #28
 2455              	.L339:
 2456 0094 1B18     		adds	r3, r3, r0
 2457 0096 0093     		str	r3, [sp]
 2458              	.L318:
 2459 0098 0132     		adds	r2, r2, #1
 2460 009a D2B2     		uxtb	r2, r2
 2461              	.L317:
 2462 009c 0131     		adds	r1, r1, #1
 2463 009e 8D42     		cmp	r5, r1
 2464 00a0 C3D1     		bne	.L311
 2465 00a2 002A     		cmp	r2, #0
 2466 00a4 6BD1     		bne	.L332
 2467 00a6 3C48     		ldr	r0, .L344+16
 2468 00a8 C3E7     		b	.L341
 2469              	.L330:
 2470 00aa F023     		movs	r3, #240
 2471 00ac F127     		movs	r7, #241
 2472 00ae 0098     		ldr	r0, [sp]
 2473 00b0 1B05     		lsls	r3, r3, #20
 2474 00b2 3F06     		lsls	r7, r7, #24
 2475 00b4 0340     		ands	r3, r0
 2476 00b6 DB19     		adds	r3, r3, r7
 2477 00b8 5F1E     		subs	r7, r3, #1
 2478 00ba BB41     		sbcs	r3, r3, r7
 2479 00bc 1B06     		lsls	r3, r3, #24
 2480 00be E9E7     		b	.L339
 2481              	.L329:
 2482 00c0 F023     		movs	r3, #240
 2483 00c2 0098     		ldr	r0, [sp]
 2484 00c4 354F     		ldr	r7, .L344+20
 2485 00c6 1B04     		lsls	r3, r3, #16
 2486 00c8 0340     		ands	r3, r0
 2487 00ca DB19     		adds	r3, r3, r7
 2488 00cc 5F1E     		subs	r7, r3, #1
 2489 00ce BB41     		sbcs	r3, r3, r7
ARM GAS  /tmp/ccFUrRgl.s 			page 43


 2490 00d0 1B05     		lsls	r3, r3, #20
 2491 00d2 DFE7     		b	.L339
 2492              	.L328:
 2493 00d4 F023     		movs	r3, #240
 2494 00d6 0098     		ldr	r0, [sp]
 2495 00d8 314F     		ldr	r7, .L344+24
 2496 00da 1B03     		lsls	r3, r3, #12
 2497 00dc 0340     		ands	r3, r0
 2498 00de DB19     		adds	r3, r3, r7
 2499 00e0 5F1E     		subs	r7, r3, #1
 2500 00e2 BB41     		sbcs	r3, r3, r7
 2501 00e4 1B04     		lsls	r3, r3, #16
 2502 00e6 D5E7     		b	.L339
 2503              	.L327:
 2504 00e8 F023     		movs	r3, #240
 2505 00ea 0098     		ldr	r0, [sp]
 2506 00ec 2D4F     		ldr	r7, .L344+28
 2507 00ee 1B02     		lsls	r3, r3, #8
 2508 00f0 0340     		ands	r3, r0
 2509 00f2 DB19     		adds	r3, r3, r7
 2510 00f4 5F1E     		subs	r7, r3, #1
 2511 00f6 BB41     		sbcs	r3, r3, r7
 2512 00f8 1B03     		lsls	r3, r3, #12
 2513 00fa CBE7     		b	.L339
 2514              	.L326:
 2515 00fc F023     		movs	r3, #240
 2516 00fe 0098     		ldr	r0, [sp]
 2517 0100 294F     		ldr	r7, .L344+32
 2518 0102 1B01     		lsls	r3, r3, #4
 2519 0104 0340     		ands	r3, r0
 2520 0106 DB19     		adds	r3, r3, r7
 2521 0108 5F1E     		subs	r7, r3, #1
 2522 010a BB41     		sbcs	r3, r3, r7
 2523 010c 1B02     		lsls	r3, r3, #8
 2524 010e C1E7     		b	.L339
 2525              	.L325:
 2526 0110 F023     		movs	r3, #240
 2527 0112 0098     		ldr	r0, [sp]
 2528 0114 0340     		ands	r3, r0
 2529 0116 F03B     		subs	r3, r3, #240
 2530 0118 5F1E     		subs	r7, r3, #1
 2531 011a BB41     		sbcs	r3, r3, r7
 2532 011c 1B01     		lsls	r3, r3, #4
 2533 011e B9E7     		b	.L339
 2534              	.L324:
 2535 0120 0F23     		movs	r3, #15
 2536 0122 0098     		ldr	r0, [sp]
 2537 0124 0340     		ands	r3, r0
 2538 0126 0F3B     		subs	r3, r3, #15
 2539 0128 5F1E     		subs	r7, r3, #1
 2540 012a BB41     		sbcs	r3, r3, r7
 2541 012c B2E7     		b	.L339
 2542              	.L323:
 2543 012e 0198     		ldr	r0, [sp, #4]
 2544 0130 030F     		lsrs	r3, r0, #28
 2545 0132 0F3B     		subs	r3, r3, #15
 2546 0134 5F1E     		subs	r7, r3, #1
ARM GAS  /tmp/ccFUrRgl.s 			page 44


 2547 0136 BB41     		sbcs	r3, r3, r7
 2548 0138 1B07     		lsls	r3, r3, #28
 2549              	.L340:
 2550 013a 1B18     		adds	r3, r3, r0
 2551 013c 0193     		str	r3, [sp, #4]
 2552 013e ABE7     		b	.L318
 2553              	.L322:
 2554 0140 F023     		movs	r3, #240
 2555 0142 F127     		movs	r7, #241
 2556 0144 0198     		ldr	r0, [sp, #4]
 2557 0146 1B05     		lsls	r3, r3, #20
 2558 0148 3F06     		lsls	r7, r7, #24
 2559 014a 0340     		ands	r3, r0
 2560 014c DB19     		adds	r3, r3, r7
 2561 014e 5F1E     		subs	r7, r3, #1
 2562 0150 BB41     		sbcs	r3, r3, r7
 2563 0152 1B06     		lsls	r3, r3, #24
 2564 0154 F1E7     		b	.L340
 2565              	.L321:
 2566 0156 F023     		movs	r3, #240
 2567 0158 0198     		ldr	r0, [sp, #4]
 2568 015a 104F     		ldr	r7, .L344+20
 2569 015c 1B04     		lsls	r3, r3, #16
 2570 015e 0340     		ands	r3, r0
 2571 0160 DB19     		adds	r3, r3, r7
 2572 0162 5F1E     		subs	r7, r3, #1
 2573 0164 BB41     		sbcs	r3, r3, r7
 2574 0166 1B05     		lsls	r3, r3, #20
 2575 0168 E7E7     		b	.L340
 2576              	.L319:
 2577 016a F023     		movs	r3, #240
 2578 016c 0198     		ldr	r0, [sp, #4]
 2579 016e 0C4F     		ldr	r7, .L344+24
 2580 0170 1B03     		lsls	r3, r3, #12
 2581 0172 0340     		ands	r3, r0
 2582 0174 DB19     		adds	r3, r3, r7
 2583 0176 5F1E     		subs	r7, r3, #1
 2584 0178 BB41     		sbcs	r3, r3, r7
 2585 017a 1B04     		lsls	r3, r3, #16
 2586 017c DDE7     		b	.L340
 2587              	.L332:
 2588 017e 6846     		mov	r0, sp
 2589 0180 FFF7FEFF 		bl	lorawan_api_dr_custom_set
 2590 0184 0320     		movs	r0, #3
 2591 0186 6AE7     		b	.L343
 2592              	.L345:
 2593              		.align	2
 2594              	.L344:
 2595 0188 00000000 		.word	modem_adr_profile
 2596 018c 47000000 		.word	.LC130
 2597 0190 00000000 		.word	.LC126
 2598 0194 1D000000 		.word	.LC41
 2599 0198 75000000 		.word	.LC132
 2600 019c 000010FF 		.word	-15728640
 2601 01a0 0000F1FF 		.word	-983040
 2602 01a4 0010FFFF 		.word	-61440
 2603 01a8 00F1FFFF 		.word	-3840
ARM GAS  /tmp/ccFUrRgl.s 			page 45


 2605              		.section	.rodata.set_modem_downlink_frame.str1.1,"aMS",%progbits,1
 2606              	.LC136:
 2607 0000 446F776E 		.ascii	"Downlink frame \000"
 2607      6C696E6B 
 2607      20667261 
 2607      6D652000 
 2608              	.LC138:
 2609 0010 2573202D 		.ascii	"%s - (%lu bytes):\012\000"
 2609      2028256C 
 2609      75206279 
 2609      74657329 
 2609      3A0A00
 2610              	.LC140:
 2611 0023 0A00     		.ascii	"\012\000"
 2612              	.LC142:
 2613 0025 20253032 		.ascii	" %02X\000"
 2613      5800
 2614              	.LC144:
 2615 002b 444C2050 		.ascii	"DL Port = %d , \000"
 2615      6F727420 
 2615      3D202564 
 2615      202C2000 
 2616              	.LC146:
 2617 003b 444C2053 		.ascii	"DL SNR = %d , DL RSSI = %d , \000"
 2617      4E52203D 
 2617      20256420 
 2617      2C20444C 
 2617      20525353 
 2618              	.LC148:
 2619 0059 444C2046 		.ascii	"DL Freq = %lu , DL DR = %d , \000"
 2619      72657120 
 2619      3D20256C 
 2619      75202C20 
 2619      444C2044 
 2620              	.LC150:
 2621 0077 444C2046 		.ascii	"DL Fpending Bit = %d \012\000"
 2621      70656E64 
 2621      696E6720 
 2621      42697420 
 2621      3D202564 
 2622              		.section	.text.set_modem_downlink_frame,"ax",%progbits
 2623              		.align	1
 2624              		.global	set_modem_downlink_frame
 2625              		.syntax unified
 2626              		.code	16
 2627              		.thumb_func
 2629              	set_modem_downlink_frame:
 2630              		@ args = 0, pretend = 0, frame = 0
 2631              		@ frame_needed = 0, uses_anonymous_args = 0
 2632 0000 F8B5     		push	{r3, r4, r5, r6, r7, lr}
 2633 0002 0F00     		movs	r7, r1
 2634 0004 2D4E     		ldr	r6, .L353
 2635 0006 1500     		movs	r5, r2
 2636 0008 0A00     		movs	r2, r1
 2637 000a 0100     		movs	r1, r0
 2638 000c 3000     		movs	r0, r6
 2639 000e FFF7FEFF 		bl	memcpy
ARM GAS  /tmp/ccFUrRgl.s 			page 46


 2640 0012 2B4C     		ldr	r4, .L353+4
 2641 0014 2B4B     		ldr	r3, .L353+8
 2642 0016 2C49     		ldr	r1, .L353+12
 2643 0018 1F70     		strb	r7, [r3]
 2644 001a 2300     		movs	r3, r4
 2645 001c 2A68     		ldr	r2, [r5]
 2646 001e F833     		adds	r3, r3, #248
 2647 0020 1A60     		str	r2, [r3]
 2648 0022 2200     		movs	r2, r4
 2649 0024 AB88     		ldrh	r3, [r5, #4]
 2650 0026 F632     		adds	r2, r2, #246
 2651 0028 9B00     		lsls	r3, r3, #2
 2652 002a 1380     		strh	r3, [r2]
 2653 002c 2200     		movs	r2, r4
 2654 002e EB88     		ldrh	r3, [r5, #6]
 2655 0030 F432     		adds	r2, r2, #244
 2656 0032 4033     		adds	r3, r3, #64
 2657 0034 1380     		strh	r3, [r2]
 2658 0036 2B7A     		ldrb	r3, [r5, #8]
 2659 0038 2448     		ldr	r0, .L353+16
 2660 003a 2370     		strb	r3, [r4]
 2661 003c 2300     		movs	r3, r4
 2662 003e AA7A     		ldrb	r2, [r5, #10]
 2663 0040 FC33     		adds	r3, r3, #252
 2664 0042 1A70     		strb	r2, [r3]
 2665 0044 EA68     		ldr	r2, [r5, #12]
 2666 0046 5A60     		str	r2, [r3, #4]
 2667 0048 2300     		movs	r3, r4
 2668 004a 2A7C     		ldrb	r2, [r5, #16]
 2669 004c FF33     		adds	r3, r3, #255
 2670 004e 5A71     		strb	r2, [r3, #5]
 2671 0050 3A00     		movs	r2, r7
 2672 0052 FFF7FEFF 		bl	smtc_modem_hal_print_trace
 2673 0056 0025     		movs	r5, #0
 2674 0058 0F27     		movs	r7, #15
 2675              	.L347:
 2676 005a 2300     		movs	r3, r4
 2677 005c F333     		adds	r3, r3, #243
 2678 005e 1B78     		ldrb	r3, [r3]
 2679 0060 AB42     		cmp	r3, r5
 2680 0062 1ED8     		bhi	.L349
 2681              		@ sp needed
 2682 0064 1A48     		ldr	r0, .L353+20
 2683 0066 FFF7FEFF 		bl	smtc_modem_hal_print_trace
 2684 006a 2178     		ldrb	r1, [r4]
 2685 006c 1948     		ldr	r0, .L353+24
 2686 006e FFF7FEFF 		bl	smtc_modem_hal_print_trace
 2687 0072 2300     		movs	r3, r4
 2688 0074 F433     		adds	r3, r3, #244
 2689 0076 0022     		movs	r2, #0
 2690 0078 9A5E     		ldrsh	r2, [r3, r2]
 2691 007a 2300     		movs	r3, r4
 2692 007c F633     		adds	r3, r3, #246
 2693 007e 0021     		movs	r1, #0
 2694 0080 595E     		ldrsh	r1, [r3, r1]
 2695 0082 1548     		ldr	r0, .L353+28
 2696 0084 FFF7FEFF 		bl	smtc_modem_hal_print_trace
ARM GAS  /tmp/ccFUrRgl.s 			page 47


 2697 0088 2300     		movs	r3, r4
 2698 008a FC34     		adds	r4, r4, #252
 2699 008c FF33     		adds	r3, r3, #255
 2700 008e 5A79     		ldrb	r2, [r3, #5]
 2701 0090 6168     		ldr	r1, [r4, #4]
 2702 0092 1248     		ldr	r0, .L353+32
 2703 0094 FFF7FEFF 		bl	smtc_modem_hal_print_trace
 2704 0098 2178     		ldrb	r1, [r4]
 2705 009a 1148     		ldr	r0, .L353+36
 2706 009c FFF7FEFF 		bl	smtc_modem_hal_print_trace
 2707 00a0 F8BD     		pop	{r3, r4, r5, r6, r7, pc}
 2708              	.L349:
 2709 00a2 3D42     		tst	r5, r7
 2710 00a4 04D1     		bne	.L348
 2711 00a6 002D     		cmp	r5, #0
 2712 00a8 02D0     		beq	.L348
 2713 00aa 0948     		ldr	r0, .L353+20
 2714 00ac FFF7FEFF 		bl	smtc_modem_hal_print_trace
 2715              	.L348:
 2716 00b0 715D     		ldrb	r1, [r6, r5]
 2717 00b2 0C48     		ldr	r0, .L353+40
 2718 00b4 FFF7FEFF 		bl	smtc_modem_hal_print_trace
 2719 00b8 0135     		adds	r5, r5, #1
 2720 00ba CEE7     		b	.L347
 2721              	.L354:
 2722              		.align	2
 2723              	.L353:
 2724 00bc 01000000 		.word	modem_dwn_pkt+1
 2725 00c0 00000000 		.word	modem_dwn_pkt
 2726 00c4 F3000000 		.word	modem_dwn_pkt+243
 2727 00c8 00000000 		.word	.LC136
 2728 00cc 10000000 		.word	.LC138
 2729 00d0 23000000 		.word	.LC140
 2730 00d4 2B000000 		.word	.LC144
 2731 00d8 3B000000 		.word	.LC146
 2732 00dc 59000000 		.word	.LC148
 2733 00e0 77000000 		.word	.LC150
 2734 00e4 25000000 		.word	.LC142
 2736              		.section	.text.get_modem_downlink_frame,"ax",%progbits
 2737              		.align	1
 2738              		.global	get_modem_downlink_frame
 2739              		.syntax unified
 2740              		.code	16
 2741              		.thumb_func
 2743              	get_modem_downlink_frame:
 2744              		@ args = 0, pretend = 0, frame = 0
 2745              		@ frame_needed = 0, uses_anonymous_args = 0
 2746 0000 134A     		ldr	r2, .L356
 2747 0002 144B     		ldr	r3, .L356+4
 2748 0004 1168     		ldr	r1, [r2]
 2749 0006 0200     		movs	r2, r0
 2750 0008 F832     		adds	r2, r2, #248
 2751 000a 10B5     		push	{r4, lr}
 2752 000c 1160     		str	r1, [r2]
 2753 000e 1A00     		movs	r2, r3
 2754              		@ sp needed
 2755 0010 F432     		adds	r2, r2, #244
ARM GAS  /tmp/ccFUrRgl.s 			page 48


 2756 0012 1168     		ldr	r1, [r2]
 2757 0014 0200     		movs	r2, r0
 2758 0016 F432     		adds	r2, r2, #244
 2759 0018 1160     		str	r1, [r2]
 2760 001a 1A78     		ldrb	r2, [r3]
 2761 001c 1900     		movs	r1, r3
 2762 001e 0270     		strb	r2, [r0]
 2763 0020 0200     		movs	r2, r0
 2764 0022 FC31     		adds	r1, r1, #252
 2765 0024 0C78     		ldrb	r4, [r1]
 2766 0026 4968     		ldr	r1, [r1, #4]
 2767 0028 FC32     		adds	r2, r2, #252
 2768 002a 5160     		str	r1, [r2, #4]
 2769 002c 1470     		strb	r4, [r2]
 2770 002e 1A00     		movs	r2, r3
 2771 0030 FF32     		adds	r2, r2, #255
 2772 0032 5179     		ldrb	r1, [r2, #5]
 2773 0034 0200     		movs	r2, r0
 2774 0036 FF32     		adds	r2, r2, #255
 2775 0038 5171     		strb	r1, [r2, #5]
 2776 003a F333     		adds	r3, r3, #243
 2777 003c 1A78     		ldrb	r2, [r3]
 2778 003e 0300     		movs	r3, r0
 2779 0040 F333     		adds	r3, r3, #243
 2780 0042 0549     		ldr	r1, .L356+8
 2781 0044 1A70     		strb	r2, [r3]
 2782 0046 0130     		adds	r0, r0, #1
 2783 0048 FFF7FEFF 		bl	memcpy
 2784 004c 10BD     		pop	{r4, pc}
 2785              	.L357:
 2786 004e C046     		.align	2
 2787              	.L356:
 2788 0050 F8000000 		.word	modem_dwn_pkt+248
 2789 0054 00000000 		.word	modem_dwn_pkt
 2790 0058 01000000 		.word	modem_dwn_pkt+1
 2792              		.section	.rodata.dm_status_payload.str1.1,"aMS",%progbits,1
 2793              	.LC170:
 2794 0000 1B5B303B 		.ascii	"\033[0;31mERROR: max_size must be greater than the "
 2794      33316D45 
 2794      52524F52 
 2794      3A206D61 
 2794      785F7369 
 2795 0030 736D616C 		.ascii	"smallest requested information\012\000"
 2795      6C657374 
 2795      20726571 
 2795      75657374 
 2795      65642069 
 2796              	.LC173:
 2797 0050 1B5B303B 		.ascii	"\033[0;31mERROR: check_dm_status_max_size\012\000"
 2797      33316D45 
 2797      52524F52 
 2797      3A206368 
 2797      65636B5F 
 2798              	.LC180:
 2799 0078 1B5B303B 		.ascii	"\033[0;31mERROR: Construct DM payload report, unkno"
 2799      33316D45 
 2799      52524F52 
ARM GAS  /tmp/ccFUrRgl.s 			page 49


 2799      3A20436F 
 2799      6E737472 
 2800 00a8 776E2063 		.ascii	"wn code 0x%02x\012\000"
 2800      6F646520 
 2800      30782530 
 2800      32780A00 
 2801              		.section	.text.dm_status_payload,"ax",%progbits
 2802              		.align	1
 2803              		.global	dm_status_payload
 2804              		.syntax unified
 2805              		.code	16
 2806              		.thumb_func
 2808              	dm_status_payload:
 2809              		@ args = 0, pretend = 0, frame = 280
 2810              		@ frame_needed = 0, uses_anonymous_args = 0
 2811 0000 F0B5     		push	{r4, r5, r6, r7, lr}
 2812 0002 C7B0     		sub	sp, sp, #284
 2813 0004 0700     		movs	r7, r0
 2814 0006 0191     		str	r1, [sp, #4]
 2815 0008 0292     		str	r2, [sp, #8]
 2816 000a 012B     		cmp	r3, #1
 2817 000c 22D1     		bne	.L359
 2818 000e 754B     		ldr	r3, .L411
 2819 0010 754E     		ldr	r6, .L411+4
 2820 0012 1B68     		ldr	r3, [r3]
 2821 0014 0093     		str	r3, [sp]
 2822              	.L360:
 2823 0016 0023     		movs	r3, #0
 2824 0018 0122     		movs	r2, #1
 2825 001a 7449     		ldr	r1, .L411+8
 2826              	.L363:
 2827 001c 1000     		movs	r0, r2
 2828 001e 9840     		lsls	r0, r0, r3
 2829 0020 009C     		ldr	r4, [sp]
 2830 0022 0442     		tst	r4, r0
 2831 0024 1BD0     		beq	.L361
 2832 0026 C85C     		ldrb	r0, [r1, r3]
 2833 0028 029C     		ldr	r4, [sp, #8]
 2834 002a A042     		cmp	r0, r4
 2835 002c 17D9     		bls	.L361
 2836 002e 0024     		movs	r4, #0
 2837 0030 6F48     		ldr	r0, .L411+12
 2838 0032 FFF7FEFF 		bl	smtc_modem_hal_print_trace
 2839 0036 6F4D     		ldr	r5, .L411+16
 2840 0038 2800     		movs	r0, r5
 2841 003a FFF7FEFF 		bl	smtc_modem_hal_print_trace
 2842 003e 019B     		ldr	r3, [sp, #4]
 2843 0040 6D48     		ldr	r0, .L411+20
 2844 0042 1C70     		strb	r4, [r3]
 2845 0044 FFF7FEFF 		bl	smtc_modem_hal_print_trace
 2846 0048 2800     		movs	r0, r5
 2847 004a FFF7FEFF 		bl	smtc_modem_hal_print_trace
 2848 004e 2000     		movs	r0, r4
 2849              	.L362:
 2850 0050 47B0     		add	sp, sp, #284
 2851              		@ sp needed
 2852 0052 F0BD     		pop	{r4, r5, r6, r7, pc}
ARM GAS  /tmp/ccFUrRgl.s 			page 50


 2853              	.L359:
 2854 0054 694B     		ldr	r3, .L411+24
 2855 0056 6A4E     		ldr	r6, .L411+28
 2856 0058 1B68     		ldr	r3, [r3]
 2857 005a 0093     		str	r3, [sp]
 2858 005c DBE7     		b	.L360
 2859              	.L361:
 2860 005e 0133     		adds	r3, r3, #1
 2861 0060 1C2B     		cmp	r3, #28
 2862 0062 DBD1     		bne	.L363
 2863 0064 3378     		ldrb	r3, [r6]
 2864 0066 1B2B     		cmp	r3, #27
 2865 0068 01D9     		bls	.L364
 2866 006a 0023     		movs	r3, #0
 2867 006c 3370     		strb	r3, [r6]
 2868              	.L364:
 2869 006e 3C00     		movs	r4, r7
 2870              	.L365:
 2871 0070 3178     		ldrb	r1, [r6]
 2872 0072 1B29     		cmp	r1, #27
 2873 0074 04D9     		bls	.L394
 2874 0076 0020     		movs	r0, #0
 2875              	.L393:
 2876 0078 019B     		ldr	r3, [sp, #4]
 2877 007a E41B     		subs	r4, r4, r7
 2878 007c 1C70     		strb	r4, [r3]
 2879 007e E7E7     		b	.L362
 2880              	.L394:
 2881 0080 0123     		movs	r3, #1
 2882 0082 8B40     		lsls	r3, r3, r1
 2883 0084 009A     		ldr	r2, [sp]
 2884 0086 1A42     		tst	r2, r3
 2885 0088 21D0     		beq	.L366
 2886 008a 651C     		adds	r5, r4, #1
 2887 008c 2170     		strb	r1, [r4]
 2888 008e 1829     		cmp	r1, #24
 2889 0090 00D9     		bls	.LCB2951
 2890 0092 9DE0     		b	.L367	@long jump
 2891              	.LCB2951:
 2892 0094 0800     		movs	r0, r1
 2893 0096 FFF7FEFF 		bl	__gnu_thumb1_case_uqi
 2894              	.L369:
 2895 009a 0D       		.byte	(.L388-.L369)/2
 2896 009b 1E       		.byte	(.L387-.L369)/2
 2897 009c 2A       		.byte	(.L386-.L369)/2
 2898 009d 2D       		.byte	(.L385-.L369)/2
 2899 009e 30       		.byte	(.L384-.L369)/2
 2900 009f 44       		.byte	(.L383-.L369)/2
 2901 00a0 4B       		.byte	(.L382-.L369)/2
 2902 00a1 5F       		.byte	(.L381-.L369)/2
 2903 00a2 65       		.byte	(.L380-.L369)/2
 2904 00a3 69       		.byte	(.L379-.L369)/2
 2905 00a4 72       		.byte	(.L378-.L369)/2
 2906 00a5 74       		.byte	(.L377-.L369)/2
 2907 00a6 10       		.byte	(.L374-.L369)/2
 2908 00a7 10       		.byte	(.L374-.L369)/2
 2909 00a8 9B       		.byte	(.L367-.L369)/2
ARM GAS  /tmp/ccFUrRgl.s 			page 51


 2910 00a9 77       		.byte	(.L376-.L369)/2
 2911 00aa 7D       		.byte	(.L375-.L369)/2
 2912 00ab 10       		.byte	(.L374-.L369)/2
 2913 00ac 81       		.byte	(.L373-.L369)/2
 2914 00ad 87       		.byte	(.L372-.L369)/2
 2915 00ae 9B       		.byte	(.L367-.L369)/2
 2916 00af 8D       		.byte	(.L371-.L369)/2
 2917 00b0 93       		.byte	(.L370-.L369)/2
 2918 00b1 9B       		.byte	(.L367-.L369)/2
 2919 00b2 97       		.byte	(.L368-.L369)/2
 2920 00b3 00       		.p2align 1
 2921              	.L388:
 2922 00b4 FFF7FEFF 		bl	get_modem_status
 2923              	.L404:
 2924 00b8 6070     		strb	r0, [r4, #1]
 2925              	.L374:
 2926 00ba 3278     		ldrb	r2, [r6]
 2927 00bc 4B4B     		ldr	r3, .L411+8
 2928 00be 9B5C     		ldrb	r3, [r3, r2]
 2929 00c0 029A     		ldr	r2, [sp, #8]
 2930 00c2 ED18     		adds	r5, r5, r3
 2931 00c4 EB1B     		subs	r3, r5, r7
 2932 00c6 9342     		cmp	r3, r2
 2933 00c8 00DD     		ble	.LCB2973
 2934 00ca 88E0     		b	.L396	@long jump
 2935              	.LCB2973:
 2936 00cc 2C00     		movs	r4, r5
 2937              	.L366:
 2938 00ce 3378     		ldrb	r3, [r6]
 2939 00d0 0133     		adds	r3, r3, #1
 2940 00d2 3370     		strb	r3, [r6]
 2941 00d4 CCE7     		b	.L365
 2942              	.L387:
 2943 00d6 4B4B     		ldr	r3, .L411+32
 2944 00d8 1B78     		ldrb	r3, [r3]
 2945 00da 002B     		cmp	r3, #0
 2946 00dc 04D1     		bne	.L389
 2947 00de FFF7FEFF 		bl	get_modem_charge_ma_h
 2948              	.L409:
 2949 00e2 6070     		strb	r0, [r4, #1]
 2950              	.L408:
 2951 00e4 000A     		lsrs	r0, r0, #8
 2952 00e6 15E0     		b	.L405
 2953              	.L389:
 2954 00e8 474B     		ldr	r3, .L411+36
 2955 00ea 1888     		ldrh	r0, [r3]
 2956 00ec F9E7     		b	.L409
 2957              	.L386:
 2958 00ee FFF7FEFF 		bl	smtc_modem_hal_get_voltage
 2959 00f2 E1E7     		b	.L404
 2960              	.L385:
 2961 00f4 FFF7FEFF 		bl	smtc_modem_hal_get_temperature
 2962 00f8 DEE7     		b	.L404
 2963              	.L384:
 2964 00fa FFF7FEFF 		bl	lorawan_api_last_rssi_get
 2965 00fe 0300     		movs	r3, r0
 2966 0100 8033     		adds	r3, r3, #128
ARM GAS  /tmp/ccFUrRgl.s 			page 52


 2967 0102 9BB2     		uxth	r3, r3
 2968 0104 BF2B     		cmp	r3, #191
 2969 0106 07D8     		bhi	.L391
 2970 0108 4030     		adds	r0, r0, #64
 2971 010a C3B2     		uxtb	r3, r0
 2972              	.L392:
 2973 010c 6370     		strb	r3, [r4, #1]
 2974 010e FFF7FEFF 		bl	lorawan_api_last_snr_get
 2975 0112 8000     		lsls	r0, r0, #2
 2976              	.L405:
 2977 0114 A070     		strb	r0, [r4, #2]
 2978 0116 D0E7     		b	.L374
 2979              	.L391:
 2980 0118 7F23     		movs	r3, #127
 2981 011a 3F28     		cmp	r0, #63
 2982 011c F6DC     		bgt	.L392
 2983 011e 0133     		adds	r3, r3, #1
 2984 0120 F4E7     		b	.L392
 2985              	.L383:
 2986 0122 FFF7FEFF 		bl	get_modem_uptime_s
 2987              	.L410:
 2988 0126 E121     		movs	r1, #225
 2989 0128 0901     		lsls	r1, r1, #4
 2990 012a FFF7FEFF 		bl	__aeabi_uidiv
 2991 012e D8E7     		b	.L409
 2992              	.L382:
 2993 0130 8422     		movs	r2, #132
 2994 0132 0021     		movs	r1, #0
 2995 0134 5200     		lsls	r2, r2, #1
 2996 0136 04A8     		add	r0, sp, #16
 2997 0138 FFF7FEFF 		bl	memset
 2998 013c 04A8     		add	r0, sp, #16
 2999 013e FFF7FEFF 		bl	get_modem_downlink_frame
 3000 0142 FFF7FEFF 		bl	smtc_modem_hal_get_time_in_s
 3001 0146 FA21     		movs	r1, #250
 3002 0148 0390     		str	r0, [sp, #12]
 3003 014a 8900     		lsls	r1, r1, #2
 3004 014c 4298     		ldr	r0, [sp, #264]
 3005 014e FFF7FEFF 		bl	__aeabi_uidiv
 3006 0152 039B     		ldr	r3, [sp, #12]
 3007 0154 181A     		subs	r0, r3, r0
 3008 0156 E6E7     		b	.L410
 3009              	.L381:
 3010 0158 0822     		movs	r2, #8
 3011 015a 0021     		movs	r1, #0
 3012 015c 2800     		movs	r0, r5
 3013 015e FFF7FEFF 		bl	memset
 3014 0162 AAE7     		b	.L374
 3015              	.L380:
 3016 0164 294B     		ldr	r3, .L411+40
 3017              	.L407:
 3018 0166 1B78     		ldrb	r3, [r3]
 3019 0168 6370     		strb	r3, [r4, #1]
 3020 016a A6E7     		b	.L374
 3021              	.L379:
 3022 016c 04A8     		add	r0, sp, #16
 3023 016e FFF7FEFF 		bl	lorawan_api_get_joineui
ARM GAS  /tmp/ccFUrRgl.s 			page 53


 3024              	.L406:
 3025 0172 0822     		movs	r2, #8
 3026 0174 2800     		movs	r0, r5
 3027 0176 04A9     		add	r1, sp, #16
 3028 0178 FFF7FEFF 		bl	memcpy1_r
 3029 017c 9DE7     		b	.L374
 3030              	.L378:
 3031 017e 244B     		ldr	r3, .L411+44
 3032 0180 F1E7     		b	.L407
 3033              	.L377:
 3034 0182 FFF7FEFF 		bl	lorawan_api_get_region
 3035 0186 97E7     		b	.L404
 3036              	.L376:
 3037 0188 FFF7FEFF 		bl	lorawan_api_nb_reset_get
 3038 018c 6070     		strb	r0, [r4, #1]
 3039 018e FFF7FEFF 		bl	lorawan_api_nb_reset_get
 3040 0192 A7E7     		b	.L408
 3041              	.L375:
 3042 0194 04A8     		add	r0, sp, #16
 3043 0196 FFF7FEFF 		bl	lorawan_api_get_deveui
 3044 019a EAE7     		b	.L406
 3045              	.L373:
 3046 019c FFF7FEFF 		bl	lorawan_api_devnonce_get
 3047 01a0 6070     		strb	r0, [r4, #1]
 3048 01a2 FFF7FEFF 		bl	lorawan_api_devnonce_get
 3049 01a6 9DE7     		b	.L408
 3050              	.L372:
 3051 01a8 0822     		movs	r2, #8
 3052 01aa 0021     		movs	r1, #0
 3053 01ac 04A8     		add	r0, sp, #16
 3054 01ae FFF7FEFF 		bl	memset
 3055 01b2 DEE7     		b	.L406
 3056              	.L371:
 3057 01b4 174B     		ldr	r3, .L411+48
 3058 01b6 1A78     		ldrb	r2, [r3]
 3059 01b8 6270     		strb	r2, [r4, #1]
 3060 01ba 9B78     		ldrb	r3, [r3, #2]
 3061 01bc A370     		strb	r3, [r4, #2]
 3062 01be 7CE7     		b	.L374
 3063              	.L370:
 3064 01c0 2800     		movs	r0, r5
 3065 01c2 FFF7FEFF 		bl	get_modem_appstatus
 3066 01c6 78E7     		b	.L374
 3067              	.L368:
 3068 01c8 2800     		movs	r0, r5
 3069 01ca FFF7FEFF 		bl	get_modem_gnss_status
 3070 01ce 74E7     		b	.L374
 3071              	.L367:
 3072 01d0 1148     		ldr	r0, .L411+52
 3073 01d2 FFF7FEFF 		bl	smtc_modem_hal_print_trace
 3074 01d6 0748     		ldr	r0, .L411+16
 3075 01d8 FFF7FEFF 		bl	smtc_modem_hal_print_trace
 3076 01dc 6DE7     		b	.L374
 3077              	.L396:
 3078 01de 0120     		movs	r0, #1
 3079 01e0 4AE7     		b	.L393
 3080              	.L412:
ARM GAS  /tmp/ccFUrRgl.s 			page 54


 3081 01e2 C046     		.align	2
 3082              	.L411:
 3083 01e4 00000000 		.word	dm_info_bitfield_now
 3084 01e8 00000000 		.word	tag_number_now
 3085 01ec 00000000 		.word	dm_info_field_sz
 3086 01f0 00000000 		.word	.LC170
 3087 01f4 1D000000 		.word	.LC41
 3088 01f8 50000000 		.word	.LC173
 3089 01fc 00000000 		.word	dm_info_bitfield_periodic
 3090 0200 00000000 		.word	tag_number
 3091 0204 00000000 		.word	charge_counter_to_send
 3092 0208 00000000 		.word	user_define_charge_counter
 3093 020c 00000000 		.word	modem_adr_profile
 3094 0210 00000000 		.word	modem_dm_interval
 3095 0214 00000000 		.word	modem_stream_state
 3096 0218 78000000 		.word	.LC180
 3098              		.section	.text.set_dm_retrieve_pending_dl,"ax",%progbits
 3099              		.align	1
 3100              		.global	set_dm_retrieve_pending_dl
 3101              		.syntax unified
 3102              		.code	16
 3103              		.thumb_func
 3105              	set_dm_retrieve_pending_dl:
 3106              		@ args = 0, pretend = 0, frame = 0
 3107              		@ frame_needed = 0, uses_anonymous_args = 0
 3108              		@ link register save eliminated.
 3109 0000 034B     		ldr	r3, .L415
 3110 0002 0A1C     		adds	r2, r1, #0
 3111 0004 1870     		strb	r0, [r3]
 3112 0006 1429     		cmp	r1, #20
 3113 0008 00D2     		bcs	.L414
 3114 000a 1422     		movs	r2, #20
 3115              	.L414:
 3116              		@ sp needed
 3117 000c 5A70     		strb	r2, [r3, #1]
 3118 000e 7047     		bx	lr
 3119              	.L416:
 3120              		.align	2
 3121              	.L415:
 3122 0010 00000000 		.word	dm_pending_dl
 3124              		.section	.text.get_dm_retrieve_pending_dl,"ax",%progbits
 3125              		.align	1
 3126              		.global	get_dm_retrieve_pending_dl
 3127              		.syntax unified
 3128              		.code	16
 3129              		.thumb_func
 3131              	get_dm_retrieve_pending_dl:
 3132              		@ args = 0, pretend = 0, frame = 0
 3133              		@ frame_needed = 0, uses_anonymous_args = 0
 3134              		@ link register save eliminated.
 3135 0000 024B     		ldr	r3, .L418
 3136              		@ sp needed
 3137 0002 1A78     		ldrb	r2, [r3]
 3138 0004 0270     		strb	r2, [r0]
 3139 0006 5B78     		ldrb	r3, [r3, #1]
 3140 0008 4370     		strb	r3, [r0, #1]
 3141 000a 7047     		bx	lr
ARM GAS  /tmp/ccFUrRgl.s 			page 55


 3142              	.L419:
 3143              		.align	2
 3144              	.L418:
 3145 000c 00000000 		.word	dm_pending_dl
 3147              		.section	.text.decrement_dm_retrieve_pending_dl,"ax",%progbits
 3148              		.align	1
 3149              		.global	decrement_dm_retrieve_pending_dl
 3150              		.syntax unified
 3151              		.code	16
 3152              		.thumb_func
 3154              	decrement_dm_retrieve_pending_dl:
 3155              		@ args = 0, pretend = 0, frame = 0
 3156              		@ frame_needed = 0, uses_anonymous_args = 0
 3157              		@ link register save eliminated.
 3158 0000 034A     		ldr	r2, .L425
 3159 0002 1378     		ldrb	r3, [r2]
 3160 0004 002B     		cmp	r3, #0
 3161 0006 01D0     		beq	.L420
 3162 0008 013B     		subs	r3, r3, #1
 3163 000a 1370     		strb	r3, [r2]
 3164              	.L420:
 3165              		@ sp needed
 3166 000c 7047     		bx	lr
 3167              	.L426:
 3168 000e C046     		.align	2
 3169              	.L425:
 3170 0010 00000000 		.word	dm_pending_dl
 3172              		.section	.rodata.modem_context_factory_reset.str1.1,"aMS",%progbits,1
 3173              	.LC186:
 3174 0000 1B5B303B 		.ascii	"\033[0;32mINFO: modem_context_factory_reset done\012"
 3174      33326D49 
 3174      4E464F3A 
 3174      206D6F64 
 3174      656D5F63 
 3175 002e 00       		.ascii	"\000"
 3176              		.section	.text.modem_context_factory_reset,"ax",%progbits
 3177              		.align	1
 3178              		.global	modem_context_factory_reset
 3179              		.syntax unified
 3180              		.code	16
 3181              		.thumb_func
 3183              	modem_context_factory_reset:
 3184              		@ args = 0, pretend = 0, frame = 32
 3185              		@ frame_needed = 0, uses_anonymous_args = 0
 3186 0000 10B5     		push	{r4, lr}
 3187 0002 88B0     		sub	sp, sp, #32
 3188 0004 6B46     		mov	r3, sp
 3189 0006 1A22     		movs	r2, #26
 3190 0008 0021     		movs	r1, #0
 3191 000a 981D     		adds	r0, r3, #6
 3192 000c FFF7FEFF 		bl	memset
 3193 0010 0124     		movs	r4, #1
 3194 0012 C723     		movs	r3, #199
 3195 0014 6A46     		mov	r2, sp
 3196 0016 1821     		movs	r1, #24
 3197 0018 01A8     		add	r0, sp, #4
 3198 001a 9380     		strh	r3, [r2, #4]
ARM GAS  /tmp/ccFUrRgl.s 			page 56


 3199 001c 1472     		strb	r4, [r2, #8]
 3200 001e FFF7FEFF 		bl	crc
 3201 0022 01A9     		add	r1, sp, #4
 3202 0024 0790     		str	r0, [sp, #28]
 3203 0026 1C22     		movs	r2, #28
 3204 0028 0020     		movs	r0, #0
 3205 002a FFF7FEFF 		bl	smtc_modem_hal_context_store
 3206 002e 1C22     		movs	r2, #28
 3207 0030 01A9     		add	r1, sp, #4
 3208 0032 2000     		movs	r0, r4
 3209 0034 FFF7FEFF 		bl	smtc_modem_hal_context_restore
 3210 0038 044B     		ldr	r3, .L428
 3211 003a 0548     		ldr	r0, .L428+4
 3212 003c 1C70     		strb	r4, [r3]
 3213 003e FFF7FEFF 		bl	smtc_modem_hal_print_trace
 3214 0042 0448     		ldr	r0, .L428+8
 3215 0044 FFF7FEFF 		bl	smtc_modem_hal_print_trace
 3216 0048 08B0     		add	sp, sp, #32
 3217              		@ sp needed
 3218 004a 10BD     		pop	{r4, pc}
 3219              	.L429:
 3220              		.align	2
 3221              	.L428:
 3222 004c 00000000 		.word	is_modem_reset_requested
 3223 0050 00000000 		.word	.LC186
 3224 0054 1D000000 		.word	.LC41
 3226              		.section	.rodata.modem_load_context.str1.1,"aMS",%progbits,1
 3227              	.LC192:
 3228 0000 4D6F6465 		.ascii	"Modem Load Config :\012 Port = %d\012\000"
 3228      6D204C6F 
 3228      61642043 
 3228      6F6E6669 
 3228      67203A0A 
 3229              	.LC195:
 3230 0020 55706C6F 		.ascii	"Upload_sctr = %d\012\000"
 3230      61645F73 
 3230      63747220 
 3230      3D202564 
 3230      0A00
 3231              	.LC197:
 3232 0032 1B5B303B 		.ascii	"\033[0;31mERROR: Restore Modem context fail => Fact"
 3232      33316D45 
 3232      52524F52 
 3232      3A205265 
 3232      73746F72 
 3233 0062 6F727920 		.ascii	"ory Reset Modem\012\000"
 3233      52657365 
 3233      74204D6F 
 3233      64656D0A 
 3233      00
 3234              		.section	.text.modem_load_context,"ax",%progbits
 3235              		.align	1
 3236              		.global	modem_load_context
 3237              		.syntax unified
 3238              		.code	16
 3239              		.thumb_func
 3241              	modem_load_context:
ARM GAS  /tmp/ccFUrRgl.s 			page 57


 3242              		@ args = 0, pretend = 0, frame = 32
 3243              		@ frame_needed = 0, uses_anonymous_args = 0
 3244 0000 00B5     		push	{lr}
 3245 0002 89B0     		sub	sp, sp, #36
 3246 0004 1C22     		movs	r2, #28
 3247 0006 0020     		movs	r0, #0
 3248 0008 01A9     		add	r1, sp, #4
 3249 000a FFF7FEFF 		bl	smtc_modem_hal_context_restore
 3250 000e 1821     		movs	r1, #24
 3251 0010 01A8     		add	r0, sp, #4
 3252 0012 FFF7FEFF 		bl	crc
 3253 0016 079B     		ldr	r3, [sp, #28]
 3254 0018 9842     		cmp	r0, r3
 3255 001a 14D1     		bne	.L431
 3256 001c 6B46     		mov	r3, sp
 3257 001e 6A46     		mov	r2, sp
 3258 0020 1979     		ldrb	r1, [r3, #4]
 3259 0022 0D4B     		ldr	r3, .L433
 3260 0024 0D48     		ldr	r0, .L433+4
 3261 0026 1970     		strb	r1, [r3]
 3262 0028 127A     		ldrb	r2, [r2, #8]
 3263 002a 0D4B     		ldr	r3, .L433+8
 3264 002c 1A80     		strh	r2, [r3]
 3265 002e 0D4B     		ldr	r3, .L433+12
 3266 0030 039A     		ldr	r2, [sp, #12]
 3267 0032 1A60     		str	r2, [r3]
 3268 0034 FFF7FEFF 		bl	smtc_modem_hal_print_trace
 3269 0038 0B4B     		ldr	r3, .L433+16
 3270 003a 0C48     		ldr	r0, .L433+20
 3271 003c 1978     		ldrb	r1, [r3]
 3272 003e FFF7FEFF 		bl	smtc_modem_hal_print_trace
 3273              	.L430:
 3274 0042 09B0     		add	sp, sp, #36
 3275              		@ sp needed
 3276 0044 00BD     		pop	{pc}
 3277              	.L431:
 3278 0046 0A48     		ldr	r0, .L433+24
 3279 0048 FFF7FEFF 		bl	smtc_modem_hal_print_trace
 3280 004c 0948     		ldr	r0, .L433+28
 3281 004e FFF7FEFF 		bl	smtc_modem_hal_print_trace
 3282 0052 FFF7FEFF 		bl	modem_context_factory_reset
 3283 0056 F4E7     		b	.L430
 3284              	.L434:
 3285              		.align	2
 3286              	.L433:
 3287 0058 00000000 		.word	modem_dm_port
 3288 005c 00000000 		.word	.LC192
 3289 0060 00000000 		.word	modem_appkey_status
 3290 0064 00000000 		.word	modem_appkey_crc
 3291 0068 00000000 		.word	modem_dm_upload_sctr
 3292 006c 20000000 		.word	.LC195
 3293 0070 32000000 		.word	.LC197
 3294 0074 1D000000 		.word	.LC41
 3296              		.section	.text.modem_store_context,"ax",%progbits
 3297              		.align	1
 3298              		.global	modem_store_context
 3299              		.syntax unified
ARM GAS  /tmp/ccFUrRgl.s 			page 58


 3300              		.code	16
 3301              		.thumb_func
 3303              	modem_store_context:
 3304              		@ args = 0, pretend = 0, frame = 32
 3305              		@ frame_needed = 0, uses_anonymous_args = 0
 3306 0000 00B5     		push	{lr}
 3307 0002 89B0     		sub	sp, sp, #36
 3308 0004 6B46     		mov	r3, sp
 3309 0006 1A22     		movs	r2, #26
 3310 0008 0021     		movs	r1, #0
 3311 000a 981D     		adds	r0, r3, #6
 3312 000c FFF7FEFF 		bl	memset
 3313 0010 6A46     		mov	r2, sp
 3314 0012 0B4B     		ldr	r3, .L436
 3315 0014 1821     		movs	r1, #24
 3316 0016 1B78     		ldrb	r3, [r3]
 3317 0018 01A8     		add	r0, sp, #4
 3318 001a 9380     		strh	r3, [r2, #4]
 3319 001c 094B     		ldr	r3, .L436+4
 3320 001e 1B88     		ldrh	r3, [r3]
 3321 0020 1372     		strb	r3, [r2, #8]
 3322 0022 094B     		ldr	r3, .L436+8
 3323 0024 1B68     		ldr	r3, [r3]
 3324 0026 0393     		str	r3, [sp, #12]
 3325 0028 FFF7FEFF 		bl	crc
 3326 002c 1C22     		movs	r2, #28
 3327 002e 0790     		str	r0, [sp, #28]
 3328 0030 01A9     		add	r1, sp, #4
 3329 0032 0020     		movs	r0, #0
 3330 0034 FFF7FEFF 		bl	smtc_modem_hal_context_store
 3331 0038 FFF7FEFF 		bl	modem_load_context
 3332 003c 09B0     		add	sp, sp, #36
 3333              		@ sp needed
 3334 003e 00BD     		pop	{pc}
 3335              	.L437:
 3336              		.align	2
 3337              	.L436:
 3338 0040 00000000 		.word	modem_dm_port
 3339 0044 00000000 		.word	modem_appkey_status
 3340 0048 00000000 		.word	modem_appkey_crc
 3342              		.section	.rodata.set_modem_dm_port.str1.1,"aMS",%progbits,1
 3343              	.LC203:
 3344 0000 1B5B303B 		.ascii	"\033[0;31mERROR: modem port invalid\012\000"
 3344      33316D45 
 3344      52524F52 
 3344      3A206D6F 
 3344      64656D20 
 3345              		.section	.text.set_modem_dm_port,"ax",%progbits
 3346              		.align	1
 3347              		.global	set_modem_dm_port
 3348              		.syntax unified
 3349              		.code	16
 3350              		.thumb_func
 3352              	set_modem_dm_port:
 3353              		@ args = 0, pretend = 0, frame = 0
 3354              		@ frame_needed = 0, uses_anonymous_args = 0
 3355 0000 431E     		subs	r3, r0, #1
ARM GAS  /tmp/ccFUrRgl.s 			page 59


 3356 0002 DBB2     		uxtb	r3, r3
 3357 0004 10B5     		push	{r4, lr}
 3358 0006 DE2B     		cmp	r3, #222
 3359 0008 07D9     		bls	.L439
 3360 000a 0848     		ldr	r0, .L442
 3361 000c FFF7FEFF 		bl	smtc_modem_hal_print_trace
 3362 0010 0748     		ldr	r0, .L442+4
 3363 0012 FFF7FEFF 		bl	smtc_modem_hal_print_trace
 3364 0016 0020     		movs	r0, #0
 3365              	.L440:
 3366              		@ sp needed
 3367 0018 10BD     		pop	{r4, pc}
 3368              	.L439:
 3369 001a 064B     		ldr	r3, .L442+8
 3370 001c 1A78     		ldrb	r2, [r3]
 3371 001e 8242     		cmp	r2, r0
 3372 0020 02D0     		beq	.L441
 3373 0022 1870     		strb	r0, [r3]
 3374 0024 FFF7FEFF 		bl	modem_store_context
 3375              	.L441:
 3376 0028 0120     		movs	r0, #1
 3377 002a F5E7     		b	.L440
 3378              	.L443:
 3379              		.align	2
 3380              	.L442:
 3381 002c 00000000 		.word	.LC203
 3382 0030 1D000000 		.word	.LC41
 3383 0034 00000000 		.word	modem_dm_port
 3385              		.section	.text.modem_context_compute_and_get_next_dm_upload_sctr,"ax",%progbits
 3386              		.align	1
 3387              		.global	modem_context_compute_and_get_next_dm_upload_sctr
 3388              		.syntax unified
 3389              		.code	16
 3390              		.thumb_func
 3392              	modem_context_compute_and_get_next_dm_upload_sctr:
 3393              		@ args = 0, pretend = 0, frame = 0
 3394              		@ frame_needed = 0, uses_anonymous_args = 0
 3395              		@ link register save eliminated.
 3396 0000 0F22     		movs	r2, #15
 3397              		@ sp needed
 3398 0002 034B     		ldr	r3, .L445
 3399 0004 1878     		ldrb	r0, [r3]
 3400 0006 0130     		adds	r0, r0, #1
 3401 0008 1040     		ands	r0, r2
 3402 000a 1870     		strb	r0, [r3]
 3403 000c 7047     		bx	lr
 3404              	.L446:
 3405 000e C046     		.align	2
 3406              	.L445:
 3407 0010 00000000 		.word	modem_dm_upload_sctr
 3409              		.section	.text.modem_get_upload_state,"ax",%progbits
 3410              		.align	1
 3411              		.global	modem_get_upload_state
 3412              		.syntax unified
 3413              		.code	16
 3414              		.thumb_func
 3416              	modem_get_upload_state:
ARM GAS  /tmp/ccFUrRgl.s 			page 60


 3417              		@ args = 0, pretend = 0, frame = 0
 3418              		@ frame_needed = 0, uses_anonymous_args = 0
 3419              		@ link register save eliminated.
 3420 0000 014B     		ldr	r3, .L448
 3421              		@ sp needed
 3422 0002 1878     		ldrb	r0, [r3]
 3423 0004 7047     		bx	lr
 3424              	.L449:
 3425 0006 C046     		.align	2
 3426              	.L448:
 3427 0008 00000000 		.word	modem_upload_state
 3429              		.section	.text.modem_set_upload_state,"ax",%progbits
 3430              		.align	1
 3431              		.global	modem_set_upload_state
 3432              		.syntax unified
 3433              		.code	16
 3434              		.thumb_func
 3436              	modem_set_upload_state:
 3437              		@ args = 0, pretend = 0, frame = 0
 3438              		@ frame_needed = 0, uses_anonymous_args = 0
 3439              		@ link register save eliminated.
 3440 0000 014B     		ldr	r3, .L451
 3441              		@ sp needed
 3442 0002 1870     		strb	r0, [r3]
 3443 0004 7047     		bx	lr
 3444              	.L452:
 3445 0006 C046     		.align	2
 3446              	.L451:
 3447 0008 00000000 		.word	modem_upload_state
 3449              		.section	.text.modem_get_stream_state,"ax",%progbits
 3450              		.align	1
 3451              		.global	modem_get_stream_state
 3452              		.syntax unified
 3453              		.code	16
 3454              		.thumb_func
 3456              	modem_get_stream_state:
 3457              		@ args = 0, pretend = 0, frame = 0
 3458              		@ frame_needed = 0, uses_anonymous_args = 0
 3459              		@ link register save eliminated.
 3460 0000 014B     		ldr	r3, .L454
 3461              		@ sp needed
 3462 0002 5878     		ldrb	r0, [r3, #1]
 3463 0004 7047     		bx	lr
 3464              	.L455:
 3465 0006 C046     		.align	2
 3466              	.L454:
 3467 0008 00000000 		.word	modem_stream_state
 3469              		.section	.text.modem_get_stream_port,"ax",%progbits
 3470              		.align	1
 3471              		.global	modem_get_stream_port
 3472              		.syntax unified
 3473              		.code	16
 3474              		.thumb_func
 3476              	modem_get_stream_port:
 3477              		@ args = 0, pretend = 0, frame = 0
 3478              		@ frame_needed = 0, uses_anonymous_args = 0
 3479              		@ link register save eliminated.
ARM GAS  /tmp/ccFUrRgl.s 			page 61


 3480 0000 014B     		ldr	r3, .L457
 3481              		@ sp needed
 3482 0002 1878     		ldrb	r0, [r3]
 3483 0004 7047     		bx	lr
 3484              	.L458:
 3485 0006 C046     		.align	2
 3486              	.L457:
 3487 0008 00000000 		.word	modem_stream_state
 3489              		.section	.text.modem_get_stream_encryption,"ax",%progbits
 3490              		.align	1
 3491              		.global	modem_get_stream_encryption
 3492              		.syntax unified
 3493              		.code	16
 3494              		.thumb_func
 3496              	modem_get_stream_encryption:
 3497              		@ args = 0, pretend = 0, frame = 0
 3498              		@ frame_needed = 0, uses_anonymous_args = 0
 3499              		@ link register save eliminated.
 3500 0000 014B     		ldr	r3, .L460
 3501              		@ sp needed
 3502 0002 9878     		ldrb	r0, [r3, #2]
 3503 0004 7047     		bx	lr
 3504              	.L461:
 3505 0006 C046     		.align	2
 3506              	.L460:
 3507 0008 00000000 		.word	modem_stream_state
 3509              		.section	.text.modem_set_stream_state,"ax",%progbits
 3510              		.align	1
 3511              		.global	modem_set_stream_state
 3512              		.syntax unified
 3513              		.code	16
 3514              		.thumb_func
 3516              	modem_set_stream_state:
 3517              		@ args = 0, pretend = 0, frame = 0
 3518              		@ frame_needed = 0, uses_anonymous_args = 0
 3519              		@ link register save eliminated.
 3520 0000 014B     		ldr	r3, .L463
 3521              		@ sp needed
 3522 0002 5870     		strb	r0, [r3, #1]
 3523 0004 7047     		bx	lr
 3524              	.L464:
 3525 0006 C046     		.align	2
 3526              	.L463:
 3527 0008 00000000 		.word	modem_stream_state
 3529              		.section	.text.modem_set_stream_port,"ax",%progbits
 3530              		.align	1
 3531              		.global	modem_set_stream_port
 3532              		.syntax unified
 3533              		.code	16
 3534              		.thumb_func
 3536              	modem_set_stream_port:
 3537              		@ args = 0, pretend = 0, frame = 0
 3538              		@ frame_needed = 0, uses_anonymous_args = 0
 3539              		@ link register save eliminated.
 3540 0000 014B     		ldr	r3, .L466
 3541              		@ sp needed
 3542 0002 1870     		strb	r0, [r3]
ARM GAS  /tmp/ccFUrRgl.s 			page 62


 3543 0004 7047     		bx	lr
 3544              	.L467:
 3545 0006 C046     		.align	2
 3546              	.L466:
 3547 0008 00000000 		.word	modem_stream_state
 3549              		.section	.text.modem_set_stream_encryption,"ax",%progbits
 3550              		.align	1
 3551              		.global	modem_set_stream_encryption
 3552              		.syntax unified
 3553              		.code	16
 3554              		.thumb_func
 3556              	modem_set_stream_encryption:
 3557              		@ args = 0, pretend = 0, frame = 0
 3558              		@ frame_needed = 0, uses_anonymous_args = 0
 3559              		@ link register save eliminated.
 3560 0000 014B     		ldr	r3, .L469
 3561              		@ sp needed
 3562 0002 9870     		strb	r0, [r3, #2]
 3563 0004 7047     		bx	lr
 3564              	.L470:
 3565 0006 C046     		.align	2
 3566              	.L469:
 3567 0008 00000000 		.word	modem_stream_state
 3569              		.section	.text.modem_set_dm_info_bitfield_periodic,"ax",%progbits
 3570              		.align	1
 3571              		.global	modem_set_dm_info_bitfield_periodic
 3572              		.syntax unified
 3573              		.code	16
 3574              		.thumb_func
 3576              	modem_set_dm_info_bitfield_periodic:
 3577              		@ args = 0, pretend = 0, frame = 0
 3578              		@ frame_needed = 0, uses_anonymous_args = 0
 3579              		@ link register save eliminated.
 3580 0000 024B     		ldr	r3, .L473
 3581 0002 1A68     		ldr	r2, [r3]
 3582 0004 8242     		cmp	r2, r0
 3583 0006 00D0     		beq	.L471
 3584 0008 1860     		str	r0, [r3]
 3585              	.L471:
 3586              		@ sp needed
 3587 000a 7047     		bx	lr
 3588              	.L474:
 3589              		.align	2
 3590              	.L473:
 3591 000c 00000000 		.word	dm_info_bitfield_periodic
 3593              		.section	.text.modem_context_reset_dm_tag_number,"ax",%progbits
 3594              		.align	1
 3595              		.global	modem_context_reset_dm_tag_number
 3596              		.syntax unified
 3597              		.code	16
 3598              		.thumb_func
 3600              	modem_context_reset_dm_tag_number:
 3601              		@ args = 0, pretend = 0, frame = 0
 3602              		@ frame_needed = 0, uses_anonymous_args = 0
 3603              		@ link register save eliminated.
 3604 0000 0022     		movs	r2, #0
 3605              		@ sp needed
ARM GAS  /tmp/ccFUrRgl.s 			page 63


 3606 0002 014B     		ldr	r3, .L476
 3607 0004 1A70     		strb	r2, [r3]
 3608 0006 7047     		bx	lr
 3609              	.L477:
 3610              		.align	2
 3611              	.L476:
 3612 0008 00000000 		.word	tag_number
 3614              		.section	.text.modem_get_dm_info_bitfield_periodic,"ax",%progbits
 3615              		.align	1
 3616              		.global	modem_get_dm_info_bitfield_periodic
 3617              		.syntax unified
 3618              		.code	16
 3619              		.thumb_func
 3621              	modem_get_dm_info_bitfield_periodic:
 3622              		@ args = 0, pretend = 0, frame = 0
 3623              		@ frame_needed = 0, uses_anonymous_args = 0
 3624              		@ link register save eliminated.
 3625 0000 014B     		ldr	r3, .L479
 3626              		@ sp needed
 3627 0002 1868     		ldr	r0, [r3]
 3628 0004 7047     		bx	lr
 3629              	.L480:
 3630 0006 C046     		.align	2
 3631              	.L479:
 3632 0008 00000000 		.word	dm_info_bitfield_periodic
 3634              		.section	.text.modem_get_user_alarm,"ax",%progbits
 3635              		.align	1
 3636              		.global	modem_get_user_alarm
 3637              		.syntax unified
 3638              		.code	16
 3639              		.thumb_func
 3641              	modem_get_user_alarm:
 3642              		@ args = 0, pretend = 0, frame = 0
 3643              		@ frame_needed = 0, uses_anonymous_args = 0
 3644              		@ link register save eliminated.
 3645 0000 014B     		ldr	r3, .L482
 3646              		@ sp needed
 3647 0002 1868     		ldr	r0, [r3]
 3648 0004 7047     		bx	lr
 3649              	.L483:
 3650 0006 C046     		.align	2
 3651              	.L482:
 3652 0008 00000000 		.word	user_alarm
 3654              		.section	.text.modem_set_user_alarm,"ax",%progbits
 3655              		.align	1
 3656              		.global	modem_set_user_alarm
 3657              		.syntax unified
 3658              		.code	16
 3659              		.thumb_func
 3661              	modem_set_user_alarm:
 3662              		@ args = 0, pretend = 0, frame = 0
 3663              		@ frame_needed = 0, uses_anonymous_args = 0
 3664              		@ link register save eliminated.
 3665 0000 014B     		ldr	r3, .L485
 3666              		@ sp needed
 3667 0002 1860     		str	r0, [r3]
 3668 0004 7047     		bx	lr
ARM GAS  /tmp/ccFUrRgl.s 			page 64


 3669              	.L486:
 3670 0006 C046     		.align	2
 3671              	.L485:
 3672 0008 00000000 		.word	user_alarm
 3674              		.section	.text.get_modem_reset_requested,"ax",%progbits
 3675              		.align	1
 3676              		.global	get_modem_reset_requested
 3677              		.syntax unified
 3678              		.code	16
 3679              		.thumb_func
 3681              	get_modem_reset_requested:
 3682              		@ args = 0, pretend = 0, frame = 0
 3683              		@ frame_needed = 0, uses_anonymous_args = 0
 3684              		@ link register save eliminated.
 3685 0000 014B     		ldr	r3, .L488
 3686              		@ sp needed
 3687 0002 1878     		ldrb	r0, [r3]
 3688 0004 7047     		bx	lr
 3689              	.L489:
 3690 0006 C046     		.align	2
 3691              	.L488:
 3692 0008 00000000 		.word	is_modem_reset_requested
 3694              		.section	.text.set_modem_reset_requested,"ax",%progbits
 3695              		.align	1
 3696              		.global	set_modem_reset_requested
 3697              		.syntax unified
 3698              		.code	16
 3699              		.thumb_func
 3701              	set_modem_reset_requested:
 3702              		@ args = 0, pretend = 0, frame = 0
 3703              		@ frame_needed = 0, uses_anonymous_args = 0
 3704              		@ link register save eliminated.
 3705 0000 014B     		ldr	r3, .L491
 3706              		@ sp needed
 3707 0002 1870     		strb	r0, [r3]
 3708 0004 7047     		bx	lr
 3709              	.L492:
 3710 0006 C046     		.align	2
 3711              	.L491:
 3712 0008 00000000 		.word	is_modem_reset_requested
 3714              		.section	.text.modem_get_rfo_pa,"ax",%progbits
 3715              		.align	1
 3716              		.global	modem_get_rfo_pa
 3717              		.syntax unified
 3718              		.code	16
 3719              		.thumb_func
 3721              	modem_get_rfo_pa:
 3722              		@ args = 0, pretend = 0, frame = 0
 3723              		@ frame_needed = 0, uses_anonymous_args = 0
 3724              		@ link register save eliminated.
 3725 0000 014B     		ldr	r3, .L494
 3726              		@ sp needed
 3727 0002 1878     		ldrb	r0, [r3]
 3728 0004 7047     		bx	lr
 3729              	.L495:
 3730 0006 C046     		.align	2
 3731              	.L494:
ARM GAS  /tmp/ccFUrRgl.s 			page 65


 3732 0008 00000000 		.word	modem_rf_output
 3734              		.section	.text.modem_set_rfo_pa,"ax",%progbits
 3735              		.align	1
 3736              		.global	modem_set_rfo_pa
 3737              		.syntax unified
 3738              		.code	16
 3739              		.thumb_func
 3741              	modem_set_rfo_pa:
 3742              		@ args = 0, pretend = 0, frame = 0
 3743              		@ frame_needed = 0, uses_anonymous_args = 0
 3744              		@ link register save eliminated.
 3745 0000 0300     		movs	r3, r0
 3746 0002 0020     		movs	r0, #0
 3747 0004 022B     		cmp	r3, #2
 3748 0006 02D8     		bhi	.L497
 3749 0008 014A     		ldr	r2, .L499
 3750 000a 0130     		adds	r0, r0, #1
 3751 000c 1370     		strb	r3, [r2]
 3752              	.L497:
 3753              		@ sp needed
 3754 000e 7047     		bx	lr
 3755              	.L500:
 3756              		.align	2
 3757              	.L499:
 3758 0010 00000000 		.word	modem_rf_output
 3760              		.section	.text.modem_set_duty_cycle_disabled_by_host,"ax",%progbits
 3761              		.align	1
 3762              		.global	modem_set_duty_cycle_disabled_by_host
 3763              		.syntax unified
 3764              		.code	16
 3765              		.thumb_func
 3767              	modem_set_duty_cycle_disabled_by_host:
 3768              		@ args = 0, pretend = 0, frame = 0
 3769              		@ frame_needed = 0, uses_anonymous_args = 0
 3770              		@ link register save eliminated.
 3771 0000 014B     		ldr	r3, .L502
 3772              		@ sp needed
 3773 0002 1870     		strb	r0, [r3]
 3774 0004 7047     		bx	lr
 3775              	.L503:
 3776 0006 C046     		.align	2
 3777              	.L502:
 3778 0008 00000000 		.word	duty_cycle_disabled_by_host
 3780              		.section	.text.modem_get_duty_cycle_disabled_by_host,"ax",%progbits
 3781              		.align	1
 3782              		.global	modem_get_duty_cycle_disabled_by_host
 3783              		.syntax unified
 3784              		.code	16
 3785              		.thumb_func
 3787              	modem_get_duty_cycle_disabled_by_host:
 3788              		@ args = 0, pretend = 0, frame = 0
 3789              		@ frame_needed = 0, uses_anonymous_args = 0
 3790              		@ link register save eliminated.
 3791 0000 014B     		ldr	r3, .L505
 3792              		@ sp needed
 3793 0002 1878     		ldrb	r0, [r3]
 3794 0004 7047     		bx	lr
ARM GAS  /tmp/ccFUrRgl.s 			page 66


 3795              	.L506:
 3796 0006 C046     		.align	2
 3797              	.L505:
 3798 0008 00000000 		.word	duty_cycle_disabled_by_host
 3800              		.section	.text.modem_set_adr_mobile_timeout_config,"ax",%progbits
 3801              		.align	1
 3802              		.global	modem_set_adr_mobile_timeout_config
 3803              		.syntax unified
 3804              		.code	16
 3805              		.thumb_func
 3807              	modem_set_adr_mobile_timeout_config:
 3808              		@ args = 0, pretend = 0, frame = 0
 3809              		@ frame_needed = 0, uses_anonymous_args = 0
 3810              		@ link register save eliminated.
 3811 0000 014B     		ldr	r3, .L508
 3812              		@ sp needed
 3813 0002 1880     		strh	r0, [r3]
 3814 0004 7047     		bx	lr
 3815              	.L509:
 3816 0006 C046     		.align	2
 3817              	.L508:
 3818 0008 00000000 		.word	nb_adr_mobile_timeout
 3820              		.section	.text.modem_get_adr_mobile_timeout_config,"ax",%progbits
 3821              		.align	1
 3822              		.global	modem_get_adr_mobile_timeout_config
 3823              		.syntax unified
 3824              		.code	16
 3825              		.thumb_func
 3827              	modem_get_adr_mobile_timeout_config:
 3828              		@ args = 0, pretend = 0, frame = 0
 3829              		@ frame_needed = 0, uses_anonymous_args = 0
 3830              		@ link register save eliminated.
 3831 0000 014B     		ldr	r3, .L511
 3832              		@ sp needed
 3833 0002 1888     		ldrh	r0, [r3]
 3834 0004 7047     		bx	lr
 3835              	.L512:
 3836 0006 C046     		.align	2
 3837              	.L511:
 3838 0008 00000000 		.word	nb_adr_mobile_timeout
 3840              		.section	.text.modem_available_new_link_adr_request,"ax",%progbits
 3841              		.align	1
 3842              		.global	modem_available_new_link_adr_request
 3843              		.syntax unified
 3844              		.code	16
 3845              		.thumb_func
 3847              	modem_available_new_link_adr_request:
 3848              		@ args = 0, pretend = 0, frame = 0
 3849              		@ frame_needed = 0, uses_anonymous_args = 0
 3850 0000 10B5     		push	{r4, lr}
 3851 0002 FFF7FEFF 		bl	lorawan_api_available_link_adr_get
 3852              		@ sp needed
 3853 0006 10BD     		pop	{r4, pc}
 3855              		.section	.text.modem_set_test_mode_status,"ax",%progbits
 3856              		.align	1
 3857              		.global	modem_set_test_mode_status
 3858              		.syntax unified
ARM GAS  /tmp/ccFUrRgl.s 			page 67


 3859              		.code	16
 3860              		.thumb_func
 3862              	modem_set_test_mode_status:
 3863              		@ args = 0, pretend = 0, frame = 0
 3864              		@ frame_needed = 0, uses_anonymous_args = 0
 3865              		@ link register save eliminated.
 3866 0000 014B     		ldr	r3, .L515
 3867              		@ sp needed
 3868 0002 1870     		strb	r0, [r3]
 3869 0004 7047     		bx	lr
 3870              	.L516:
 3871 0006 C046     		.align	2
 3872              	.L515:
 3873 0008 00000000 		.word	is_modem_in_test_mode
 3875              		.section	.text.modem_get_test_mode_status,"ax",%progbits
 3876              		.align	1
 3877              		.global	modem_get_test_mode_status
 3878              		.syntax unified
 3879              		.code	16
 3880              		.thumb_func
 3882              	modem_get_test_mode_status:
 3883              		@ args = 0, pretend = 0, frame = 0
 3884              		@ frame_needed = 0, uses_anonymous_args = 0
 3885              		@ link register save eliminated.
 3886 0000 014B     		ldr	r3, .L518
 3887              		@ sp needed
 3888 0002 1878     		ldrb	r0, [r3]
 3889 0004 7047     		bx	lr
 3890              	.L519:
 3891 0006 C046     		.align	2
 3892              	.L518:
 3893 0008 00000000 		.word	is_modem_in_test_mode
 3895              		.section	.text.modem_context_set_rx_pathloss_db,"ax",%progbits
 3896              		.align	1
 3897              		.global	modem_context_set_rx_pathloss_db
 3898              		.syntax unified
 3899              		.code	16
 3900              		.thumb_func
 3902              	modem_context_set_rx_pathloss_db:
 3903              		@ args = 0, pretend = 0, frame = 0
 3904              		@ frame_needed = 0, uses_anonymous_args = 0
 3905              		@ link register save eliminated.
 3906 0000 014B     		ldr	r3, .L521
 3907              		@ sp needed
 3908 0002 1870     		strb	r0, [r3]
 3909 0004 7047     		bx	lr
 3910              	.L522:
 3911 0006 C046     		.align	2
 3912              	.L521:
 3913 0008 00000000 		.word	rx_pathloss_db
 3915              		.section	.text.modem_context_get_rx_pathloss_db,"ax",%progbits
 3916              		.align	1
 3917              		.global	modem_context_get_rx_pathloss_db
 3918              		.syntax unified
 3919              		.code	16
 3920              		.thumb_func
 3922              	modem_context_get_rx_pathloss_db:
ARM GAS  /tmp/ccFUrRgl.s 			page 68


 3923              		@ args = 0, pretend = 0, frame = 0
 3924              		@ frame_needed = 0, uses_anonymous_args = 0
 3925              		@ link register save eliminated.
 3926 0000 0020     		movs	r0, #0
 3927              		@ sp needed
 3928 0002 014B     		ldr	r3, .L524
 3929 0004 1856     		ldrsb	r0, [r3, r0]
 3930 0006 7047     		bx	lr
 3931              	.L525:
 3932              		.align	2
 3933              	.L524:
 3934 0008 00000000 		.word	rx_pathloss_db
 3936              		.section	.text.modem_context_set_tx_power_offset_db,"ax",%progbits
 3937              		.align	1
 3938              		.global	modem_context_set_tx_power_offset_db
 3939              		.syntax unified
 3940              		.code	16
 3941              		.thumb_func
 3943              	modem_context_set_tx_power_offset_db:
 3944              		@ args = 0, pretend = 0, frame = 0
 3945              		@ frame_needed = 0, uses_anonymous_args = 0
 3946              		@ link register save eliminated.
 3947 0000 014B     		ldr	r3, .L527
 3948              		@ sp needed
 3949 0002 1870     		strb	r0, [r3]
 3950 0004 7047     		bx	lr
 3951              	.L528:
 3952 0006 C046     		.align	2
 3953              	.L527:
 3954 0008 00000000 		.word	tx_power_offset_db
 3956              		.section	.text.modem_context_get_tx_power_offset_db,"ax",%progbits
 3957              		.align	1
 3958              		.global	modem_context_get_tx_power_offset_db
 3959              		.syntax unified
 3960              		.code	16
 3961              		.thumb_func
 3963              	modem_context_get_tx_power_offset_db:
 3964              		@ args = 0, pretend = 0, frame = 0
 3965              		@ frame_needed = 0, uses_anonymous_args = 0
 3966              		@ link register save eliminated.
 3967 0000 0020     		movs	r0, #0
 3968              		@ sp needed
 3969 0002 014B     		ldr	r3, .L530
 3970 0004 1856     		ldrsb	r0, [r3, r0]
 3971 0006 7047     		bx	lr
 3972              	.L531:
 3973              		.align	2
 3974              	.L530:
 3975 0008 00000000 		.word	tx_power_offset_db
 3977              		.section	.text.modem_context_get_modem_rp,"ax",%progbits
 3978              		.align	1
 3979              		.global	modem_context_get_modem_rp
 3980              		.syntax unified
 3981              		.code	16
 3982              		.thumb_func
 3984              	modem_context_get_modem_rp:
 3985              		@ args = 0, pretend = 0, frame = 0
ARM GAS  /tmp/ccFUrRgl.s 			page 69


 3986              		@ frame_needed = 0, uses_anonymous_args = 0
 3987              		@ link register save eliminated.
 3988 0000 014B     		ldr	r3, .L533
 3989              		@ sp needed
 3990 0002 1868     		ldr	r0, [r3]
 3991 0004 7047     		bx	lr
 3992              	.L534:
 3993 0006 C046     		.align	2
 3994              	.L533:
 3995 0008 00000000 		.word	modem_rp
 3997              		.section	.text.modem_context_set_modem_rp,"ax",%progbits
 3998              		.align	1
 3999              		.global	modem_context_set_modem_rp
 4000              		.syntax unified
 4001              		.code	16
 4002              		.thumb_func
 4004              	modem_context_set_modem_rp:
 4005              		@ args = 0, pretend = 0, frame = 0
 4006              		@ frame_needed = 0, uses_anonymous_args = 0
 4007              		@ link register save eliminated.
 4008 0000 014B     		ldr	r3, .L536
 4009              		@ sp needed
 4010 0002 1860     		str	r0, [r3]
 4011 0004 7047     		bx	lr
 4012              	.L537:
 4013 0006 C046     		.align	2
 4014              	.L536:
 4015 0008 00000000 		.word	modem_rp
 4017              		.section	.text.modem_context_suspend_user_radio_access,"ax",%progbits
 4018              		.align	1
 4019              		.global	modem_context_suspend_user_radio_access
 4020              		.syntax unified
 4021              		.code	16
 4022              		.thumb_func
 4024              	modem_context_suspend_user_radio_access:
 4025              		@ args = 0, pretend = 0, frame = 160
 4026              		@ frame_needed = 0, uses_anonymous_args = 0
 4027 0000 70B5     		push	{r4, r5, r6, lr}
 4028 0002 0600     		movs	r6, r0
 4029 0004 AAB0     		sub	sp, sp, #168
 4030 0006 09AD     		add	r5, sp, #36
 4031 0008 02AC     		add	r4, sp, #8
 4032 000a 8422     		movs	r2, #132
 4033 000c 0021     		movs	r1, #0
 4034 000e 2800     		movs	r0, r5
 4035 0010 FFF7FEFF 		bl	memset
 4036 0014 1C22     		movs	r2, #28
 4037 0016 0021     		movs	r1, #0
 4038 0018 2000     		movs	r0, r4
 4039 001a FFF7FEFF 		bl	memset
 4040 001e 0B4B     		ldr	r3, .L539
 4041 0020 6670     		strb	r6, [r4, #1]
 4042 0022 0393     		str	r3, [sp, #12]
 4043 0024 FFF7FEFF 		bl	smtc_modem_hal_get_time_in_ms
 4044 0028 094B     		ldr	r3, .L539+4
 4045 002a 0430     		adds	r0, r0, #4
 4046 002c 0893     		str	r3, [sp, #32]
ARM GAS  /tmp/ccFUrRgl.s 			page 70


 4047 002e 0023     		movs	r3, #0
 4048 0030 0590     		str	r0, [sp, #20]
 4049 0032 0848     		ldr	r0, .L539+8
 4050 0034 0095     		str	r5, [sp]
 4051 0036 1A00     		movs	r2, r3
 4052 0038 2100     		movs	r1, r4
 4053 003a 0068     		ldr	r0, [r0]
 4054 003c FFF7FEFF 		bl	rp_task_enqueue
 4055 0040 4342     		rsbs	r3, r0, #0
 4056 0042 5841     		adcs	r0, r0, r3
 4057 0044 C0B2     		uxtb	r0, r0
 4058 0046 2AB0     		add	sp, sp, #168
 4059              		@ sp needed
 4060 0048 70BD     		pop	{r4, r5, r6, pc}
 4061              	.L540:
 4062 004a C046     		.align	2
 4063              	.L539:
 4064 004c 00000000 		.word	modem_context_empty_callback
 4065 0050 204E0000 		.word	20000
 4066 0054 00000000 		.word	modem_rp
 4068              		.section	.rodata.modem_context_resume_user_radio_access.str1.1,"aMS",%progbits,1
 4069              	.LC240:
 4070 0000 1B5B303B 		.ascii	"\033[0;31mERROR: Fail to abort hook\012\000"
 4070      33316D45 
 4070      52524F52 
 4070      3A204661 
 4070      696C2074 
 4071              		.section	.text.modem_context_resume_user_radio_access,"ax",%progbits
 4072              		.align	1
 4073              		.global	modem_context_resume_user_radio_access
 4074              		.syntax unified
 4075              		.code	16
 4076              		.thumb_func
 4078              	modem_context_resume_user_radio_access:
 4079              		@ args = 0, pretend = 0, frame = 0
 4080              		@ frame_needed = 0, uses_anonymous_args = 0
 4081 0000 084B     		ldr	r3, .L545
 4082 0002 0021     		movs	r1, #0
 4083 0004 1868     		ldr	r0, [r3]
 4084 0006 10B5     		push	{r4, lr}
 4085 0008 FFF7FEFF 		bl	rp_task_abort
 4086 000c 0123     		movs	r3, #1
 4087 000e 0028     		cmp	r0, #0
 4088 0010 06D0     		beq	.L542
 4089 0012 0548     		ldr	r0, .L545+4
 4090 0014 FFF7FEFF 		bl	smtc_modem_hal_print_trace
 4091 0018 0448     		ldr	r0, .L545+8
 4092 001a FFF7FEFF 		bl	smtc_modem_hal_print_trace
 4093 001e 0023     		movs	r3, #0
 4094              	.L542:
 4095              		@ sp needed
 4096 0020 1800     		movs	r0, r3
 4097 0022 10BD     		pop	{r4, pc}
 4098              	.L546:
 4099              		.align	2
 4100              	.L545:
 4101 0024 00000000 		.word	modem_rp
ARM GAS  /tmp/ccFUrRgl.s 			page 71


 4102 0028 00000000 		.word	.LC240
 4103 002c 1D000000 		.word	.LC41
 4105              		.section	.text.modem_context_suspend_radio_access,"ax",%progbits
 4106              		.align	1
 4107              		.global	modem_context_suspend_radio_access
 4108              		.syntax unified
 4109              		.code	16
 4110              		.thumb_func
 4112              	modem_context_suspend_radio_access:
 4113              		@ args = 0, pretend = 0, frame = 160
 4114              		@ frame_needed = 0, uses_anonymous_args = 0
 4115 0000 30B5     		push	{r4, r5, lr}
 4116 0002 ABB0     		sub	sp, sp, #172
 4117 0004 09AC     		add	r4, sp, #36
 4118 0006 0500     		movs	r5, r0
 4119 0008 8422     		movs	r2, #132
 4120 000a 0021     		movs	r1, #0
 4121 000c 2000     		movs	r0, r4
 4122 000e FFF7FEFF 		bl	memset
 4123 0012 0A20     		movs	r0, #10
 4124 0014 0021     		movs	r1, #0
 4125 0016 1A22     		movs	r2, #26
 4126 0018 6844     		add	r0, r0, sp
 4127 001a FFF7FEFF 		bl	memset
 4128 001e 6A46     		mov	r2, sp
 4129 0020 0223     		movs	r3, #2
 4130 0022 1372     		strb	r3, [r2, #8]
 4131 0024 0B4B     		ldr	r3, .L548
 4132 0026 5572     		strb	r5, [r2, #9]
 4133 0028 0393     		str	r3, [sp, #12]
 4134 002a FFF7FEFF 		bl	smtc_modem_hal_get_time_in_ms
 4135 002e 0A4B     		ldr	r3, .L548+4
 4136 0030 0430     		adds	r0, r0, #4
 4137 0032 0590     		str	r0, [sp, #20]
 4138 0034 0893     		str	r3, [sp, #32]
 4139 0036 FFF7FEFF 		bl	smtc_modem_hal_disable_modem_irq
 4140 003a 0023     		movs	r3, #0
 4141 003c 0748     		ldr	r0, .L548+8
 4142 003e 0094     		str	r4, [sp]
 4143 0040 1A00     		movs	r2, r3
 4144 0042 02A9     		add	r1, sp, #8
 4145 0044 0068     		ldr	r0, [r0]
 4146 0046 FFF7FEFF 		bl	rp_task_enqueue
 4147 004a 4342     		rsbs	r3, r0, #0
 4148 004c 5841     		adcs	r0, r0, r3
 4149 004e C0B2     		uxtb	r0, r0
 4150 0050 2BB0     		add	sp, sp, #172
 4151              		@ sp needed
 4152 0052 30BD     		pop	{r4, r5, pc}
 4153              	.L549:
 4154              		.align	2
 4155              	.L548:
 4156 0054 00000000 		.word	modem_context_empty_callback
 4157 0058 204E0000 		.word	20000
 4158 005c 00000000 		.word	modem_rp
 4160              		.section	.text.modem_context_resume_radio_access,"ax",%progbits
 4161              		.align	1
ARM GAS  /tmp/ccFUrRgl.s 			page 72


 4162              		.global	modem_context_resume_radio_access
 4163              		.syntax unified
 4164              		.code	16
 4165              		.thumb_func
 4167              	modem_context_resume_radio_access:
 4168              		@ args = 0, pretend = 0, frame = 0
 4169              		@ frame_needed = 0, uses_anonymous_args = 0
 4170 0000 094B     		ldr	r3, .L554
 4171 0002 10B5     		push	{r4, lr}
 4172 0004 0221     		movs	r1, #2
 4173 0006 1868     		ldr	r0, [r3]
 4174 0008 FFF7FEFF 		bl	rp_task_abort
 4175 000c 0124     		movs	r4, #1
 4176 000e 0028     		cmp	r0, #0
 4177 0010 06D0     		beq	.L551
 4178 0012 0648     		ldr	r0, .L554+4
 4179 0014 FFF7FEFF 		bl	smtc_modem_hal_print_trace
 4180 0018 0548     		ldr	r0, .L554+8
 4181 001a FFF7FEFF 		bl	smtc_modem_hal_print_trace
 4182 001e 0024     		movs	r4, #0
 4183              	.L551:
 4184              		@ sp needed
 4185 0020 FFF7FEFF 		bl	smtc_modem_hal_enable_modem_irq
 4186 0024 2000     		movs	r0, r4
 4187 0026 10BD     		pop	{r4, pc}
 4188              	.L555:
 4189              		.align	2
 4190              	.L554:
 4191 0028 00000000 		.word	modem_rp
 4192 002c 00000000 		.word	.LC240
 4193 0030 1D000000 		.word	.LC41
 4195              		.section	.text.modem_context_set_power_config_lut,"ax",%progbits
 4196              		.align	1
 4197              		.global	modem_context_set_power_config_lut
 4198              		.syntax unified
 4199              		.code	16
 4200              		.thumb_func
 4202              	modem_context_set_power_config_lut:
 4203              		@ args = 0, pretend = 0, frame = 0
 4204              		@ frame_needed = 0, uses_anonymous_args = 0
 4205              		@ link register save eliminated.
 4206 0000 0200     		movs	r2, r0
 4207 0002 084B     		ldr	r3, .L559
 4208 0004 1E32     		adds	r2, r2, #30
 4209              	.L557:
 4210 0006 0178     		ldrb	r1, [r0]
 4211 0008 1970     		strb	r1, [r3]
 4212 000a 4178     		ldrb	r1, [r0, #1]
 4213 000c 5970     		strb	r1, [r3, #1]
 4214 000e 8178     		ldrb	r1, [r0, #2]
 4215 0010 9970     		strb	r1, [r3, #2]
 4216 0012 C178     		ldrb	r1, [r0, #3]
 4217 0014 D970     		strb	r1, [r3, #3]
 4218 0016 0179     		ldrb	r1, [r0, #4]
 4219 0018 0530     		adds	r0, r0, #5
 4220 001a 1971     		strb	r1, [r3, #4]
 4221 001c 0533     		adds	r3, r3, #5
ARM GAS  /tmp/ccFUrRgl.s 			page 73


 4222 001e 9042     		cmp	r0, r2
 4223 0020 F1D1     		bne	.L557
 4224              		@ sp needed
 4225 0022 7047     		bx	lr
 4226              	.L560:
 4227              		.align	2
 4228              	.L559:
 4229 0024 00000000 		.word	power_config_lut
 4231              		.section	.text.modem_context_get_power_config_lut,"ax",%progbits
 4232              		.align	1
 4233              		.global	modem_context_get_power_config_lut
 4234              		.syntax unified
 4235              		.code	16
 4236              		.thumb_func
 4238              	modem_context_get_power_config_lut:
 4239              		@ args = 0, pretend = 0, frame = 0
 4240              		@ frame_needed = 0, uses_anonymous_args = 0
 4241              		@ link register save eliminated.
 4242 0000 0048     		ldr	r0, .L562
 4243              		@ sp needed
 4244 0002 7047     		bx	lr
 4245              	.L563:
 4246              		.align	2
 4247              	.L562:
 4248 0004 00000000 		.word	power_config_lut
 4250              		.section	.text.modem_context_set_appkey,"ax",%progbits
 4251              		.align	1
 4252              		.global	modem_context_set_appkey
 4253              		.syntax unified
 4254              		.code	16
 4255              		.thumb_func
 4257              	modem_context_set_appkey:
 4258              		@ args = 0, pretend = 0, frame = 0
 4259              		@ frame_needed = 0, uses_anonymous_args = 0
 4260 0000 10B5     		push	{r4, lr}
 4261 0002 FFF7FEFF 		bl	lorawan_api_set_appkey
 4262              		@ sp needed
 4263 0006 431E     		subs	r3, r0, #1
 4264 0008 9841     		sbcs	r0, r0, r3
 4265 000a C0B2     		uxtb	r0, r0
 4266 000c 10BD     		pop	{r4, pc}
 4268              		.section	.text.modem_context_appkey_is_derived,"ax",%progbits
 4269              		.align	1
 4270              		.global	modem_context_appkey_is_derived
 4271              		.syntax unified
 4272              		.code	16
 4273              		.thumb_func
 4275              	modem_context_appkey_is_derived:
 4276              		@ args = 0, pretend = 0, frame = 0
 4277              		@ frame_needed = 0, uses_anonymous_args = 0
 4278 0000 0122     		movs	r2, #1
 4279 0002 10B5     		push	{r4, lr}
 4280 0004 024B     		ldr	r3, .L566
 4281              		@ sp needed
 4282 0006 1A80     		strh	r2, [r3]
 4283 0008 FFF7FEFF 		bl	modem_store_context
 4284 000c 10BD     		pop	{r4, pc}
ARM GAS  /tmp/ccFUrRgl.s 			page 74


 4285              	.L567:
 4286 000e C046     		.align	2
 4287              	.L566:
 4288 0010 00000000 		.word	modem_appkey_status
 4290              		.section	.text.modem_context_get_network_type,"ax",%progbits
 4291              		.align	1
 4292              		.global	modem_context_get_network_type
 4293              		.syntax unified
 4294              		.code	16
 4295              		.thumb_func
 4297              	modem_context_get_network_type:
 4298              		@ args = 0, pretend = 0, frame = 0
 4299              		@ frame_needed = 0, uses_anonymous_args = 0
 4300 0000 10B5     		push	{r4, lr}
 4301 0002 FFF7FEFF 		bl	lorawan_api_get_network_type
 4302              		@ sp needed
 4303 0006 10BD     		pop	{r4, pc}
 4305              		.section	.text.modem_context_set_network_type,"ax",%progbits
 4306              		.align	1
 4307              		.global	modem_context_set_network_type
 4308              		.syntax unified
 4309              		.code	16
 4310              		.thumb_func
 4312              	modem_context_set_network_type:
 4313              		@ args = 0, pretend = 0, frame = 0
 4314              		@ frame_needed = 0, uses_anonymous_args = 0
 4315 0000 10B5     		push	{r4, lr}
 4316 0002 FFF7FEFF 		bl	lorawan_api_set_network_type
 4317              		@ sp needed
 4318 0006 10BD     		pop	{r4, pc}
 4320              		.section	.text.modem_context_get_modem_radio_ctx,"ax",%progbits
 4321              		.align	1
 4322              		.global	modem_context_get_modem_radio_ctx
 4323              		.syntax unified
 4324              		.code	16
 4325              		.thumb_func
 4327              	modem_context_get_modem_radio_ctx:
 4328              		@ args = 0, pretend = 0, frame = 0
 4329              		@ frame_needed = 0, uses_anonymous_args = 0
 4330              		@ link register save eliminated.
 4331 0000 014B     		ldr	r3, .L571
 4332              		@ sp needed
 4333 0002 1868     		ldr	r0, [r3]
 4334 0004 7047     		bx	lr
 4335              	.L572:
 4336 0006 C046     		.align	2
 4337              	.L571:
 4338 0008 00000000 		.word	modem_radio_ctx
 4340              		.section	.text.modem_context_set_modem_radio_ctx,"ax",%progbits
 4341              		.align	1
 4342              		.global	modem_context_set_modem_radio_ctx
 4343              		.syntax unified
 4344              		.code	16
 4345              		.thumb_func
 4347              	modem_context_set_modem_radio_ctx:
 4348              		@ args = 0, pretend = 0, frame = 0
 4349              		@ frame_needed = 0, uses_anonymous_args = 0
ARM GAS  /tmp/ccFUrRgl.s 			page 75


 4350              		@ link register save eliminated.
 4351 0000 014B     		ldr	r3, .L574
 4352              		@ sp needed
 4353 0002 1860     		str	r0, [r3]
 4354 0004 7047     		bx	lr
 4355              	.L575:
 4356 0006 C046     		.align	2
 4357              	.L574:
 4358 0008 00000000 		.word	modem_radio_ctx
 4360              		.section	.text.modem_set_extended_callback,"ax",%progbits
 4361              		.align	1
 4362              		.global	modem_set_extended_callback
 4363              		.syntax unified
 4364              		.code	16
 4365              		.thumb_func
 4367              	modem_set_extended_callback:
 4368              		@ args = 0, pretend = 0, frame = 0
 4369              		@ frame_needed = 0, uses_anonymous_args = 0
 4370              		@ link register save eliminated.
 4371 0000 034B     		ldr	r3, .L580
 4372 0002 0129     		cmp	r1, #1
 4373 0004 02D0     		beq	.L579
 4374 0006 0229     		cmp	r1, #2
 4375 0008 01D1     		bne	.L576
 4376 000a 024B     		ldr	r3, .L580+4
 4377              	.L579:
 4378 000c 1860     		str	r0, [r3]
 4379              	.L576:
 4380              		@ sp needed
 4381 000e 7047     		bx	lr
 4382              	.L581:
 4383              		.align	2
 4384              	.L580:
 4385 0010 00000000 		.word	modem_lbm_notification_extended_1_callback
 4386 0014 00000000 		.word	modem_lbm_notification_extended_2_callback
 4388              		.section	.text.modem_get_extended_callback,"ax",%progbits
 4389              		.align	1
 4390              		.global	modem_get_extended_callback
 4391              		.syntax unified
 4392              		.code	16
 4393              		.thumb_func
 4395              	modem_get_extended_callback:
 4396              		@ args = 0, pretend = 0, frame = 0
 4397              		@ frame_needed = 0, uses_anonymous_args = 0
 4398              		@ link register save eliminated.
 4399 0000 0300     		movs	r3, r0
 4400 0002 0128     		cmp	r0, #1
 4401 0004 02D1     		bne	.L583
 4402 0006 044B     		ldr	r3, .L587
 4403              	.L586:
 4404 0008 1868     		ldr	r0, [r3]
 4405              	.L582:
 4406              		@ sp needed
 4407 000a 7047     		bx	lr
 4408              	.L583:
 4409 000c 0020     		movs	r0, #0
 4410 000e 022B     		cmp	r3, #2
ARM GAS  /tmp/ccFUrRgl.s 			page 76


 4411 0010 FBD1     		bne	.L582
 4412 0012 024B     		ldr	r3, .L587+4
 4413 0014 F8E7     		b	.L586
 4414              	.L588:
 4415 0016 C046     		.align	2
 4416              	.L587:
 4417 0018 00000000 		.word	modem_lbm_notification_extended_1_callback
 4418 001c 00000000 		.word	modem_lbm_notification_extended_2_callback
 4420              		.section	.text.modem_leave,"ax",%progbits
 4421              		.align	1
 4422              		.global	modem_leave
 4423              		.syntax unified
 4424              		.code	16
 4425              		.thumb_func
 4427              	modem_leave:
 4428              		@ args = 0, pretend = 0, frame = 0
 4429              		@ frame_needed = 0, uses_anonymous_args = 0
 4430 0000 10B5     		push	{r4, lr}
 4431 0002 0024     		movs	r4, #0
 4432              		@ sp needed
 4433 0004 0020     		movs	r0, #0
 4434 0006 FFF7FEFF 		bl	set_modem_status_modem_joined
 4435 000a FFF7FEFF 		bl	lorawan_api_join_status_clear
 4436 000e 0020     		movs	r0, #0
 4437 0010 FFF7FEFF 		bl	set_modem_status_joining
 4438 0014 0020     		movs	r0, #0
 4439 0016 FFF7FEFF 		bl	lorawan_api_class_b_enabled
 4440 001a 0020     		movs	r0, #0
 4441 001c FFF7FEFF 		bl	lorawan_api_class_c_enabled
 4442 0020 0020     		movs	r0, #0
 4443 0022 FFF7FEFF 		bl	set_modem_status_file_upload
 4444 0026 054B     		ldr	r3, .L590
 4445 0028 2000     		movs	r0, r4
 4446 002a 1C70     		strb	r4, [r3]
 4447 002c FFF7FEFF 		bl	set_modem_status_streaming
 4448 0030 034B     		ldr	r3, .L590+4
 4449 0032 5C70     		strb	r4, [r3, #1]
 4450 0034 FFF7FEFF 		bl	modem_supervisor_init_task
 4451 0038 10BD     		pop	{r4, pc}
 4452              	.L591:
 4453 003a C046     		.align	2
 4454              	.L590:
 4455 003c 00000000 		.word	modem_upload_state
 4456 0040 00000000 		.word	modem_stream_state
 4458              		.section	.rodata.__func__.1,"a"
 4461              	__func__.1:
 4462 0000 6765745F 		.ascii	"get_modem_event_status\000"
 4462      6D6F6465 
 4462      6D5F6576 
 4462      656E745F 
 4462      73746174 
 4463              		.section	.rodata.__func__.2,"a"
 4466              	__func__.2:
 4467 0000 6765745F 		.ascii	"get_modem_event_count\000"
 4467      6D6F6465 
 4467      6D5F6576 
 4467      656E745F 
ARM GAS  /tmp/ccFUrRgl.s 			page 77


 4467      636F756E 
 4468              		.section	.rodata.dm_info_field_sz,"a"
 4469              		.align	2
 4472              	dm_info_field_sz:
 4473 0000 01020101 		.ascii	"\001\002\001\001\002\002\002\010\001\010\001\001\004"
 4473      02020208 
 4473      01080101 
 4473      04
 4474 000d 00000208 		.ascii	"\000\000\002\010\002\002\010\000\002\010\000\007\000"
 4474      02020800 
 4474      02080007 
 4474      00
 4475 001a 0000     		.space	2
 4476              		.section	.bss.modem_radio_ctx,"aw",%nobits
 4477              		.align	2
 4480              	modem_radio_ctx:
 4481 0000 00000000 		.space	4
 4482              		.section	.bss.modem_lbm_notification_extended_2_callback,"aw",%nobits
 4483              		.align	2
 4486              	modem_lbm_notification_extended_2_callback:
 4487 0000 00000000 		.space	4
 4488              		.section	.bss.modem_lbm_notification_extended_1_callback,"aw",%nobits
 4489              		.align	2
 4492              	modem_lbm_notification_extended_1_callback:
 4493 0000 00000000 		.space	4
 4494              		.section	.bss.power_config_lut,"aw",%nobits
 4497              	power_config_lut:
 4498 0000 00000000 		.space	30
 4498      00000000 
 4498      00000000 
 4498      00000000 
 4498      00000000 
 4499              		.section	.bss.modem_rp,"aw",%nobits
 4500              		.align	2
 4503              	modem_rp:
 4504 0000 00000000 		.space	4
 4505              		.section	.bss.tx_power_offset_db,"aw",%nobits
 4508              	tx_power_offset_db:
 4509 0000 00       		.space	1
 4510              		.section	.bss.rx_pathloss_db,"aw",%nobits
 4513              	rx_pathloss_db:
 4514 0000 00       		.space	1
 4515              		.section	.bss.is_modem_in_test_mode,"aw",%nobits
 4518              	is_modem_in_test_mode:
 4519 0000 00       		.space	1
 4520              		.section	.bss.nb_adr_mobile_timeout,"aw",%nobits
 4521              		.align	1
 4524              	nb_adr_mobile_timeout:
 4525 0000 0000     		.space	2
 4526              		.section	.bss.modem_adr_profile,"aw",%nobits
 4529              	modem_adr_profile:
 4530 0000 00       		.space	1
 4531              		.section	.bss.duty_cycle_disabled_by_host,"aw",%nobits
 4534              	duty_cycle_disabled_by_host:
 4535 0000 00       		.space	1
 4536              		.section	.bss.modem_rf_output,"aw",%nobits
 4539              	modem_rf_output:
ARM GAS  /tmp/ccFUrRgl.s 			page 78


 4540 0000 00       		.space	1
 4541              		.section	.bss.charge_counter_to_send,"aw",%nobits
 4544              	charge_counter_to_send:
 4545 0000 00       		.space	1
 4546              		.section	.bss.user_define_charge_counter,"aw",%nobits
 4547              		.align	1
 4550              	user_define_charge_counter:
 4551 0000 0000     		.space	2
 4552              		.section	.bss.start_time_was_set,"aw",%nobits
 4555              	start_time_was_set:
 4556 0000 00       		.space	1
 4557              		.section	.bss.modem_charge_offset,"aw",%nobits
 4558              		.align	2
 4561              	modem_charge_offset:
 4562 0000 00000000 		.space	4
 4563              		.section	.bss.is_modem_reset_requested,"aw",%nobits
 4566              	is_modem_reset_requested:
 4567 0000 00       		.space	1
 4568              		.section	.bss.modem_dwn_pkt,"aw",%nobits
 4569              		.align	2
 4572              	modem_dwn_pkt:
 4573 0000 00000000 		.space	264
 4573      00000000 
 4573      00000000 
 4573      00000000 
 4573      00000000 
 4574              		.section	.bss.asynch_msg,"aw",%nobits
 4575              		.align	2
 4578              	asynch_msg:
 4579 0000 00000000 		.space	25
 4579      00000000 
 4579      00000000 
 4579      00000000 
 4579      00000000 
 4580              		.section	.bss.modem_event_status,"aw",%nobits
 4581              		.align	2
 4584              	modem_event_status:
 4585 0000 00000000 		.space	25
 4585      00000000 
 4585      00000000 
 4585      00000000 
 4585      00000000 
 4586              		.section	.bss.modem_event_count,"aw",%nobits
 4587              		.align	2
 4590              	modem_event_count:
 4591 0000 00000000 		.space	25
 4591      00000000 
 4591      00000000 
 4591      00000000 
 4591      00000000 
 4592              		.section	.bss.asynchronous_msgnumber,"aw",%nobits
 4595              	asynchronous_msgnumber:
 4596 0000 00       		.space	1
 4597              		.section	.data.user_alarm,"aw"
 4598              		.align	2
 4601              	user_alarm:
 4602 0000 FFFFFF7F 		.word	2147483647
ARM GAS  /tmp/ccFUrRgl.s 			page 79


 4603              		.section	.bss.dm_pending_dl,"aw",%nobits
 4604              		.align	1
 4607              	dm_pending_dl:
 4608 0000 0000     		.space	2
 4609              		.section	.bss.number_of_muted_day,"aw",%nobits
 4612              	number_of_muted_day:
 4613 0000 00       		.space	1
 4614              		.section	.bss.tag_number_now,"aw",%nobits
 4617              	tag_number_now:
 4618 0000 00       		.space	1
 4619              		.section	.bss.tag_number,"aw",%nobits
 4622              	tag_number:
 4623 0000 00       		.space	1
 4624              		.section	.bss.dm_info_bitfield_now,"aw",%nobits
 4625              		.align	2
 4628              	dm_info_bitfield_now:
 4629 0000 00000000 		.space	4
 4630              		.section	.data.dm_info_bitfield_periodic,"aw"
 4631              		.align	2
 4634              	dm_info_bitfield_periodic:
 4635 0000 7B000000 		.word	123
 4636              		.section	.data.modem_stream_state,"aw"
 4637              		.align	1
 4640              	modem_stream_state:
 4641 0000 C7       		.byte	-57
 4642 0001 00       		.byte	0
 4643 0002 00       		.byte	0
 4644              		.section	.bss.modem_upload_state,"aw",%nobits
 4647              	modem_upload_state:
 4648 0000 00       		.space	1
 4649              		.section	.bss.modem_dm_upload_sctr,"aw",%nobits
 4652              	modem_dm_upload_sctr:
 4653 0000 00       		.space	1
 4654              		.section	.bss.modem_start_time,"aw",%nobits
 4655              		.align	2
 4658              	modem_start_time:
 4659 0000 00000000 		.space	4
 4660              		.section	.bss.is_modem_suspend,"aw",%nobits
 4663              	is_modem_suspend:
 4664 0000 00       		.space	1
 4665              		.section	.bss.modem_dm_class,"aw",%nobits
 4668              	modem_dm_class:
 4669 0000 00       		.space	1
 4670              		.section	.bss.modem_appstatus,"aw",%nobits
 4671              		.align	2
 4674              	modem_appstatus:
 4675 0000 00000000 		.space	8
 4675      00000000 
 4676              		.section	.data.modem_dm_port,"aw"
 4679              	modem_dm_port:
 4680 0000 C7       		.byte	-57
 4681              		.section	.data.modem_dm_interval,"aw"
 4684              	modem_dm_interval:
 4685 0000 81       		.byte	-127
 4686              		.section	.bss.modem_status,"aw",%nobits
 4689              	modem_status:
 4690 0000 00       		.space	1
ARM GAS  /tmp/ccFUrRgl.s 			page 80


 4691              		.section	.bss.modem_appkey_crc,"aw",%nobits
 4692              		.align	2
 4695              	modem_appkey_crc:
 4696 0000 00000000 		.space	4
 4697              		.section	.data.modem_appkey_status,"aw"
 4698              		.align	1
 4701              	modem_appkey_status:
 4702 0000 0100     		.short	1
 4703              		.ident	"GCC: (Arch Repository) 13.2.0"
ARM GAS  /tmp/ccFUrRgl.s 			page 81

