ARM GAS  /tmp/ccI8rJG2.s 			page 1


   1              		.cpu cortex-m0
   2              		.arch armv6s-m
   3              		.fpu softvfp
   4              		.eabi_attribute 23, 1
   5              		.eabi_attribute 24, 1
   6              		.eabi_attribute 25, 1
   7              		.eabi_attribute 26, 1
   8              		.eabi_attribute 30, 4
   9              		.eabi_attribute 34, 0
  10              		.eabi_attribute 18, 4
  11              		.file	"modem_supervisor.c"
  12              		.text
  13              		.section	.rodata.certification_event_handler.str1.1,"aMS",%progbits,1
  14              	.LC0:
  15 0000 1B5B303B 		.ascii	"\033[0;33mWARN: Event 0x%x\012\000"
  15      33336D57 
  15      41524E3A 
  15      20457665 
  15      6E742030 
  16              	.LC2:
  17 0019 1B5B306D 		.ascii	"\033[0m\000"
  17      00
  18              	.LC4:
  19 001e 1B5B303B 		.ascii	"\033[0;32mINFO: Modem is joined, program an alarm\012"
  19      33326D49 
  19      4E464F3A 
  19      204D6F64 
  19      656D2069 
  20 004d 00       		.ascii	"\000"
  21              	.LC7:
  22 004e 444F574E 		.ascii	"DOWNDATA\000"
  22      44415441 
  22      00
  23              	.LC9:
  24 0057 2573202D 		.ascii	"%s - (%lu bytes):\012\000"
  24      2028256C 
  24      75206279 
  24      74657329 
  24      3A0A00
  25              	.LC11:
  26 006a 0A00     		.ascii	"\012\000"
  27              	.LC13:
  28 006c 20253032 		.ascii	" %02X\000"
  28      5800
  29              	.LC15:
  30 0072 6F6E2070 		.ascii	"on port %u\012\000"
  30      6F727420 
  30      25750A00 
  31              	.LC17:
  32 007e 1B5B303B 		.ascii	"\033[0;33mWARN: Join failed \012\000"
  32      33336D57 
  32      41524E3A 
  32      204A6F69 
  32      6E206661 
  33              	.LC20:
  34 0099 43657274 		.ascii	"Certif enable classB\012\000"
  34      69662065 
ARM GAS  /tmp/ccI8rJG2.s 			page 2


  34      6E61626C 
  34      6520636C 
  34      61737342 
  35              	.LC22:
  36 00af 43657274 		.ascii	"Certif classB could not be enabled\012\000"
  36      69662063 
  36      6C617373 
  36      4220636F 
  36      756C6420 
  37              	.LC24:
  38 00d3 1B5B303B 		.ascii	"\033[0;31mERROR: Unknown event %u\012\000"
  38      33316D45 
  38      52524F52 
  38      3A20556E 
  38      6B6E6F77 
  39              	.LC28:
  40 00f3 73746174 		.ascii	"status_certif 0x%x\012\000"
  40      75735F63 
  40      65727469 
  40      66203078 
  40      25780A00 
  41              	.LC31:
  42 0107 42454143 		.ascii	"BEACON to testing tool\000"
  42      4F4E2074 
  42      6F207465 
  42      7374696E 
  42      6720746F 
  43              		.section	.text.certification_event_handler,"ax",%progbits
  44              		.align	1
  45              		.syntax unified
  46              		.code	16
  47              		.thumb_func
  49              	certification_event_handler:
  50              		@ args = 0, pretend = 0, frame = 544
  51              		@ frame_needed = 0, uses_anonymous_args = 0
  52 0000 F0B5     		push	{r4, r5, r6, r7, lr}
  53 0002 0027     		movs	r7, #0
  54 0004 C54C     		ldr	r4, .L78
  55 0006 FF22     		movs	r2, #255
  56 0008 A544     		add	sp, sp, r4
  57 000a 3C00     		movs	r4, r7
  58 000c 0021     		movs	r1, #0
  59 000e 0AA8     		add	r0, sp, #40
  60 0010 FFF7FEFF 		bl	memset
  61 0014 0597     		str	r7, [sp, #20]
  62              	.L24:
  63 0016 4AAD     		add	r5, sp, #296
  64 0018 08A9     		add	r1, sp, #32
  65 001a 2800     		movs	r0, r5
  66 001c FFF7FEFF 		bl	smtc_modem_get_event
  67 0020 6978     		ldrb	r1, [r5, #1]
  68 0022 BF48     		ldr	r0, .L78+4
  69 0024 FFF7FEFF 		bl	smtc_modem_hal_print_trace
  70 0028 BE4E     		ldr	r6, .L78+8
  71 002a 3000     		movs	r0, r6
  72 002c FFF7FEFF 		bl	smtc_modem_hal_print_trace
  73 0030 6978     		ldrb	r1, [r5, #1]
ARM GAS  /tmp/ccI8rJG2.s 			page 3


  74 0032 1329     		cmp	r1, #19
  75 0034 00D9     		bls	.LCB31
  76 0036 E2E0     		b	.L2	@long jump
  77              	.LCB31:
  78 0038 0800     		movs	r0, r1
  79 003a FFF7FEFF 		bl	__gnu_thumb1_case_uqi
  80              	.L4:
  81 003e 0A       		.byte	(.L11-.L4)/2
  82 003f 3A       		.byte	(.L10-.L4)/2
  83 0040 51       		.byte	(.L9-.L4)/2
  84 0041 64       		.byte	(.L8-.L4)/2
  85 0042 76       		.byte	(.L7-.L4)/2
  86 0043 13       		.byte	(.L12-.L4)/2
  87 0044 13       		.byte	(.L12-.L4)/2
  88 0045 13       		.byte	(.L12-.L4)/2
  89 0046 13       		.byte	(.L12-.L4)/2
  90 0047 E0       		.byte	(.L2-.L4)/2
  91 0048 AE       		.byte	(.L6-.L4)/2
  92 0049 E0       		.byte	(.L2-.L4)/2
  93 004a E0       		.byte	(.L2-.L4)/2
  94 004b B5       		.byte	(.L3-.L4)/2
  95 004c 13       		.byte	(.L12-.L4)/2
  96 004d 13       		.byte	(.L12-.L4)/2
  97 004e E0       		.byte	(.L2-.L4)/2
  98 004f E0       		.byte	(.L2-.L4)/2
  99 0050 E0       		.byte	(.L2-.L4)/2
 100 0051 B5       		.byte	(.L3-.L4)/2
 101              		.p2align 1
 102              	.L11:
 103 0052 FFF7FEFF 		bl	smtc_secure_element_restore_context
 104 0056 0020     		movs	r0, #0
 105 0058 FFF7FEFF 		bl	smtc_modem_join_network
 106 005c 0121     		movs	r1, #1
 107 005e 0020     		movs	r0, #0
 108 0060 FFF7FEFF 		bl	smtc_modem_set_certification_mode
 109              	.L12:
 110 0064 04AB     		add	r3, sp, #16
 111 0066 187C     		ldrb	r0, [r3, #16]
 112 0068 0028     		cmp	r0, #0
 113 006a D4D1     		bne	.L24
 114 006c 012C     		cmp	r4, #1
 115 006e 00D0     		beq	.LCB52
 116 0070 EBE0     		b	.L25	@long jump
 117              	.LCB52:
 118 0072 0100     		movs	r1, r0
 119 0074 FFF7FEFF 		bl	smtc_modem_dm_set_info_interval
 120 0078 AB4B     		ldr	r3, .L78+12
 121 007a AC4E     		ldr	r6, .L78+16
 122 007c AC4D     		ldr	r5, .L78+20
 123 007e 0693     		str	r3, [sp, #24]
 124 0080 069A     		ldr	r2, [sp, #24]
 125 0082 3300     		movs	r3, r6
 126 0084 0599     		ldr	r1, [sp, #20]
 127 0086 0095     		str	r5, [sp]
 128 0088 0AA8     		add	r0, sp, #40
 129 008a FFF7FEFF 		bl	lorawan_api_certification
 130 008e 0790     		str	r0, [sp, #28]
ARM GAS  /tmp/ccI8rJG2.s 			page 4


 131 0090 0799     		ldr	r1, [sp, #28]
 132 0092 A848     		ldr	r0, .L78+24
 133 0094 FFF7FEFF 		bl	smtc_modem_hal_print_trace
 134 0098 0798     		ldr	r0, [sp, #28]
 135 009a 0238     		subs	r0, r0, #2
 136 009c 0528     		cmp	r0, #5
 137 009e 00D9     		bls	.LCB72
 138 00a0 68E1     		b	.L26	@long jump
 139              	.LCB72:
 140 00a2 FFF7FEFF 		bl	__gnu_thumb1_case_uhi
 141              	.L28:
 142 00a6 C800     		.2byte	(.L30-.L28)/2
 143 00a8 6F01     		.2byte	(.L49-.L28)/2
 144 00aa 6F01     		.2byte	(.L49-.L28)/2
 145 00ac 6F01     		.2byte	(.L49-.L28)/2
 146 00ae B100     		.2byte	(.L29-.L28)/2
 147 00b0 1501     		.2byte	(.L27-.L28)/2
 148              		.p2align 1
 149              	.L10:
 150 00b2 FFF7FEFF 		bl	lorawan_api_certification_is_cw_running
 151 00b6 0028     		cmp	r0, #0
 152 00b8 04D0     		beq	.L14
 153 00ba FFF7FEFF 		bl	lorawan_api_certification_cw_set_as_stopped
 154 00be FFF7FEFF 		bl	smtc_modem_test_stop
 155 00c2 CFE7     		b	.L12
 156              	.L14:
 157 00c4 FFF7FEFF 		bl	lorawan_api_state_get
 158 00c8 0028     		cmp	r0, #0
 159 00ca 03D0     		beq	.L15
 160 00cc 0120     		movs	r0, #1
 161 00ce FFF7FEFF 		bl	smtc_modem_alarm_start_timer
 162 00d2 C7E7     		b	.L12
 163              	.L15:
 164 00d4 FFF7FEFF 		bl	lorawan_api_certification_get_ul_periodicity
 165 00d8 FFF7FEFF 		bl	smtc_modem_alarm_start_timer
 166 00dc 0127     		movs	r7, #1
 167 00de C1E7     		b	.L12
 168              	.L9:
 169 00e0 9548     		ldr	r0, .L78+28
 170 00e2 FFF7FEFF 		bl	smtc_modem_hal_print_trace
 171 00e6 3000     		movs	r0, r6
 172 00e8 FFF7FEFF 		bl	smtc_modem_hal_print_trace
 173 00ec 0521     		movs	r1, #5
 174 00ee 0320     		movs	r0, #3
 175 00f0 FFF7FEFF 		bl	smtc_modem_hal_get_random_nb_in_range
 176 00f4 FFF7FEFF 		bl	smtc_modem_alarm_start_timer
 177 00f8 0020     		movs	r0, #0
 178 00fa FFF7FEFF 		bl	smtc_modem_test_duty_cycle_app_activate
 179 00fe 0120     		movs	r0, #1
 180 0100 FFF7FEFF 		bl	lorawan_api_set_status_push_network_downlink_to_user
 181 0104 AEE7     		b	.L12
 182              	.L8:
 183 0106 2B79     		ldrb	r3, [r5, #4]
 184 0108 012B     		cmp	r3, #1
 185 010a 06D0     		beq	.L16
 186 010c 022B     		cmp	r3, #2
 187 010e 2CD0     		beq	.L77
ARM GAS  /tmp/ccI8rJG2.s 			page 5


 188 0110 002B     		cmp	r3, #0
 189 0112 A7D1     		bne	.L12
 190 0114 854A     		ldr	r2, .L78+16
 191 0116 1370     		strb	r3, [r2]
 192 0118 A4E7     		b	.L12
 193              	.L16:
 194 011a FFF7FEFF 		bl	lorawan_api_certification_is_enabled
 195 011e 0028     		cmp	r0, #0
 196 0120 A0D0     		beq	.L12
 197 0122 002C     		cmp	r4, #0
 198 0124 9ED1     		bne	.L12
 199 0126 0224     		movs	r4, #2
 200 0128 9CE7     		b	.L12
 201              	.L7:
 202 012a 844B     		ldr	r3, .L78+32
 203 012c 04AA     		add	r2, sp, #16
 204 012e 9B18     		adds	r3, r3, r2
 205 0130 1B78     		ldrb	r3, [r3]
 206 0132 4CA9     		add	r1, sp, #304
 207 0134 1A00     		movs	r2, r3
 208 0136 0AA8     		add	r0, sp, #40
 209 0138 0593     		str	r3, [sp, #20]
 210 013a FFF7FEFF 		bl	memcpy
 211 013e 8049     		ldr	r1, .L78+36
 212 0140 8048     		ldr	r0, .L78+40
 213 0142 059A     		ldr	r2, [sp, #20]
 214 0144 FFF7FEFF 		bl	smtc_modem_hal_print_trace
 215 0148 0026     		movs	r6, #0
 216              	.L19:
 217 014a 059B     		ldr	r3, [sp, #20]
 218 014c B342     		cmp	r3, r6
 219 014e 13D8     		bhi	.L21
 220 0150 7D48     		ldr	r0, .L78+44
 221 0152 FFF7FEFF 		bl	smtc_modem_hal_print_trace
 222 0156 AB79     		ldrb	r3, [r5, #6]
 223 0158 0D2B     		cmp	r3, #13
 224 015a 83D0     		beq	.L12
 225 015c ED79     		ldrb	r5, [r5, #7]
 226 015e 7B48     		ldr	r0, .L78+48
 227 0160 2900     		movs	r1, r5
 228 0162 FFF7FEFF 		bl	smtc_modem_hal_print_trace
 229 0166 E02D     		cmp	r5, #224
 230 0168 04D0     		beq	.L48
 231              	.L77:
 232 016a FFF7FEFF 		bl	lorawan_api_certification_is_enabled
 233 016e 0028     		cmp	r0, #0
 234 0170 00D1     		bne	.LCB181
 235 0172 77E7     		b	.L12	@long jump
 236              	.LCB181:
 237              	.L48:
 238 0174 0124     		movs	r4, #1
 239 0176 75E7     		b	.L12
 240              	.L21:
 241 0178 0F23     		movs	r3, #15
 242 017a 1E42     		tst	r6, r3
 243 017c 04D1     		bne	.L20
 244 017e 002E     		cmp	r6, #0
ARM GAS  /tmp/ccI8rJG2.s 			page 6


 245 0180 02D0     		beq	.L20
 246 0182 7148     		ldr	r0, .L78+44
 247 0184 FFF7FEFF 		bl	smtc_modem_hal_print_trace
 248              	.L20:
 249 0188 1822     		movs	r2, #24
 250 018a 04AB     		add	r3, sp, #16
 251 018c 9B18     		adds	r3, r3, r2
 252 018e 995D     		ldrb	r1, [r3, r6]
 253 0190 6F48     		ldr	r0, .L78+52
 254 0192 FFF7FEFF 		bl	smtc_modem_hal_print_trace
 255 0196 0136     		adds	r6, r6, #1
 256 0198 D7E7     		b	.L19
 257              	.L6:
 258 019a 6E48     		ldr	r0, .L78+56
 259 019c FFF7FEFF 		bl	smtc_modem_hal_print_trace
 260              	.L75:
 261 01a0 3000     		movs	r0, r6
 262 01a2 FFF7FEFF 		bl	smtc_modem_hal_print_trace
 263 01a6 5DE7     		b	.L12
 264              	.L3:
 265 01a8 FFF7FEFF 		bl	lorawan_api_certification_get_requested_class
 266 01ac 0500     		movs	r5, r0
 267 01ae 0128     		cmp	r0, #1
 268 01b0 00D0     		beq	.LCB222
 269 01b2 57E7     		b	.L12	@long jump
 270              	.LCB222:
 271 01b4 FFF7FEFF 		bl	lorawan_api_get_ping_slot_info_req_status
 272 01b8 674E     		ldr	r6, .L78+60
 273 01ba 0028     		cmp	r0, #0
 274 01bc 0BD1     		bne	.L22
 275 01be 3068     		ldr	r0, [r6]
 276 01c0 FFF7FEFF 		bl	clock_sync_is_time_valid
 277 01c4 0028     		cmp	r0, #0
 278 01c6 06D0     		beq	.L22
 279 01c8 6448     		ldr	r0, .L78+64
 280 01ca FFF7FEFF 		bl	smtc_modem_hal_print_trace
 281 01ce 2800     		movs	r0, r5
 282 01d0 FFF7FEFF 		bl	lorawan_api_class_b_enabled
 283 01d4 46E7     		b	.L12
 284              	.L22:
 285 01d6 6248     		ldr	r0, .L78+68
 286 01d8 FFF7FEFF 		bl	smtc_modem_hal_print_trace
 287 01dc 3068     		ldr	r0, [r6]
 288 01de FFF7FEFF 		bl	clock_sync_is_time_valid
 289 01e2 0028     		cmp	r0, #0
 290 01e4 02D1     		bne	.L23
 291 01e6 0130     		adds	r0, r0, #1
 292 01e8 FFF7FEFF 		bl	modem_supervisor_add_task_device_time_req
 293              	.L23:
 294 01ec FFF7FEFF 		bl	lorawan_api_get_ping_slot_info_req_status
 295 01f0 0028     		cmp	r0, #0
 296 01f2 00D1     		bne	.LCB255
 297 01f4 36E7     		b	.L12	@long jump
 298              	.LCB255:
 299 01f6 0220     		movs	r0, #2
 300 01f8 FFF7FEFF 		bl	modem_supervisor_add_task_ping_slot_info_req
 301 01fc 32E7     		b	.L12
ARM GAS  /tmp/ccI8rJG2.s 			page 7


 302              	.L2:
 303 01fe 594B     		ldr	r3, .L78+72
 304 0200 1800     		movs	r0, r3
 305 0202 FFF7FEFF 		bl	smtc_modem_hal_print_trace
 306 0206 CBE7     		b	.L75
 307              	.L29:
 308 0208 1124     		movs	r4, #17
 309 020a 1225     		movs	r5, #18
 310 020c 0020     		movs	r0, #0
 311 020e FFF7FEFF 		bl	smtc_modem_leave_network
 312 0212 04AB     		add	r3, sp, #16
 313 0214 E418     		adds	r4, r4, r3
 314 0216 ED18     		adds	r5, r5, r3
 315 0218 09A9     		add	r1, sp, #36
 316 021a 2200     		movs	r2, r4
 317 021c 2800     		movs	r0, r5
 318 021e FFF7FEFF 		bl	lorawan_api_certification_get_cw_config
 319 0222 2888     		ldrh	r0, [r5]
 320 0224 FFF7FEFF 		bl	smtc_modem_alarm_start_timer
 321 0228 FFF7FEFF 		bl	smtc_modem_test_start
 322 022c 0021     		movs	r1, #0
 323 022e 0998     		ldr	r0, [sp, #36]
 324 0230 6156     		ldrsb	r1, [r4, r1]
 325 0232 FFF7FEFF 		bl	smtc_modem_test_tx_cw
 326              	.L30:
 327 0236 FFF7FEFF 		bl	lorawan_api_certification_is_enabled
 328 023a 0028     		cmp	r0, #0
 329 023c 02D1     		bne	.L35
 330 023e 3C21     		movs	r1, #60
 331 0240 FFF7FEFF 		bl	smtc_modem_dm_set_info_interval
 332              	.L35:
 333 0244 0122     		movs	r2, #1
 334 0246 484B     		ldr	r3, .L78+76
 335 0248 1A70     		strb	r2, [r3]
 336              	.L25:
 337 024a 4AAE     		add	r6, sp, #296
 338 024c B379     		ldrb	r3, [r6, #6]
 339 024e 0D2B     		cmp	r3, #13
 340 0250 00D0     		beq	.LCB304
 341 0252 A6E0     		b	.L36	@long jump
 342              	.LCB304:
 343 0254 FFF7FEFF 		bl	lorawan_api_certification_get_beacon_rx_status_ind_ctrl
 344 0258 0028     		cmp	r0, #0
 345 025a 00D1     		bne	.LCB308
 346 025c AEE0     		b	.L38	@long jump
 347              	.LCB308:
 348 025e 0024     		movs	r4, #0
 349 0260 324D     		ldr	r5, .L78+16
 350 0262 8A9B     		ldr	r3, [sp, #552]
 351 0264 2C70     		strb	r4, [r5]
 352 0266 0393     		str	r3, [sp, #12]
 353 0268 404B     		ldr	r3, .L78+80
 354 026a 04AA     		add	r2, sp, #16
 355 026c 9B18     		adds	r3, r3, r2
 356 026e 5B79     		ldrb	r3, [r3, #5]
 357 0270 2D4F     		ldr	r7, .L78+12
 358 0272 0293     		str	r3, [sp, #8]
ARM GAS  /tmp/ccI8rJG2.s 			page 8


 359 0274 0523     		movs	r3, #5
 360 0276 F356     		ldrsb	r3, [r6, r3]
 361 0278 3A00     		movs	r2, r7
 362 027a 9B10     		asrs	r3, r3, #2
 363 027c 0193     		str	r3, [sp, #4]
 364 027e 3379     		ldrb	r3, [r6, #4]
 365 0280 0599     		ldr	r1, [sp, #20]
 366 0282 403B     		subs	r3, r3, #64
 367 0284 5BB2     		sxtb	r3, r3
 368 0286 0093     		str	r3, [sp]
 369 0288 0AA8     		add	r0, sp, #40
 370 028a 2B00     		movs	r3, r5
 371 028c FFF7FEFF 		bl	lorawan_api_certification_build_beacon_rx_status_ind
 372 0290 2A78     		ldrb	r2, [r5]
 373 0292 3749     		ldr	r1, .L78+84
 374 0294 2B48     		ldr	r0, .L78+40
 375 0296 FFF7FEFF 		bl	smtc_modem_hal_print_trace
 376 029a 0F26     		movs	r6, #15
 377              	.L39:
 378 029c 2B78     		ldrb	r3, [r5]
 379 029e A342     		cmp	r3, r4
 380 02a0 72D8     		bhi	.L41
 381 02a2 2948     		ldr	r0, .L78+44
 382 02a4 FFF7FEFF 		bl	smtc_modem_hal_print_trace
 383 02a8 E022     		movs	r2, #224
 384 02aa 214B     		ldr	r3, .L78+20
 385 02ac 1A70     		strb	r2, [r3]
 386              	.L42:
 387 02ae 0024     		movs	r4, #0
 388 02b0 2D4B     		ldr	r3, .L78+76
 389 02b2 1C70     		strb	r4, [r3]
 390 02b4 1E4B     		ldr	r3, .L78+20
 391 02b6 1D78     		ldrb	r5, [r3]
 392 02b8 FFF7FEFF 		bl	lorawan_api_certification_get_frame_type
 393 02bc 1B49     		ldr	r1, .L78+16
 394 02be 0200     		movs	r2, r0
 395 02c0 0978     		ldrb	r1, [r1]
 396 02c2 2000     		movs	r0, r4
 397 02c4 0091     		str	r1, [sp]
 398 02c6 184B     		ldr	r3, .L78+12
 399 02c8 2900     		movs	r1, r5
 400 02ca FFF7FEFF 		bl	smtc_modem_request_uplink
 401 02ce 78E0     		b	.L1
 402              	.L27:
 403 02d0 FFF7FEFF 		bl	lorawan_api_certification_get_requested_class
 404 02d4 041E     		subs	r4, r0, #0
 405 02d6 05D1     		bne	.L32
 406 02d8 FFF7FEFF 		bl	lorawan_api_class_b_enabled
 407 02dc 2000     		movs	r0, r4
 408              	.L76:
 409 02de FFF7FEFF 		bl	lorawan_api_class_c_enabled
 410 02e2 A8E7     		b	.L30
 411              	.L32:
 412 02e4 0128     		cmp	r0, #1
 413 02e6 12D1     		bne	.L33
 414 02e8 0020     		movs	r0, #0
 415 02ea FFF7FEFF 		bl	lorawan_api_class_c_enabled
ARM GAS  /tmp/ccI8rJG2.s 			page 9


 416 02ee 1A4B     		ldr	r3, .L78+60
 417 02f0 1868     		ldr	r0, [r3]
 418 02f2 FFF7FEFF 		bl	clock_sync_is_time_valid
 419 02f6 0028     		cmp	r0, #0
 420 02f8 01D1     		bne	.L34
 421 02fa FFF7FEFF 		bl	modem_supervisor_add_task_device_time_req
 422              	.L34:
 423 02fe FFF7FEFF 		bl	lorawan_api_get_ping_slot_info_req_status
 424 0302 0028     		cmp	r0, #0
 425 0304 97D0     		beq	.L30
 426 0306 0020     		movs	r0, #0
 427 0308 FFF7FEFF 		bl	modem_supervisor_add_task_ping_slot_info_req
 428 030c 93E7     		b	.L30
 429              	.L33:
 430 030e 0228     		cmp	r0, #2
 431 0310 91D1     		bne	.L30
 432 0312 0020     		movs	r0, #0
 433 0314 FFF7FEFF 		bl	lorawan_api_class_b_enabled
 434 0318 0120     		movs	r0, #1
 435 031a E0E7     		b	.L76
 436              	.L79:
 437              		.align	2
 438              	.L78:
 439 031c CCFDFFFF 		.word	-564
 440 0320 00000000 		.word	.LC0
 441 0324 19000000 		.word	.LC2
 442 0328 00000000 		.word	user_payload
 443 032c 00000000 		.word	user_payload_length
 444 0330 00000000 		.word	user_port
 445 0334 F3000000 		.word	.LC28
 446 0338 1E000000 		.word	.LC4
 447 033c 12020000 		.word	530
 448 0340 4E000000 		.word	.LC7
 449 0344 57000000 		.word	.LC9
 450 0348 6A000000 		.word	.LC11
 451 034c 72000000 		.word	.LC15
 452 0350 6C000000 		.word	.LC13
 453 0354 7E000000 		.word	.LC17
 454 0358 00000000 		.word	clock_sync_context
 455 035c 99000000 		.word	.LC20
 456 0360 AF000000 		.word	.LC22
 457 0364 D3000000 		.word	.LC24
 458 0368 00000000 		.word	certification_data_is_pending
 459 036c 17020000 		.word	535
 460 0370 07010000 		.word	.LC31
 461              	.L26:
 462 0374 2200     		movs	r2, r4
 463 0376 2100     		movs	r1, r4
 464 0378 0698     		ldr	r0, [sp, #24]
 465 037a 2C70     		strb	r4, [r5]
 466 037c 3470     		strb	r4, [r6]
 467 037e FFF7FEFF 		bl	memset
 468 0382 58E7     		b	.L30
 469              	.L49:
 470 0384 0027     		movs	r7, #0
 471 0386 56E7     		b	.L30
 472              	.L41:
ARM GAS  /tmp/ccI8rJG2.s 			page 10


 473 0388 3442     		tst	r4, r6
 474 038a 04D1     		bne	.L40
 475 038c 002C     		cmp	r4, #0
 476 038e 02D0     		beq	.L40
 477 0390 0E48     		ldr	r0, .L80
 478 0392 FFF7FEFF 		bl	smtc_modem_hal_print_trace
 479              	.L40:
 480 0396 395D     		ldrb	r1, [r7, r4]
 481 0398 0D48     		ldr	r0, .L80+4
 482 039a FFF7FEFF 		bl	smtc_modem_hal_print_trace
 483 039e 0134     		adds	r4, r4, #1
 484 03a0 7CE7     		b	.L39
 485              	.L36:
 486 03a2 0C4B     		ldr	r3, .L80+8
 487 03a4 1B78     		ldrb	r3, [r3]
 488 03a6 002B     		cmp	r3, #0
 489 03a8 08D1     		bne	.L38
 490 03aa 0221     		movs	r1, #2
 491 03ac 0122     		movs	r2, #1
 492 03ae 0A4B     		ldr	r3, .L80+12
 493 03b0 0A48     		ldr	r0, .L80+16
 494 03b2 1970     		strb	r1, [r3]
 495 03b4 0A4B     		ldr	r3, .L80+20
 496 03b6 1A70     		strb	r2, [r3]
 497 03b8 FFF7FEFF 		bl	memset
 498              	.L38:
 499 03bc 002F     		cmp	r7, #0
 500 03be 00D0     		beq	.LCB489
 501 03c0 75E7     		b	.L42	@long jump
 502              	.LCB489:
 503              	.L1:
 504 03c2 8D23     		movs	r3, #141
 505 03c4 9B00     		lsls	r3, r3, #2
 506 03c6 9D44     		add	sp, sp, r3
 507              		@ sp needed
 508 03c8 F0BD     		pop	{r4, r5, r6, r7, pc}
 509              	.L81:
 510 03ca C046     		.align	2
 511              	.L80:
 512 03cc 6A000000 		.word	.LC11
 513 03d0 6C000000 		.word	.LC13
 514 03d4 00000000 		.word	certification_data_is_pending
 515 03d8 00000000 		.word	user_port
 516 03dc 00000000 		.word	user_payload
 517 03e0 00000000 		.word	user_payload_length
 519              		.section	.text.modem_supervisor_init_task,"ax",%progbits
 520              		.align	1
 521              		.global	modem_supervisor_init_task
 522              		.syntax unified
 523              		.code	16
 524              		.thumb_func
 526              	modem_supervisor_init_task:
 527              		@ args = 0, pretend = 0, frame = 0
 528              		@ frame_needed = 0, uses_anonymous_args = 0
 529              		@ link register save eliminated.
 530 0000 074B     		ldr	r3, .L85
 531 0002 0022     		movs	r2, #0
ARM GAS  /tmp/ccI8rJG2.s 			page 11


 532 0004 1900     		movs	r1, r3
 533 0006 0420     		movs	r0, #4
 534              	.L83:
 535 0008 1A70     		strb	r2, [r3]
 536 000a 0132     		adds	r2, r2, #1
 537 000c 1872     		strb	r0, [r3, #8]
 538 000e 1433     		adds	r3, r3, #20
 539 0010 142A     		cmp	r2, #20
 540 0012 F9D1     		bne	.L83
 541 0014 9223     		movs	r3, #146
 542              		@ sp needed
 543 0016 FF33     		adds	r3, r3, #255
 544 0018 0F3A     		subs	r2, r2, #15
 545 001a CA54     		strb	r2, [r1, r3]
 546 001c 7047     		bx	lr
 547              	.L86:
 548 001e C046     		.align	2
 549              	.L85:
 550 0020 00000000 		.word	task_manager
 552              		.section	.text.modem_supervisor_init,"ax",%progbits
 553              		.align	1
 554              		.global	modem_supervisor_init
 555              		.syntax unified
 556              		.code	16
 557              		.thumb_func
 559              	modem_supervisor_init:
 560              		@ args = 0, pretend = 0, frame = 8
 561              		@ frame_needed = 0, uses_anonymous_args = 0
 562 0000 F7B5     		push	{r0, r1, r2, r4, r5, r6, r7, lr}
 563 0002 0125     		movs	r5, #1
 564 0004 0024     		movs	r4, #0
 565 0006 294B     		ldr	r3, .L90
 566 0008 0191     		str	r1, [sp, #4]
 567 000a 1D70     		strb	r5, [r3]
 568 000c 284B     		ldr	r3, .L90+4
 569 000e 1100     		movs	r1, r2
 570 0010 1C70     		strb	r4, [r3]
 571 0012 284B     		ldr	r3, .L90+8
 572 0014 284F     		ldr	r7, .L90+12
 573 0016 1D70     		strb	r5, [r3]
 574 0018 284B     		ldr	r3, .L90+16
 575 001a 5431     		adds	r1, r1, #84
 576 001c 1C70     		strb	r4, [r3]
 577 001e 284B     		ldr	r3, .L90+20
 578 0020 284E     		ldr	r6, .L90+24
 579 0022 1860     		str	r0, [r3]
 580 0024 1300     		movs	r3, r2
 581 0026 2C33     		adds	r3, r3, #44
 582 0028 3B60     		str	r3, [r7]
 583 002a 274B     		ldr	r3, .L90+28
 584 002c 3260     		str	r2, [r6]
 585 002e 1960     		str	r1, [r3]
 586 0030 9521     		movs	r1, #149
 587 0032 264B     		ldr	r3, .L90+32
 588 0034 C900     		lsls	r1, r1, #3
 589 0036 5218     		adds	r2, r2, r1
 590 0038 1A60     		str	r2, [r3]
ARM GAS  /tmp/ccI8rJG2.s 			page 12


 591 003a 0A22     		movs	r2, #10
 592 003c 244B     		ldr	r3, .L90+36
 593 003e 2100     		movs	r1, r4
 594 0040 1A70     		strb	r2, [r3]
 595 0042 2448     		ldr	r0, .L90+40
 596 0044 E832     		adds	r2, r2, #232
 597 0046 FFF7FEFF 		bl	memset
 598 004a 234B     		ldr	r3, .L90+44
 599 004c 0198     		ldr	r0, [sp, #4]
 600 004e 1D70     		strb	r5, [r3]
 601 0050 224B     		ldr	r3, .L90+48
 602 0052 1C70     		strb	r4, [r3]
 603 0054 224B     		ldr	r3, .L90+52
 604 0056 1C70     		strb	r4, [r3]
 605 0058 FFF7FEFF 		bl	lorawan_api_init
 606 005c 2000     		movs	r0, r4
 607 005e FFF7FEFF 		bl	lorawan_api_dr_strategy_set
 608 0062 FFF7FEFF 		bl	lorawan_api_join_status_clear
 609 0066 FFF7FEFF 		bl	modem_context_init
 610 006a FFF7FEFF 		bl	modem_event_init
 611 006e FFF7FEFF 		bl	modem_supervisor_init_task
 612 0072 FFF7FEFF 		bl	modem_load_context
 613 0076 3068     		ldr	r0, [r6]
 614 0078 FFF7FEFF 		bl	alc_sync_init
 615 007c 3168     		ldr	r1, [r6]
 616 007e 3868     		ldr	r0, [r7]
 617 0080 FFF7FEFF 		bl	clock_sync_init
 618 0084 FFF7FEFF 		bl	smtc_modem_hal_get_time_in_s
 619 0088 FFF7FEFF 		bl	set_modem_start_time_s
 620 008c 0198     		ldr	r0, [sp, #4]
 621 008e FFF7FEFF 		bl	modem_context_set_modem_rp
 622 0092 FFF7FEFF 		bl	smtc_modem_hal_get_crashlog_status
 623 0096 A042     		cmp	r0, r4
 624 0098 00D0     		beq	.L88
 625 009a 2800     		movs	r0, r5
 626              	.L88:
 627              		@ sp needed
 628 009c FFF7FEFF 		bl	set_modem_status_reset_after_crash
 629 00a0 0021     		movs	r1, #0
 630 00a2 0800     		movs	r0, r1
 631 00a4 FFF7FEFF 		bl	increment_asynchronous_msgnumber
 632 00a8 F7BD     		pop	{r0, r1, r2, r4, r5, r6, r7, pc}
 633              	.L91:
 634 00aa C046     		.align	2
 635              	.L90:
 636 00ac 00000000 		.word	is_pending_dm_status_payload_periodic
 637 00b0 00000000 		.word	is_pending_dm_status_payload_now
 638 00b4 00000000 		.word	is_first_dm_after_join
 639 00b8 00000000 		.word	clock_sync_context
 640 00bc 00000000 		.word	send_task_update_needed
 641 00c0 00000000 		.word	app_callback
 642 00c4 00000000 		.word	alc_sync_context
 643 00c8 00000000 		.word	ROSE
 644 00cc 00000000 		.word	file_upload_context
 645 00d0 00000000 		.word	user_payload_length
 646 00d4 00000000 		.word	user_payload
 647 00d8 00000000 		.word	user_port
ARM GAS  /tmp/ccI8rJG2.s 			page 13


 648 00dc 00000000 		.word	certification_data_is_pending
 649 00e0 00000000 		.word	class_b_bit
 651              		.section	.text.modem_supervisor_get_task_priority,"ax",%progbits
 652              		.align	1
 653              		.global	modem_supervisor_get_task_priority
 654              		.syntax unified
 655              		.code	16
 656              		.thumb_func
 658              	modem_supervisor_get_task_priority:
 659              		@ args = 0, pretend = 0, frame = 0
 660              		@ frame_needed = 0, uses_anonymous_args = 0
 661              		@ link register save eliminated.
 662 0000 0200     		movs	r2, r0
 663 0002 0420     		movs	r0, #4
 664 0004 132A     		cmp	r2, #19
 665 0006 04D8     		bhi	.L93
 666 0008 1421     		movs	r1, #20
 667 000a 4A43     		muls	r2, r1
 668 000c 014B     		ldr	r3, .L95
 669 000e 9B18     		adds	r3, r3, r2
 670 0010 187A     		ldrb	r0, [r3, #8]
 671              	.L93:
 672              		@ sp needed
 673 0012 7047     		bx	lr
 674              	.L96:
 675              		.align	2
 676              	.L95:
 677 0014 00000000 		.word	task_manager
 679              		.section	.rodata.modem_supervisor_remove_task.str1.1,"aMS",%progbits,1
 680              	.LC50:
 681 0000 1B5B303B 		.ascii	"\033[0;31mERROR: modem_supervisor_remove_task id = "
 681      33316D45 
 681      52524F52 
 681      3A206D6F 
 681      64656D5F 
 682 0030 25642075 		.ascii	"%d unknown\012\000"
 682      6E6B6E6F 
 682      776E0A00 
 683              		.section	.text.modem_supervisor_remove_task,"ax",%progbits
 684              		.align	1
 685              		.global	modem_supervisor_remove_task
 686              		.syntax unified
 687              		.code	16
 688              		.thumb_func
 690              	modem_supervisor_remove_task:
 691              		@ args = 0, pretend = 0, frame = 0
 692              		@ frame_needed = 0, uses_anonymous_args = 0
 693 0000 0100     		movs	r1, r0
 694 0002 10B5     		push	{r4, lr}
 695 0004 1328     		cmp	r0, #19
 696 0006 07D8     		bhi	.L98
 697 0008 1422     		movs	r2, #20
 698 000a 4243     		muls	r2, r0
 699 000c 064B     		ldr	r3, .L100
 700 000e 0020     		movs	r0, #0
 701 0010 9B18     		adds	r3, r3, r2
 702 0012 0422     		movs	r2, #4
ARM GAS  /tmp/ccI8rJG2.s 			page 14


 703 0014 1A72     		strb	r2, [r3, #8]
 704              	.L99:
 705              		@ sp needed
 706 0016 10BD     		pop	{r4, pc}
 707              	.L98:
 708 0018 0448     		ldr	r0, .L100+4
 709 001a FFF7FEFF 		bl	smtc_modem_hal_print_trace
 710 001e 0448     		ldr	r0, .L100+8
 711 0020 FFF7FEFF 		bl	smtc_modem_hal_print_trace
 712 0024 0120     		movs	r0, #1
 713 0026 F6E7     		b	.L99
 714              	.L101:
 715              		.align	2
 716              	.L100:
 717 0028 00000000 		.word	task_manager
 718 002c 00000000 		.word	.LC50
 719 0030 19000000 		.word	.LC2
 721              		.section	.rodata.modem_supervisor_add_task.str1.1,"aMS",%progbits,1
 722              	.LC54:
 723 0000 1B5B303B 		.ascii	"\033[0;31mERROR: modem_supervisor_add_task id = %d "
 723      33316D45 
 723      52524F52 
 723      3A206D6F 
 723      64656D5F 
 724 0030 756E6B6E 		.ascii	"unknown\012\000"
 724      6F776E0A 
 724      00
 725              		.section	.text.modem_supervisor_add_task,"ax",%progbits
 726              		.align	1
 727              		.global	modem_supervisor_add_task
 728              		.syntax unified
 729              		.code	16
 730              		.thumb_func
 732              	modem_supervisor_add_task:
 733              		@ args = 0, pretend = 0, frame = 0
 734              		@ frame_needed = 0, uses_anonymous_args = 0
 735 0000 0178     		ldrb	r1, [r0]
 736 0002 70B5     		push	{r4, r5, r6, lr}
 737 0004 1329     		cmp	r1, #19
 738 0006 12D8     		bhi	.L103
 739 0008 1422     		movs	r2, #20
 740 000a 5143     		muls	r1, r2
 741 000c 0C4B     		ldr	r3, .L105
 742 000e 4468     		ldr	r4, [r0, #4]
 743 0010 5A18     		adds	r2, r3, r1
 744 0012 5460     		str	r4, [r2, #4]
 745 0014 0C00     		movs	r4, r1
 746 0016 0589     		ldrh	r5, [r0, #8]
 747 0018 0834     		adds	r4, r4, #8
 748 001a 1D53     		strh	r5, [r3, r4]
 749 001c 847A     		ldrb	r4, [r0, #10]
 750 001e 1031     		adds	r1, r1, #16
 751 0020 9472     		strb	r4, [r2, #10]
 752 0022 C468     		ldr	r4, [r0, #12]
 753 0024 D460     		str	r4, [r2, #12]
 754 0026 028A     		ldrh	r2, [r0, #16]
 755 0028 0020     		movs	r0, #0
ARM GAS  /tmp/ccI8rJG2.s 			page 15


 756 002a 5A52     		strh	r2, [r3, r1]
 757              	.L104:
 758              		@ sp needed
 759 002c 70BD     		pop	{r4, r5, r6, pc}
 760              	.L103:
 761 002e 0548     		ldr	r0, .L105+4
 762 0030 FFF7FEFF 		bl	smtc_modem_hal_print_trace
 763 0034 0448     		ldr	r0, .L105+8
 764 0036 FFF7FEFF 		bl	smtc_modem_hal_print_trace
 765 003a 0120     		movs	r0, #1
 766 003c F6E7     		b	.L104
 767              	.L106:
 768 003e C046     		.align	2
 769              	.L105:
 770 0040 00000000 		.word	task_manager
 771 0044 00000000 		.word	.LC54
 772 0048 19000000 		.word	.LC2
 774              		.section	.rodata.modem_supervisor_launch_task.str1.1,"aMS",%progbits,1
 775              	.LC57:
 776 0000 6F6E2046 		.ascii	"on FPort\000"
 776      506F7274 
 776      00
 777              	.LC59:
 778 0009 4E6F2046 		.ascii	"No FPort\000"
 778      506F7274 
 778      00
 779              	.LC61:
 780 0012 1B5B303B 		.ascii	"\033[0;31mERROR: DEVICE ALREADY JOINED or TRY TO JO"
 780      33316D45 
 780      52524F52 
 780      3A204445 
 780      56494345 
 781 0042 494E200A 		.ascii	"IN \012\000"
 781      00
 782              	.LC66:
 783 0047 20557365 		.ascii	" User Tx LORa %s %d \012\000"
 783      72205478 
 783      204C4F52 
 783      61202573 
 783      20256420 
 784              	.LC68:
 785 005d 1B5B303B 		.ascii	"\033[0;33mWARN: The payload can't be send! internal"
 785      33336D57 
 785      41524E3A 
 785      20546865 
 785      20706179 
 786 008d 20636F64 		.ascii	" code: %x\012\000"
 786      653A2025 
 786      780A00
 787              	.LC72:
 788 0098 20696E66 		.ascii	" info bit field = %x\012\000"
 788      6F206269 
 788      74206669 
 788      656C6420 
 788      3D202578 
 789              	.LC74:
 790 00ae 7061796C 		.ascii	"payload DM \000"
ARM GAS  /tmp/ccI8rJG2.s 			page 16


 790      6F616420 
 790      444D2000 
 791              	.LC79:
 792 00ba 206F6E20 		.ascii	" on Port %d\012\000"
 792      506F7274 
 792      2025640A 
 792      00
 793              	.LC81:
 794 00c7 1B5B303B 		.ascii	"\033[0;33mWARN: Periodic DM can't be send! internal"
 794      33336D57 
 794      41524E3A 
 794      20506572 
 794      696F6469 
 795 00f7 20636F64 		.ascii	" code: %x\012\000"
 795      653A2025 
 795      780A00
 796              	.LC83:
 797 0102 444D2000 		.ascii	"DM \000"
 798              	.LC86:
 799 0106 444D2052 		.ascii	"DM Req \000"
 799      65712000 
 800              	.LC88:
 801 010e 1B5B303B 		.ascii	"\033[0;33mWARN: Requested DM can't be send! interna"
 801      33336D57 
 801      41524E3A 
 801      20526571 
 801      75657374 
 802 013e 6C20636F 		.ascii	"l code: %x\012\000"
 802      64653A20 
 802      25780A00 
 803              	.LC90:
 804 014a 444D2052 		.ascii	"DM Req CRASH LOG \000"
 804      65712043 
 804      52415348 
 804      204C4F47 
 804      2000
 805              	.LC92:
 806 015c 1B5B303B 		.ascii	"\033[0;31mERROR: DEVICE NOT JOIN \012\000"
 806      33316D45 
 806      52524F52 
 806      3A204445 
 806      56494345 
 807              	.LC94:
 808 017c 1B5B303B 		.ascii	"\033[0;31mERROR: FileUpload not init \012\000"
 808      33316D45 
 808      52524F52 
 808      3A204669 
 808      6C655570 
 809              	.LC97:
 810 01a0 1B5B303B 		.ascii	"\033[0;31mERROR: DEVICE NOT JOINED \012\000"
 810      33316D45 
 810      52524F52 
 810      3A204445 
 810      56494345 
 811              	.LC99:
 812 01c2 1B5B303B 		.ascii	"\033[0;31mERROR: Streaming not initialized \012\000"
 812      33316D45 
ARM GAS  /tmp/ccI8rJG2.s 			page 17


 812      52524F52 
 812      3A205374 
 812      7265616D 
 813              	.LC102:
 814 01ec 1B5B303B 		.ascii	"\033[0;33mWARN: Stream get fragment FAILED\012\000"
 814      33336D57 
 814      41524E3A 
 814      20537472 
 814      65616D20 
 815              	.LC106:
 816 0215 1B5B303B 		.ascii	"\033[0;33mWARN: DEVICE TIME REQUEST\012\000"
 816      33336D57 
 816      41524E3A 
 816      20444556 
 816      49434520 
 817              	.LC108:
 818 0237 1B5B303B 		.ascii	"\033[0;33mWARN: PING SLOT REQUEST\012\000"
 818      33336D57 
 818      41524E3A 
 818      2050494E 
 818      4720534C 
 819              		.section	.text.modem_supervisor_launch_task,"ax",%progbits
 820              		.align	1
 821              		.global	modem_supervisor_launch_task
 822              		.syntax unified
 823              		.code	16
 824              		.thumb_func
 826              	modem_supervisor_launch_task:
 827              		@ args = 0, pretend = 0, frame = 272
 828              		@ frame_needed = 0, uses_anonymous_args = 0
 829 0000 F0B5     		push	{r4, r5, r6, r7, lr}
 830 0002 C9B0     		sub	sp, sp, #292
 831 0004 0590     		str	r0, [sp, #20]
 832 0006 1328     		cmp	r0, #19
 833 0008 24D8     		bhi	.L108
 834 000a FFF7FEFF 		bl	__gnu_thumb1_case_uhi
 835              	.L110:
 836 000e 3200     		.2byte	(.L109-.L110)/2
 837 0010 1400     		.2byte	(.L124-.L110)/2
 838 0012 6E00     		.2byte	(.L123-.L110)/2
 839 0014 3701     		.2byte	(.L122-.L110)/2
 840 0016 E501     		.2byte	(.L121-.L110)/2
 841 0018 2300     		.2byte	(.L108-.L110)/2
 842 001a 6102     		.2byte	(.L120-.L110)/2
 843 001c 6D02     		.2byte	(.L119-.L110)/2
 844 001e 1A02     		.2byte	(.L118-.L110)/2
 845 0020 8002     		.2byte	(.L117-.L110)/2
 846 0022 8F02     		.2byte	(.L116-.L110)/2
 847 0024 2300     		.2byte	(.L108-.L110)/2
 848 0026 FA02     		.2byte	(.L115-.L110)/2
 849 0028 2300     		.2byte	(.L108-.L110)/2
 850 002a A101     		.2byte	(.L114-.L110)/2
 851 002c E602     		.2byte	(.L113-.L110)/2
 852 002e EA02     		.2byte	(.L112-.L110)/2
 853 0030 F202     		.2byte	(.L111-.L110)/2
 854 0032 3200     		.2byte	(.L109-.L110)/2
 855 0034 3200     		.2byte	(.L109-.L110)/2
ARM GAS  /tmp/ccI8rJG2.s 			page 18


 856              		.p2align 1
 857              	.L124:
 858 0036 FFF7FEFF 		bl	get_join_state
 859 003a 0228     		cmp	r0, #2
 860 003c 0FD1     		bne	.L125
 861 003e AF48     		ldr	r0, .L216
 862 0040 FFF7FEFF 		bl	smtc_modem_hal_print_trace
 863 0044 AE48     		ldr	r0, .L216+4
 864 0046 FFF7FEFF 		bl	smtc_modem_hal_print_trace
 865 004a 9222     		movs	r2, #146
 866 004c 0521     		movs	r1, #5
 867 004e AD4B     		ldr	r3, .L216+8
 868 0050 FF32     		adds	r2, r2, #255
 869 0052 9954     		strb	r1, [r3, r2]
 870              	.L108:
 871 0054 0598     		ldr	r0, [sp, #20]
 872 0056 FFF7FEFF 		bl	modem_supervisor_remove_task
 873 005a 49B0     		add	sp, sp, #292
 874              		@ sp needed
 875 005c F0BD     		pop	{r4, r5, r6, r7, pc}
 876              	.L125:
 877 005e FFF7FEFF 		bl	get_join_state
 878 0062 0128     		cmp	r0, #1
 879 0064 F6D1     		bne	.L108
 880 0066 FFF7FEFF 		bl	smtc_modem_hal_get_time_in_ms
 881 006a C830     		adds	r0, r0, #200
 882 006c FFF7FEFF 		bl	lorawan_api_join
 883 0070 F0E7     		b	.L108
 884              	.L109:
 885 0072 1423     		movs	r3, #20
 886 0074 059A     		ldr	r2, [sp, #20]
 887 0076 A34C     		ldr	r4, .L216+8
 888 0078 5343     		muls	r3, r2
 889 007a E318     		adds	r3, r4, r3
 890 007c 9A7A     		ldrb	r2, [r3, #10]
 891 007e 5E7A     		ldrb	r6, [r3, #9]
 892 0080 1F7C     		ldrb	r7, [r3, #16]
 893 0082 0692     		str	r2, [sp, #24]
 894 0084 DA68     		ldr	r2, [r3, #12]
 895 0086 5B7C     		ldrb	r3, [r3, #17]
 896 0088 0225     		movs	r5, #2
 897 008a 0792     		str	r2, [sp, #28]
 898 008c 012B     		cmp	r3, #1
 899 008e 00D1     		bne	.L127
 900 0090 6D19     		adds	r5, r5, r5
 901              	.L127:
 902 0092 FFF7FEFF 		bl	smtc_modem_hal_get_time_in_ms
 903 0096 C830     		adds	r0, r0, #200
 904 0098 3B00     		movs	r3, r7
 905 009a 0699     		ldr	r1, [sp, #24]
 906 009c 0190     		str	r0, [sp, #4]
 907 009e 079A     		ldr	r2, [sp, #28]
 908 00a0 3000     		movs	r0, r6
 909 00a2 0095     		str	r5, [sp]
 910 00a4 FFF7FEFF 		bl	lorawan_api_payload_send
 911 00a8 974B     		ldr	r3, .L216+12
 912 00aa 011E     		subs	r1, r0, #0
ARM GAS  /tmp/ccI8rJG2.s 			page 19


 913 00ac 14D1     		bne	.L128
 914 00ae 0122     		movs	r2, #1
 915 00b0 1A70     		strb	r2, [r3]
 916 00b2 1423     		movs	r3, #20
 917 00b4 059A     		ldr	r2, [sp, #20]
 918 00b6 9549     		ldr	r1, .L216+16
 919 00b8 5A43     		muls	r2, r3
 920 00ba A218     		adds	r2, r4, r2
 921 00bc 927A     		ldrb	r2, [r2, #10]
 922 00be 002A     		cmp	r2, #0
 923 00c0 00D0     		beq	.L129
 924 00c2 9349     		ldr	r1, .L216+20
 925              	.L129:
 926 00c4 059A     		ldr	r2, [sp, #20]
 927 00c6 9348     		ldr	r0, .L216+24
 928 00c8 5343     		muls	r3, r2
 929 00ca E418     		adds	r4, r4, r3
 930 00cc 627A     		ldrb	r2, [r4, #9]
 931 00ce FFF7FEFF 		bl	smtc_modem_hal_print_trace
 932              	.L130:
 933 00d2 FFF7FEFF 		bl	decrement_dm_retrieve_pending_dl
 934 00d6 BDE7     		b	.L108
 935              	.L128:
 936 00d8 0022     		movs	r2, #0
 937 00da 8F48     		ldr	r0, .L216+28
 938 00dc 1A70     		strb	r2, [r3]
 939              	.L214:
 940 00de FFF7FEFF 		bl	smtc_modem_hal_print_trace
 941              	.L211:
 942 00e2 8748     		ldr	r0, .L216+4
 943 00e4 FFF7FEFF 		bl	smtc_modem_hal_print_trace
 944 00e8 B4E7     		b	.L108
 945              	.L123:
 946 00ea FFF7FEFF 		bl	get_join_state
 947 00ee 0890     		str	r0, [sp, #32]
 948 00f0 0228     		cmp	r0, #2
 949 00f2 AFD1     		bne	.L108
 950 00f4 FFF7FEFF 		bl	lorawan_api_modem_certification_is_enabled
 951 00f8 0128     		cmp	r0, #1
 952 00fa ABD0     		beq	.L108
 953 00fc FFF7FEFF 		bl	get_modem_dm_interval_second
 954 0100 0028     		cmp	r0, #0
 955 0102 A7D0     		beq	.L108
 956 0104 FFF7FEFF 		bl	lorawan_api_next_max_payload_length_get
 957 0108 C3B2     		uxtb	r3, r0
 958 010a 0793     		str	r3, [sp, #28]
 959 010c 834B     		ldr	r3, .L216+32
 960 010e 0993     		str	r3, [sp, #36]
 961 0110 1B78     		ldrb	r3, [r3]
 962 0112 002B     		cmp	r3, #0
 963 0114 71D0     		beq	.L133
 964 0116 824B     		ldr	r3, .L216+36
 965 0118 0693     		str	r3, [sp, #24]
 966 011a 1B78     		ldrb	r3, [r3]
 967 011c 002B     		cmp	r3, #0
 968 011e 6CD0     		beq	.L133
 969 0120 FFF7FEFF 		bl	modem_get_dm_info_bitfield_periodic
ARM GAS  /tmp/ccI8rJG2.s 			page 20


 970 0124 0127     		movs	r7, #1
 971 0126 7F4E     		ldr	r6, .L216+40
 972 0128 0400     		movs	r4, r0
 973 012a 0100     		movs	r1, r0
 974 012c 3D00     		movs	r5, r7
 975 012e 3000     		movs	r0, r6
 976 0130 FFF7FEFF 		bl	smtc_modem_hal_print_trace
 977 0134 3A00     		movs	r2, r7
 978 0136 A30C     		lsrs	r3, r4, #18
 979 0138 9D43     		bics	r5, r3
 980 013a E30B     		lsrs	r3, r4, #15
 981 013c 9A43     		bics	r2, r3
 982 013e D303     		lsls	r3, r2, #15
 983 0140 3A00     		movs	r2, r7
 984 0142 AD04     		lsls	r5, r5, #18
 985 0144 ED18     		adds	r5, r5, r3
 986 0146 E309     		lsrs	r3, r4, #7
 987 0148 9A43     		bics	r2, r3
 988 014a D301     		lsls	r3, r2, #7
 989 014c 2D19     		adds	r5, r5, r4
 990 014e ED18     		adds	r5, r5, r3
 991 0150 2800     		movs	r0, r5
 992 0152 FFF7FEFF 		bl	modem_set_dm_info_bitfield_periodic
 993 0156 2900     		movs	r1, r5
 994 0158 1325     		movs	r5, #19
 995 015a 3000     		movs	r0, r6
 996 015c FFF7FEFF 		bl	smtc_modem_hal_print_trace
 997 0160 06AB     		add	r3, sp, #24
 998 0162 ED18     		adds	r5, r5, r3
 999 0164 2900     		movs	r1, r5
 1000 0166 079A     		ldr	r2, [sp, #28]
 1001 0168 0023     		movs	r3, #0
 1002 016a 0BA8     		add	r0, sp, #44
 1003 016c FFF7FEFF 		bl	dm_status_payload
 1004 0170 069B     		ldr	r3, [sp, #24]
 1005 0172 1870     		strb	r0, [r3]
 1006 0174 FFF7FEFF 		bl	get_modem_dm_port
 1007 0178 2B78     		ldrb	r3, [r5]
 1008 017a 0600     		movs	r6, r0
 1009 017c 0793     		str	r3, [sp, #28]
 1010 017e FFF7FEFF 		bl	smtc_modem_hal_get_time_in_ms
 1011 0182 089B     		ldr	r3, [sp, #32]
 1012 0184 C830     		adds	r0, r0, #200
 1013 0186 3900     		movs	r1, r7
 1014 0188 0190     		str	r0, [sp, #4]
 1015 018a 0093     		str	r3, [sp]
 1016 018c 3000     		movs	r0, r6
 1017 018e 079B     		ldr	r3, [sp, #28]
 1018 0190 0BAA     		add	r2, sp, #44
 1019 0192 FFF7FEFF 		bl	lorawan_api_payload_send
 1020 0196 011E     		subs	r1, r0, #0
 1021 0198 2DD1     		bne	.L134
 1022 019a 069B     		ldr	r3, [sp, #24]
 1023 019c 1B78     		ldrb	r3, [r3]
 1024 019e 002B     		cmp	r3, #0
 1025 01a0 01D1     		bne	.L135
 1026 01a2 099A     		ldr	r2, [sp, #36]
ARM GAS  /tmp/ccI8rJG2.s 			page 21


 1027 01a4 1370     		strb	r3, [r2]
 1028              	.L135:
 1029 01a6 2000     		movs	r0, r4
 1030 01a8 FFF7FEFF 		bl	modem_set_dm_info_bitfield_periodic
 1031 01ac 2A78     		ldrb	r2, [r5]
 1032 01ae 5E49     		ldr	r1, .L216+44
 1033 01b0 5E48     		ldr	r0, .L216+48
 1034 01b2 FFF7FEFF 		bl	smtc_modem_hal_print_trace
 1035 01b6 0024     		movs	r4, #0
 1036 01b8 0F26     		movs	r6, #15
 1037              	.L136:
 1038 01ba 2B78     		ldrb	r3, [r5]
 1039 01bc A342     		cmp	r3, r4
 1040 01be 0AD8     		bhi	.L138
 1041              	.L210:
 1042 01c0 5B48     		ldr	r0, .L216+52
 1043 01c2 FFF7FEFF 		bl	smtc_modem_hal_print_trace
 1044 01c6 FFF7FEFF 		bl	get_modem_dm_port
 1045 01ca 5A4B     		ldr	r3, .L216+56
 1046 01cc 0100     		movs	r1, r0
 1047 01ce 1800     		movs	r0, r3
 1048 01d0 FFF7FEFF 		bl	smtc_modem_hal_print_trace
 1049 01d4 7DE7     		b	.L130
 1050              	.L138:
 1051 01d6 3442     		tst	r4, r6
 1052 01d8 04D1     		bne	.L137
 1053 01da 002C     		cmp	r4, #0
 1054 01dc 02D0     		beq	.L137
 1055 01de 5448     		ldr	r0, .L216+52
 1056 01e0 FFF7FEFF 		bl	smtc_modem_hal_print_trace
 1057              	.L137:
 1058 01e4 1422     		movs	r2, #20
 1059 01e6 06AB     		add	r3, sp, #24
 1060 01e8 9B18     		adds	r3, r3, r2
 1061 01ea 195D     		ldrb	r1, [r3, r4]
 1062 01ec 5248     		ldr	r0, .L216+60
 1063 01ee FFF7FEFF 		bl	smtc_modem_hal_print_trace
 1064 01f2 0134     		adds	r4, r4, #1
 1065 01f4 E1E7     		b	.L136
 1066              	.L134:
 1067 01f6 5148     		ldr	r0, .L216+64
 1068 01f8 71E7     		b	.L214
 1069              	.L133:
 1070 01fa FFF7FEFF 		bl	get_modem_dm_interval_second
 1071 01fe 0028     		cmp	r0, #0
 1072 0200 00D1     		bne	.LCB1048
 1073 0202 27E7     		b	.L108	@long jump
 1074              	.LCB1048:
 1075 0204 FFF7FEFF 		bl	modem_get_dm_info_bitfield_periodic
 1076 0208 0028     		cmp	r0, #0
 1077 020a 00D1     		bne	.LCB1052
 1078 020c 22E7     		b	.L108	@long jump
 1079              	.LCB1052:
 1080 020e 1325     		movs	r5, #19
 1081 0210 06AB     		add	r3, sp, #24
 1082 0212 ED18     		adds	r5, r5, r3
 1083 0214 0BAE     		add	r6, sp, #44
ARM GAS  /tmp/ccI8rJG2.s 			page 22


 1084 0216 2900     		movs	r1, r5
 1085 0218 079A     		ldr	r2, [sp, #28]
 1086 021a 0023     		movs	r3, #0
 1087 021c 3000     		movs	r0, r6
 1088 021e FFF7FEFF 		bl	dm_status_payload
 1089 0222 3F4B     		ldr	r3, .L216+36
 1090 0224 1870     		strb	r0, [r3]
 1091 0226 FFF7FEFF 		bl	get_modem_dm_port
 1092 022a 2F78     		ldrb	r7, [r5]
 1093 022c 0400     		movs	r4, r0
 1094 022e FFF7FEFF 		bl	smtc_modem_hal_get_time_in_ms
 1095 0232 0223     		movs	r3, #2
 1096 0234 C830     		adds	r0, r0, #200
 1097 0236 0190     		str	r0, [sp, #4]
 1098 0238 0093     		str	r3, [sp]
 1099 023a 2000     		movs	r0, r4
 1100 023c 3B00     		movs	r3, r7
 1101 023e 3200     		movs	r2, r6
 1102 0240 0121     		movs	r1, #1
 1103 0242 FFF7FEFF 		bl	lorawan_api_payload_send
 1104 0246 041E     		subs	r4, r0, #0
 1105 0248 15D1     		bne	.L141
 1106 024a 2A78     		ldrb	r2, [r5]
 1107 024c 3C49     		ldr	r1, .L216+68
 1108 024e 3748     		ldr	r0, .L216+48
 1109 0250 FFF7FEFF 		bl	smtc_modem_hal_print_trace
 1110 0254 0F27     		movs	r7, #15
 1111              	.L142:
 1112 0256 2B78     		ldrb	r3, [r5]
 1113 0258 A342     		cmp	r3, r4
 1114 025a B1D9     		bls	.L210
 1115 025c 3C42     		tst	r4, r7
 1116 025e 04D1     		bne	.L143
 1117 0260 002C     		cmp	r4, #0
 1118 0262 02D0     		beq	.L143
 1119 0264 3248     		ldr	r0, .L216+52
 1120 0266 FFF7FEFF 		bl	smtc_modem_hal_print_trace
 1121              	.L143:
 1122 026a 315D     		ldrb	r1, [r6, r4]
 1123 026c 3248     		ldr	r0, .L216+60
 1124 026e FFF7FEFF 		bl	smtc_modem_hal_print_trace
 1125 0272 0134     		adds	r4, r4, #1
 1126 0274 EFE7     		b	.L142
 1127              	.L141:
 1128 0276 2100     		movs	r1, r4
 1129 0278 3048     		ldr	r0, .L216+64
 1130 027a 30E7     		b	.L214
 1131              	.L122:
 1132 027c FFF7FEFF 		bl	get_join_state
 1133 0280 0500     		movs	r5, r0
 1134 0282 0228     		cmp	r0, #2
 1135 0284 00D0     		beq	.LCB1118
 1136 0286 E5E6     		b	.L108	@long jump
 1137              	.LCB1118:
 1138 0288 1324     		movs	r4, #19
 1139 028a FFF7FEFF 		bl	lorawan_api_next_max_payload_length_get
 1140 028e 06AB     		add	r3, sp, #24
ARM GAS  /tmp/ccI8rJG2.s 			page 23


 1141 0290 E418     		adds	r4, r4, r3
 1142 0292 0BAE     		add	r6, sp, #44
 1143 0294 C2B2     		uxtb	r2, r0
 1144 0296 2100     		movs	r1, r4
 1145 0298 0123     		movs	r3, #1
 1146 029a 3000     		movs	r0, r6
 1147 029c FFF7FEFF 		bl	dm_status_payload
 1148 02a0 284B     		ldr	r3, .L216+72
 1149 02a2 1870     		strb	r0, [r3]
 1150 02a4 FFF7FEFF 		bl	get_modem_dm_port
 1151 02a8 2378     		ldrb	r3, [r4]
 1152 02aa 0700     		movs	r7, r0
 1153 02ac 0693     		str	r3, [sp, #24]
 1154 02ae FFF7FEFF 		bl	smtc_modem_hal_get_time_in_ms
 1155 02b2 C830     		adds	r0, r0, #200
 1156 02b4 0190     		str	r0, [sp, #4]
 1157 02b6 0095     		str	r5, [sp]
 1158 02b8 3200     		movs	r2, r6
 1159 02ba 0121     		movs	r1, #1
 1160 02bc 3800     		movs	r0, r7
 1161 02be 069B     		ldr	r3, [sp, #24]
 1162 02c0 FFF7FEFF 		bl	lorawan_api_payload_send
 1163 02c4 051E     		subs	r5, r0, #0
 1164 02c6 16D1     		bne	.L145
 1165 02c8 2278     		ldrb	r2, [r4]
 1166 02ca 1F49     		ldr	r1, .L216+76
 1167 02cc 1748     		ldr	r0, .L216+48
 1168 02ce FFF7FEFF 		bl	smtc_modem_hal_print_trace
 1169 02d2 0F27     		movs	r7, #15
 1170              	.L146:
 1171 02d4 2378     		ldrb	r3, [r4]
 1172 02d6 AB42     		cmp	r3, r5
 1173 02d8 00D8     		bhi	.LCB1159
 1174 02da 71E7     		b	.L210	@long jump
 1175              	.LCB1159:
 1176 02dc 3D42     		tst	r5, r7
 1177 02de 04D1     		bne	.L147
 1178 02e0 002D     		cmp	r5, #0
 1179 02e2 02D0     		beq	.L147
 1180 02e4 1248     		ldr	r0, .L216+52
 1181 02e6 FFF7FEFF 		bl	smtc_modem_hal_print_trace
 1182              	.L147:
 1183 02ea 715D     		ldrb	r1, [r6, r5]
 1184 02ec 1248     		ldr	r0, .L216+60
 1185 02ee FFF7FEFF 		bl	smtc_modem_hal_print_trace
 1186 02f2 0135     		adds	r5, r5, #1
 1187 02f4 EEE7     		b	.L146
 1188              	.L145:
 1189 02f6 2900     		movs	r1, r5
 1190 02f8 1448     		ldr	r0, .L216+80
 1191 02fa F0E6     		b	.L214
 1192              	.L217:
 1193              		.align	2
 1194              	.L216:
 1195 02fc 12000000 		.word	.LC61
 1196 0300 19000000 		.word	.LC2
 1197 0304 00000000 		.word	task_manager
ARM GAS  /tmp/ccI8rJG2.s 			page 24


 1198 0308 00000000 		.word	send_task_update_needed
 1199 030c 09000000 		.word	.LC59
 1200 0310 00000000 		.word	.LC57
 1201 0314 47000000 		.word	.LC66
 1202 0318 5D000000 		.word	.LC68
 1203 031c 00000000 		.word	is_first_dm_after_join
 1204 0320 00000000 		.word	is_pending_dm_status_payload_periodic
 1205 0324 98000000 		.word	.LC72
 1206 0328 AE000000 		.word	.LC74
 1207 032c 57000000 		.word	.LC9
 1208 0330 6A000000 		.word	.LC11
 1209 0334 BA000000 		.word	.LC79
 1210 0338 6C000000 		.word	.LC13
 1211 033c C7000000 		.word	.LC81
 1212 0340 02010000 		.word	.LC83
 1213 0344 00000000 		.word	is_pending_dm_status_payload_now
 1214 0348 06010000 		.word	.LC86
 1215 034c 0E010000 		.word	.LC88
 1216              	.L114:
 1217 0350 FFF7FEFF 		bl	get_join_state
 1218 0354 0228     		cmp	r0, #2
 1219 0356 00D0     		beq	.LCB1212
 1220 0358 7CE6     		b	.L108	@long jump
 1221              	.LCB1212:
 1222 035a 0D23     		movs	r3, #13
 1223 035c 06AA     		add	r2, sp, #24
 1224 035e 1330     		adds	r0, r0, #19
 1225 0360 1375     		strb	r3, [r2, #20]
 1226 0362 8018     		adds	r0, r0, r2
 1227 0364 FFF7FEFF 		bl	smtc_modem_hal_restore_crashlog
 1228 0368 2122     		movs	r2, #33
 1229 036a AF49     		ldr	r1, .L218
 1230 036c AF48     		ldr	r0, .L218+4
 1231 036e FFF7FEFF 		bl	smtc_modem_hal_print_trace
 1232 0372 0024     		movs	r4, #0
 1233 0374 0F25     		movs	r5, #15
 1234              	.L150:
 1235 0376 2C42     		tst	r4, r5
 1236 0378 04D1     		bne	.L149
 1237 037a 002C     		cmp	r4, #0
 1238 037c 02D0     		beq	.L149
 1239 037e AC48     		ldr	r0, .L218+8
 1240 0380 FFF7FEFF 		bl	smtc_modem_hal_print_trace
 1241              	.L149:
 1242 0384 1422     		movs	r2, #20
 1243 0386 06AB     		add	r3, sp, #24
 1244 0388 9B18     		adds	r3, r3, r2
 1245 038a 195D     		ldrb	r1, [r3, r4]
 1246 038c A948     		ldr	r0, .L218+12
 1247 038e 0134     		adds	r4, r4, #1
 1248 0390 FFF7FEFF 		bl	smtc_modem_hal_print_trace
 1249 0394 212C     		cmp	r4, #33
 1250 0396 EED1     		bne	.L150
 1251 0398 A548     		ldr	r0, .L218+8
 1252 039a FFF7FEFF 		bl	smtc_modem_hal_print_trace
 1253 039e FFF7FEFF 		bl	lorawan_api_next_max_payload_length_get
 1254 03a2 0500     		movs	r5, r0
ARM GAS  /tmp/ccI8rJG2.s 			page 25


 1255 03a4 FFF7FEFF 		bl	get_modem_dm_port
 1256 03a8 0600     		movs	r6, r0
 1257 03aa FFF7FEFF 		bl	smtc_modem_hal_get_time_in_ms
 1258 03ae 2B1C     		adds	r3, r5, #0
 1259 03b0 EDB2     		uxtb	r5, r5
 1260 03b2 212D     		cmp	r5, #33
 1261 03b4 00D9     		bls	.L151
 1262 03b6 231C     		adds	r3, r4, #0
 1263              	.L151:
 1264 03b8 0222     		movs	r2, #2
 1265 03ba C830     		adds	r0, r0, #200
 1266 03bc 0190     		str	r0, [sp, #4]
 1267 03be 0092     		str	r2, [sp]
 1268 03c0 0121     		movs	r1, #1
 1269 03c2 3000     		movs	r0, r6
 1270 03c4 DBB2     		uxtb	r3, r3
 1271 03c6 0BAA     		add	r2, sp, #44
 1272 03c8 FFF7FEFF 		bl	lorawan_api_payload_send
 1273 03cc 0028     		cmp	r0, #0
 1274 03ce 00D0     		beq	.LCB1270
 1275 03d0 40E6     		b	.L108	@long jump
 1276              	.LCB1270:
 1277 03d2 FFF7FEFF 		bl	smtc_modem_hal_set_crashlog_status
 1278 03d6 7CE6     		b	.L130
 1279              	.L121:
 1280 03d8 F222     		movs	r2, #242
 1281 03da 0021     		movs	r1, #0
 1282 03dc 0BA8     		add	r0, sp, #44
 1283 03de FFF7FEFF 		bl	memset
 1284 03e2 FFF7FEFF 		bl	get_join_state
 1285 03e6 0228     		cmp	r0, #2
 1286 03e8 03D0     		beq	.L153
 1287 03ea 9348     		ldr	r0, .L218+16
 1288              	.L213:
 1289 03ec FFF7FEFF 		bl	smtc_modem_hal_print_trace
 1290 03f0 77E6     		b	.L211
 1291              	.L153:
 1292 03f2 FFF7FEFF 		bl	modem_get_upload_state
 1293 03f6 0228     		cmp	r0, #2
 1294 03f8 01D0     		beq	.L154
 1295 03fa 9048     		ldr	r0, .L218+20
 1296 03fc F6E7     		b	.L213
 1297              	.L154:
 1298 03fe FFF7FEFF 		bl	lorawan_api_next_max_payload_length_get
 1299 0402 8F4B     		ldr	r3, .L218+24
 1300 0404 0400     		movs	r4, r0
 1301 0406 1D68     		ldr	r5, [r3]
 1302 0408 FFF7FEFF 		bl	lorawan_api_fcnt_up_get
 1303 040c 2200     		movs	r2, r4
 1304 040e 0300     		movs	r3, r0
 1305 0410 642C     		cmp	r4, #100
 1306 0412 00D9     		bls	.L155
 1307 0414 6422     		movs	r2, #100
 1308              	.L155:
 1309 0416 2800     		movs	r0, r5
 1310 0418 0BA9     		add	r1, sp, #44
 1311 041a FFF7FEFF 		bl	file_upload_get_fragment
ARM GAS  /tmp/ccI8rJG2.s 			page 26


 1312 041e 041E     		subs	r4, r0, #0
 1313 0420 6ADD     		ble	.L215
 1314 0422 FFF7FEFF 		bl	get_modem_dm_port
 1315 0426 0500     		movs	r5, r0
 1316 0428 FFF7FEFF 		bl	smtc_modem_hal_get_time_in_ms
 1317 042c 0222     		movs	r2, #2
 1318 042e C830     		adds	r0, r0, #200
 1319 0430 0190     		str	r0, [sp, #4]
 1320 0432 0121     		movs	r1, #1
 1321 0434 2800     		movs	r0, r5
 1322 0436 0092     		str	r2, [sp]
 1323 0438 E3B2     		uxtb	r3, r4
 1324 043a 0BAA     		add	r2, sp, #44
 1325              	.L209:
 1326 043c FFF7FEFF 		bl	lorawan_api_payload_send
 1327 0440 C7E0     		b	.L158
 1328              	.L118:
 1329 0442 0BAD     		add	r5, sp, #44
 1330 0444 F222     		movs	r2, #242
 1331 0446 0021     		movs	r1, #0
 1332 0448 2800     		movs	r0, r5
 1333 044a FFF7FEFF 		bl	memset
 1334 044e FFF7FEFF 		bl	get_join_state
 1335 0452 0228     		cmp	r0, #2
 1336 0454 01D0     		beq	.L159
 1337 0456 7B48     		ldr	r0, .L218+28
 1338 0458 C8E7     		b	.L213
 1339              	.L159:
 1340 045a FFF7FEFF 		bl	modem_get_stream_state
 1341 045e 0400     		movs	r4, r0
 1342 0460 7948     		ldr	r0, .L218+32
 1343 0462 012C     		cmp	r4, #1
 1344 0464 C2D1     		bne	.L213
 1345 0466 FFF7FEFF 		bl	get_modem_dm_port
 1346 046a 0600     		movs	r6, r0
 1347 046c FFF7FEFF 		bl	modem_get_stream_port
 1348 0470 8642     		cmp	r6, r0
 1349 0472 26D1     		bne	.L169
 1350 0474 1423     		movs	r3, #20
 1351 0476 2B70     		strb	r3, [r5]
 1352              	.L161:
 1353 0478 FFF7FEFF 		bl	lorawan_api_next_max_payload_length_get
 1354 047c 06AB     		add	r3, sp, #24
 1355 047e 001B     		subs	r0, r0, r4
 1356 0480 D874     		strb	r0, [r3, #19]
 1357 0482 FFF7FEFF 		bl	lorawan_api_fcnt_up_get
 1358 0486 1323     		movs	r3, #19
 1359 0488 704E     		ldr	r6, .L218+36
 1360 048a 0200     		movs	r2, r0
 1361 048c 06A8     		add	r0, sp, #24
 1362 048e 1B18     		adds	r3, r3, r0
 1363 0490 2919     		adds	r1, r5, r4
 1364 0492 3068     		ldr	r0, [r6]
 1365 0494 FFF7FEFF 		bl	stream_get_fragment
 1366 0498 0028     		cmp	r0, #0
 1367 049a 14D1     		bne	.L162
 1368 049c 06AB     		add	r3, sp, #24
ARM GAS  /tmp/ccI8rJG2.s 			page 27


 1369 049e DB7C     		ldrb	r3, [r3, #19]
 1370 04a0 002B     		cmp	r3, #0
 1371 04a2 10D0     		beq	.L162
 1372 04a4 6A4A     		ldr	r2, .L218+40
 1373 04a6 1C19     		adds	r4, r3, r4
 1374 04a8 1678     		ldrb	r6, [r2]
 1375 04aa FFF7FEFF 		bl	smtc_modem_hal_get_time_in_ms
 1376 04ae 0223     		movs	r3, #2
 1377 04b0 C830     		adds	r0, r0, #200
 1378 04b2 E4B2     		uxtb	r4, r4
 1379 04b4 0190     		str	r0, [sp, #4]
 1380 04b6 0093     		str	r3, [sp]
 1381 04b8 2A00     		movs	r2, r5
 1382 04ba 2300     		movs	r3, r4
 1383 04bc 0121     		movs	r1, #1
 1384 04be 3000     		movs	r0, r6
 1385 04c0 BCE7     		b	.L209
 1386              	.L169:
 1387 04c2 0024     		movs	r4, #0
 1388 04c4 D8E7     		b	.L161
 1389              	.L162:
 1390 04c6 0020     		movs	r0, #0
 1391 04c8 FFF7FEFF 		bl	set_modem_status_streaming
 1392 04cc 6148     		ldr	r0, .L218+44
 1393 04ce 8DE7     		b	.L213
 1394              	.L120:
 1395 04d0 FFF7FEFF 		bl	get_modem_muted
 1396 04d4 0128     		cmp	r0, #1
 1397 04d6 00D0     		beq	.LCB1424
 1398 04d8 BCE5     		b	.L108	@long jump
 1399              	.LCB1424:
 1400 04da FFF7FEFF 		bl	dm_get_number_of_days_mute
 1401 04de 0138     		subs	r0, r0, #1
 1402 04e0 C0B2     		uxtb	r0, r0
 1403 04e2 FFF7FEFF 		bl	dm_set_number_of_days_mute
 1404 04e6 B5E5     		b	.L108
 1405              	.L119:
 1406 04e8 0BAC     		add	r4, sp, #44
 1407 04ea 2000     		movs	r0, r4
 1408 04ec FFF7FEFF 		bl	get_dm_retrieve_pending_dl
 1409 04f0 2378     		ldrb	r3, [r4]
 1410 04f2 002B     		cmp	r3, #0
 1411 04f4 00D1     		bne	.LCB1439
 1412 04f6 ADE5     		b	.L108	@long jump
 1413              	.LCB1439:
 1414              	.L215:
 1415 04f8 FFF7FEFF 		bl	smtc_modem_hal_get_time_in_ms
 1416 04fc 0223     		movs	r3, #2
 1417 04fe 0093     		str	r3, [sp]
 1418 0500 0023     		movs	r3, #0
 1419 0502 C830     		adds	r0, r0, #200
 1420 0504 0190     		str	r0, [sp, #4]
 1421 0506 1A00     		movs	r2, r3
 1422 0508 1900     		movs	r1, r3
 1423 050a 1800     		movs	r0, r3
 1424 050c 96E7     		b	.L209
 1425              	.L117:
ARM GAS  /tmp/ccI8rJG2.s 			page 28


 1426 050e FFF7FEFF 		bl	lorawan_api_modem_certification_is_enabled
 1427 0512 0128     		cmp	r0, #1
 1428 0514 00D1     		bne	.LCB1458
 1429 0516 9DE5     		b	.L108	@long jump
 1430              	.LCB1458:
 1431 0518 FFF7FEFF 		bl	get_join_state
 1432 051c 0228     		cmp	r0, #2
 1433 051e 00D0     		beq	.LCB1462
 1434 0520 98E5     		b	.L108	@long jump
 1435              	.LCB1462:
 1436 0522 4D4B     		ldr	r3, .L218+48
 1437 0524 1868     		ldr	r0, [r3]
 1438 0526 FFF7FEFF 		bl	clock_sync_request
 1439 052a 93E5     		b	.L108
 1440              	.L116:
 1441 052c FFF7FEFF 		bl	lorawan_api_modem_certification_is_enabled
 1442 0530 0128     		cmp	r0, #1
 1443 0532 00D1     		bne	.LCB1473
 1444 0534 8EE5     		b	.L108	@long jump
 1445              	.LCB1473:
 1446 0536 FFF7FEFF 		bl	lorawan_api_next_max_payload_length_get
 1447 053a C3B2     		uxtb	r3, r0
 1448 053c 0793     		str	r3, [sp, #28]
 1449 053e 1323     		movs	r3, #19
 1450 0540 0024     		movs	r4, #0
 1451 0542 06AA     		add	r2, sp, #24
 1452 0544 9B18     		adds	r3, r3, r2
 1453 0546 1C70     		strb	r4, [r3]
 1454 0548 FFF7FEFF 		bl	smtc_modem_hal_get_time_in_s
 1455 054c 871C     		adds	r7, r0, #2
 1456 054e FFF7FEFF 		bl	get_modem_dm_port
 1457 0552 414B     		ldr	r3, .L218+48
 1458 0554 0500     		movs	r5, r0
 1459 0556 1868     		ldr	r0, [r3]
 1460 0558 FFF7FEFF 		bl	clock_sync_get_alcsync_port
 1461 055c 8542     		cmp	r5, r0
 1462 055e 03D1     		bne	.L165
 1463 0560 1722     		movs	r2, #23
 1464 0562 0BAB     		add	r3, sp, #44
 1465 0564 1A70     		strb	r2, [r3]
 1466 0566 0134     		adds	r4, r4, #1
 1467              	.L165:
 1468 0568 3C4E     		ldr	r6, .L218+52
 1469 056a 3368     		ldr	r3, [r6]
 1470 056c 0693     		str	r3, [sp, #24]
 1471 056e FFF7FEFF 		bl	smtc_modem_hal_get_time_compensation_in_s
 1472 0572 0500     		movs	r5, r0
 1473 0574 3068     		ldr	r0, [r6]
 1474 0576 FFF7FEFF 		bl	alc_sync_get_time_correction_second
 1475 057a 2D18     		adds	r5, r5, r0
 1476 057c E919     		adds	r1, r5, r7
 1477 057e 1325     		movs	r5, #19
 1478 0580 06AB     		add	r3, sp, #24
 1479 0582 ED18     		adds	r5, r5, r3
 1480 0584 0BAB     		add	r3, sp, #44
 1481 0586 1B19     		adds	r3, r3, r4
 1482 0588 0193     		str	r3, [sp, #4]
ARM GAS  /tmp/ccI8rJG2.s 			page 29


 1483 058a 079B     		ldr	r3, [sp, #28]
 1484 058c 0698     		ldr	r0, [sp, #24]
 1485 058e 1B1B     		subs	r3, r3, r4
 1486 0590 DBB2     		uxtb	r3, r3
 1487 0592 0093     		str	r3, [sp]
 1488 0594 0123     		movs	r3, #1
 1489 0596 0295     		str	r5, [sp, #8]
 1490 0598 1A00     		movs	r2, r3
 1491 059a FFF7FEFF 		bl	alc_sync_create_uplink_payload
 1492 059e 2B78     		ldrb	r3, [r5]
 1493 05a0 E418     		adds	r4, r4, r3
 1494 05a2 E4B2     		uxtb	r4, r4
 1495 05a4 2C70     		strb	r4, [r5]
 1496 05a6 002C     		cmp	r4, #0
 1497 05a8 00D1     		bne	.LCB1531
 1498 05aa 53E5     		b	.L108	@long jump
 1499              	.LCB1531:
 1500 05ac 2A4B     		ldr	r3, .L218+48
 1501 05ae 1868     		ldr	r0, [r3]
 1502 05b0 FFF7FEFF 		bl	clock_sync_get_alcsync_port
 1503 05b4 FA22     		movs	r2, #250
 1504 05b6 9200     		lsls	r2, r2, #2
 1505 05b8 7A43     		muls	r2, r7
 1506 05ba 2B78     		ldrb	r3, [r5]
 1507 05bc 0192     		str	r2, [sp, #4]
 1508 05be 0222     		movs	r2, #2
 1509 05c0 0121     		movs	r1, #1
 1510 05c2 0092     		str	r2, [sp]
 1511 05c4 0BAA     		add	r2, sp, #44
 1512 05c6 FFF7FEFF 		bl	lorawan_api_payload_send_at_time
 1513 05ca 0022     		movs	r2, #0
 1514 05cc 3368     		ldr	r3, [r6]
 1515 05ce 2933     		adds	r3, r3, #41
 1516 05d0 1A70     		strb	r2, [r3]
 1517              	.L158:
 1518 05d2 0028     		cmp	r0, #0
 1519 05d4 00D1     		bne	.LCB1552
 1520 05d6 7CE5     		b	.L130	@long jump
 1521              	.LCB1552:
 1522 05d8 3CE5     		b	.L108
 1523              	.L113:
 1524 05da 0220     		movs	r0, #2
 1525              	.L212:
 1526 05dc FFF7FEFF 		bl	lorawan_api_send_stack_cid_req
 1527 05e0 38E5     		b	.L108
 1528              	.L112:
 1529 05e2 1F48     		ldr	r0, .L218+56
 1530 05e4 FFF7FEFF 		bl	smtc_modem_hal_print_trace
 1531 05e8 1E48     		ldr	r0, .L218+60
 1532 05ea FFF7FEFF 		bl	smtc_modem_hal_print_trace
 1533 05ee 0D20     		movs	r0, #13
 1534 05f0 F4E7     		b	.L212
 1535              	.L111:
 1536 05f2 1D48     		ldr	r0, .L218+64
 1537 05f4 FFF7FEFF 		bl	smtc_modem_hal_print_trace
 1538 05f8 1A48     		ldr	r0, .L218+60
 1539 05fa FFF7FEFF 		bl	smtc_modem_hal_print_trace
ARM GAS  /tmp/ccI8rJG2.s 			page 30


 1540 05fe 1020     		movs	r0, #16
 1541 0600 ECE7     		b	.L212
 1542              	.L115:
 1543 0602 FFF7FEFF 		bl	get_modem_dm_port
 1544 0606 194B     		ldr	r3, .L218+68
 1545 0608 0400     		movs	r4, r0
 1546 060a 1D68     		ldr	r5, [r3]
 1547 060c 184B     		ldr	r3, .L218+72
 1548 060e 9F78     		ldrb	r7, [r3, #2]
 1549 0610 5E78     		ldrb	r6, [r3, #1]
 1550 0612 FFF7FEFF 		bl	smtc_modem_hal_get_time_in_ms
 1551 0616 C830     		adds	r0, r0, #200
 1552 0618 0190     		str	r0, [sp, #4]
 1553 061a 3300     		movs	r3, r6
 1554 061c 2A00     		movs	r2, r5
 1555 061e 0121     		movs	r1, #1
 1556 0620 2000     		movs	r0, r4
 1557 0622 0097     		str	r7, [sp]
 1558 0624 0AE7     		b	.L209
 1559              	.L219:
 1560 0626 C046     		.align	2
 1561              	.L218:
 1562 0628 4A010000 		.word	.LC90
 1563 062c 57000000 		.word	.LC9
 1564 0630 6A000000 		.word	.LC11
 1565 0634 6C000000 		.word	.LC13
 1566 0638 5C010000 		.word	.LC92
 1567 063c 7C010000 		.word	.LC94
 1568 0640 00000000 		.word	file_upload_context
 1569 0644 A0010000 		.word	.LC97
 1570 0648 C2010000 		.word	.LC99
 1571 064c 00000000 		.word	ROSE
 1572 0650 A9000000 		.word	task_manager+169
 1573 0654 EC010000 		.word	.LC102
 1574 0658 00000000 		.word	clock_sync_context
 1575 065c 00000000 		.word	alc_sync_context
 1576 0660 15020000 		.word	.LC106
 1577 0664 19000000 		.word	.LC2
 1578 0668 37020000 		.word	.LC108
 1579 066c FC000000 		.word	task_manager+252
 1580 0670 FF000000 		.word	task_manager+255
 1582              		.section	.rodata.modem_supervisor_update_task.str1.1,"aMS",%progbits,1
 1583              	.LC120:
 1584 0000 1B5B303B 		.ascii	"\033[0;33mWARN: File upload ended without server co"
 1584      33336D57 
 1584      41524E3A 
 1584      2046696C 
 1584      65207570 
 1585 0030 6E666972 		.ascii	"nfirmation \012\000"
 1585      6D617469 
 1585      6F6E200A 
 1585      00
 1586              	.LC124:
 1587 003d 1B5B303B 		.ascii	"\033[0;33mWARN: Streaming DONE\012\000"
 1587      33336D57 
 1587      41524E3A 
 1587      20537472 
ARM GAS  /tmp/ccI8rJG2.s 			page 31


 1587      65616D69 
 1588              		.section	.text.modem_supervisor_update_task,"ax",%progbits
 1589              		.align	1
 1590              		.global	modem_supervisor_update_task
 1591              		.syntax unified
 1592              		.code	16
 1593              		.thumb_func
 1595              	modem_supervisor_update_task:
 1596              		@ args = 0, pretend = 0, frame = 8
 1597              		@ frame_needed = 0, uses_anonymous_args = 0
 1598 0000 37B5     		push	{r0, r1, r2, r4, r5, lr}
 1599 0002 1328     		cmp	r0, #19
 1600 0004 7CD8     		bhi	.L220
 1601 0006 FFF7FEFF 		bl	__gnu_thumb1_case_uhi
 1602              	.L223:
 1603 000a 8600     		.2byte	(.L237-.L223)/2
 1604 000c 1400     		.2byte	(.L236-.L223)/2
 1605 000e 6D00     		.2byte	(.L235-.L223)/2
 1606 0010 7F00     		.2byte	(.L234-.L223)/2
 1607 0012 A200     		.2byte	(.L233-.L223)/2
 1608 0014 7B00     		.2byte	(.L220-.L223)/2
 1609 0016 DA00     		.2byte	(.L232-.L223)/2
 1610 0018 E100     		.2byte	(.L231-.L223)/2
 1611 001a C300     		.2byte	(.L230-.L223)/2
 1612 001c EE00     		.2byte	(.L229-.L223)/2
 1613 001e 1001     		.2byte	(.L228-.L223)/2
 1614 0020 7B00     		.2byte	(.L220-.L223)/2
 1615 0022 7B00     		.2byte	(.L220-.L223)/2
 1616 0024 7B00     		.2byte	(.L220-.L223)/2
 1617 0026 7B00     		.2byte	(.L220-.L223)/2
 1618 0028 1E01     		.2byte	(.L227-.L223)/2
 1619 002a 2801     		.2byte	(.L226-.L223)/2
 1620 002c 3301     		.2byte	(.L225-.L223)/2
 1621 002e 9B00     		.2byte	(.L224-.L223)/2
 1622 0030 A000     		.2byte	(.L222-.L223)/2
 1623              		.p2align 1
 1624              	.L236:
 1625 0032 FFF7FEFF 		bl	get_join_state
 1626 0036 0400     		movs	r4, r0
 1627 0038 0128     		cmp	r0, #1
 1628 003a 3BD1     		bne	.L238
 1629 003c FFF7FEFF 		bl	lorawan_api_isjoined
 1630 0040 0228     		cmp	r0, #2
 1631 0042 37D1     		bne	.L238
 1632 0044 0020     		movs	r0, #0
 1633 0046 FFF7FEFF 		bl	set_modem_status_joining
 1634 004a 2000     		movs	r0, r4
 1635 004c FFF7FEFF 		bl	set_modem_status_modem_joined
 1636 0050 8C4B     		ldr	r3, .L287
 1637 0052 0020     		movs	r0, #0
 1638 0054 1C70     		strb	r4, [r3]
 1639 0056 8C4B     		ldr	r3, .L287+4
 1640 0058 1C70     		strb	r4, [r3]
 1641 005a FFF7FEFF 		bl	modem_supervisor_add_task_dm_status
 1642 005e FFF7FEFF 		bl	modem_context_reset_dm_tag_number
 1643 0062 8A4C     		ldr	r4, .L287+8
 1644 0064 2068     		ldr	r0, [r4]
ARM GAS  /tmp/ccI8rJG2.s 			page 32


 1645 0066 FFF7FEFF 		bl	clock_sync_is_enabled
 1646 006a 0028     		cmp	r0, #0
 1647 006c 09D0     		beq	.L239
 1648 006e 0521     		movs	r1, #5
 1649 0070 0020     		movs	r0, #0
 1650 0072 FFF7FEFF 		bl	smtc_modem_hal_get_random_nb_in_range
 1651 0076 0A30     		adds	r0, r0, #10
 1652 0078 FFF7FEFF 		bl	modem_supervisor_add_task_clock_sync_time_req
 1653 007c 2068     		ldr	r0, [r4]
 1654 007e FFF7FEFF 		bl	clock_sync_reset_nb_time_req
 1655              	.L239:
 1656 0082 FFF7FEFF 		bl	smtc_modem_hal_get_crashlog_status
 1657 0086 0028     		cmp	r0, #0
 1658 0088 06D0     		beq	.L240
 1659 008a 0A21     		movs	r1, #10
 1660 008c 0520     		movs	r0, #5
 1661 008e FFF7FEFF 		bl	smtc_modem_hal_get_random_nb_in_range
 1662 0092 1E30     		adds	r0, r0, #30
 1663 0094 FFF7FEFF 		bl	modem_supervisor_add_task_crash_log
 1664              	.L240:
 1665 0098 0021     		movs	r1, #0
 1666 009a 0220     		movs	r0, #2
 1667 009c FFF7FEFF 		bl	increment_asynchronous_msgnumber
 1668 00a0 FFF7FEFF 		bl	lorawan_api_class_c_start
 1669              	.L241:
 1670 00a4 FFF7FEFF 		bl	modem_get_duty_cycle_disabled_by_host
 1671 00a8 0128     		cmp	r0, #1
 1672 00aa 29D1     		bne	.L220
 1673              	.L243:
 1674 00ac 0220     		movs	r0, #2
 1675              	.L283:
 1676 00ae FFF7FEFF 		bl	lorawan_api_duty_cycle_enable_set
 1677 00b2 25E0     		b	.L220
 1678              	.L238:
 1679 00b4 FFF7FEFF 		bl	get_join_state
 1680 00b8 0128     		cmp	r0, #1
 1681 00ba 09D1     		bne	.L242
 1682 00bc 0020     		movs	r0, #0
 1683 00be FFF7FEFF 		bl	set_modem_status_joining
 1684 00c2 0021     		movs	r1, #0
 1685 00c4 0A20     		movs	r0, #10
 1686 00c6 FFF7FEFF 		bl	increment_asynchronous_msgnumber
 1687 00ca FFF7FEFF 		bl	modem_supervisor_add_task_join
 1688 00ce E9E7     		b	.L241
 1689              	.L242:
 1690 00d0 FFF7FEFF 		bl	lorawan_api_isjoined
 1691 00d4 0228     		cmp	r0, #2
 1692 00d6 E5D1     		bne	.L241
 1693 00d8 0020     		movs	r0, #0
 1694 00da FFF7FEFF 		bl	set_modem_status_joining
 1695 00de FFF7FEFF 		bl	lorawan_api_join_status_clear
 1696 00e2 DFE7     		b	.L241
 1697              	.L235:
 1698 00e4 FFF7FEFF 		bl	get_modem_dm_interval_second
 1699 00e8 0028     		cmp	r0, #0
 1700 00ea 09D0     		beq	.L220
 1701 00ec 654B     		ldr	r3, .L287
ARM GAS  /tmp/ccI8rJG2.s 			page 33


 1702 00ee 1B78     		ldrb	r3, [r3]
 1703 00f0 002B     		cmp	r3, #0
 1704 00f2 06D0     		beq	.L245
 1705 00f4 0F21     		movs	r1, #15
 1706 00f6 0A20     		movs	r0, #10
 1707 00f8 FFF7FEFF 		bl	smtc_modem_hal_get_random_nb_in_range
 1708              	.L284:
 1709 00fc FFF7FEFF 		bl	modem_supervisor_add_task_dm_status
 1710              	.L220:
 1711              		@ sp needed
 1712 0100 37BD     		pop	{r0, r1, r2, r4, r5, pc}
 1713              	.L245:
 1714 0102 FFF7FEFF 		bl	get_modem_dm_interval_second
 1715 0106 F9E7     		b	.L284
 1716              	.L234:
 1717 0108 614B     		ldr	r3, .L287+12
 1718 010a 1B78     		ldrb	r3, [r3]
 1719 010c 002B     		cmp	r3, #0
 1720 010e F7D0     		beq	.L220
 1721 0110 FFF7FEFF 		bl	modem_supervisor_add_task_dm_status_now
 1722 0114 F4E7     		b	.L220
 1723              	.L237:
 1724 0116 5F4B     		ldr	r3, .L287+16
 1725 0118 1978     		ldrb	r1, [r3]
 1726 011a 0029     		cmp	r1, #0
 1727 011c 0ED0     		beq	.L246
 1728 011e FFF7FEFF 		bl	lorawan_api_rx_ack_bit_get
 1729 0122 0121     		movs	r1, #1
 1730 0124 0128     		cmp	r0, #1
 1731 0126 09D1     		bne	.L246
 1732 0128 0221     		movs	r1, #2
 1733 012a 4018     		adds	r0, r0, r1
 1734              	.L281:
 1735 012c FFF7FEFF 		bl	increment_asynchronous_msgnumber
 1736 0130 FFF7FEFF 		bl	modem_get_duty_cycle_disabled_by_host
 1737 0134 0128     		cmp	r0, #1
 1738 0136 B9D0     		beq	.L243
 1739 0138 0120     		movs	r0, #1
 1740 013a B8E7     		b	.L283
 1741              	.L246:
 1742 013c 0320     		movs	r0, #3
 1743 013e F5E7     		b	.L281
 1744              	.L224:
 1745 0140 0120     		movs	r0, #1
 1746              	.L285:
 1747 0142 FFF7FEFF 		bl	modem_get_extended_callback
 1748 0146 8047     		blx	r0
 1749 0148 DAE7     		b	.L220
 1750              	.L222:
 1751 014a 0220     		movs	r0, #2
 1752 014c F9E7     		b	.L285
 1753              	.L233:
 1754 014e FFF7FEFF 		bl	modem_get_upload_state
 1755 0152 0228     		cmp	r0, #2
 1756 0154 D4D1     		bne	.L220
 1757 0156 504D     		ldr	r5, .L287+20
 1758 0158 2868     		ldr	r0, [r5]
ARM GAS  /tmp/ccI8rJG2.s 			page 34


 1759 015a FFF7FEFF 		bl	file_upload_is_data_remaining
 1760 015e 041E     		subs	r4, r0, #0
 1761 0160 05D0     		beq	.L249
 1762 0162 2868     		ldr	r0, [r5]
 1763 0164 FFF7FEFF 		bl	file_upload_get_average_delay_in_s
 1764 0168 FFF7FEFF 		bl	modem_supervisor_add_task_file_upload
 1765 016c C8E7     		b	.L220
 1766              	.L249:
 1767 016e 4B48     		ldr	r0, .L287+24
 1768 0170 FFF7FEFF 		bl	smtc_modem_hal_print_trace
 1769 0174 4A48     		ldr	r0, .L287+28
 1770 0176 FFF7FEFF 		bl	smtc_modem_hal_print_trace
 1771 017a 2100     		movs	r1, r4
 1772 017c 0520     		movs	r0, #5
 1773 017e FFF7FEFF 		bl	increment_asynchronous_msgnumber
 1774 0182 2000     		movs	r0, r4
 1775 0184 FFF7FEFF 		bl	set_modem_status_file_upload
 1776 0188 0320     		movs	r0, #3
 1777 018a FFF7FEFF 		bl	modem_set_upload_state
 1778 018e B7E7     		b	.L220
 1779              	.L230:
 1780 0190 444B     		ldr	r3, .L287+32
 1781 0192 1868     		ldr	r0, [r3]
 1782 0194 FFF7FEFF 		bl	stream_data_pending
 1783 0198 041E     		subs	r4, r0, #0
 1784 019a 02D0     		beq	.L250
 1785 019c FFF7FEFF 		bl	modem_supervisor_add_task_stream
 1786 01a0 AEE7     		b	.L220
 1787              	.L250:
 1788 01a2 4148     		ldr	r0, .L287+36
 1789 01a4 FFF7FEFF 		bl	smtc_modem_hal_print_trace
 1790 01a8 3D48     		ldr	r0, .L287+28
 1791 01aa FFF7FEFF 		bl	smtc_modem_hal_print_trace
 1792 01ae 2000     		movs	r0, r4
 1793 01b0 FFF7FEFF 		bl	set_modem_status_streaming
 1794 01b4 2100     		movs	r1, r4
 1795 01b6 0820     		movs	r0, #8
 1796              	.L282:
 1797 01b8 FFF7FEFF 		bl	increment_asynchronous_msgnumber
 1798 01bc A0E7     		b	.L220
 1799              	.L232:
 1800 01be FFF7FEFF 		bl	get_modem_muted
 1801 01c2 0128     		cmp	r0, #1
 1802 01c4 9CD1     		bne	.L220
 1803 01c6 FFF7FEFF 		bl	modem_supervisor_add_task_modem_mute
 1804 01ca 99E7     		b	.L220
 1805              	.L231:
 1806 01cc 01A8     		add	r0, sp, #4
 1807 01ce FFF7FEFF 		bl	get_dm_retrieve_pending_dl
 1808 01d2 6B46     		mov	r3, sp
 1809 01d4 1B79     		ldrb	r3, [r3, #4]
 1810 01d6 002B     		cmp	r3, #0
 1811 01d8 00D1     		bne	.LCB1885
 1812 01da 91E7     		b	.L220	@long jump
 1813              	.LCB1885:
 1814 01dc 6B46     		mov	r3, sp
 1815 01de 5879     		ldrb	r0, [r3, #5]
ARM GAS  /tmp/ccI8rJG2.s 			page 35


 1816              	.L286:
 1817 01e0 FFF7FEFF 		bl	modem_supervisor_add_task_retrieve_dl
 1818 01e4 8CE7     		b	.L220
 1819              	.L229:
 1820 01e6 294C     		ldr	r4, .L287+8
 1821 01e8 0021     		movs	r1, #0
 1822 01ea 2068     		ldr	r0, [r4]
 1823 01ec FFF7FEFF 		bl	clock_sync_callback
 1824 01f0 2068     		ldr	r0, [r4]
 1825 01f2 057C     		ldrb	r5, [r0, #16]
 1826 01f4 012D     		cmp	r5, #1
 1827 01f6 00D0     		beq	.LCB1902
 1828 01f8 82E7     		b	.L220	@long jump
 1829              	.LCB1902:
 1830 01fa FFF7FEFF 		bl	clock_sync_is_time_valid
 1831 01fe 0028     		cmp	r0, #0
 1832 0200 00D0     		beq	.LCB1906
 1833 0202 7DE7     		b	.L220	@long jump
 1834              	.LCB1906:
 1835 0204 01AC     		add	r4, sp, #4
 1836 0206 2000     		movs	r0, r4
 1837 0208 FFF7FEFF 		bl	get_dm_retrieve_pending_dl
 1838 020c 2378     		ldrb	r3, [r4]
 1839 020e 002B     		cmp	r3, #0
 1840 0210 00D0     		beq	.LCB1912
 1841 0212 75E7     		b	.L220	@long jump
 1842              	.LCB1912:
 1843 0214 0821     		movs	r1, #8
 1844 0216 0320     		movs	r0, #3
 1845 0218 FFF7FEFF 		bl	smtc_modem_hal_get_random_nb_in_range
 1846 021c C1B2     		uxtb	r1, r0
 1847 021e 6170     		strb	r1, [r4, #1]
 1848 0220 2800     		movs	r0, r5
 1849 0222 FFF7FEFF 		bl	set_dm_retrieve_pending_dl
 1850 0226 6078     		ldrb	r0, [r4, #1]
 1851 0228 DAE7     		b	.L286
 1852              	.L228:
 1853 022a 204B     		ldr	r3, .L287+40
 1854 022c 1868     		ldr	r0, [r3]
 1855 022e FFF7FEFF 		bl	alc_sync_get_nb_transmission
 1856 0232 0028     		cmp	r0, #0
 1857 0234 00D1     		bne	.LCB1931
 1858 0236 63E7     		b	.L220	@long jump
 1859              	.LCB1931:
 1860 0238 9621     		movs	r1, #150
 1861 023a 8020     		movs	r0, #128
 1862 023c FFF7FEFF 		bl	smtc_modem_hal_get_random_nb_in_range
 1863 0240 FFF7FEFF 		bl	modem_supervisor_add_task_alc_sync_ans
 1864 0244 5CE7     		b	.L220
 1865              	.L227:
 1866 0246 6B46     		mov	r3, sp
 1867 0248 01A9     		add	r1, sp, #4
 1868 024a D81C     		adds	r0, r3, #3
 1869 024c FFF7FEFF 		bl	lorawan_api_get_link_check_ans
 1870 0250 4342     		rsbs	r3, r0, #0
 1871 0252 5841     		adcs	r0, r0, r3
 1872 0254 C1B2     		uxtb	r1, r0
ARM GAS  /tmp/ccI8rJG2.s 			page 36


 1873 0256 1020     		movs	r0, #16
 1874 0258 AEE7     		b	.L282
 1875              	.L226:
 1876 025a FFF7FEFF 		bl	lorawan_api_get_device_time_req_status
 1877 025e 0121     		movs	r1, #1
 1878 0260 0028     		cmp	r0, #0
 1879 0262 03D0     		beq	.L253
 1880 0264 FFF7FEFF 		bl	lorawan_api_is_time_valid
 1881 0268 4100     		lsls	r1, r0, #1
 1882 026a C9B2     		uxtb	r1, r1
 1883              	.L253:
 1884 026c 0D20     		movs	r0, #13
 1885 026e A3E7     		b	.L282
 1886              	.L225:
 1887 0270 FFF7FEFF 		bl	lorawan_api_get_ping_slot_info_req_status
 1888 0274 0028     		cmp	r0, #0
 1889 0276 02D1     		bne	.L254
 1890 0278 0121     		movs	r1, #1
 1891 027a 1330     		adds	r0, r0, #19
 1892 027c 9CE7     		b	.L282
 1893              	.L254:
 1894 027e 0021     		movs	r1, #0
 1895 0280 1320     		movs	r0, #19
 1896 0282 99E7     		b	.L282
 1897              	.L288:
 1898              		.align	2
 1899              	.L287:
 1900 0284 00000000 		.word	is_first_dm_after_join
 1901 0288 00000000 		.word	is_pending_dm_status_payload_periodic
 1902 028c 00000000 		.word	clock_sync_context
 1903 0290 00000000 		.word	is_pending_dm_status_payload_now
 1904 0294 00000000 		.word	send_task_update_needed
 1905 0298 00000000 		.word	file_upload_context
 1906 029c 00000000 		.word	.LC120
 1907 02a0 19000000 		.word	.LC2
 1908 02a4 00000000 		.word	ROSE
 1909 02a8 3D000000 		.word	.LC124
 1910 02ac 00000000 		.word	alc_sync_context
 1912              		.section	.text.modem_supervisor_scheduler,"ax",%progbits
 1913              		.align	1
 1914              		.global	modem_supervisor_scheduler
 1915              		.syntax unified
 1916              		.code	16
 1917              		.thumb_func
 1919              	modem_supervisor_scheduler:
 1920              		@ args = 0, pretend = 0, frame = 24
 1921              		@ frame_needed = 0, uses_anonymous_args = 0
 1922 0000 F0B5     		push	{r4, r5, r6, r7, lr}
 1923 0002 87B0     		sub	sp, sp, #28
 1924 0004 FFF7FEFF 		bl	lorawan_api_state_get
 1925 0008 0190     		str	r0, [sp, #4]
 1926 000a 0028     		cmp	r0, #0
 1927 000c 57D1     		bne	.L302
 1928 000e 9227     		movs	r7, #146
 1929 0010 2C4C     		ldr	r4, .L314
 1930 0012 FF37     		adds	r7, r7, #255
 1931 0014 E05D     		ldrb	r0, [r4, r7]
ARM GAS  /tmp/ccI8rJG2.s 			page 37


 1932 0016 0528     		cmp	r0, #5
 1933 0018 03D0     		beq	.L291
 1934 001a FFF7FEFF 		bl	modem_supervisor_update_task
 1935 001e 0523     		movs	r3, #5
 1936 0020 E355     		strb	r3, [r4, r7]
 1937              	.L291:
 1938 0022 0023     		movs	r3, #0
 1939 0024 2600     		movs	r6, r4
 1940 0026 0293     		str	r3, [sp, #8]
 1941 0028 274D     		ldr	r5, .L314+4
 1942 002a 0433     		adds	r3, r3, #4
 1943 002c 0394     		str	r4, [sp, #12]
 1944 002e 0493     		str	r3, [sp, #16]
 1945              	.L295:
 1946 0030 337A     		ldrb	r3, [r6, #8]
 1947 0032 042B     		cmp	r3, #4
 1948 0034 0FD0     		beq	.L294
 1949 0036 7368     		ldr	r3, [r6, #4]
 1950 0038 0593     		str	r3, [sp, #20]
 1951 003a FFF7FEFF 		bl	smtc_modem_hal_get_time_in_s
 1952 003e 059B     		ldr	r3, [sp, #20]
 1953 0040 1A1A     		subs	r2, r3, r0
 1954 0042 002A     		cmp	r2, #0
 1955 0044 07DC     		bgt	.L294
 1956 0046 337A     		ldrb	r3, [r6, #8]
 1957 0048 0499     		ldr	r1, [sp, #16]
 1958 004a 8B42     		cmp	r3, r1
 1959 004c 03D2     		bcs	.L294
 1960 004e 1500     		movs	r5, r2
 1961 0050 0299     		ldr	r1, [sp, #8]
 1962 0052 0493     		str	r3, [sp, #16]
 1963 0054 E155     		strb	r1, [r4, r7]
 1964              	.L294:
 1965 0056 029B     		ldr	r3, [sp, #8]
 1966 0058 1436     		adds	r6, r6, #20
 1967 005a 0133     		adds	r3, r3, #1
 1968 005c DBB2     		uxtb	r3, r3
 1969 005e 0293     		str	r3, [sp, #8]
 1970 0060 142B     		cmp	r3, #20
 1971 0062 E5D1     		bne	.L295
 1972 0064 049B     		ldr	r3, [sp, #16]
 1973 0066 042B     		cmp	r3, #4
 1974 0068 17D1     		bne	.L296
 1975              	.L300:
 1976 006a 039B     		ldr	r3, [sp, #12]
 1977 006c 1B7A     		ldrb	r3, [r3, #8]
 1978 006e 042B     		cmp	r3, #4
 1979 0070 09D0     		beq	.L299
 1980 0072 039B     		ldr	r3, [sp, #12]
 1981 0074 5E68     		ldr	r6, [r3, #4]
 1982 0076 FFF7FEFF 		bl	smtc_modem_hal_get_time_in_s
 1983 007a 361A     		subs	r6, r6, r0
 1984 007c AE42     		cmp	r6, r5
 1985 007e 02DA     		bge	.L299
 1986 0080 3500     		movs	r5, r6
 1987 0082 019B     		ldr	r3, [sp, #4]
 1988 0084 E355     		strb	r3, [r4, r7]
ARM GAS  /tmp/ccI8rJG2.s 			page 38


 1989              	.L299:
 1990 0086 019B     		ldr	r3, [sp, #4]
 1991 0088 0133     		adds	r3, r3, #1
 1992 008a DBB2     		uxtb	r3, r3
 1993 008c 0193     		str	r3, [sp, #4]
 1994 008e 039B     		ldr	r3, [sp, #12]
 1995 0090 1433     		adds	r3, r3, #20
 1996 0092 0393     		str	r3, [sp, #12]
 1997 0094 019B     		ldr	r3, [sp, #4]
 1998 0096 142B     		cmp	r3, #20
 1999 0098 E7D1     		bne	.L300
 2000              	.L296:
 2001 009a 002D     		cmp	r5, #0
 2002 009c 0ADD     		ble	.L301
 2003 009e FA20     		movs	r0, #250
 2004 00a0 CA23     		movs	r3, #202
 2005 00a2 8000     		lsls	r0, r0, #2
 2006 00a4 5B00     		lsls	r3, r3, #1
 2007 00a6 6843     		muls	r0, r5
 2008 00a8 E550     		str	r5, [r4, r3]
 2009 00aa 903B     		subs	r3, r3, #144
 2010 00ac FF3B     		subs	r3, r3, #255
 2011 00ae E355     		strb	r3, [r4, r7]
 2012              	.L289:
 2013 00b0 07B0     		add	sp, sp, #28
 2014              		@ sp needed
 2015 00b2 F0BD     		pop	{r4, r5, r6, r7, pc}
 2016              	.L301:
 2017 00b4 E05D     		ldrb	r0, [r4, r7]
 2018 00b6 FFF7FEFF 		bl	modem_supervisor_launch_task
 2019 00ba 0020     		movs	r0, #0
 2020 00bc F8E7     		b	.L289
 2021              	.L302:
 2022 00be C820     		movs	r0, #200
 2023 00c0 4000     		lsls	r0, r0, #1
 2024 00c2 F5E7     		b	.L289
 2025              	.L315:
 2026              		.align	2
 2027              	.L314:
 2028 00c4 00000000 		.word	task_manager
 2029 00c8 FFFF1F00 		.word	2097151
 2031              		.section	.rodata.modem_supervisor_engine.str1.1,"aMS",%progbits,1
 2032              	.LC131:
 2033 0000 1B5B303B 		.ascii	"\033[0;33mWARN: Duty Cycle, remaining time: %dms\012"
 2033      33336D57 
 2033      41524E3A 
 2033      20447574 
 2033      79204379 
 2034 002e 00       		.ascii	"\000"
 2035              		.section	.text.modem_supervisor_engine,"ax",%progbits
 2036              		.align	1
 2037              		.global	modem_supervisor_engine
 2038              		.syntax unified
 2039              		.code	16
 2040              		.thumb_func
 2042              	modem_supervisor_engine:
 2043              		@ args = 0, pretend = 0, frame = 8
ARM GAS  /tmp/ccI8rJG2.s 			page 39


 2044              		@ frame_needed = 0, uses_anonymous_args = 0
 2045 0000 73B5     		push	{r0, r1, r4, r5, r6, lr}
 2046 0002 FFF7FEFF 		bl	get_modem_reset_requested
 2047 0006 0028     		cmp	r0, #0
 2048 0008 03D0     		beq	.L317
 2049 000a FFF7FEFF 		bl	smtc_modem_hal_disable_modem_irq
 2050 000e FFF7FEFF 		bl	smtc_modem_hal_reset_mcu
 2051              	.L317:
 2052 0012 FFF7FEFF 		bl	modem_get_user_alarm
 2053 0016 041E     		subs	r4, r0, #0
 2054 0018 10D0     		beq	.L319
 2055 001a FFF7FEFF 		bl	smtc_modem_hal_get_time_in_s
 2056 001e 241A     		subs	r4, r4, r0
 2057 0020 002C     		cmp	r4, #0
 2058 0022 0CDC     		bgt	.L320
 2059 0024 0021     		movs	r1, #0
 2060 0026 0120     		movs	r0, #1
 2061 0028 FFF7FEFF 		bl	increment_asynchronous_msgnumber
 2062 002c 0020     		movs	r0, #0
 2063 002e FFF7FEFF 		bl	modem_set_user_alarm
 2064 0032 514B     		ldr	r3, .L381
 2065 0034 1B68     		ldr	r3, [r3]
 2066 0036 002B     		cmp	r3, #0
 2067 0038 00D0     		beq	.L319
 2068 003a 9847     		blx	r3
 2069              	.L319:
 2070 003c 4F4C     		ldr	r4, .L381+4
 2071              	.L320:
 2072 003e FFF7FEFF 		bl	lorawan_api_state_get
 2073 0042 0028     		cmp	r0, #0
 2074 0044 08D0     		beq	.L322
 2075 0046 0538     		subs	r0, r0, #5
 2076 0048 C0B2     		uxtb	r0, r0
 2077 004a 0128     		cmp	r0, #1
 2078 004c 04D9     		bls	.L322
 2079 004e FFF7FEFF 		bl	lorawan_api_process
 2080 0052 C820     		movs	r0, #200
 2081 0054 4000     		lsls	r0, r0, #1
 2082              	.L316:
 2083              		@ sp needed
 2084 0056 76BD     		pop	{r1, r2, r4, r5, r6, pc}
 2085              	.L322:
 2086 0058 FFF7FEFF 		bl	get_modem_adr_profile
 2087 005c 0500     		movs	r5, r0
 2088 005e FFF7FEFF 		bl	modem_get_adr_mobile_timeout_config
 2089 0062 0600     		movs	r6, r0
 2090 0064 FFF7FEFF 		bl	lorawan_api_get_current_no_rx_packet_in_mobile_mode_cnt
 2091 0068 8642     		cmp	r6, r0
 2092 006a 69D2     		bcs	.L324
 2093 006c 002D     		cmp	r5, #0
 2094 006e 08D1     		bne	.L325
 2095              	.L329:
 2096 0070 FFF7FEFF 		bl	modem_available_new_link_adr_request
 2097 0074 0028     		cmp	r0, #0
 2098 0076 11D0     		beq	.L331
 2099 0078 0021     		movs	r1, #0
 2100 007a 0F20     		movs	r0, #15
ARM GAS  /tmp/ccI8rJG2.s 			page 40


 2101 007c FFF7FEFF 		bl	increment_asynchronous_msgnumber
 2102 0080 0CE0     		b	.L331
 2103              	.L325:
 2104 0082 002E     		cmp	r6, #0
 2105 0084 5ED0     		beq	.L328
 2106              	.L330:
 2107 0086 0022     		movs	r2, #0
 2108 0088 1100     		movs	r1, r2
 2109 008a 1000     		movs	r0, r2
 2110 008c FFF7FEFF 		bl	set_modem_adr_profile
 2111 0090 0021     		movs	r1, #0
 2112 0092 0E20     		movs	r0, #14
 2113 0094 FFF7FEFF 		bl	increment_asynchronous_msgnumber
 2114 0098 002D     		cmp	r5, #0
 2115 009a E9D0     		beq	.L329
 2116              	.L331:
 2117 009c FFF7FEFF 		bl	lorawan_api_get_class_b_status
 2118 00a0 374D     		ldr	r5, .L381+8
 2119 00a2 2B78     		ldrb	r3, [r5]
 2120 00a4 8342     		cmp	r3, r0
 2121 00a6 13D0     		beq	.L332
 2122 00a8 2870     		strb	r0, [r5]
 2123 00aa 01A8     		add	r0, sp, #4
 2124 00ac FFF7FEFF 		bl	get_dm_retrieve_pending_dl
 2125 00b0 6B46     		mov	r3, sp
 2126 00b2 1B79     		ldrb	r3, [r3, #4]
 2127 00b4 002B     		cmp	r3, #0
 2128 00b6 04D1     		bne	.L333
 2129 00b8 6B46     		mov	r3, sp
 2130 00ba 0120     		movs	r0, #1
 2131 00bc 5979     		ldrb	r1, [r3, #5]
 2132 00be FFF7FEFF 		bl	set_dm_retrieve_pending_dl
 2133              	.L333:
 2134 00c2 0120     		movs	r0, #1
 2135 00c4 FFF7FEFF 		bl	modem_supervisor_add_task_retrieve_dl
 2136 00c8 1420     		movs	r0, #20
 2137 00ca 2978     		ldrb	r1, [r5]
 2138 00cc FFF7FEFF 		bl	increment_asynchronous_msgnumber
 2139              	.L332:
 2140 00d0 9225     		movs	r5, #146
 2141 00d2 2C4E     		ldr	r6, .L381+12
 2142 00d4 FF35     		adds	r5, r5, #255
 2143 00d6 705D     		ldrb	r0, [r6, r5]
 2144 00d8 0528     		cmp	r0, #5
 2145 00da 03D0     		beq	.L339
 2146 00dc FFF7FEFF 		bl	modem_supervisor_update_task
 2147 00e0 0523     		movs	r3, #5
 2148 00e2 7355     		strb	r3, [r6, r5]
 2149              	.L339:
 2150 00e4 FFF7FEFF 		bl	get_asynchronous_msgnumber
 2151 00e8 0028     		cmp	r0, #0
 2152 00ea 05D0     		beq	.L336
 2153 00ec FFF7FEFF 		bl	lorawan_api_modem_certification_is_enabled
 2154 00f0 0128     		cmp	r0, #1
 2155 00f2 2CD1     		bne	.L337
 2156 00f4 FFF7FEFF 		bl	certification_event_handler
 2157              	.L336:
ARM GAS  /tmp/ccI8rJG2.s 			page 41


 2158 00f8 FFF7FEFF 		bl	get_asynchronous_msgnumber
 2159 00fc 0500     		movs	r5, r0
 2160 00fe FFF7FEFF 		bl	get_asynchronous_msgnumber
 2161 0102 A842     		cmp	r0, r5
 2162 0104 EED8     		bhi	.L339
 2163 0106 FFF7FEFF 		bl	lorawan_api_next_free_duty_cycle_ms_get
 2164 010a 051E     		subs	r5, r0, #0
 2165 010c 25DD     		ble	.L340
 2166 010e 1E48     		ldr	r0, .L381+16
 2167 0110 2900     		movs	r1, r5
 2168 0112 FFF7FEFF 		bl	smtc_modem_hal_print_trace
 2169 0116 1D48     		ldr	r0, .L381+20
 2170 0118 FFF7FEFF 		bl	smtc_modem_hal_print_trace
 2171              	.L341:
 2172 011c FFF7FEFF 		bl	modem_get_user_alarm
 2173 0120 061E     		subs	r6, r0, #0
 2174 0122 05D0     		beq	.L344
 2175 0124 FFF7FEFF 		bl	smtc_modem_hal_get_time_in_s
 2176 0128 341A     		subs	r4, r6, r0
 2177 012a E343     		mvns	r3, r4
 2178 012c DB17     		asrs	r3, r3, #31
 2179 012e 1C40     		ands	r4, r3
 2180              	.L344:
 2181 0130 FA20     		movs	r0, #250
 2182 0132 8000     		lsls	r0, r0, #2
 2183 0134 6043     		muls	r0, r4
 2184 0136 A842     		cmp	r0, r5
 2185 0138 00D8     		bhi	.LCB2308
 2186 013a 8CE7     		b	.L316	@long jump
 2187              	.LCB2308:
 2188 013c 2800     		movs	r0, r5
 2189 013e 8AE7     		b	.L316
 2190              	.L324:
 2191 0140 002D     		cmp	r5, #0
 2192 0142 95D0     		beq	.L329
 2193              	.L328:
 2194 0144 FFF7FEFF 		bl	lorawan_api_dr_strategy_get
 2195 0148 0028     		cmp	r0, #0
 2196 014a 9CD0     		beq	.L330
 2197 014c A6E7     		b	.L331
 2198              	.L337:
 2199 014e 0A4B     		ldr	r3, .L381
 2200 0150 1B68     		ldr	r3, [r3]
 2201 0152 002B     		cmp	r3, #0
 2202 0154 D0D0     		beq	.L336
 2203 0156 9847     		blx	r3
 2204 0158 CEE7     		b	.L336
 2205              	.L340:
 2206 015a FFF7FEFF 		bl	get_modem_suspend
 2207 015e 0028     		cmp	r0, #0
 2208 0160 01D0     		beq	.L342
 2209              	.L343:
 2210 0162 0B4D     		ldr	r5, .L381+24
 2211 0164 DAE7     		b	.L341
 2212              	.L342:
 2213 0166 FFF7FEFF 		bl	get_modem_muted
 2214 016a FF28     		cmp	r0, #255
ARM GAS  /tmp/ccI8rJG2.s 			page 42


 2215 016c F9D0     		beq	.L343
 2216 016e FFF7FEFF 		bl	modem_supervisor_scheduler
 2217 0172 0500     		movs	r5, r0
 2218 0174 D2E7     		b	.L341
 2219              	.L382:
 2220 0176 C046     		.align	2
 2221              	.L381:
 2222 0178 00000000 		.word	app_callback
 2223 017c FFFFFF7F 		.word	2147483647
 2224 0180 00000000 		.word	class_b_bit
 2225 0184 00000000 		.word	task_manager
 2226 0188 00000000 		.word	.LC131
 2227 018c 19000000 		.word	.LC2
 2228 0190 FEFFFF7F 		.word	2147483646
 2230              		.section	.text.modem_supervisor_update_downlink_frame,"ax",%progbits
 2231              		.align	1
 2232              		.global	modem_supervisor_update_downlink_frame
 2233              		.syntax unified
 2234              		.code	16
 2235              		.thumb_func
 2237              	modem_supervisor_update_downlink_frame:
 2238              		@ args = 0, pretend = 0, frame = 264
 2239              		@ frame_needed = 0, uses_anonymous_args = 0
 2240 0000 F0B5     		push	{r4, r5, r6, r7, lr}
 2241 0002 0400     		movs	r4, r0
 2242 0004 0E00     		movs	r6, r1
 2243 0006 1500     		movs	r5, r2
 2244 0008 C3B0     		sub	sp, sp, #268
 2245 000a 002B     		cmp	r3, #0
 2246 000c 0ED0     		beq	.L384
 2247 000e 6846     		mov	r0, sp
 2248 0010 FFF7FEFF 		bl	get_dm_retrieve_pending_dl
 2249 0014 6B46     		mov	r3, sp
 2250 0016 1B78     		ldrb	r3, [r3]
 2251 0018 002B     		cmp	r3, #0
 2252 001a 04D1     		bne	.L385
 2253 001c 6B46     		mov	r3, sp
 2254 001e 0120     		movs	r0, #1
 2255 0020 5978     		ldrb	r1, [r3, #1]
 2256 0022 FFF7FEFF 		bl	set_dm_retrieve_pending_dl
 2257              	.L385:
 2258 0026 0120     		movs	r0, #1
 2259 0028 FFF7FEFF 		bl	modem_supervisor_add_task_retrieve_dl
 2260              	.L384:
 2261 002c 2A00     		movs	r2, r5
 2262 002e 3100     		movs	r1, r6
 2263 0030 2000     		movs	r0, r4
 2264 0032 FFF7FEFF 		bl	set_modem_downlink_frame
 2265 0036 6846     		mov	r0, sp
 2266 0038 FFF7FEFF 		bl	get_modem_downlink_frame
 2267 003c 6B7A     		ldrb	r3, [r5, #9]
 2268 003e 0D2B     		cmp	r3, #13
 2269 0040 02D1     		bne	.L386
 2270              	.L389:
 2271 0042 0120     		movs	r0, #1
 2272              	.L387:
 2273 0044 43B0     		add	sp, sp, #268
ARM GAS  /tmp/ccI8rJG2.s 			page 43


 2274              		@ sp needed
 2275 0046 F0BD     		pop	{r4, r5, r6, r7, pc}
 2276              	.L386:
 2277 0048 6B46     		mov	r3, sp
 2278 004a 1C78     		ldrb	r4, [r3]
 2279 004c FFF7FEFF 		bl	get_modem_dm_port
 2280 0050 8442     		cmp	r4, r0
 2281 0052 08D1     		bne	.L388
 2282 0054 F323     		movs	r3, #243
 2283 0056 6B44     		add	r3, r3, sp
 2284 0058 1978     		ldrb	r1, [r3]
 2285 005a 6B46     		mov	r3, sp
 2286 005c 581C     		adds	r0, r3, #1
 2287 005e FFF7FEFF 		bl	dm_downlink
 2288              	.L391:
 2289 0062 0020     		movs	r0, #0
 2290 0064 EEE7     		b	.L387
 2291              	.L388:
 2292 0066 6B46     		mov	r3, sp
 2293 0068 394C     		ldr	r4, .L428
 2294 006a 1E78     		ldrb	r6, [r3]
 2295 006c 2068     		ldr	r0, [r4]
 2296 006e FFF7FEFF 		bl	clock_sync_get_alcsync_port
 2297 0072 8642     		cmp	r6, r0
 2298 0074 E5D1     		bne	.L389
 2299 0076 6B7A     		ldrb	r3, [r5, #9]
 2300 0078 5A1E     		subs	r2, r3, #1
 2301 007a 022A     		cmp	r2, #2
 2302 007c 01D9     		bls	.L390
 2303 007e 082B     		cmp	r3, #8
 2304 0080 EFD1     		bne	.L391
 2305              	.L390:
 2306 0082 F323     		movs	r3, #243
 2307 0084 6B44     		add	r3, r3, sp
 2308 0086 1A78     		ldrb	r2, [r3]
 2309 0088 6B46     		mov	r3, sp
 2310 008a 324D     		ldr	r5, .L428+4
 2311 008c 591C     		adds	r1, r3, #1
 2312 008e 2868     		ldr	r0, [r5]
 2313 0090 FFF7FEFF 		bl	alc_sync_parser
 2314 0094 0600     		movs	r6, r0
 2315 0096 8307     		lsls	r3, r0, #30
 2316 0098 28D5     		bpl	.L393
 2317 009a 0121     		movs	r1, #1
 2318 009c 2B68     		ldr	r3, [r5]
 2319 009e 0D20     		movs	r0, #13
 2320 00a0 2933     		adds	r3, r3, #41
 2321 00a2 1970     		strb	r1, [r3]
 2322 00a4 FFF7FEFF 		bl	increment_asynchronous_msgnumber
 2323 00a8 FFF7FEFF 		bl	modem_supervisor_remove_task_clock_sync
 2324 00ac 2068     		ldr	r0, [r4]
 2325 00ae FFF7FEFF 		bl	clock_sync_is_enabled
 2326 00b2 0028     		cmp	r0, #0
 2327 00b4 1AD0     		beq	.L393
 2328 00b6 2068     		ldr	r0, [r4]
 2329 00b8 FFF7FEFF 		bl	clock_sync_get_interval_second
 2330 00bc 0500     		movs	r5, r0
ARM GAS  /tmp/ccI8rJG2.s 			page 44


 2331 00be 2068     		ldr	r0, [r4]
 2332 00c0 FFF7FEFF 		bl	clock_sync_get_time_left_connection_lost
 2333 00c4 8542     		cmp	r5, r0
 2334 00c6 3BD2     		bcs	.L395
 2335 00c8 2068     		ldr	r0, [r4]
 2336 00ca FFF7FEFF 		bl	clock_sync_get_interval_second
 2337              	.L426:
 2338 00ce 1E27     		movs	r7, #30
 2339 00d0 0500     		movs	r5, r0
 2340 00d2 7F42     		rsbs	r7, r7, #0
 2341              	.L398:
 2342 00d4 1E21     		movs	r1, #30
 2343 00d6 3800     		movs	r0, r7
 2344 00d8 FFF7FEFF 		bl	smtc_modem_hal_get_signed_random_nb_in_range
 2345 00dc 0028     		cmp	r0, #0
 2346 00de 02DA     		bge	.L397
 2347 00e0 4342     		rsbs	r3, r0, #0
 2348 00e2 AB42     		cmp	r3, r5
 2349 00e4 F6D8     		bhi	.L398
 2350              	.L397:
 2351 00e6 4019     		adds	r0, r0, r5
 2352 00e8 FFF7FEFF 		bl	modem_supervisor_add_task_clock_sync_time_req
 2353              	.L393:
 2354 00ec 0223     		movs	r3, #2
 2355 00ee 3200     		movs	r2, r6
 2356 00f0 9A43     		bics	r2, r3
 2357 00f2 B6D0     		beq	.L391
 2358 00f4 7607     		lsls	r6, r6, #29
 2359 00f6 1FD5     		bpl	.L401
 2360 00f8 2068     		ldr	r0, [r4]
 2361 00fa FFF7FEFF 		bl	clock_sync_is_enabled
 2362 00fe 0028     		cmp	r0, #0
 2363 0100 1AD0     		beq	.L401
 2364 0102 2068     		ldr	r0, [r4]
 2365 0104 FFF7FEFF 		bl	clock_sync_get_interval_second
 2366 0108 0500     		movs	r5, r0
 2367 010a 2068     		ldr	r0, [r4]
 2368 010c FFF7FEFF 		bl	clock_sync_get_time_left_connection_lost
 2369 0110 8542     		cmp	r5, r0
 2370 0112 19D2     		bcs	.L403
 2371 0114 2068     		ldr	r0, [r4]
 2372 0116 FFF7FEFF 		bl	clock_sync_get_interval_second
 2373              	.L427:
 2374 011a 1E25     		movs	r5, #30
 2375 011c 0400     		movs	r4, r0
 2376 011e 6D42     		rsbs	r5, r5, #0
 2377              	.L406:
 2378 0120 1E21     		movs	r1, #30
 2379 0122 2800     		movs	r0, r5
 2380 0124 FFF7FEFF 		bl	smtc_modem_hal_get_signed_random_nb_in_range
 2381 0128 0028     		cmp	r0, #0
 2382 012a 02DA     		bge	.L405
 2383 012c 4342     		rsbs	r3, r0, #0
 2384 012e A342     		cmp	r3, r4
 2385 0130 F6D8     		bhi	.L406
 2386              	.L405:
 2387 0132 0019     		adds	r0, r0, r4
ARM GAS  /tmp/ccI8rJG2.s 			page 45


 2388 0134 FFF7FEFF 		bl	modem_supervisor_add_task_clock_sync_time_req
 2389              	.L401:
 2390 0138 0120     		movs	r0, #1
 2391 013a FFF7FEFF 		bl	modem_supervisor_add_task_alc_sync_ans
 2392 013e 90E7     		b	.L391
 2393              	.L395:
 2394 0140 2068     		ldr	r0, [r4]
 2395 0142 FFF7FEFF 		bl	clock_sync_get_time_left_connection_lost
 2396 0146 C2E7     		b	.L426
 2397              	.L403:
 2398 0148 2068     		ldr	r0, [r4]
 2399 014a FFF7FEFF 		bl	clock_sync_get_time_left_connection_lost
 2400 014e E4E7     		b	.L427
 2401              	.L429:
 2402              		.align	2
 2403              	.L428:
 2404 0150 00000000 		.word	clock_sync_context
 2405 0154 00000000 		.word	alc_sync_context
 2407              		.section	.bss.class_b_bit,"aw",%nobits
 2410              	class_b_bit:
 2411 0000 00       		.space	1
 2412              		.section	.bss.certification_data_is_pending,"aw",%nobits
 2415              	certification_data_is_pending:
 2416 0000 00       		.space	1
 2417              		.section	.data.user_port,"aw"
 2420              	user_port:
 2421 0000 01       		.byte	1
 2422              		.section	.bss.user_payload,"aw",%nobits
 2423              		.align	2
 2426              	user_payload:
 2427 0000 00000000 		.space	242
 2427      00000000 
 2427      00000000 
 2427      00000000 
 2427      00000000 
 2428              		.section	.data.user_payload_length,"aw"
 2431              	user_payload_length:
 2432 0000 0A       		.byte	10
 2433              		.section	.bss.file_upload_context,"aw",%nobits
 2434              		.align	2
 2437              	file_upload_context:
 2438 0000 00000000 		.space	4
 2439              		.section	.bss.ROSE,"aw",%nobits
 2440              		.align	2
 2443              	ROSE:
 2444 0000 00000000 		.space	4
 2445              		.section	.bss.clock_sync_context,"aw",%nobits
 2446              		.align	2
 2449              	clock_sync_context:
 2450 0000 00000000 		.space	4
 2451              		.section	.bss.alc_sync_context,"aw",%nobits
 2452              		.align	2
 2455              	alc_sync_context:
 2456 0000 00000000 		.space	4
 2457              		.section	.bss.app_callback,"aw",%nobits
 2458              		.align	2
 2461              	app_callback:
ARM GAS  /tmp/ccI8rJG2.s 			page 46


 2462 0000 00000000 		.space	4
 2463              		.section	.bss.send_task_update_needed,"aw",%nobits
 2466              	send_task_update_needed:
 2467 0000 00       		.space	1
 2468              		.section	.data.is_first_dm_after_join,"aw"
 2471              	is_first_dm_after_join:
 2472 0000 01       		.byte	1
 2473              		.section	.bss.is_pending_dm_status_payload_now,"aw",%nobits
 2476              	is_pending_dm_status_payload_now:
 2477 0000 00       		.space	1
 2478              		.section	.bss.is_pending_dm_status_payload_periodic,"aw",%nobits
 2481              	is_pending_dm_status_payload_periodic:
 2482 0000 00       		.space	1
 2483              		.section	.bss.task_manager,"aw",%nobits
 2484              		.align	2
 2487              	task_manager:
 2488 0000 00000000 		.space	408
 2488      00000000 
 2488      00000000 
 2488      00000000 
 2488      00000000 
 2489              		.ident	"GCC: (Arch Repository) 13.2.0"
ARM GAS  /tmp/ccI8rJG2.s 			page 47

