ARM GAS  /tmp/ccHTTdmI.s 			page 1


   1              		.cpu cortex-m0
   2              		.arch armv6s-m
   3              		.fpu softvfp
   4              		.eabi_attribute 23, 1
   5              		.eabi_attribute 24, 1
   6              		.eabi_attribute 25, 1
   7              		.eabi_attribute 26, 1
   8              		.eabi_attribute 30, 4
   9              		.eabi_attribute 34, 0
  10              		.eabi_attribute 18, 4
  11              		.file	"modem_context.c"
  12              		.text
  13              		.section	.text.modem_context_empty_callback,"ax",%progbits
  14              		.align	1
  15              		.global	modem_context_empty_callback
  16              		.syntax unified
  17              		.code	16
  18              		.thumb_func
  20              	modem_context_empty_callback:
  21              		@ args = 0, pretend = 0, frame = 0
  22              		@ frame_needed = 0, uses_anonymous_args = 0
  23              		@ link register save eliminated.
  24              		@ sp needed
  25 0000 7047     		bx	lr
  27              		.section	.text.modem_context_init,"ax",%progbits
  28              		.align	1
  29              		.global	modem_context_init
  30              		.syntax unified
  31              		.code	16
  32              		.thumb_func
  34              	modem_context_init:
  35              		@ args = 0, pretend = 0, frame = 0
  36              		@ frame_needed = 0, uses_anonymous_args = 0
  37 0000 10B5     		push	{r4, lr}
  38 0002 0024     		movs	r4, #0
  39              		@ sp needed
  40 0004 8122     		movs	r2, #129
  41 0006 334B     		ldr	r3, .L3
  42 0008 1C70     		strb	r4, [r3]
  43 000a 334B     		ldr	r3, .L3+4
  44 000c 1A70     		strb	r2, [r3]
  45 000e 334B     		ldr	r3, .L3+8
  46 0010 4632     		adds	r2, r2, #70
  47 0012 1A70     		strb	r2, [r3]
  48 0014 324B     		ldr	r3, .L3+12
  49 0016 1C70     		strb	r4, [r3]
  50 0018 324B     		ldr	r3, .L3+16
  51 001a 1C70     		strb	r4, [r3]
  52 001c 324B     		ldr	r3, .L3+20
  53 001e 1C60     		str	r4, [r3]
  54 0020 324B     		ldr	r3, .L3+24
  55 0022 1C70     		strb	r4, [r3]
  56 0024 324B     		ldr	r3, .L3+28
  57 0026 1C70     		strb	r4, [r3]
  58 0028 324B     		ldr	r3, .L3+32
  59 002a 1A80     		strh	r2, [r3]
  60 002c 9C70     		strb	r4, [r3, #2]
ARM GAS  /tmp/ccHTTdmI.s 			page 2


  61 002e 324B     		ldr	r3, .L3+36
  62 0030 4C3A     		subs	r2, r2, #76
  63 0032 1A60     		str	r2, [r3]
  64 0034 314B     		ldr	r3, .L3+40
  65 0036 1C60     		str	r4, [r3]
  66 0038 314B     		ldr	r3, .L3+44
  67 003a 1C70     		strb	r4, [r3]
  68 003c 314B     		ldr	r3, .L3+48
  69 003e 1C70     		strb	r4, [r3]
  70 0040 314B     		ldr	r3, .L3+52
  71 0042 1C70     		strb	r4, [r3]
  72 0044 314B     		ldr	r3, .L3+56
  73 0046 1C80     		strh	r4, [r3]
  74 0048 314B     		ldr	r3, .L3+60
  75 004a 1C60     		str	r4, [r3]
  76 004c 314B     		ldr	r3, .L3+64
  77 004e 1C70     		strb	r4, [r3]
  78 0050 314B     		ldr	r3, .L3+68
  79 0052 1C70     		strb	r4, [r3]
  80 0054 314B     		ldr	r3, .L3+72
  81 0056 1C60     		str	r4, [r3]
  82 0058 314B     		ldr	r3, .L3+76
  83 005a 1C70     		strb	r4, [r3]
  84 005c 314B     		ldr	r3, .L3+80
  85 005e 1C80     		strh	r4, [r3]
  86 0060 314B     		ldr	r3, .L3+84
  87 0062 1C70     		strb	r4, [r3]
  88 0064 314B     		ldr	r3, .L3+88
  89 0066 1C70     		strb	r4, [r3]
  90 0068 314B     		ldr	r3, .L3+92
  91 006a 1C70     		strb	r4, [r3]
  92 006c FFF7FEFF 		bl	compute_crc_fw
  93 0070 0122     		movs	r2, #1
  94 0072 304B     		ldr	r3, .L3+96
  95 0074 2100     		movs	r1, r4
  96 0076 1C70     		strb	r4, [r3]
  97 0078 2F4B     		ldr	r3, .L3+100
  98 007a 3048     		ldr	r0, .L3+104
  99 007c 1C80     		strh	r4, [r3]
 100 007e 304B     		ldr	r3, .L3+108
 101 0080 1C70     		strb	r4, [r3]
 102 0082 304B     		ldr	r3, .L3+112
 103 0084 1C70     		strb	r4, [r3]
 104 0086 304B     		ldr	r3, .L3+116
 105 0088 1C70     		strb	r4, [r3]
 106 008a 304B     		ldr	r3, .L3+120
 107 008c 1C60     		str	r4, [r3]
 108 008e 304B     		ldr	r3, .L3+124
 109 0090 1A80     		strh	r2, [r3]
 110 0092 304B     		ldr	r3, .L3+128
 111 0094 0732     		adds	r2, r2, #7
 112 0096 1C60     		str	r4, [r3]
 113 0098 FFF7FEFF 		bl	memset
 114 009c 1922     		movs	r2, #25
 115 009e 2100     		movs	r1, r4
 116 00a0 2D48     		ldr	r0, .L3+132
 117 00a2 FFF7FEFF 		bl	memset
ARM GAS  /tmp/ccHTTdmI.s 			page 3


 118 00a6 1922     		movs	r2, #25
 119 00a8 2100     		movs	r1, r4
 120 00aa 2C48     		ldr	r0, .L3+136
 121 00ac FFF7FEFF 		bl	memset
 122 00b0 1922     		movs	r2, #25
 123 00b2 2100     		movs	r1, r4
 124 00b4 2A48     		ldr	r0, .L3+140
 125 00b6 FFF7FEFF 		bl	memset
 126 00ba 8422     		movs	r2, #132
 127 00bc 2100     		movs	r1, r4
 128 00be 5200     		lsls	r2, r2, #1
 129 00c0 2848     		ldr	r0, .L3+144
 130 00c2 FFF7FEFF 		bl	memset
 131 00c6 1E22     		movs	r2, #30
 132 00c8 8021     		movs	r1, #128
 133 00ca 2748     		ldr	r0, .L3+148
 134 00cc FFF7FEFF 		bl	memset
 135 00d0 10BD     		pop	{r4, pc}
 136              	.L4:
 137 00d2 C046     		.align	2
 138              	.L3:
 139 00d4 00000000 		.word	modem_status
 140 00d8 00000000 		.word	modem_dm_interval
 141 00dc 00000000 		.word	modem_dm_port
 142 00e0 00000000 		.word	modem_dm_class
 143 00e4 00000000 		.word	is_modem_suspend
 144 00e8 00000000 		.word	modem_start_time
 145 00ec 00000000 		.word	modem_dm_upload_sctr
 146 00f0 00000000 		.word	modem_upload_state
 147 00f4 00000000 		.word	modem_stream_state
 148 00f8 00000000 		.word	dm_info_bitfield_periodic
 149 00fc 00000000 		.word	dm_info_bitfield_now
 150 0100 00000000 		.word	tag_number
 151 0104 00000000 		.word	tag_number_now
 152 0108 00000000 		.word	number_of_muted_day
 153 010c 00000000 		.word	dm_pending_dl
 154 0110 00000000 		.word	user_alarm
 155 0114 00000000 		.word	asynchronous_msgnumber
 156 0118 00000000 		.word	is_modem_reset_requested
 157 011c 00000000 		.word	modem_charge_offset
 158 0120 00000000 		.word	start_time_was_set
 159 0124 00000000 		.word	user_define_charge_counter
 160 0128 00000000 		.word	charge_counter_to_send
 161 012c 00000000 		.word	modem_rf_output
 162 0130 00000000 		.word	duty_cycle_disabled_by_host
 163 0134 00000000 		.word	modem_adr_profile
 164 0138 00000000 		.word	nb_adr_mobile_timeout
 165 013c 00000000 		.word	modem_appstatus
 166 0140 00000000 		.word	is_modem_in_test_mode
 167 0144 00000000 		.word	rx_pathloss_db
 168 0148 00000000 		.word	tx_power_offset_db
 169 014c 00000000 		.word	modem_rp
 170 0150 00000000 		.word	modem_appkey_status
 171 0154 00000000 		.word	modem_appkey_crc
 172 0158 00000000 		.word	modem_event_count
 173 015c 00000000 		.word	modem_event_status
 174 0160 00000000 		.word	asynch_msg
ARM GAS  /tmp/ccHTTdmI.s 			page 4


 175 0164 00000000 		.word	modem_dwn_pkt
 176 0168 00000000 		.word	power_config_lut
 178              		.section	.rodata.get_modem_event_count.str1.1,"aMS",%progbits,1
 179              	.LC39:
 180 0000 1B5B303B 		.ascii	"\033[0;31mERROR: crash log :%s\012\015\000"
 180      33316D45 
 180      52524F52 
 180      3A206372 
 180      61736820 
 181              	.LC41:
 182 001e 1B5B306D 		.ascii	"\033[0m\000"
 182      00
 183              	.LC43:
 184 0023 1B5B303B 		.ascii	"\033[0;31mERROR: -> \000"
 184      33316D45 
 184      52524F52 
 184      3A202D3E 
 184      2000
 185              		.section	.text.get_modem_event_count,"ax",%progbits
 186              		.align	1
 187              		.global	get_modem_event_count
 188              		.syntax unified
 189              		.code	16
 190              		.thumb_func
 192              	get_modem_event_count:
 193              		@ args = 0, pretend = 0, frame = 0
 194              		@ frame_needed = 0, uses_anonymous_args = 0
 195 0000 70B5     		push	{r4, r5, r6, lr}
 196 0002 0400     		movs	r4, r0
 197 0004 1828     		cmp	r0, #24
 198 0006 16D9     		bls	.L6
 199 0008 0C4D     		ldr	r5, .L7
 200 000a 2800     		movs	r0, r5
 201 000c FFF7FEFF 		bl	smtc_modem_hal_store_crashlog
 202 0010 0120     		movs	r0, #1
 203 0012 FFF7FEFF 		bl	smtc_modem_hal_set_crashlog_status
 204 0016 2900     		movs	r1, r5
 205 0018 0948     		ldr	r0, .L7+4
 206 001a FFF7FEFF 		bl	smtc_modem_hal_print_trace
 207 001e 094D     		ldr	r5, .L7+8
 208 0020 2800     		movs	r0, r5
 209 0022 FFF7FEFF 		bl	smtc_modem_hal_print_trace
 210 0026 0848     		ldr	r0, .L7+12
 211 0028 FFF7FEFF 		bl	smtc_modem_hal_print_trace
 212 002c 2800     		movs	r0, r5
 213 002e FFF7FEFF 		bl	smtc_modem_hal_print_trace
 214 0032 FFF7FEFF 		bl	smtc_modem_hal_reset_mcu
 215              	.L6:
 216              		@ sp needed
 217 0036 054B     		ldr	r3, .L7+16
 218 0038 185D     		ldrb	r0, [r3, r4]
 219 003a 70BD     		pop	{r4, r5, r6, pc}
 220              	.L8:
 221              		.align	2
 222              	.L7:
 223 003c 00000000 		.word	__func__.2
 224 0040 00000000 		.word	.LC39
ARM GAS  /tmp/ccHTTdmI.s 			page 5


 225 0044 1E000000 		.word	.LC41
 226 0048 23000000 		.word	.LC43
 227 004c 00000000 		.word	modem_event_count
 229              		.section	.text.get_modem_event_status,"ax",%progbits
 230              		.align	1
 231              		.global	get_modem_event_status
 232              		.syntax unified
 233              		.code	16
 234              		.thumb_func
 236              	get_modem_event_status:
 237              		@ args = 0, pretend = 0, frame = 0
 238              		@ frame_needed = 0, uses_anonymous_args = 0
 239 0000 70B5     		push	{r4, r5, r6, lr}
 240 0002 0400     		movs	r4, r0
 241 0004 1828     		cmp	r0, #24
 242 0006 16D9     		bls	.L10
 243 0008 0C4D     		ldr	r5, .L11
 244 000a 2800     		movs	r0, r5
 245 000c FFF7FEFF 		bl	smtc_modem_hal_store_crashlog
 246 0010 0120     		movs	r0, #1
 247 0012 FFF7FEFF 		bl	smtc_modem_hal_set_crashlog_status
 248 0016 2900     		movs	r1, r5
 249 0018 0948     		ldr	r0, .L11+4
 250 001a FFF7FEFF 		bl	smtc_modem_hal_print_trace
 251 001e 094D     		ldr	r5, .L11+8
 252 0020 2800     		movs	r0, r5
 253 0022 FFF7FEFF 		bl	smtc_modem_hal_print_trace
 254 0026 0848     		ldr	r0, .L11+12
 255 0028 FFF7FEFF 		bl	smtc_modem_hal_print_trace
 256 002c 2800     		movs	r0, r5
 257 002e FFF7FEFF 		bl	smtc_modem_hal_print_trace
 258 0032 FFF7FEFF 		bl	smtc_modem_hal_reset_mcu
 259              	.L10:
 260              		@ sp needed
 261 0036 054B     		ldr	r3, .L11+16
 262 0038 185D     		ldrb	r0, [r3, r4]
 263 003a 70BD     		pop	{r4, r5, r6, pc}
 264              	.L12:
 265              		.align	2
 266              	.L11:
 267 003c 00000000 		.word	__func__.1
 268 0040 00000000 		.word	.LC39
 269 0044 1E000000 		.word	.LC41
 270 0048 23000000 		.word	.LC43
 271 004c 00000000 		.word	modem_event_status
 273              		.section	.text.set_modem_event_count_and_status,"ax",%progbits
 274              		.align	1
 275              		.global	set_modem_event_count_and_status
 276              		.syntax unified
 277              		.code	16
 278              		.thumb_func
 280              	set_modem_event_count_and_status:
 281              		@ args = 0, pretend = 0, frame = 0
 282              		@ frame_needed = 0, uses_anonymous_args = 0
 283              		@ link register save eliminated.
 284 0000 1828     		cmp	r0, #24
 285 0002 03D8     		bhi	.L13
ARM GAS  /tmp/ccHTTdmI.s 			page 6


 286 0004 024B     		ldr	r3, .L15
 287 0006 1954     		strb	r1, [r3, r0]
 288 0008 024B     		ldr	r3, .L15+4
 289 000a 1A54     		strb	r2, [r3, r0]
 290              	.L13:
 291              		@ sp needed
 292 000c 7047     		bx	lr
 293              	.L16:
 294 000e C046     		.align	2
 295              	.L15:
 296 0010 00000000 		.word	modem_event_count
 297 0014 00000000 		.word	modem_event_status
 299              		.section	.text.modem_event_init,"ax",%progbits
 300              		.align	1
 301              		.global	modem_event_init
 302              		.syntax unified
 303              		.code	16
 304              		.thumb_func
 306              	modem_event_init:
 307              		@ args = 0, pretend = 0, frame = 0
 308              		@ frame_needed = 0, uses_anonymous_args = 0
 309 0000 10B5     		push	{r4, lr}
 310 0002 0024     		movs	r4, #0
 311              	.L18:
 312 0004 0022     		movs	r2, #0
 313 0006 E0B2     		uxtb	r0, r4
 314 0008 1100     		movs	r1, r2
 315 000a 0134     		adds	r4, r4, #1
 316 000c FFF7FEFF 		bl	set_modem_event_count_and_status
 317 0010 192C     		cmp	r4, #25
 318 0012 F7D1     		bne	.L18
 319              		@ sp needed
 320 0014 10BD     		pop	{r4, pc}
 322              		.section	.text.increment_modem_event_count_and_status,"ax",%progbits
 323              		.align	1
 324              		.global	increment_modem_event_count_and_status
 325              		.syntax unified
 326              		.code	16
 327              		.thumb_func
 329              	increment_modem_event_count_and_status:
 330              		@ args = 0, pretend = 0, frame = 0
 331              		@ frame_needed = 0, uses_anonymous_args = 0
 332              		@ link register save eliminated.
 333 0000 1828     		cmp	r0, #24
 334 0002 07D8     		bhi	.L20
 335 0004 044A     		ldr	r2, .L26
 336 0006 135C     		ldrb	r3, [r2, r0]
 337 0008 FF2B     		cmp	r3, #255
 338 000a 01D0     		beq	.L22
 339 000c 0133     		adds	r3, r3, #1
 340 000e 1354     		strb	r3, [r2, r0]
 341              	.L22:
 342 0010 024B     		ldr	r3, .L26+4
 343 0012 1954     		strb	r1, [r3, r0]
 344              	.L20:
 345              		@ sp needed
 346 0014 7047     		bx	lr
ARM GAS  /tmp/ccHTTdmI.s 			page 7


 347              	.L27:
 348 0016 C046     		.align	2
 349              	.L26:
 350 0018 00000000 		.word	modem_event_count
 351 001c 00000000 		.word	modem_event_status
 353              		.section	.text.decrement_asynchronous_msgnumber,"ax",%progbits
 354              		.align	1
 355              		.global	decrement_asynchronous_msgnumber
 356              		.syntax unified
 357              		.code	16
 358              		.thumb_func
 360              	decrement_asynchronous_msgnumber:
 361              		@ args = 0, pretend = 0, frame = 0
 362              		@ frame_needed = 0, uses_anonymous_args = 0
 363              		@ link register save eliminated.
 364 0000 034A     		ldr	r2, .L33
 365 0002 1378     		ldrb	r3, [r2]
 366 0004 002B     		cmp	r3, #0
 367 0006 01D0     		beq	.L29
 368 0008 013B     		subs	r3, r3, #1
 369 000a DBB2     		uxtb	r3, r3
 370              	.L29:
 371 000c 1370     		strb	r3, [r2]
 372              		@ sp needed
 373 000e 7047     		bx	lr
 374              	.L34:
 375              		.align	2
 376              	.L33:
 377 0010 00000000 		.word	asynchronous_msgnumber
 379              		.section	.text.get_asynchronous_msgnumber,"ax",%progbits
 380              		.align	1
 381              		.global	get_asynchronous_msgnumber
 382              		.syntax unified
 383              		.code	16
 384              		.thumb_func
 386              	get_asynchronous_msgnumber:
 387              		@ args = 0, pretend = 0, frame = 0
 388              		@ frame_needed = 0, uses_anonymous_args = 0
 389              		@ link register save eliminated.
 390 0000 014B     		ldr	r3, .L36
 391              		@ sp needed
 392 0002 1878     		ldrb	r0, [r3]
 393 0004 7047     		bx	lr
 394              	.L37:
 395 0006 C046     		.align	2
 396              	.L36:
 397 0008 00000000 		.word	asynchronous_msgnumber
 399              		.section	.rodata.increment_asynchronous_msgnumber.str1.1,"aMS",%progbits,1
 400              	.LC58:
 401 0000 1B5B303B 		.ascii	"\033[0;31mERROR:  Modem reach the max number of asy"
 401      33316D45 
 401      52524F52 
 401      3A20204D 
 401      6F64656D 
 402 0030 6E636820 		.ascii	"nch message\012\015\000"
 402      6D657373 
 402      6167650A 
ARM GAS  /tmp/ccHTTdmI.s 			page 8


 402      0D00
 403              		.section	.text.increment_asynchronous_msgnumber,"ax",%progbits
 404              		.align	1
 405              		.global	increment_asynchronous_msgnumber
 406              		.syntax unified
 407              		.code	16
 408              		.thumb_func
 410              	increment_asynchronous_msgnumber:
 411              		@ args = 0, pretend = 0, frame = 0
 412              		@ frame_needed = 0, uses_anonymous_args = 0
 413 0000 70B5     		push	{r4, r5, r6, lr}
 414 0002 0E4E     		ldr	r6, .L42
 415 0004 0400     		movs	r4, r0
 416 0006 3378     		ldrb	r3, [r6]
 417 0008 0D00     		movs	r5, r1
 418 000a 192B     		cmp	r3, #25
 419 000c 06D9     		bls	.L39
 420 000e 0C48     		ldr	r0, .L42+4
 421 0010 FFF7FEFF 		bl	smtc_modem_hal_print_trace
 422 0014 0B48     		ldr	r0, .L42+8
 423 0016 FFF7FEFF 		bl	smtc_modem_hal_print_trace
 424              	.L38:
 425              		@ sp needed
 426 001a 70BD     		pop	{r4, r5, r6, pc}
 427              	.L39:
 428 001c FFF7FEFF 		bl	get_modem_event_count
 429 0020 0028     		cmp	r0, #0
 430 0022 05D1     		bne	.L41
 431 0024 3378     		ldrb	r3, [r6]
 432 0026 084A     		ldr	r2, .L42+12
 433 0028 0133     		adds	r3, r3, #1
 434 002a DBB2     		uxtb	r3, r3
 435 002c 3370     		strb	r3, [r6]
 436 002e D454     		strb	r4, [r2, r3]
 437              	.L41:
 438 0030 2900     		movs	r1, r5
 439 0032 2000     		movs	r0, r4
 440 0034 FFF7FEFF 		bl	increment_modem_event_count_and_status
 441 0038 EFE7     		b	.L38
 442              	.L43:
 443 003a C046     		.align	2
 444              	.L42:
 445 003c 00000000 		.word	asynchronous_msgnumber
 446 0040 00000000 		.word	.LC58
 447 0044 1E000000 		.word	.LC41
 448 0048 00000000 		.word	asynch_msg
 450              		.section	.text.get_last_msg_event,"ax",%progbits
 451              		.align	1
 452              		.global	get_last_msg_event
 453              		.syntax unified
 454              		.code	16
 455              		.thumb_func
 457              	get_last_msg_event:
 458              		@ args = 0, pretend = 0, frame = 0
 459              		@ frame_needed = 0, uses_anonymous_args = 0
 460              		@ link register save eliminated.
 461 0000 024A     		ldr	r2, .L45
ARM GAS  /tmp/ccHTTdmI.s 			page 9


 462 0002 034B     		ldr	r3, .L45+4
 463 0004 1278     		ldrb	r2, [r2]
 464              		@ sp needed
 465 0006 985C     		ldrb	r0, [r3, r2]
 466 0008 7047     		bx	lr
 467              	.L46:
 468 000a C046     		.align	2
 469              	.L45:
 470 000c 00000000 		.word	asynchronous_msgnumber
 471 0010 00000000 		.word	asynch_msg
 473              		.section	.text.get_modem_uptime_s,"ax",%progbits
 474              		.align	1
 475              		.global	get_modem_uptime_s
 476              		.syntax unified
 477              		.code	16
 478              		.thumb_func
 480              	get_modem_uptime_s:
 481              		@ args = 0, pretend = 0, frame = 0
 482              		@ frame_needed = 0, uses_anonymous_args = 0
 483 0000 10B5     		push	{r4, lr}
 484 0002 FFF7FEFF 		bl	smtc_modem_hal_get_time_in_s
 485              		@ sp needed
 486 0006 024B     		ldr	r3, .L48
 487 0008 1B68     		ldr	r3, [r3]
 488 000a C01A     		subs	r0, r0, r3
 489 000c 10BD     		pop	{r4, pc}
 490              	.L49:
 491 000e C046     		.align	2
 492              	.L48:
 493 0010 00000000 		.word	modem_start_time
 495              		.section	.text.set_modem_start_time_s,"ax",%progbits
 496              		.align	1
 497              		.global	set_modem_start_time_s
 498              		.syntax unified
 499              		.code	16
 500              		.thumb_func
 502              	set_modem_start_time_s:
 503              		@ args = 0, pretend = 0, frame = 0
 504              		@ frame_needed = 0, uses_anonymous_args = 0
 505              		@ link register save eliminated.
 506 0000 044B     		ldr	r3, .L52
 507 0002 1A78     		ldrb	r2, [r3]
 508 0004 002A     		cmp	r2, #0
 509 0006 03D1     		bne	.L50
 510 0008 0132     		adds	r2, r2, #1
 511 000a 1A70     		strb	r2, [r3]
 512 000c 024B     		ldr	r3, .L52+4
 513 000e 1860     		str	r0, [r3]
 514              	.L50:
 515              		@ sp needed
 516 0010 7047     		bx	lr
 517              	.L53:
 518 0012 C046     		.align	2
 519              	.L52:
 520 0014 00000000 		.word	start_time_was_set
 521 0018 00000000 		.word	modem_start_time
 523              		.section	.text.set_modem_dm_interval,"ax",%progbits
ARM GAS  /tmp/ccHTTdmI.s 			page 10


 524              		.align	1
 525              		.global	set_modem_dm_interval
 526              		.syntax unified
 527              		.code	16
 528              		.thumb_func
 530              	set_modem_dm_interval:
 531              		@ args = 0, pretend = 0, frame = 0
 532              		@ frame_needed = 0, uses_anonymous_args = 0
 533              		@ link register save eliminated.
 534 0000 034B     		ldr	r3, .L56
 535 0002 1A78     		ldrb	r2, [r3]
 536 0004 8242     		cmp	r2, r0
 537 0006 00D0     		beq	.L55
 538 0008 1870     		strb	r0, [r3]
 539              	.L55:
 540 000a 0120     		movs	r0, #1
 541              		@ sp needed
 542 000c 7047     		bx	lr
 543              	.L57:
 544 000e C046     		.align	2
 545              	.L56:
 546 0010 00000000 		.word	modem_dm_interval
 548              		.section	.text.get_modem_dm_interval,"ax",%progbits
 549              		.align	1
 550              		.global	get_modem_dm_interval
 551              		.syntax unified
 552              		.code	16
 553              		.thumb_func
 555              	get_modem_dm_interval:
 556              		@ args = 0, pretend = 0, frame = 0
 557              		@ frame_needed = 0, uses_anonymous_args = 0
 558              		@ link register save eliminated.
 559 0000 014B     		ldr	r3, .L59
 560              		@ sp needed
 561 0002 1878     		ldrb	r0, [r3]
 562 0004 7047     		bx	lr
 563              	.L60:
 564 0006 C046     		.align	2
 565              	.L59:
 566 0008 00000000 		.word	modem_dm_interval
 568              		.section	.text.get_modem_dm_interval_second,"ax",%progbits
 569              		.align	1
 570              		.global	get_modem_dm_interval_second
 571              		.syntax unified
 572              		.code	16
 573              		.thumb_func
 575              	get_modem_dm_interval_second:
 576              		@ args = 0, pretend = 0, frame = 0
 577              		@ frame_needed = 0, uses_anonymous_args = 0
 578              		@ link register save eliminated.
 579 0000 0B4B     		ldr	r3, .L67
 580 0002 1878     		ldrb	r0, [r3]
 581 0004 8309     		lsrs	r3, r0, #6
 582 0006 022B     		cmp	r3, #2
 583 0008 08D0     		beq	.L62
 584 000a 032B     		cmp	r3, #3
 585 000c 0BD0     		beq	.L63
ARM GAS  /tmp/ccHTTdmI.s 			page 11


 586 000e 012B     		cmp	r3, #1
 587 0010 03D1     		bne	.L61
 588 0012 3E33     		adds	r3, r3, #62
 589 0014 1840     		ands	r0, r3
 590 0016 074B     		ldr	r3, .L67+4
 591              	.L66:
 592 0018 5843     		muls	r0, r3
 593              	.L61:
 594              		@ sp needed
 595 001a 7047     		bx	lr
 596              	.L62:
 597 001c 3F23     		movs	r3, #63
 598 001e 1840     		ands	r0, r3
 599 0020 E123     		movs	r3, #225
 600 0022 1B01     		lsls	r3, r3, #4
 601 0024 F8E7     		b	.L66
 602              	.L63:
 603 0026 3F23     		movs	r3, #63
 604 0028 1840     		ands	r0, r3
 605 002a 033B     		subs	r3, r3, #3
 606 002c F4E7     		b	.L66
 607              	.L68:
 608 002e C046     		.align	2
 609              	.L67:
 610 0030 00000000 		.word	modem_dm_interval
 611 0034 80510100 		.word	86400
 613              		.section	.text.set_modem_class,"ax",%progbits
 614              		.align	1
 615              		.global	set_modem_class
 616              		.syntax unified
 617              		.code	16
 618              		.thumb_func
 620              	set_modem_class:
 621              		@ args = 0, pretend = 0, frame = 0
 622              		@ frame_needed = 0, uses_anonymous_args = 0
 623              		@ link register save eliminated.
 624 0000 014B     		ldr	r3, .L70
 625              		@ sp needed
 626 0002 1870     		strb	r0, [r3]
 627 0004 7047     		bx	lr
 628              	.L71:
 629 0006 C046     		.align	2
 630              	.L70:
 631 0008 00000000 		.word	modem_dm_class
 633              		.section	.text.get_modem_class,"ax",%progbits
 634              		.align	1
 635              		.global	get_modem_class
 636              		.syntax unified
 637              		.code	16
 638              		.thumb_func
 640              	get_modem_class:
 641              		@ args = 0, pretend = 0, frame = 0
 642              		@ frame_needed = 0, uses_anonymous_args = 0
 643              		@ link register save eliminated.
 644 0000 014B     		ldr	r3, .L73
 645              		@ sp needed
 646 0002 1878     		ldrb	r0, [r3]
ARM GAS  /tmp/ccHTTdmI.s 			page 12


 647 0004 7047     		bx	lr
 648              	.L74:
 649 0006 C046     		.align	2
 650              	.L73:
 651 0008 00000000 		.word	modem_dm_class
 653              		.section	.text.get_modem_dm_port,"ax",%progbits
 654              		.align	1
 655              		.global	get_modem_dm_port
 656              		.syntax unified
 657              		.code	16
 658              		.thumb_func
 660              	get_modem_dm_port:
 661              		@ args = 0, pretend = 0, frame = 0
 662              		@ frame_needed = 0, uses_anonymous_args = 0
 663              		@ link register save eliminated.
 664 0000 014B     		ldr	r3, .L76
 665              		@ sp needed
 666 0002 1878     		ldrb	r0, [r3]
 667 0004 7047     		bx	lr
 668              	.L77:
 669 0006 C046     		.align	2
 670              	.L76:
 671 0008 00000000 		.word	modem_dm_port
 673              		.section	.text.get_modem_adr_profile,"ax",%progbits
 674              		.align	1
 675              		.global	get_modem_adr_profile
 676              		.syntax unified
 677              		.code	16
 678              		.thumb_func
 680              	get_modem_adr_profile:
 681              		@ args = 0, pretend = 0, frame = 0
 682              		@ frame_needed = 0, uses_anonymous_args = 0
 683              		@ link register save eliminated.
 684 0000 014B     		ldr	r3, .L79
 685              		@ sp needed
 686 0002 1878     		ldrb	r0, [r3]
 687 0004 7047     		bx	lr
 688              	.L80:
 689 0006 C046     		.align	2
 690              	.L79:
 691 0008 00000000 		.word	modem_adr_profile
 693              		.section	.text.get_modem_region,"ax",%progbits
 694              		.align	1
 695              		.global	get_modem_region
 696              		.syntax unified
 697              		.code	16
 698              		.thumb_func
 700              	get_modem_region:
 701              		@ args = 0, pretend = 0, frame = 0
 702              		@ frame_needed = 0, uses_anonymous_args = 0
 703 0000 10B5     		push	{r4, lr}
 704 0002 FFF7FEFF 		bl	lorawan_api_get_region
 705              		@ sp needed
 706 0006 10BD     		pop	{r4, pc}
 708              		.section	.text.set_modem_region,"ax",%progbits
 709              		.align	1
 710              		.global	set_modem_region
ARM GAS  /tmp/ccHTTdmI.s 			page 13


 711              		.syntax unified
 712              		.code	16
 713              		.thumb_func
 715              	set_modem_region:
 716              		@ args = 0, pretend = 0, frame = 0
 717              		@ frame_needed = 0, uses_anonymous_args = 0
 718 0000 10B5     		push	{r4, lr}
 719 0002 FFF7FEFF 		bl	lorawan_api_set_region
 720              		@ sp needed
 721 0006 4342     		rsbs	r3, r0, #0
 722 0008 5841     		adcs	r0, r0, r3
 723 000a C0B2     		uxtb	r0, r0
 724 000c 10BD     		pop	{r4, pc}
 726              		.section	.text.set_modem_appstatus,"ax",%progbits
 727              		.align	1
 728              		.global	set_modem_appstatus
 729              		.syntax unified
 730              		.code	16
 731              		.thumb_func
 733              	set_modem_appstatus:
 734              		@ args = 0, pretend = 0, frame = 0
 735              		@ frame_needed = 0, uses_anonymous_args = 0
 736 0000 10B5     		push	{r4, lr}
 737 0002 034B     		ldr	r3, .L84
 738 0004 0100     		movs	r1, r0
 739              		@ sp needed
 740 0006 0822     		movs	r2, #8
 741 0008 1800     		movs	r0, r3
 742 000a FFF7FEFF 		bl	memcpy
 743 000e 10BD     		pop	{r4, pc}
 744              	.L85:
 745              		.align	2
 746              	.L84:
 747 0010 00000000 		.word	modem_appstatus
 749              		.section	.text.get_modem_appstatus,"ax",%progbits
 750              		.align	1
 751              		.global	get_modem_appstatus
 752              		.syntax unified
 753              		.code	16
 754              		.thumb_func
 756              	get_modem_appstatus:
 757              		@ args = 0, pretend = 0, frame = 0
 758              		@ frame_needed = 0, uses_anonymous_args = 0
 759 0000 10B5     		push	{r4, lr}
 760 0002 0822     		movs	r2, #8
 761              		@ sp needed
 762 0004 0149     		ldr	r1, .L87
 763 0006 FFF7FEFF 		bl	memcpy
 764 000a 10BD     		pop	{r4, pc}
 765              	.L88:
 766              		.align	2
 767              	.L87:
 768 000c 00000000 		.word	modem_appstatus
 770              		.section	.text.modem_supervisor_add_task_dm_status_now,"ax",%progbits
 771              		.align	1
 772              		.global	modem_supervisor_add_task_dm_status_now
 773              		.syntax unified
ARM GAS  /tmp/ccHTTdmI.s 			page 14


 774              		.code	16
 775              		.thumb_func
 777              	modem_supervisor_add_task_dm_status_now:
 778              		@ args = 0, pretend = 0, frame = 24
 779              		@ frame_needed = 0, uses_anonymous_args = 0
 780 0000 70B5     		push	{r4, r5, r6, lr}
 781 0002 0323     		movs	r3, #3
 782 0004 0226     		movs	r6, #2
 783 0006 86B0     		sub	sp, sp, #24
 784 0008 01AC     		add	r4, sp, #4
 785 000a 2370     		strb	r3, [r4]
 786 000c 2372     		strb	r3, [r4, #8]
 787 000e 6674     		strb	r6, [r4, #17]
 788 0010 FFF7FEFF 		bl	smtc_modem_hal_get_time_in_s
 789 0014 0521     		movs	r1, #5
 790 0016 0500     		movs	r5, r0
 791 0018 3000     		movs	r0, r6
 792 001a FFF7FEFF 		bl	smtc_modem_hal_get_random_nb_in_range
 793 001e 2D18     		adds	r5, r5, r0
 794 0020 2000     		movs	r0, r4
 795 0022 0295     		str	r5, [sp, #8]
 796 0024 FFF7FEFF 		bl	modem_supervisor_add_task
 797 0028 06B0     		add	sp, sp, #24
 798              		@ sp needed
 799 002a 70BD     		pop	{r4, r5, r6, pc}
 801              		.section	.text.modem_supervisor_add_task_crash_log,"ax",%progbits
 802              		.align	1
 803              		.global	modem_supervisor_add_task_crash_log
 804              		.syntax unified
 805              		.code	16
 806              		.thumb_func
 808              	modem_supervisor_add_task_crash_log:
 809              		@ args = 0, pretend = 0, frame = 24
 810              		@ frame_needed = 0, uses_anonymous_args = 0
 811 0000 0E23     		movs	r3, #14
 812 0002 F0B5     		push	{r4, r5, r6, r7, lr}
 813 0004 0227     		movs	r7, #2
 814 0006 87B0     		sub	sp, sp, #28
 815 0008 01AD     		add	r5, sp, #4
 816 000a 2B70     		strb	r3, [r5]
 817 000c 0B3B     		subs	r3, r3, #11
 818 000e 2B72     		strb	r3, [r5, #8]
 819 0010 0600     		movs	r6, r0
 820 0012 6F74     		strb	r7, [r5, #17]
 821 0014 FFF7FEFF 		bl	smtc_modem_hal_get_time_in_s
 822 0018 0521     		movs	r1, #5
 823 001a 0400     		movs	r4, r0
 824 001c 3800     		movs	r0, r7
 825 001e FFF7FEFF 		bl	smtc_modem_hal_get_random_nb_in_range
 826 0022 2418     		adds	r4, r4, r0
 827 0024 A419     		adds	r4, r4, r6
 828 0026 2800     		movs	r0, r5
 829 0028 0294     		str	r4, [sp, #8]
 830 002a FFF7FEFF 		bl	modem_supervisor_add_task
 831 002e 07B0     		add	sp, sp, #28
 832              		@ sp needed
 833 0030 F0BD     		pop	{r4, r5, r6, r7, pc}
ARM GAS  /tmp/ccHTTdmI.s 			page 15


 835              		.section	.text.modem_supervisor_add_task_clock_sync_time_req,"ax",%progbits
 836              		.align	1
 837              		.global	modem_supervisor_add_task_clock_sync_time_req
 838              		.syntax unified
 839              		.code	16
 840              		.thumb_func
 842              	modem_supervisor_add_task_clock_sync_time_req:
 843              		@ args = 0, pretend = 0, frame = 24
 844              		@ frame_needed = 0, uses_anonymous_args = 0
 845 0000 0923     		movs	r3, #9
 846 0002 30B5     		push	{r4, r5, lr}
 847 0004 87B0     		sub	sp, sp, #28
 848 0006 01AC     		add	r4, sp, #4
 849 0008 2370     		strb	r3, [r4]
 850 000a 083B     		subs	r3, r3, #8
 851 000c 2372     		strb	r3, [r4, #8]
 852 000e 0133     		adds	r3, r3, #1
 853 0010 0500     		movs	r5, r0
 854 0012 6374     		strb	r3, [r4, #17]
 855 0014 FFF7FEFF 		bl	smtc_modem_hal_get_time_in_s
 856 0018 4019     		adds	r0, r0, r5
 857 001a 0290     		str	r0, [sp, #8]
 858 001c 2000     		movs	r0, r4
 859 001e FFF7FEFF 		bl	modem_supervisor_add_task
 860 0022 07B0     		add	sp, sp, #28
 861              		@ sp needed
 862 0024 30BD     		pop	{r4, r5, pc}
 864              		.section	.text.modem_supervisor_remove_task_clock_sync,"ax",%progbits
 865              		.align	1
 866              		.global	modem_supervisor_remove_task_clock_sync
 867              		.syntax unified
 868              		.code	16
 869              		.thumb_func
 871              	modem_supervisor_remove_task_clock_sync:
 872              		@ args = 0, pretend = 0, frame = 0
 873              		@ frame_needed = 0, uses_anonymous_args = 0
 874 0000 10B5     		push	{r4, lr}
 875 0002 0920     		movs	r0, #9
 876 0004 FFF7FEFF 		bl	modem_supervisor_get_task_priority
 877 0008 0428     		cmp	r0, #4
 878 000a 02D0     		beq	.L93
 879 000c 0920     		movs	r0, #9
 880 000e FFF7FEFF 		bl	modem_supervisor_remove_task
 881              	.L93:
 882 0012 0A20     		movs	r0, #10
 883 0014 FFF7FEFF 		bl	modem_supervisor_get_task_priority
 884 0018 0428     		cmp	r0, #4
 885 001a 02D0     		beq	.L92
 886 001c 0A20     		movs	r0, #10
 887 001e FFF7FEFF 		bl	modem_supervisor_remove_task
 888              	.L92:
 889              		@ sp needed
 890 0022 10BD     		pop	{r4, pc}
 892              		.section	.text.modem_supervisor_is_clock_sync_running,"ax",%progbits
 893              		.align	1
 894              		.global	modem_supervisor_is_clock_sync_running
 895              		.syntax unified
ARM GAS  /tmp/ccHTTdmI.s 			page 16


 896              		.code	16
 897              		.thumb_func
 899              	modem_supervisor_is_clock_sync_running:
 900              		@ args = 0, pretend = 0, frame = 0
 901              		@ frame_needed = 0, uses_anonymous_args = 0
 902 0000 10B5     		push	{r4, lr}
 903 0002 0920     		movs	r0, #9
 904              		@ sp needed
 905 0004 FFF7FEFF 		bl	modem_supervisor_get_task_priority
 906 0008 0438     		subs	r0, r0, #4
 907 000a 431E     		subs	r3, r0, #1
 908 000c 9841     		sbcs	r0, r0, r3
 909 000e C0B2     		uxtb	r0, r0
 910 0010 10BD     		pop	{r4, pc}
 912              		.section	.text.modem_supervisor_add_task_modem_mute,"ax",%progbits
 913              		.align	1
 914              		.global	modem_supervisor_add_task_modem_mute
 915              		.syntax unified
 916              		.code	16
 917              		.thumb_func
 919              	modem_supervisor_add_task_modem_mute:
 920              		@ args = 0, pretend = 0, frame = 24
 921              		@ frame_needed = 0, uses_anonymous_args = 0
 922 0000 7FB5     		push	{r0, r1, r2, r3, r4, r5, r6, lr}
 923 0002 0623     		movs	r3, #6
 924 0004 6A46     		mov	r2, sp
 925 0006 1371     		strb	r3, [r2, #4]
 926 0008 043B     		subs	r3, r3, #4
 927 000a 1373     		strb	r3, [r2, #12]
 928 000c FFF7FEFF 		bl	smtc_modem_hal_get_time_in_s
 929 0010 034B     		ldr	r3, .L103
 930 0012 C018     		adds	r0, r0, r3
 931 0014 0290     		str	r0, [sp, #8]
 932 0016 01A8     		add	r0, sp, #4
 933 0018 FFF7FEFF 		bl	modem_supervisor_add_task
 934 001c 07B0     		add	sp, sp, #28
 935              		@ sp needed
 936 001e 00BD     		pop	{pc}
 937              	.L104:
 938              		.align	2
 939              	.L103:
 940 0020 80510100 		.word	86400
 942              		.section	.text.modem_supervisor_add_task_file_upload,"ax",%progbits
 943              		.align	1
 944              		.global	modem_supervisor_add_task_file_upload
 945              		.syntax unified
 946              		.code	16
 947              		.thumb_func
 949              	modem_supervisor_add_task_file_upload:
 950              		@ args = 0, pretend = 0, frame = 24
 951              		@ frame_needed = 0, uses_anonymous_args = 0
 952 0000 10B5     		push	{r4, lr}
 953 0002 86B0     		sub	sp, sp, #24
 954 0004 6A46     		mov	r2, sp
 955 0006 0423     		movs	r3, #4
 956 0008 1371     		strb	r3, [r2, #4]
 957 000a 033B     		subs	r3, r3, #3
ARM GAS  /tmp/ccHTTdmI.s 			page 17


 958 000c 0400     		movs	r4, r0
 959 000e 1373     		strb	r3, [r2, #12]
 960 0010 FFF7FEFF 		bl	smtc_modem_hal_get_time_in_s
 961 0014 0019     		adds	r0, r0, r4
 962 0016 0290     		str	r0, [sp, #8]
 963 0018 01A8     		add	r0, sp, #4
 964 001a FFF7FEFF 		bl	modem_supervisor_add_task
 965 001e 06B0     		add	sp, sp, #24
 966              		@ sp needed
 967 0020 10BD     		pop	{r4, pc}
 969              		.section	.text.get_modem_gnss_status,"ax",%progbits
 970              		.align	1
 971              		.global	get_modem_gnss_status
 972              		.syntax unified
 973              		.code	16
 974              		.thumb_func
 976              	get_modem_gnss_status:
 977              		@ args = 0, pretend = 0, frame = 8
 978              		@ frame_needed = 0, uses_anonymous_args = 0
 979 0000 13B5     		push	{r0, r1, r4, lr}
 980 0002 064B     		ldr	r3, .L107
 981 0004 0400     		movs	r4, r0
 982              		@ sp needed
 983 0006 6946     		mov	r1, sp
 984 0008 1868     		ldr	r0, [r3]
 985 000a FFF7FEFF 		bl	almanac_update_create_uplink_payload
 986 000e 6B46     		mov	r3, sp
 987 0010 0722     		movs	r2, #7
 988 0012 2000     		movs	r0, r4
 989 0014 591C     		adds	r1, r3, #1
 990 0016 FFF7FEFF 		bl	memcpy
 991 001a 13BD     		pop	{r0, r1, r4, pc}
 992              	.L108:
 993              		.align	2
 994              	.L107:
 995 001c 00000000 		.word	modem_radio_ctx
 997              		.section	.text.set_modem_status_reset_after_brownout,"ax",%progbits
 998              		.align	1
 999              		.global	set_modem_status_reset_after_brownout
 1000              		.syntax unified
 1001              		.code	16
 1002              		.thumb_func
 1004              	set_modem_status_reset_after_brownout:
 1005              		@ args = 0, pretend = 0, frame = 0
 1006              		@ frame_needed = 0, uses_anonymous_args = 0
 1007 0000 10B5     		push	{r4, lr}
 1008 0002 054B     		ldr	r3, .L112
 1009 0004 0124     		movs	r4, #1
 1010 0006 1978     		ldrb	r1, [r3]
 1011 0008 0A00     		movs	r2, r1
 1012 000a A243     		bics	r2, r4
 1013 000c 0028     		cmp	r0, #0
 1014 000e 01D0     		beq	.L111
 1015 0010 2200     		movs	r2, r4
 1016 0012 0A43     		orrs	r2, r1
 1017              	.L111:
 1018 0014 1A70     		strb	r2, [r3]
ARM GAS  /tmp/ccHTTdmI.s 			page 18


 1019              		@ sp needed
 1020 0016 10BD     		pop	{r4, pc}
 1021              	.L113:
 1022              		.align	2
 1023              	.L112:
 1024 0018 00000000 		.word	modem_status
 1026              		.section	.text.set_modem_status_reset_after_crash,"ax",%progbits
 1027              		.align	1
 1028              		.global	set_modem_status_reset_after_crash
 1029              		.syntax unified
 1030              		.code	16
 1031              		.thumb_func
 1033              	set_modem_status_reset_after_crash:
 1034              		@ args = 0, pretend = 0, frame = 0
 1035              		@ frame_needed = 0, uses_anonymous_args = 0
 1036 0000 10B5     		push	{r4, lr}
 1037 0002 054B     		ldr	r3, .L117
 1038 0004 0224     		movs	r4, #2
 1039 0006 1978     		ldrb	r1, [r3]
 1040 0008 0A00     		movs	r2, r1
 1041 000a A243     		bics	r2, r4
 1042 000c 0028     		cmp	r0, #0
 1043 000e 01D0     		beq	.L116
 1044 0010 2200     		movs	r2, r4
 1045 0012 0A43     		orrs	r2, r1
 1046              	.L116:
 1047 0014 1A70     		strb	r2, [r3]
 1048              		@ sp needed
 1049 0016 10BD     		pop	{r4, pc}
 1050              	.L118:
 1051              		.align	2
 1052              	.L117:
 1053 0018 00000000 		.word	modem_status
 1055              		.section	.text.set_modem_status_modem_mute,"ax",%progbits
 1056              		.align	1
 1057              		.global	set_modem_status_modem_mute
 1058              		.syntax unified
 1059              		.code	16
 1060              		.thumb_func
 1062              	set_modem_status_modem_mute:
 1063              		@ args = 0, pretend = 0, frame = 0
 1064              		@ frame_needed = 0, uses_anonymous_args = 0
 1065 0000 10B5     		push	{r4, lr}
 1066 0002 054B     		ldr	r3, .L122
 1067 0004 0424     		movs	r4, #4
 1068 0006 1978     		ldrb	r1, [r3]
 1069 0008 0A00     		movs	r2, r1
 1070 000a A243     		bics	r2, r4
 1071 000c 0028     		cmp	r0, #0
 1072 000e 01D0     		beq	.L121
 1073 0010 2200     		movs	r2, r4
 1074 0012 0A43     		orrs	r2, r1
 1075              	.L121:
 1076 0014 1A70     		strb	r2, [r3]
 1077              		@ sp needed
 1078 0016 10BD     		pop	{r4, pc}
 1079              	.L123:
ARM GAS  /tmp/ccHTTdmI.s 			page 19


 1080              		.align	2
 1081              	.L122:
 1082 0018 00000000 		.word	modem_status
 1084              		.section	.text.set_modem_status_modem_joined,"ax",%progbits
 1085              		.align	1
 1086              		.global	set_modem_status_modem_joined
 1087              		.syntax unified
 1088              		.code	16
 1089              		.thumb_func
 1091              	set_modem_status_modem_joined:
 1092              		@ args = 0, pretend = 0, frame = 0
 1093              		@ frame_needed = 0, uses_anonymous_args = 0
 1094 0000 10B5     		push	{r4, lr}
 1095 0002 054B     		ldr	r3, .L127
 1096 0004 0824     		movs	r4, #8
 1097 0006 1978     		ldrb	r1, [r3]
 1098 0008 0A00     		movs	r2, r1
 1099 000a A243     		bics	r2, r4
 1100 000c 0028     		cmp	r0, #0
 1101 000e 01D0     		beq	.L126
 1102 0010 2200     		movs	r2, r4
 1103 0012 0A43     		orrs	r2, r1
 1104              	.L126:
 1105 0014 1A70     		strb	r2, [r3]
 1106              		@ sp needed
 1107 0016 10BD     		pop	{r4, pc}
 1108              	.L128:
 1109              		.align	2
 1110              	.L127:
 1111 0018 00000000 		.word	modem_status
 1113              		.section	.text.set_modem_status_radio_suspend,"ax",%progbits
 1114              		.align	1
 1115              		.global	set_modem_status_radio_suspend
 1116              		.syntax unified
 1117              		.code	16
 1118              		.thumb_func
 1120              	set_modem_status_radio_suspend:
 1121              		@ args = 0, pretend = 0, frame = 0
 1122              		@ frame_needed = 0, uses_anonymous_args = 0
 1123 0000 10B5     		push	{r4, lr}
 1124 0002 054B     		ldr	r3, .L132
 1125 0004 1024     		movs	r4, #16
 1126 0006 1978     		ldrb	r1, [r3]
 1127 0008 0A00     		movs	r2, r1
 1128 000a A243     		bics	r2, r4
 1129 000c 0028     		cmp	r0, #0
 1130 000e 01D0     		beq	.L131
 1131 0010 2200     		movs	r2, r4
 1132 0012 0A43     		orrs	r2, r1
 1133              	.L131:
 1134 0014 1A70     		strb	r2, [r3]
 1135              		@ sp needed
 1136 0016 10BD     		pop	{r4, pc}
 1137              	.L133:
 1138              		.align	2
 1139              	.L132:
 1140 0018 00000000 		.word	modem_status
ARM GAS  /tmp/ccHTTdmI.s 			page 20


 1142              		.section	.text.set_modem_status_file_upload,"ax",%progbits
 1143              		.align	1
 1144              		.global	set_modem_status_file_upload
 1145              		.syntax unified
 1146              		.code	16
 1147              		.thumb_func
 1149              	set_modem_status_file_upload:
 1150              		@ args = 0, pretend = 0, frame = 0
 1151              		@ frame_needed = 0, uses_anonymous_args = 0
 1152 0000 10B5     		push	{r4, lr}
 1153 0002 054B     		ldr	r3, .L137
 1154 0004 2024     		movs	r4, #32
 1155 0006 1978     		ldrb	r1, [r3]
 1156 0008 0A00     		movs	r2, r1
 1157 000a A243     		bics	r2, r4
 1158 000c 0028     		cmp	r0, #0
 1159 000e 01D0     		beq	.L136
 1160 0010 2200     		movs	r2, r4
 1161 0012 0A43     		orrs	r2, r1
 1162              	.L136:
 1163 0014 1A70     		strb	r2, [r3]
 1164              		@ sp needed
 1165 0016 10BD     		pop	{r4, pc}
 1166              	.L138:
 1167              		.align	2
 1168              	.L137:
 1169 0018 00000000 		.word	modem_status
 1171              		.section	.text.set_modem_status_joining,"ax",%progbits
 1172              		.align	1
 1173              		.global	set_modem_status_joining
 1174              		.syntax unified
 1175              		.code	16
 1176              		.thumb_func
 1178              	set_modem_status_joining:
 1179              		@ args = 0, pretend = 0, frame = 0
 1180              		@ frame_needed = 0, uses_anonymous_args = 0
 1181 0000 10B5     		push	{r4, lr}
 1182 0002 054B     		ldr	r3, .L142
 1183 0004 4024     		movs	r4, #64
 1184 0006 1978     		ldrb	r1, [r3]
 1185 0008 0A00     		movs	r2, r1
 1186 000a A243     		bics	r2, r4
 1187 000c 0028     		cmp	r0, #0
 1188 000e 01D0     		beq	.L141
 1189 0010 2200     		movs	r2, r4
 1190 0012 0A43     		orrs	r2, r1
 1191              	.L141:
 1192 0014 1A70     		strb	r2, [r3]
 1193              		@ sp needed
 1194 0016 10BD     		pop	{r4, pc}
 1195              	.L143:
 1196              		.align	2
 1197              	.L142:
 1198 0018 00000000 		.word	modem_status
 1200              		.section	.rodata.modem_supervisor_add_task_join.str1.1,"aMS",%progbits,1
 1201              	.LC84:
 1202 0000 20537461 		.ascii	" Start a new join sequence now \012\015\000"
ARM GAS  /tmp/ccHTTdmI.s 			page 21


 1202      72742061 
 1202      206E6577 
 1202      206A6F69 
 1202      6E207365 
 1203              	.LC86:
 1204 0022 20537461 		.ascii	" Start a new join sequence in %d seconds \012\015\000"
 1204      72742061 
 1204      206E6577 
 1204      206A6F69 
 1204      6E207365 
 1205              		.section	.text.modem_supervisor_add_task_join,"ax",%progbits
 1206              		.align	1
 1207              		.global	modem_supervisor_add_task_join
 1208              		.syntax unified
 1209              		.code	16
 1210              		.thumb_func
 1212              	modem_supervisor_add_task_join:
 1213              		@ args = 0, pretend = 0, frame = 24
 1214              		@ frame_needed = 0, uses_anonymous_args = 0
 1215 0000 10B5     		push	{r4, lr}
 1216 0002 86B0     		sub	sp, sp, #24
 1217 0004 0123     		movs	r3, #1
 1218 0006 6A46     		mov	r2, sp
 1219 0008 1371     		strb	r3, [r2, #4]
 1220 000a 1373     		strb	r3, [r2, #12]
 1221 000c FFF7FEFF 		bl	smtc_modem_hal_get_time_in_s
 1222 0010 0521     		movs	r1, #5
 1223 0012 0400     		movs	r4, r0
 1224 0014 0020     		movs	r0, #0
 1225 0016 FFF7FEFF 		bl	smtc_modem_hal_get_random_nb_in_range
 1226 001a 0290     		str	r0, [sp, #8]
 1227 001c FFF7FEFF 		bl	lorawan_api_modem_certification_is_enabled
 1228 0020 0028     		cmp	r0, #0
 1229 0022 04D1     		bne	.L145
 1230 0024 FFF7FEFF 		bl	lorawan_api_next_join_time_second_get
 1231 0028 029B     		ldr	r3, [sp, #8]
 1232 002a 1B18     		adds	r3, r3, r0
 1233 002c 0293     		str	r3, [sp, #8]
 1234              	.L145:
 1235 002e 0299     		ldr	r1, [sp, #8]
 1236 0030 091B     		subs	r1, r1, r4
 1237 0032 0029     		cmp	r1, #0
 1238 0034 0ADC     		bgt	.L146
 1239 0036 0748     		ldr	r0, .L148
 1240 0038 FFF7FEFF 		bl	smtc_modem_hal_print_trace
 1241              	.L147:
 1242 003c 0120     		movs	r0, #1
 1243 003e FFF7FEFF 		bl	set_modem_status_joining
 1244 0042 01A8     		add	r0, sp, #4
 1245 0044 FFF7FEFF 		bl	modem_supervisor_add_task
 1246 0048 06B0     		add	sp, sp, #24
 1247              		@ sp needed
 1248 004a 10BD     		pop	{r4, pc}
 1249              	.L146:
 1250 004c 0248     		ldr	r0, .L148+4
 1251 004e FFF7FEFF 		bl	smtc_modem_hal_print_trace
 1252 0052 F3E7     		b	.L147
ARM GAS  /tmp/ccHTTdmI.s 			page 22


 1253              	.L149:
 1254              		.align	2
 1255              	.L148:
 1256 0054 00000000 		.word	.LC84
 1257 0058 22000000 		.word	.LC86
 1259              		.section	.text.set_modem_status_streaming,"ax",%progbits
 1260              		.align	1
 1261              		.global	set_modem_status_streaming
 1262              		.syntax unified
 1263              		.code	16
 1264              		.thumb_func
 1266              	set_modem_status_streaming:
 1267              		@ args = 0, pretend = 0, frame = 0
 1268              		@ frame_needed = 0, uses_anonymous_args = 0
 1269              		@ link register save eliminated.
 1270 0000 054A     		ldr	r2, .L153
 1271 0002 1378     		ldrb	r3, [r2]
 1272 0004 0028     		cmp	r0, #0
 1273 0006 03D0     		beq	.L151
 1274 0008 8021     		movs	r1, #128
 1275 000a 0B43     		orrs	r3, r1
 1276              	.L152:
 1277 000c 1370     		strb	r3, [r2]
 1278              		@ sp needed
 1279 000e 7047     		bx	lr
 1280              	.L151:
 1281 0010 7F21     		movs	r1, #127
 1282 0012 0B40     		ands	r3, r1
 1283 0014 FAE7     		b	.L152
 1284              	.L154:
 1285 0016 C046     		.align	2
 1286              	.L153:
 1287 0018 00000000 		.word	modem_status
 1289              		.section	.text.modem_supervisor_add_task_stream,"ax",%progbits
 1290              		.align	1
 1291              		.global	modem_supervisor_add_task_stream
 1292              		.syntax unified
 1293              		.code	16
 1294              		.thumb_func
 1296              	modem_supervisor_add_task_stream:
 1297              		@ args = 0, pretend = 0, frame = 24
 1298              		@ frame_needed = 0, uses_anonymous_args = 0
 1299 0000 0823     		movs	r3, #8
 1300 0002 30B5     		push	{r4, r5, lr}
 1301 0004 87B0     		sub	sp, sp, #28
 1302 0006 01AC     		add	r4, sp, #4
 1303 0008 2370     		strb	r3, [r4]
 1304 000a FFF7FEFF 		bl	smtc_modem_hal_get_time_in_s
 1305 000e 0321     		movs	r1, #3
 1306 0010 0500     		movs	r5, r0
 1307 0012 0120     		movs	r0, #1
 1308 0014 FFF7FEFF 		bl	smtc_modem_hal_get_random_nb_in_range
 1309 0018 2D18     		adds	r5, r5, r0
 1310 001a 0295     		str	r5, [sp, #8]
 1311 001c 0125     		movs	r5, #1
 1312 001e 064B     		ldr	r3, .L156
 1313 0020 2000     		movs	r0, r4
ARM GAS  /tmp/ccHTTdmI.s 			page 23


 1314 0022 1B78     		ldrb	r3, [r3]
 1315 0024 2572     		strb	r5, [r4, #8]
 1316 0026 6372     		strb	r3, [r4, #9]
 1317 0028 A572     		strb	r5, [r4, #10]
 1318 002a FFF7FEFF 		bl	modem_supervisor_add_task
 1319 002e 2800     		movs	r0, r5
 1320 0030 FFF7FEFF 		bl	set_modem_status_streaming
 1321 0034 07B0     		add	sp, sp, #28
 1322              		@ sp needed
 1323 0036 30BD     		pop	{r4, r5, pc}
 1324              	.L157:
 1325              		.align	2
 1326              	.L156:
 1327 0038 00000000 		.word	modem_stream_state
 1329              		.section	.text.get_modem_status_reset_after_crash,"ax",%progbits
 1330              		.align	1
 1331              		.global	get_modem_status_reset_after_crash
 1332              		.syntax unified
 1333              		.code	16
 1334              		.thumb_func
 1336              	get_modem_status_reset_after_crash:
 1337              		@ args = 0, pretend = 0, frame = 0
 1338              		@ frame_needed = 0, uses_anonymous_args = 0
 1339              		@ link register save eliminated.
 1340 0000 024B     		ldr	r3, .L159
 1341              		@ sp needed
 1342 0002 1878     		ldrb	r0, [r3]
 1343 0004 8007     		lsls	r0, r0, #30
 1344 0006 C00F     		lsrs	r0, r0, #31
 1345 0008 7047     		bx	lr
 1346              	.L160:
 1347 000a C046     		.align	2
 1348              	.L159:
 1349 000c 00000000 		.word	modem_status
 1351              		.section	.text.get_modem_status_file_upload,"ax",%progbits
 1352              		.align	1
 1353              		.global	get_modem_status_file_upload
 1354              		.syntax unified
 1355              		.code	16
 1356              		.thumb_func
 1358              	get_modem_status_file_upload:
 1359              		@ args = 0, pretend = 0, frame = 0
 1360              		@ frame_needed = 0, uses_anonymous_args = 0
 1361              		@ link register save eliminated.
 1362 0000 024B     		ldr	r3, .L162
 1363              		@ sp needed
 1364 0002 1878     		ldrb	r0, [r3]
 1365 0004 8006     		lsls	r0, r0, #26
 1366 0006 C00F     		lsrs	r0, r0, #31
 1367 0008 7047     		bx	lr
 1368              	.L163:
 1369 000a C046     		.align	2
 1370              	.L162:
 1371 000c 00000000 		.word	modem_status
 1373              		.section	.text.get_modem_status_joining,"ax",%progbits
 1374              		.align	1
 1375              		.global	get_modem_status_joining
ARM GAS  /tmp/ccHTTdmI.s 			page 24


 1376              		.syntax unified
 1377              		.code	16
 1378              		.thumb_func
 1380              	get_modem_status_joining:
 1381              		@ args = 0, pretend = 0, frame = 0
 1382              		@ frame_needed = 0, uses_anonymous_args = 0
 1383              		@ link register save eliminated.
 1384 0000 024B     		ldr	r3, .L165
 1385              		@ sp needed
 1386 0002 1878     		ldrb	r0, [r3]
 1387 0004 4006     		lsls	r0, r0, #25
 1388 0006 C00F     		lsrs	r0, r0, #31
 1389 0008 7047     		bx	lr
 1390              	.L166:
 1391 000a C046     		.align	2
 1392              	.L165:
 1393 000c 00000000 		.word	modem_status
 1395              		.section	.text.get_join_state,"ax",%progbits
 1396              		.align	1
 1397              		.global	get_join_state
 1398              		.syntax unified
 1399              		.code	16
 1400              		.thumb_func
 1402              	get_join_state:
 1403              		@ args = 0, pretend = 0, frame = 0
 1404              		@ frame_needed = 0, uses_anonymous_args = 0
 1405 0000 10B5     		push	{r4, lr}
 1406 0002 FFF7FEFF 		bl	get_modem_status_joining
 1407 0006 0300     		movs	r3, r0
 1408 0008 0120     		movs	r0, #1
 1409 000a 002B     		cmp	r3, #0
 1410 000c 05D1     		bne	.L168
 1411 000e FFF7FEFF 		bl	lorawan_api_isjoined
 1412 0012 0238     		subs	r0, r0, #2
 1413 0014 4342     		rsbs	r3, r0, #0
 1414 0016 5841     		adcs	r0, r0, r3
 1415 0018 4000     		lsls	r0, r0, #1
 1416              	.L168:
 1417              		@ sp needed
 1418 001a 10BD     		pop	{r4, pc}
 1420              		.section	.text.modem_supervisor_add_task_dm_status,"ax",%progbits
 1421              		.align	1
 1422              		.global	modem_supervisor_add_task_dm_status
 1423              		.syntax unified
 1424              		.code	16
 1425              		.thumb_func
 1427              	modem_supervisor_add_task_dm_status:
 1428              		@ args = 0, pretend = 0, frame = 24
 1429              		@ frame_needed = 0, uses_anonymous_args = 0
 1430 0000 0223     		movs	r3, #2
 1431 0002 0322     		movs	r2, #3
 1432 0004 30B5     		push	{r4, r5, lr}
 1433 0006 87B0     		sub	sp, sp, #28
 1434 0008 01AC     		add	r4, sp, #4
 1435 000a 0500     		movs	r5, r0
 1436 000c 2370     		strb	r3, [r4]
 1437 000e 2272     		strb	r2, [r4, #8]
ARM GAS  /tmp/ccHTTdmI.s 			page 25


 1438 0010 6374     		strb	r3, [r4, #17]
 1439 0012 FFF7FEFF 		bl	smtc_modem_hal_get_time_in_s
 1440 0016 4019     		adds	r0, r0, r5
 1441 0018 0290     		str	r0, [sp, #8]
 1442 001a FFF7FEFF 		bl	get_join_state
 1443 001e 0228     		cmp	r0, #2
 1444 0020 02D1     		bne	.L170
 1445 0022 2000     		movs	r0, r4
 1446 0024 FFF7FEFF 		bl	modem_supervisor_add_task
 1447              	.L170:
 1448 0028 07B0     		add	sp, sp, #28
 1449              		@ sp needed
 1450 002a 30BD     		pop	{r4, r5, pc}
 1452              		.section	.text.modem_supervisor_add_task_alc_sync_ans,"ax",%progbits
 1453              		.align	1
 1454              		.global	modem_supervisor_add_task_alc_sync_ans
 1455              		.syntax unified
 1456              		.code	16
 1457              		.thumb_func
 1459              	modem_supervisor_add_task_alc_sync_ans:
 1460              		@ args = 0, pretend = 0, frame = 24
 1461              		@ frame_needed = 0, uses_anonymous_args = 0
 1462 0000 0A23     		movs	r3, #10
 1463 0002 30B5     		push	{r4, r5, lr}
 1464 0004 87B0     		sub	sp, sp, #28
 1465 0006 01AC     		add	r4, sp, #4
 1466 0008 2370     		strb	r3, [r4]
 1467 000a 093B     		subs	r3, r3, #9
 1468 000c 2372     		strb	r3, [r4, #8]
 1469 000e 0133     		adds	r3, r3, #1
 1470 0010 0500     		movs	r5, r0
 1471 0012 6374     		strb	r3, [r4, #17]
 1472 0014 FFF7FEFF 		bl	smtc_modem_hal_get_time_in_s
 1473 0018 4019     		adds	r0, r0, r5
 1474 001a 0290     		str	r0, [sp, #8]
 1475 001c FFF7FEFF 		bl	get_join_state
 1476 0020 0228     		cmp	r0, #2
 1477 0022 02D1     		bne	.L172
 1478 0024 2000     		movs	r0, r4
 1479 0026 FFF7FEFF 		bl	modem_supervisor_add_task
 1480              	.L172:
 1481 002a 07B0     		add	sp, sp, #28
 1482              		@ sp needed
 1483 002c 30BD     		pop	{r4, r5, pc}
 1485              		.section	.text.modem_supervisor_add_task_alm_dbg_ans,"ax",%progbits
 1486              		.align	1
 1487              		.global	modem_supervisor_add_task_alm_dbg_ans
 1488              		.syntax unified
 1489              		.code	16
 1490              		.thumb_func
 1492              	modem_supervisor_add_task_alm_dbg_ans:
 1493              		@ args = 0, pretend = 0, frame = 24
 1494              		@ frame_needed = 0, uses_anonymous_args = 0
 1495 0000 0D23     		movs	r3, #13
 1496 0002 30B5     		push	{r4, r5, lr}
 1497 0004 87B0     		sub	sp, sp, #28
 1498 0006 01AC     		add	r4, sp, #4
ARM GAS  /tmp/ccHTTdmI.s 			page 26


 1499 0008 2370     		strb	r3, [r4]
 1500 000a 0C3B     		subs	r3, r3, #12
 1501 000c 2372     		strb	r3, [r4, #8]
 1502 000e 0133     		adds	r3, r3, #1
 1503 0010 0500     		movs	r5, r0
 1504 0012 6374     		strb	r3, [r4, #17]
 1505 0014 FFF7FEFF 		bl	smtc_modem_hal_get_time_in_s
 1506 0018 4019     		adds	r0, r0, r5
 1507 001a 0290     		str	r0, [sp, #8]
 1508 001c FFF7FEFF 		bl	get_join_state
 1509 0020 0228     		cmp	r0, #2
 1510 0022 02D1     		bne	.L174
 1511 0024 2000     		movs	r0, r4
 1512 0026 FFF7FEFF 		bl	modem_supervisor_add_task
 1513              	.L174:
 1514 002a 07B0     		add	sp, sp, #28
 1515              		@ sp needed
 1516 002c 30BD     		pop	{r4, r5, pc}
 1518              		.section	.text.modem_supervisor_add_task_retrieve_dl,"ax",%progbits
 1519              		.align	1
 1520              		.global	modem_supervisor_add_task_retrieve_dl
 1521              		.syntax unified
 1522              		.code	16
 1523              		.thumb_func
 1525              	modem_supervisor_add_task_retrieve_dl:
 1526              		@ args = 0, pretend = 0, frame = 24
 1527              		@ frame_needed = 0, uses_anonymous_args = 0
 1528 0000 0723     		movs	r3, #7
 1529 0002 30B5     		push	{r4, r5, lr}
 1530 0004 87B0     		sub	sp, sp, #28
 1531 0006 01AC     		add	r4, sp, #4
 1532 0008 2370     		strb	r3, [r4]
 1533 000a 043B     		subs	r3, r3, #4
 1534 000c 2372     		strb	r3, [r4, #8]
 1535 000e FE33     		adds	r3, r3, #254
 1536 0010 FF33     		adds	r3, r3, #255
 1537 0012 0500     		movs	r5, r0
 1538 0014 2382     		strh	r3, [r4, #16]
 1539 0016 FFF7FEFF 		bl	smtc_modem_hal_get_time_in_s
 1540 001a 4019     		adds	r0, r0, r5
 1541 001c 0290     		str	r0, [sp, #8]
 1542 001e FFF7FEFF 		bl	get_join_state
 1543 0022 0228     		cmp	r0, #2
 1544 0024 02D1     		bne	.L176
 1545 0026 2000     		movs	r0, r4
 1546 0028 FFF7FEFF 		bl	modem_supervisor_add_task
 1547              	.L176:
 1548 002c 07B0     		add	sp, sp, #28
 1549              		@ sp needed
 1550 002e 30BD     		pop	{r4, r5, pc}
 1552              		.section	.text.modem_supervisor_add_task_frag,"ax",%progbits
 1553              		.align	1
 1554              		.global	modem_supervisor_add_task_frag
 1555              		.syntax unified
 1556              		.code	16
 1557              		.thumb_func
 1559              	modem_supervisor_add_task_frag:
ARM GAS  /tmp/ccHTTdmI.s 			page 27


 1560              		@ args = 0, pretend = 0, frame = 24
 1561              		@ frame_needed = 0, uses_anonymous_args = 0
 1562 0000 0B23     		movs	r3, #11
 1563 0002 30B5     		push	{r4, r5, lr}
 1564 0004 87B0     		sub	sp, sp, #28
 1565 0006 01AC     		add	r4, sp, #4
 1566 0008 2370     		strb	r3, [r4]
 1567 000a 0A3B     		subs	r3, r3, #10
 1568 000c 2372     		strb	r3, [r4, #8]
 1569 000e 0133     		adds	r3, r3, #1
 1570 0010 0500     		movs	r5, r0
 1571 0012 6374     		strb	r3, [r4, #17]
 1572 0014 FFF7FEFF 		bl	smtc_modem_hal_get_time_in_s
 1573 0018 4019     		adds	r0, r0, r5
 1574 001a 0290     		str	r0, [sp, #8]
 1575 001c FFF7FEFF 		bl	get_join_state
 1576 0020 0228     		cmp	r0, #2
 1577 0022 02D1     		bne	.L178
 1578 0024 2000     		movs	r0, r4
 1579 0026 FFF7FEFF 		bl	modem_supervisor_add_task
 1580              	.L178:
 1581 002a 07B0     		add	sp, sp, #28
 1582              		@ sp needed
 1583 002c 30BD     		pop	{r4, r5, pc}
 1585              		.section	.text.modem_supervisor_add_task_link_check_req,"ax",%progbits
 1586              		.align	1
 1587              		.global	modem_supervisor_add_task_link_check_req
 1588              		.syntax unified
 1589              		.code	16
 1590              		.thumb_func
 1592              	modem_supervisor_add_task_link_check_req:
 1593              		@ args = 0, pretend = 0, frame = 24
 1594              		@ frame_needed = 0, uses_anonymous_args = 0
 1595 0000 0F23     		movs	r3, #15
 1596 0002 30B5     		push	{r4, r5, lr}
 1597 0004 87B0     		sub	sp, sp, #28
 1598 0006 01AC     		add	r4, sp, #4
 1599 0008 2370     		strb	r3, [r4]
 1600 000a 0E3B     		subs	r3, r3, #14
 1601 000c 2372     		strb	r3, [r4, #8]
 1602 000e 0133     		adds	r3, r3, #1
 1603 0010 0500     		movs	r5, r0
 1604 0012 6374     		strb	r3, [r4, #17]
 1605 0014 FFF7FEFF 		bl	smtc_modem_hal_get_time_in_s
 1606 0018 4019     		adds	r0, r0, r5
 1607 001a 0290     		str	r0, [sp, #8]
 1608 001c FFF7FEFF 		bl	get_join_state
 1609 0020 0228     		cmp	r0, #2
 1610 0022 02D1     		bne	.L180
 1611 0024 2000     		movs	r0, r4
 1612 0026 FFF7FEFF 		bl	modem_supervisor_add_task
 1613              	.L180:
 1614 002a 07B0     		add	sp, sp, #28
 1615              		@ sp needed
 1616 002c 30BD     		pop	{r4, r5, pc}
 1618              		.section	.text.modem_supervisor_add_task_device_time_req,"ax",%progbits
 1619              		.align	1
ARM GAS  /tmp/ccHTTdmI.s 			page 28


 1620              		.global	modem_supervisor_add_task_device_time_req
 1621              		.syntax unified
 1622              		.code	16
 1623              		.thumb_func
 1625              	modem_supervisor_add_task_device_time_req:
 1626              		@ args = 0, pretend = 0, frame = 24
 1627              		@ frame_needed = 0, uses_anonymous_args = 0
 1628 0000 1023     		movs	r3, #16
 1629 0002 30B5     		push	{r4, r5, lr}
 1630 0004 87B0     		sub	sp, sp, #28
 1631 0006 01AC     		add	r4, sp, #4
 1632 0008 2370     		strb	r3, [r4]
 1633 000a 0F3B     		subs	r3, r3, #15
 1634 000c 2372     		strb	r3, [r4, #8]
 1635 000e 0133     		adds	r3, r3, #1
 1636 0010 0500     		movs	r5, r0
 1637 0012 6374     		strb	r3, [r4, #17]
 1638 0014 FFF7FEFF 		bl	smtc_modem_hal_get_time_in_s
 1639 0018 4019     		adds	r0, r0, r5
 1640 001a 0290     		str	r0, [sp, #8]
 1641 001c FFF7FEFF 		bl	get_join_state
 1642 0020 0228     		cmp	r0, #2
 1643 0022 02D1     		bne	.L182
 1644 0024 2000     		movs	r0, r4
 1645 0026 FFF7FEFF 		bl	modem_supervisor_add_task
 1646              	.L182:
 1647 002a 07B0     		add	sp, sp, #28
 1648              		@ sp needed
 1649 002c 30BD     		pop	{r4, r5, pc}
 1651              		.section	.text.modem_supervisor_add_task_ping_slot_info_req,"ax",%progbits
 1652              		.align	1
 1653              		.global	modem_supervisor_add_task_ping_slot_info_req
 1654              		.syntax unified
 1655              		.code	16
 1656              		.thumb_func
 1658              	modem_supervisor_add_task_ping_slot_info_req:
 1659              		@ args = 0, pretend = 0, frame = 24
 1660              		@ frame_needed = 0, uses_anonymous_args = 0
 1661 0000 1123     		movs	r3, #17
 1662 0002 30B5     		push	{r4, r5, lr}
 1663 0004 87B0     		sub	sp, sp, #28
 1664 0006 01AC     		add	r4, sp, #4
 1665 0008 2370     		strb	r3, [r4]
 1666 000a 103B     		subs	r3, r3, #16
 1667 000c 2372     		strb	r3, [r4, #8]
 1668 000e 0133     		adds	r3, r3, #1
 1669 0010 0500     		movs	r5, r0
 1670 0012 6374     		strb	r3, [r4, #17]
 1671 0014 FFF7FEFF 		bl	smtc_modem_hal_get_time_in_s
 1672 0018 4019     		adds	r0, r0, r5
 1673 001a 0290     		str	r0, [sp, #8]
 1674 001c FFF7FEFF 		bl	get_join_state
 1675 0020 0228     		cmp	r0, #2
 1676 0022 02D1     		bne	.L184
 1677 0024 2000     		movs	r0, r4
 1678 0026 FFF7FEFF 		bl	modem_supervisor_add_task
 1679              	.L184:
ARM GAS  /tmp/ccHTTdmI.s 			page 29


 1680 002a 07B0     		add	sp, sp, #28
 1681              		@ sp needed
 1682 002c 30BD     		pop	{r4, r5, pc}
 1684              		.section	.text.get_modem_status,"ax",%progbits
 1685              		.align	1
 1686              		.global	get_modem_status
 1687              		.syntax unified
 1688              		.code	16
 1689              		.thumb_func
 1691              	get_modem_status:
 1692              		@ args = 0, pretend = 0, frame = 0
 1693              		@ frame_needed = 0, uses_anonymous_args = 0
 1694 0000 10B5     		push	{r4, lr}
 1695 0002 FFF7FEFF 		bl	get_join_state
 1696 0006 0228     		cmp	r0, #2
 1697 0008 02D0     		beq	.L187
 1698 000a 0020     		movs	r0, #0
 1699 000c FFF7FEFF 		bl	set_modem_status_modem_joined
 1700              	.L187:
 1701              		@ sp needed
 1702 0010 014B     		ldr	r3, .L191
 1703 0012 1878     		ldrb	r0, [r3]
 1704 0014 10BD     		pop	{r4, pc}
 1705              	.L192:
 1706 0016 C046     		.align	2
 1707              	.L191:
 1708 0018 00000000 		.word	modem_status
 1710              		.section	.text.get_modem_status_streaming,"ax",%progbits
 1711              		.align	1
 1712              		.global	get_modem_status_streaming
 1713              		.syntax unified
 1714              		.code	16
 1715              		.thumb_func
 1717              	get_modem_status_streaming:
 1718              		@ args = 0, pretend = 0, frame = 0
 1719              		@ frame_needed = 0, uses_anonymous_args = 0
 1720              		@ link register save eliminated.
 1721 0000 014B     		ldr	r3, .L194
 1722              		@ sp needed
 1723 0002 1878     		ldrb	r0, [r3]
 1724 0004 C009     		lsrs	r0, r0, #7
 1725 0006 7047     		bx	lr
 1726              	.L195:
 1727              		.align	2
 1728              	.L194:
 1729 0008 00000000 		.word	modem_status
 1731              		.section	.text.reset_modem_charge,"ax",%progbits
 1732              		.align	1
 1733              		.global	reset_modem_charge
 1734              		.syntax unified
 1735              		.code	16
 1736              		.thumb_func
 1738              	reset_modem_charge:
 1739              		@ args = 0, pretend = 0, frame = 0
 1740              		@ frame_needed = 0, uses_anonymous_args = 0
 1741 0000 C422     		movs	r2, #196
 1742 0002 054B     		ldr	r3, .L197
ARM GAS  /tmp/ccHTTdmI.s 			page 30


 1743 0004 10B5     		push	{r4, lr}
 1744 0006 1868     		ldr	r0, [r3]
 1745 0008 044B     		ldr	r3, .L197+4
 1746 000a 0021     		movs	r1, #0
 1747              		@ sp needed
 1748 000c C018     		adds	r0, r0, r3
 1749 000e 5200     		lsls	r2, r2, #1
 1750 0010 FFF7FEFF 		bl	memset
 1751 0014 10BD     		pop	{r4, pc}
 1752              	.L198:
 1753 0016 C046     		.align	2
 1754              	.L197:
 1755 0018 00000000 		.word	modem_rp
 1756 001c F4070000 		.word	2036
 1758              		.global	__aeabi_uidiv
 1759              		.section	.text.get_modem_charge_ma_s,"ax",%progbits
 1760              		.align	1
 1761              		.global	get_modem_charge_ma_s
 1762              		.syntax unified
 1763              		.code	16
 1764              		.thumb_func
 1766              	get_modem_charge_ma_s:
 1767              		@ args = 0, pretend = 0, frame = 0
 1768              		@ frame_needed = 0, uses_anonymous_args = 0
 1769 0000 FA21     		movs	r1, #250
 1770 0002 094B     		ldr	r3, .L200
 1771 0004 094A     		ldr	r2, .L200+4
 1772 0006 1B68     		ldr	r3, [r3]
 1773 0008 10B5     		push	{r4, lr}
 1774 000a 9858     		ldr	r0, [r3, r2]
 1775 000c 084A     		ldr	r2, .L200+8
 1776 000e 8900     		lsls	r1, r1, #2
 1777 0010 9A58     		ldr	r2, [r3, r2]
 1778              		@ sp needed
 1779 0012 8018     		adds	r0, r0, r2
 1780 0014 074A     		ldr	r2, .L200+12
 1781 0016 9B58     		ldr	r3, [r3, r2]
 1782 0018 C018     		adds	r0, r0, r3
 1783 001a FFF7FEFF 		bl	__aeabi_uidiv
 1784 001e 064B     		ldr	r3, .L200+16
 1785 0020 1B68     		ldr	r3, [r3]
 1786 0022 C018     		adds	r0, r0, r3
 1787 0024 10BD     		pop	{r4, pc}
 1788              	.L201:
 1789 0026 C046     		.align	2
 1790              	.L200:
 1791 0028 00000000 		.word	modem_rp
 1792 002c 34090000 		.word	2356
 1793 0030 38090000 		.word	2360
 1794 0034 3C090000 		.word	2364
 1795 0038 00000000 		.word	modem_charge_offset
 1797              		.section	.text.get_modem_charge_ma_h,"ax",%progbits
 1798              		.align	1
 1799              		.global	get_modem_charge_ma_h
 1800              		.syntax unified
 1801              		.code	16
 1802              		.thumb_func
ARM GAS  /tmp/ccHTTdmI.s 			page 31


 1804              	get_modem_charge_ma_h:
 1805              		@ args = 0, pretend = 0, frame = 0
 1806              		@ frame_needed = 0, uses_anonymous_args = 0
 1807 0000 10B5     		push	{r4, lr}
 1808 0002 FFF7FEFF 		bl	get_modem_charge_ma_s
 1809              		@ sp needed
 1810 0006 E121     		movs	r1, #225
 1811 0008 0901     		lsls	r1, r1, #4
 1812 000a FFF7FEFF 		bl	__aeabi_uidiv
 1813 000e 10BD     		pop	{r4, pc}
 1815              		.section	.text.get_modem_user_define_charge_ma_h,"ax",%progbits
 1816              		.align	1
 1817              		.global	get_modem_user_define_charge_ma_h
 1818              		.syntax unified
 1819              		.code	16
 1820              		.thumb_func
 1822              	get_modem_user_define_charge_ma_h:
 1823              		@ args = 0, pretend = 0, frame = 0
 1824              		@ frame_needed = 0, uses_anonymous_args = 0
 1825              		@ link register save eliminated.
 1826 0000 014B     		ldr	r3, .L204
 1827              		@ sp needed
 1828 0002 1888     		ldrh	r0, [r3]
 1829 0004 7047     		bx	lr
 1830              	.L205:
 1831 0006 C046     		.align	2
 1832              	.L204:
 1833 0008 00000000 		.word	user_define_charge_counter
 1835              		.section	.text.set_modem_user_define_charge_ma_h,"ax",%progbits
 1836              		.align	1
 1837              		.global	set_modem_user_define_charge_ma_h
 1838              		.syntax unified
 1839              		.code	16
 1840              		.thumb_func
 1842              	set_modem_user_define_charge_ma_h:
 1843              		@ args = 0, pretend = 0, frame = 0
 1844              		@ frame_needed = 0, uses_anonymous_args = 0
 1845              		@ link register save eliminated.
 1846 0000 014B     		ldr	r3, .L207
 1847              		@ sp needed
 1848 0002 1880     		strh	r0, [r3]
 1849 0004 7047     		bx	lr
 1850              	.L208:
 1851 0006 C046     		.align	2
 1852              	.L207:
 1853 0008 00000000 		.word	user_define_charge_counter
 1855              		.section	.text.choose_modem_charge_counter,"ax",%progbits
 1856              		.align	1
 1857              		.global	choose_modem_charge_counter
 1858              		.syntax unified
 1859              		.code	16
 1860              		.thumb_func
 1862              	choose_modem_charge_counter:
 1863              		@ args = 0, pretend = 0, frame = 0
 1864              		@ frame_needed = 0, uses_anonymous_args = 0
 1865              		@ link register save eliminated.
 1866 0000 0022     		movs	r2, #0
ARM GAS  /tmp/ccHTTdmI.s 			page 32


 1867              		@ sp needed
 1868 0002 014B     		ldr	r3, .L210
 1869 0004 1A70     		strb	r2, [r3]
 1870 0006 7047     		bx	lr
 1871              	.L211:
 1872              		.align	2
 1873              	.L210:
 1874 0008 00000000 		.word	charge_counter_to_send
 1876              		.section	.text.choose_user_define_charge_counter,"ax",%progbits
 1877              		.align	1
 1878              		.global	choose_user_define_charge_counter
 1879              		.syntax unified
 1880              		.code	16
 1881              		.thumb_func
 1883              	choose_user_define_charge_counter:
 1884              		@ args = 0, pretend = 0, frame = 0
 1885              		@ frame_needed = 0, uses_anonymous_args = 0
 1886              		@ link register save eliminated.
 1887 0000 0122     		movs	r2, #1
 1888              		@ sp needed
 1889 0002 014B     		ldr	r3, .L213
 1890 0004 1A70     		strb	r2, [r3]
 1891 0006 7047     		bx	lr
 1892              	.L214:
 1893              		.align	2
 1894              	.L213:
 1895 0008 00000000 		.word	charge_counter_to_send
 1897              		.section	.text.get_charge_counter_to_send,"ax",%progbits
 1898              		.align	1
 1899              		.global	get_charge_counter_to_send
 1900              		.syntax unified
 1901              		.code	16
 1902              		.thumb_func
 1904              	get_charge_counter_to_send:
 1905              		@ args = 0, pretend = 0, frame = 0
 1906              		@ frame_needed = 0, uses_anonymous_args = 0
 1907              		@ link register save eliminated.
 1908 0000 014B     		ldr	r3, .L216
 1909              		@ sp needed
 1910 0002 1878     		ldrb	r0, [r3]
 1911 0004 7047     		bx	lr
 1912              	.L217:
 1913 0006 C046     		.align	2
 1914              	.L216:
 1915 0008 00000000 		.word	charge_counter_to_send
 1917              		.section	.text.get_modem_voltage,"ax",%progbits
 1918              		.align	1
 1919              		.global	get_modem_voltage
 1920              		.syntax unified
 1921              		.code	16
 1922              		.thumb_func
 1924              	get_modem_voltage:
 1925              		@ args = 0, pretend = 0, frame = 0
 1926              		@ frame_needed = 0, uses_anonymous_args = 0
 1927 0000 10B5     		push	{r4, lr}
 1928 0002 FFF7FEFF 		bl	smtc_modem_hal_get_voltage
 1929              		@ sp needed
ARM GAS  /tmp/ccHTTdmI.s 			page 33


 1930 0006 10BD     		pop	{r4, pc}
 1932              		.section	.text.get_modem_temp,"ax",%progbits
 1933              		.align	1
 1934              		.global	get_modem_temp
 1935              		.syntax unified
 1936              		.code	16
 1937              		.thumb_func
 1939              	get_modem_temp:
 1940              		@ args = 0, pretend = 0, frame = 0
 1941              		@ frame_needed = 0, uses_anonymous_args = 0
 1942 0000 10B5     		push	{r4, lr}
 1943 0002 FFF7FEFF 		bl	smtc_modem_hal_get_temperature
 1944              		@ sp needed
 1945 0006 10BD     		pop	{r4, pc}
 1947              		.section	.rodata.dm_check_dminfo_size.str1.1,"aMS",%progbits,1
 1948              	.LC103:
 1949 0000 1B5B303B 		.ascii	"\033[0;31mERROR: Invalid DM command\012\015\000"
 1949      33316D45 
 1949      52524F52 
 1949      3A20496E 
 1949      76616C69 
 1950              	.LC107:
 1951 0023 1B5B303B 		.ascii	"\033[0;31mERROR: Invalid DM command size\012\015\000"
 1951      33316D45 
 1951      52524F52 
 1951      3A20496E 
 1951      76616C69 
 1952              		.section	.text.dm_check_dminfo_size,"ax",%progbits
 1953              		.align	1
 1954              		.global	dm_check_dminfo_size
 1955              		.syntax unified
 1956              		.code	16
 1957              		.thumb_func
 1959              	dm_check_dminfo_size:
 1960              		@ args = 0, pretend = 0, frame = 0
 1961              		@ frame_needed = 0, uses_anonymous_args = 0
 1962 0000 10B5     		push	{r4, lr}
 1963 0002 1B28     		cmp	r0, #27
 1964 0004 07D9     		bls	.L221
 1965 0006 0748     		ldr	r0, .L226
 1966              	.L225:
 1967 0008 FFF7FEFF 		bl	smtc_modem_hal_print_trace
 1968 000c 0648     		ldr	r0, .L226+4
 1969 000e FFF7FEFF 		bl	smtc_modem_hal_print_trace
 1970 0012 0120     		movs	r0, #1
 1971              	.L223:
 1972              		@ sp needed
 1973 0014 10BD     		pop	{r4, pc}
 1974              	.L221:
 1975 0016 054B     		ldr	r3, .L226+8
 1976 0018 1B5C     		ldrb	r3, [r3, r0]
 1977 001a 0020     		movs	r0, #0
 1978 001c 8B42     		cmp	r3, r1
 1979 001e F9D0     		beq	.L223
 1980 0020 0348     		ldr	r0, .L226+12
 1981 0022 F1E7     		b	.L225
 1982              	.L227:
ARM GAS  /tmp/ccHTTdmI.s 			page 34


 1983              		.align	2
 1984              	.L226:
 1985 0024 00000000 		.word	.LC103
 1986 0028 1E000000 		.word	.LC41
 1987 002c 00000000 		.word	dm_info_field_sz
 1988 0030 23000000 		.word	.LC107
 1990              		.section	.text.dm_set_conf,"ax",%progbits
 1991              		.align	1
 1992              		.global	dm_set_conf
 1993              		.syntax unified
 1994              		.code	16
 1995              		.thumb_func
 1997              	dm_set_conf:
 1998              		@ args = 0, pretend = 0, frame = 8
 1999              		@ frame_needed = 0, uses_anonymous_args = 0
 2000 0000 37B5     		push	{r0, r1, r2, r4, r5, lr}
 2001 0002 0C00     		movs	r4, r1
 2002 0004 1100     		movs	r1, r2
 2003 0006 0500     		movs	r5, r0
 2004 0008 FFF7FEFF 		bl	dm_check_dminfo_size
 2005 000c 0028     		cmp	r0, #0
 2006 000e 01D0     		beq	.L229
 2007              	.L230:
 2008 0010 0020     		movs	r0, #0
 2009              	.L231:
 2010              		@ sp needed
 2011 0012 3EBD     		pop	{r1, r2, r3, r4, r5, pc}
 2012              	.L229:
 2013 0014 2800     		movs	r0, r5
 2014 0016 0838     		subs	r0, r0, #8
 2015 0018 0328     		cmp	r0, #3
 2016 001a F9D8     		bhi	.L230
 2017 001c FFF7FEFF 		bl	__gnu_thumb1_case_uqi
 2018              	.L233:
 2019 0020 02       		.byte	(.L236-.L233)/2
 2020 0021 0F       		.byte	(.L235-.L233)/2
 2021 0022 18       		.byte	(.L234-.L233)/2
 2022 0023 20       		.byte	(.L232-.L233)/2
 2023              		.p2align 1
 2024              	.L236:
 2025 0024 2078     		ldrb	r0, [r4]
 2026 0026 124B     		ldr	r3, .L243
 2027 0028 1870     		strb	r0, [r3]
 2028 002a FFF7FEFF 		bl	lorawan_api_dr_strategy_set
 2029 002e 0130     		adds	r0, r0, #1
 2030 0030 EED0     		beq	.L230
 2031              	.L238:
 2032 0032 0620     		movs	r0, #6
 2033 0034 2900     		movs	r1, r5
 2034 0036 FFF7FEFF 		bl	increment_asynchronous_msgnumber
 2035 003a 0120     		movs	r0, #1
 2036 003c E9E7     		b	.L231
 2037              	.L235:
 2038 003e 6846     		mov	r0, sp
 2039 0040 0822     		movs	r2, #8
 2040 0042 2100     		movs	r1, r4
 2041 0044 FFF7FEFF 		bl	memcpy1_r
ARM GAS  /tmp/ccHTTdmI.s 			page 35


 2042 0048 6846     		mov	r0, sp
 2043 004a FFF7FEFF 		bl	lorawan_api_set_joineui
 2044 004e F0E7     		b	.L238
 2045              	.L234:
 2046 0050 2078     		ldrb	r0, [r4]
 2047 0052 FFF7FEFF 		bl	set_modem_dm_interval
 2048 0056 FFF7FEFF 		bl	get_modem_dm_interval_second
 2049 005a FFF7FEFF 		bl	modem_supervisor_add_task_dm_status
 2050 005e E8E7     		b	.L238
 2051              	.L232:
 2052 0060 0020     		movs	r0, #0
 2053 0062 FFF7FEFF 		bl	smtc_modem_leave_network
 2054 0066 2078     		ldrb	r0, [r4]
 2055 0068 FFF7FEFF 		bl	set_modem_region
 2056 006c E1E7     		b	.L238
 2057              	.L244:
 2058 006e C046     		.align	2
 2059              	.L243:
 2060 0070 00000000 		.word	modem_adr_profile
 2062              		.section	.text.get_modem_muted,"ax",%progbits
 2063              		.align	1
 2064              		.global	get_modem_muted
 2065              		.syntax unified
 2066              		.code	16
 2067              		.thumb_func
 2069              	get_modem_muted:
 2070              		@ args = 0, pretend = 0, frame = 0
 2071              		@ frame_needed = 0, uses_anonymous_args = 0
 2072              		@ link register save eliminated.
 2073 0000 034B     		ldr	r3, .L250
 2074 0002 1878     		ldrb	r0, [r3]
 2075 0004 FF28     		cmp	r0, #255
 2076 0006 02D0     		beq	.L246
 2077 0008 431E     		subs	r3, r0, #1
 2078 000a 9841     		sbcs	r0, r0, r3
 2079 000c C0B2     		uxtb	r0, r0
 2080              	.L246:
 2081              		@ sp needed
 2082 000e 7047     		bx	lr
 2083              	.L251:
 2084              		.align	2
 2085              	.L250:
 2086 0010 00000000 		.word	number_of_muted_day
 2088              		.section	.text.dm_get_number_of_days_mute,"ax",%progbits
 2089              		.align	1
 2090              		.global	dm_get_number_of_days_mute
 2091              		.syntax unified
 2092              		.code	16
 2093              		.thumb_func
 2095              	dm_get_number_of_days_mute:
 2096              		@ args = 0, pretend = 0, frame = 0
 2097              		@ frame_needed = 0, uses_anonymous_args = 0
 2098              		@ link register save eliminated.
 2099 0000 014B     		ldr	r3, .L253
 2100              		@ sp needed
 2101 0002 1878     		ldrb	r0, [r3]
 2102 0004 7047     		bx	lr
ARM GAS  /tmp/ccHTTdmI.s 			page 36


 2103              	.L254:
 2104 0006 C046     		.align	2
 2105              	.L253:
 2106 0008 00000000 		.word	number_of_muted_day
 2108              		.section	.rodata.dm_set_number_of_days_mute.str1.1,"aMS",%progbits,1
 2109              	.LC112:
 2110 0000 4D555445 		.ascii	"MUTE for %d days\012\015\000"
 2110      20666F72 
 2110      20256420 
 2110      64617973 
 2110      0A0D00
 2111              		.section	.text.dm_set_number_of_days_mute,"ax",%progbits
 2112              		.align	1
 2113              		.global	dm_set_number_of_days_mute
 2114              		.syntax unified
 2115              		.code	16
 2116              		.thumb_func
 2118              	dm_set_number_of_days_mute:
 2119              		@ args = 0, pretend = 0, frame = 0
 2120              		@ frame_needed = 0, uses_anonymous_args = 0
 2121 0000 10B5     		push	{r4, lr}
 2122 0002 0400     		movs	r4, r0
 2123 0004 0748     		ldr	r0, .L259
 2124 0006 2100     		movs	r1, r4
 2125 0008 FFF7FEFF 		bl	smtc_modem_hal_print_trace
 2126 000c 064B     		ldr	r3, .L259+4
 2127 000e 1A78     		ldrb	r2, [r3]
 2128 0010 A242     		cmp	r2, r4
 2129 0012 06D0     		beq	.L255
 2130 0014 0120     		movs	r0, #1
 2131 0016 1C70     		strb	r4, [r3]
 2132 0018 002C     		cmp	r4, #0
 2133 001a 00D1     		bne	.L258
 2134 001c 2000     		movs	r0, r4
 2135              	.L258:
 2136 001e FFF7FEFF 		bl	set_modem_status_modem_mute
 2137              	.L255:
 2138              		@ sp needed
 2139 0022 10BD     		pop	{r4, pc}
 2140              	.L260:
 2141              		.align	2
 2142              	.L259:
 2143 0024 00000000 		.word	.LC112
 2144 0028 00000000 		.word	number_of_muted_day
 2146              		.section	.text.get_dm_info_tag_list,"ax",%progbits
 2147              		.align	1
 2148              		.global	get_dm_info_tag_list
 2149              		.syntax unified
 2150              		.code	16
 2151              		.thumb_func
 2153              	get_dm_info_tag_list:
 2154              		@ args = 0, pretend = 0, frame = 0
 2155              		@ frame_needed = 0, uses_anonymous_args = 0
 2156 0000 30B5     		push	{r4, r5, lr}
 2157 0002 0A4B     		ldr	r3, .L271
 2158 0004 0129     		cmp	r1, #1
 2159 0006 00D0     		beq	.L270
ARM GAS  /tmp/ccHTTdmI.s 			page 37


 2160 0008 094B     		ldr	r3, .L271+4
 2161              	.L270:
 2162 000a 1968     		ldr	r1, [r3]
 2163 000c 0022     		movs	r2, #0
 2164 000e 0300     		movs	r3, r0
 2165 0010 0124     		movs	r4, #1
 2166              	.L265:
 2167 0012 2500     		movs	r5, r4
 2168 0014 9540     		lsls	r5, r5, r2
 2169 0016 2942     		tst	r1, r5
 2170 0018 01D0     		beq	.L264
 2171 001a 1A70     		strb	r2, [r3]
 2172 001c 0133     		adds	r3, r3, #1
 2173              	.L264:
 2174 001e 0132     		adds	r2, r2, #1
 2175 0020 1C2A     		cmp	r2, #28
 2176 0022 F6D1     		bne	.L265
 2177 0024 181A     		subs	r0, r3, r0
 2178 0026 C0B2     		uxtb	r0, r0
 2179              		@ sp needed
 2180 0028 30BD     		pop	{r4, r5, pc}
 2181              	.L272:
 2182 002a C046     		.align	2
 2183              	.L271:
 2184 002c 00000000 		.word	dm_info_bitfield_now
 2185 0030 00000000 		.word	dm_info_bitfield_periodic
 2187              		.section	.rodata.set_dm_info.str1.1,"aMS",%progbits,1
 2188              	.LC117:
 2189 0000 1B5B303B 		.ascii	"\033[0;31mERROR: invalid DM info code (0x%02x)\012\015"
 2189      33316D45 
 2189      52524F52 
 2189      3A20696E 
 2189      76616C69 
 2190 002d 00       		.ascii	"\000"
 2191              		.section	.text.set_dm_info,"ax",%progbits
 2192              		.align	1
 2193              		.global	set_dm_info
 2194              		.syntax unified
 2195              		.code	16
 2196              		.thumb_func
 2198              	set_dm_info:
 2199              		@ args = 0, pretend = 0, frame = 8
 2200              		@ frame_needed = 0, uses_anonymous_args = 0
 2201 0000 F7B5     		push	{r0, r1, r2, r4, r5, r6, r7, lr}
 2202 0002 0400     		movs	r4, r0
 2203 0004 0600     		movs	r6, r0
 2204 0006 0700     		movs	r7, r0
 2205 0008 0125     		movs	r5, #1
 2206 000a 4318     		adds	r3, r0, r1
 2207 000c 0192     		str	r2, [sp, #4]
 2208 000e 0093     		str	r3, [sp]
 2209              	.L274:
 2210 0010 009B     		ldr	r3, [sp]
 2211 0012 9F42     		cmp	r7, r3
 2212 0014 04D1     		bne	.L277
 2213 0016 012D     		cmp	r5, #1
 2214 0018 1DD0     		beq	.L278
ARM GAS  /tmp/ccHTTdmI.s 			page 38


 2215              	.L284:
 2216 001a 0025     		movs	r5, #0
 2217              	.L279:
 2218              		@ sp needed
 2219 001c 2800     		movs	r0, r5
 2220 001e FEBD     		pop	{r1, r2, r3, r4, r5, r6, r7, pc}
 2221              	.L277:
 2222 0020 3978     		ldrb	r1, [r7]
 2223 0022 1B29     		cmp	r1, #27
 2224 0024 04D8     		bhi	.L275
 2225 0026 1E4B     		ldr	r3, .L297
 2226 0028 0122     		movs	r2, #1
 2227 002a 0B41     		asrs	r3, r3, r1
 2228 002c 1342     		tst	r3, r2
 2229 002e 06D1     		bne	.L276
 2230              	.L275:
 2231 0030 1C48     		ldr	r0, .L297+4
 2232 0032 FFF7FEFF 		bl	smtc_modem_hal_print_trace
 2233 0036 1C48     		ldr	r0, .L297+8
 2234 0038 FFF7FEFF 		bl	smtc_modem_hal_print_trace
 2235 003c 0025     		movs	r5, #0
 2236              	.L276:
 2237 003e 0137     		adds	r7, r7, #1
 2238 0040 E6E7     		b	.L274
 2239              	.L282:
 2240 0042 2378     		ldrb	r3, [r4]
 2241 0044 0D2B     		cmp	r3, #13
 2242 0046 05D1     		bne	.L281
 2243 0048 019B     		ldr	r3, [sp, #4]
 2244 004a 012B     		cmp	r3, #1
 2245 004c 0BD1     		bne	.L291
 2246 004e 0020     		movs	r0, #0
 2247 0050 FFF7FEFF 		bl	modem_supervisor_add_task_crash_log
 2248              	.L281:
 2249 0054 0134     		adds	r4, r4, #1
 2250              	.L278:
 2251 0056 009B     		ldr	r3, [sp]
 2252 0058 9C42     		cmp	r4, r3
 2253 005a F2D1     		bne	.L282
 2254 005c 012D     		cmp	r5, #1
 2255 005e DCD1     		bne	.L284
 2256 0060 0023     		movs	r3, #0
 2257 0062 2900     		movs	r1, r5
 2258 0064 08E0     		b	.L283
 2259              	.L291:
 2260 0066 0025     		movs	r5, #0
 2261 0068 F4E7     		b	.L281
 2262              	.L286:
 2263 006a 3278     		ldrb	r2, [r6]
 2264 006c 0D2A     		cmp	r2, #13
 2265 006e 02D0     		beq	.L285
 2266 0070 0800     		movs	r0, r1
 2267 0072 9040     		lsls	r0, r0, r2
 2268 0074 0343     		orrs	r3, r0
 2269              	.L285:
 2270 0076 0136     		adds	r6, r6, #1
 2271              	.L283:
ARM GAS  /tmp/ccHTTdmI.s 			page 39


 2272 0078 009A     		ldr	r2, [sp]
 2273 007a 9642     		cmp	r6, r2
 2274 007c F5D1     		bne	.L286
 2275 007e 019A     		ldr	r2, [sp, #4]
 2276 0080 012A     		cmp	r2, #1
 2277 0082 05D1     		bne	.L287
 2278 0084 094A     		ldr	r2, .L297+12
 2279 0086 1360     		str	r3, [r2]
 2280 0088 094B     		ldr	r3, .L297+16
 2281              	.L296:
 2282 008a 0022     		movs	r2, #0
 2283 008c 1A70     		strb	r2, [r3]
 2284 008e C5E7     		b	.L279
 2285              	.L287:
 2286 0090 084A     		ldr	r2, .L297+20
 2287 0092 1168     		ldr	r1, [r2]
 2288 0094 9942     		cmp	r1, r3
 2289 0096 C1D0     		beq	.L279
 2290 0098 1360     		str	r3, [r2]
 2291 009a 074B     		ldr	r3, .L297+24
 2292 009c F5E7     		b	.L296
 2293              	.L298:
 2294 009e C046     		.align	2
 2295              	.L297:
 2296 00a0 FFAF6DF1 		.word	-244469761
 2297 00a4 00000000 		.word	.LC117
 2298 00a8 1E000000 		.word	.LC41
 2299 00ac 00000000 		.word	dm_info_bitfield_now
 2300 00b0 00000000 		.word	tag_number_now
 2301 00b4 00000000 		.word	dm_info_bitfield_periodic
 2302 00b8 00000000 		.word	tag_number
 2304              		.section	.text.set_modem_suspend,"ax",%progbits
 2305              		.align	1
 2306              		.global	set_modem_suspend
 2307              		.syntax unified
 2308              		.code	16
 2309              		.thumb_func
 2311              	set_modem_suspend:
 2312              		@ args = 0, pretend = 0, frame = 0
 2313              		@ frame_needed = 0, uses_anonymous_args = 0
 2314 0000 10B5     		push	{r4, lr}
 2315 0002 0400     		movs	r4, r0
 2316              		@ sp needed
 2317 0004 FFF7FEFF 		bl	set_modem_status_radio_suspend
 2318 0008 014B     		ldr	r3, .L300
 2319 000a 0120     		movs	r0, #1
 2320 000c 1C70     		strb	r4, [r3]
 2321 000e 10BD     		pop	{r4, pc}
 2322              	.L301:
 2323              		.align	2
 2324              	.L300:
 2325 0010 00000000 		.word	is_modem_suspend
 2327              		.section	.text.get_modem_suspend,"ax",%progbits
 2328              		.align	1
 2329              		.global	get_modem_suspend
 2330              		.syntax unified
 2331              		.code	16
ARM GAS  /tmp/ccHTTdmI.s 			page 40


 2332              		.thumb_func
 2334              	get_modem_suspend:
 2335              		@ args = 0, pretend = 0, frame = 0
 2336              		@ frame_needed = 0, uses_anonymous_args = 0
 2337              		@ link register save eliminated.
 2338 0000 034B     		ldr	r3, .L303
 2339              		@ sp needed
 2340 0002 1878     		ldrb	r0, [r3]
 2341 0004 0138     		subs	r0, r0, #1
 2342 0006 4342     		rsbs	r3, r0, #0
 2343 0008 5841     		adcs	r0, r0, r3
 2344 000a C0B2     		uxtb	r0, r0
 2345 000c 7047     		bx	lr
 2346              	.L304:
 2347 000e C046     		.align	2
 2348              	.L303:
 2349 0010 00000000 		.word	is_modem_suspend
 2351              		.section	.rodata.set_modem_adr_profile.str1.1,"aMS",%progbits,1
 2352              	.LC126:
 2353 0000 1B5B303B 		.ascii	"\033[0;31mERROR: user_dr = %d not compatible with a"
 2353      33316D45 
 2353      52524F52 
 2353      3A207573 
 2353      65725F64 
 2354 0030 64722064 		.ascii	"dr data length = %d \012\015 \000"
 2354      61746120 
 2354      6C656E67 
 2354      7468203D 
 2354      20256420 
 2355              	.LC130:
 2356 0048 1B5B303B 		.ascii	"\033[0;31mERROR: ADR with DataRate out of range\012"
 2356      33316D45 
 2356      52524F52 
 2356      3A204144 
 2356      52207769 
 2357 0075 0D00     		.ascii	"\015\000"
 2358              	.LC132:
 2359 0077 1B5B303B 		.ascii	"\033[0;31mERROR: ADR with a bad DataRate value\012\015"
 2359      33316D45 
 2359      52524F52 
 2359      3A204144 
 2359      52207769 
 2360 00a4 00       		.ascii	"\000"
 2361              		.section	.text.set_modem_adr_profile,"ax",%progbits
 2362              		.align	1
 2363              		.global	set_modem_adr_profile
 2364              		.syntax unified
 2365              		.code	16
 2366              		.thumb_func
 2368              	set_modem_adr_profile:
 2369              		@ args = 0, pretend = 0, frame = 8
 2370              		@ frame_needed = 0, uses_anonymous_args = 0
 2371 0000 F7B5     		push	{r0, r1, r2, r4, r5, r6, r7, lr}
 2372 0002 0D00     		movs	r5, r1
 2373 0004 0328     		cmp	r0, #3
 2374 0006 19D8     		bhi	.L306
 2375 0008 16D1     		bne	.L307
ARM GAS  /tmp/ccHTTdmI.s 			page 41


 2376 000a 102A     		cmp	r2, #16
 2377 000c 16D1     		bne	.L306
 2378 000e 5E4B     		ldr	r3, .L344
 2379 0010 0126     		movs	r6, #1
 2380 0012 1870     		strb	r0, [r3]
 2381 0014 FFF7FEFF 		bl	lorawan_api_mask_tx_dr_channel_up_dwell_time_check
 2382 0018 0822     		movs	r2, #8
 2383 001a 0021     		movs	r1, #0
 2384 001c 0400     		movs	r4, r0
 2385 001e 6846     		mov	r0, sp
 2386 0020 FFF7FEFF 		bl	memset
 2387 0024 0022     		movs	r2, #0
 2388 0026 2900     		movs	r1, r5
 2389 0028 1035     		adds	r5, r5, #16
 2390              	.L311:
 2391 002a 0878     		ldrb	r0, [r1]
 2392 002c 0F28     		cmp	r0, #15
 2393 002e 1DD9     		bls	.L315
 2394 0030 5648     		ldr	r0, .L344+4
 2395              	.L341:
 2396 0032 FFF7FEFF 		bl	smtc_modem_hal_print_trace
 2397 0036 06E0     		b	.L342
 2398              	.L307:
 2399 0038 002A     		cmp	r2, #0
 2400 003a 09D0     		beq	.L309
 2401              	.L306:
 2402 003c 544B     		ldr	r3, .L344+8
 2403 003e 0100     		movs	r1, r0
 2404 0040 1800     		movs	r0, r3
 2405 0042 FFF7FEFF 		bl	smtc_modem_hal_print_trace
 2406              	.L342:
 2407 0046 5348     		ldr	r0, .L344+12
 2408 0048 FFF7FEFF 		bl	smtc_modem_hal_print_trace
 2409 004c 0020     		movs	r0, #0
 2410              	.L333:
 2411              		@ sp needed
 2412 004e FEBD     		pop	{r1, r2, r3, r4, r5, r6, r7, pc}
 2413              	.L309:
 2414 0050 4D4B     		ldr	r3, .L344
 2415 0052 1870     		strb	r0, [r3]
 2416 0054 0128     		cmp	r0, #1
 2417 0056 02D0     		beq	.L343
 2418 0058 0228     		cmp	r0, #2
 2419 005a 00D0     		beq	.L343
 2420 005c 1000     		movs	r0, r2
 2421              	.L343:
 2422 005e FFF7FEFF 		bl	lorawan_api_dr_strategy_set
 2423 0062 0130     		adds	r0, r0, #1
 2424 0064 431E     		subs	r3, r0, #1
 2425 0066 9841     		sbcs	r0, r0, r3
 2426 0068 C0B2     		uxtb	r0, r0
 2427 006a F0E7     		b	.L333
 2428              	.L315:
 2429 006c 2300     		movs	r3, r4
 2430 006e 0341     		asrs	r3, r3, r0
 2431 0070 3342     		tst	r3, r6
 2432 0072 13D0     		beq	.L317
ARM GAS  /tmp/ccHTTdmI.s 			page 42


 2433 0074 0B28     		cmp	r0, #11
 2434 0076 0FD8     		bhi	.L318
 2435 0078 FFF7FEFF 		bl	__gnu_thumb1_case_uqi
 2436              	.L320:
 2437 007c 06       		.byte	(.L331-.L320)/2
 2438 007d 17       		.byte	(.L330-.L320)/2
 2439 007e 22       		.byte	(.L329-.L320)/2
 2440 007f 2C       		.byte	(.L328-.L320)/2
 2441 0080 36       		.byte	(.L327-.L320)/2
 2442 0081 40       		.byte	(.L326-.L320)/2
 2443 0082 4A       		.byte	(.L325-.L320)/2
 2444 0083 52       		.byte	(.L324-.L320)/2
 2445 0084 59       		.byte	(.L323-.L320)/2
 2446 0085 62       		.byte	(.L322-.L320)/2
 2447 0086 6D       		.byte	(.L321-.L320)/2
 2448 0087 77       		.byte	(.L319-.L320)/2
 2449              		.p2align 1
 2450              	.L331:
 2451 0088 0098     		ldr	r0, [sp]
 2452 008a 030F     		lsrs	r3, r0, #28
 2453 008c 0F3B     		subs	r3, r3, #15
 2454 008e 5F1E     		subs	r7, r3, #1
 2455 0090 BB41     		sbcs	r3, r3, r7
 2456 0092 1B07     		lsls	r3, r3, #28
 2457              	.L339:
 2458 0094 1B18     		adds	r3, r3, r0
 2459 0096 0093     		str	r3, [sp]
 2460              	.L318:
 2461 0098 0132     		adds	r2, r2, #1
 2462 009a D2B2     		uxtb	r2, r2
 2463              	.L317:
 2464 009c 0131     		adds	r1, r1, #1
 2465 009e 8D42     		cmp	r5, r1
 2466 00a0 C3D1     		bne	.L311
 2467 00a2 002A     		cmp	r2, #0
 2468 00a4 6BD1     		bne	.L332
 2469 00a6 3C48     		ldr	r0, .L344+16
 2470 00a8 C3E7     		b	.L341
 2471              	.L330:
 2472 00aa F023     		movs	r3, #240
 2473 00ac F127     		movs	r7, #241
 2474 00ae 0098     		ldr	r0, [sp]
 2475 00b0 1B05     		lsls	r3, r3, #20
 2476 00b2 3F06     		lsls	r7, r7, #24
 2477 00b4 0340     		ands	r3, r0
 2478 00b6 DB19     		adds	r3, r3, r7
 2479 00b8 5F1E     		subs	r7, r3, #1
 2480 00ba BB41     		sbcs	r3, r3, r7
 2481 00bc 1B06     		lsls	r3, r3, #24
 2482 00be E9E7     		b	.L339
 2483              	.L329:
 2484 00c0 F023     		movs	r3, #240
 2485 00c2 0098     		ldr	r0, [sp]
 2486 00c4 354F     		ldr	r7, .L344+20
 2487 00c6 1B04     		lsls	r3, r3, #16
 2488 00c8 0340     		ands	r3, r0
 2489 00ca DB19     		adds	r3, r3, r7
ARM GAS  /tmp/ccHTTdmI.s 			page 43


 2490 00cc 5F1E     		subs	r7, r3, #1
 2491 00ce BB41     		sbcs	r3, r3, r7
 2492 00d0 1B05     		lsls	r3, r3, #20
 2493 00d2 DFE7     		b	.L339
 2494              	.L328:
 2495 00d4 F023     		movs	r3, #240
 2496 00d6 0098     		ldr	r0, [sp]
 2497 00d8 314F     		ldr	r7, .L344+24
 2498 00da 1B03     		lsls	r3, r3, #12
 2499 00dc 0340     		ands	r3, r0
 2500 00de DB19     		adds	r3, r3, r7
 2501 00e0 5F1E     		subs	r7, r3, #1
 2502 00e2 BB41     		sbcs	r3, r3, r7
 2503 00e4 1B04     		lsls	r3, r3, #16
 2504 00e6 D5E7     		b	.L339
 2505              	.L327:
 2506 00e8 F023     		movs	r3, #240
 2507 00ea 0098     		ldr	r0, [sp]
 2508 00ec 2D4F     		ldr	r7, .L344+28
 2509 00ee 1B02     		lsls	r3, r3, #8
 2510 00f0 0340     		ands	r3, r0
 2511 00f2 DB19     		adds	r3, r3, r7
 2512 00f4 5F1E     		subs	r7, r3, #1
 2513 00f6 BB41     		sbcs	r3, r3, r7
 2514 00f8 1B03     		lsls	r3, r3, #12
 2515 00fa CBE7     		b	.L339
 2516              	.L326:
 2517 00fc F023     		movs	r3, #240
 2518 00fe 0098     		ldr	r0, [sp]
 2519 0100 294F     		ldr	r7, .L344+32
 2520 0102 1B01     		lsls	r3, r3, #4
 2521 0104 0340     		ands	r3, r0
 2522 0106 DB19     		adds	r3, r3, r7
 2523 0108 5F1E     		subs	r7, r3, #1
 2524 010a BB41     		sbcs	r3, r3, r7
 2525 010c 1B02     		lsls	r3, r3, #8
 2526 010e C1E7     		b	.L339
 2527              	.L325:
 2528 0110 F023     		movs	r3, #240
 2529 0112 0098     		ldr	r0, [sp]
 2530 0114 0340     		ands	r3, r0
 2531 0116 F03B     		subs	r3, r3, #240
 2532 0118 5F1E     		subs	r7, r3, #1
 2533 011a BB41     		sbcs	r3, r3, r7
 2534 011c 1B01     		lsls	r3, r3, #4
 2535 011e B9E7     		b	.L339
 2536              	.L324:
 2537 0120 0F23     		movs	r3, #15
 2538 0122 0098     		ldr	r0, [sp]
 2539 0124 0340     		ands	r3, r0
 2540 0126 0F3B     		subs	r3, r3, #15
 2541 0128 5F1E     		subs	r7, r3, #1
 2542 012a BB41     		sbcs	r3, r3, r7
 2543 012c B2E7     		b	.L339
 2544              	.L323:
 2545 012e 0198     		ldr	r0, [sp, #4]
 2546 0130 030F     		lsrs	r3, r0, #28
ARM GAS  /tmp/ccHTTdmI.s 			page 44


 2547 0132 0F3B     		subs	r3, r3, #15
 2548 0134 5F1E     		subs	r7, r3, #1
 2549 0136 BB41     		sbcs	r3, r3, r7
 2550 0138 1B07     		lsls	r3, r3, #28
 2551              	.L340:
 2552 013a 1B18     		adds	r3, r3, r0
 2553 013c 0193     		str	r3, [sp, #4]
 2554 013e ABE7     		b	.L318
 2555              	.L322:
 2556 0140 F023     		movs	r3, #240
 2557 0142 F127     		movs	r7, #241
 2558 0144 0198     		ldr	r0, [sp, #4]
 2559 0146 1B05     		lsls	r3, r3, #20
 2560 0148 3F06     		lsls	r7, r7, #24
 2561 014a 0340     		ands	r3, r0
 2562 014c DB19     		adds	r3, r3, r7
 2563 014e 5F1E     		subs	r7, r3, #1
 2564 0150 BB41     		sbcs	r3, r3, r7
 2565 0152 1B06     		lsls	r3, r3, #24
 2566 0154 F1E7     		b	.L340
 2567              	.L321:
 2568 0156 F023     		movs	r3, #240
 2569 0158 0198     		ldr	r0, [sp, #4]
 2570 015a 104F     		ldr	r7, .L344+20
 2571 015c 1B04     		lsls	r3, r3, #16
 2572 015e 0340     		ands	r3, r0
 2573 0160 DB19     		adds	r3, r3, r7
 2574 0162 5F1E     		subs	r7, r3, #1
 2575 0164 BB41     		sbcs	r3, r3, r7
 2576 0166 1B05     		lsls	r3, r3, #20
 2577 0168 E7E7     		b	.L340
 2578              	.L319:
 2579 016a F023     		movs	r3, #240
 2580 016c 0198     		ldr	r0, [sp, #4]
 2581 016e 0C4F     		ldr	r7, .L344+24
 2582 0170 1B03     		lsls	r3, r3, #12
 2583 0172 0340     		ands	r3, r0
 2584 0174 DB19     		adds	r3, r3, r7
 2585 0176 5F1E     		subs	r7, r3, #1
 2586 0178 BB41     		sbcs	r3, r3, r7
 2587 017a 1B04     		lsls	r3, r3, #16
 2588 017c DDE7     		b	.L340
 2589              	.L332:
 2590 017e 6846     		mov	r0, sp
 2591 0180 FFF7FEFF 		bl	lorawan_api_dr_custom_set
 2592 0184 0320     		movs	r0, #3
 2593 0186 6AE7     		b	.L343
 2594              	.L345:
 2595              		.align	2
 2596              	.L344:
 2597 0188 00000000 		.word	modem_adr_profile
 2598 018c 48000000 		.word	.LC130
 2599 0190 00000000 		.word	.LC126
 2600 0194 1E000000 		.word	.LC41
 2601 0198 77000000 		.word	.LC132
 2602 019c 000010FF 		.word	-15728640
 2603 01a0 0000F1FF 		.word	-983040
ARM GAS  /tmp/ccHTTdmI.s 			page 45


 2604 01a4 0010FFFF 		.word	-61440
 2605 01a8 00F1FFFF 		.word	-3840
 2607              		.section	.rodata.set_modem_downlink_frame.str1.1,"aMS",%progbits,1
 2608              	.LC136:
 2609 0000 446F776E 		.ascii	"Downlink frame \000"
 2609      6C696E6B 
 2609      20667261 
 2609      6D652000 
 2610              	.LC138:
 2611 0010 2573202D 		.ascii	"%s - (%lu bytes):\012\015\000"
 2611      2028256C 
 2611      75206279 
 2611      74657329 
 2611      3A0A0D00 
 2612              	.LC140:
 2613 0024 0A0D00   		.ascii	"\012\015\000"
 2614              	.LC142:
 2615 0027 20253032 		.ascii	" %02X\000"
 2615      5800
 2616              	.LC144:
 2617 002d 444C2050 		.ascii	"DL Port = %d , \000"
 2617      6F727420 
 2617      3D202564 
 2617      202C2000 
 2618              	.LC146:
 2619 003d 444C2053 		.ascii	"DL SNR = %d , DL RSSI = %d , \000"
 2619      4E52203D 
 2619      20256420 
 2619      2C20444C 
 2619      20525353 
 2620              	.LC148:
 2621 005b 444C2046 		.ascii	"DL Freq = %lu , DL DR = %d , \000"
 2621      72657120 
 2621      3D20256C 
 2621      75202C20 
 2621      444C2044 
 2622              	.LC150:
 2623 0079 444C2046 		.ascii	"DL Fpending Bit = %d \012\015\000"
 2623      70656E64 
 2623      696E6720 
 2623      42697420 
 2623      3D202564 
 2624              		.section	.text.set_modem_downlink_frame,"ax",%progbits
 2625              		.align	1
 2626              		.global	set_modem_downlink_frame
 2627              		.syntax unified
 2628              		.code	16
 2629              		.thumb_func
 2631              	set_modem_downlink_frame:
 2632              		@ args = 0, pretend = 0, frame = 0
 2633              		@ frame_needed = 0, uses_anonymous_args = 0
 2634 0000 F8B5     		push	{r3, r4, r5, r6, r7, lr}
 2635 0002 0F00     		movs	r7, r1
 2636 0004 2D4E     		ldr	r6, .L353
 2637 0006 1500     		movs	r5, r2
 2638 0008 0A00     		movs	r2, r1
 2639 000a 0100     		movs	r1, r0
ARM GAS  /tmp/ccHTTdmI.s 			page 46


 2640 000c 3000     		movs	r0, r6
 2641 000e FFF7FEFF 		bl	memcpy
 2642 0012 2B4C     		ldr	r4, .L353+4
 2643 0014 2B4B     		ldr	r3, .L353+8
 2644 0016 2C49     		ldr	r1, .L353+12
 2645 0018 1F70     		strb	r7, [r3]
 2646 001a 2300     		movs	r3, r4
 2647 001c 2A68     		ldr	r2, [r5]
 2648 001e F833     		adds	r3, r3, #248
 2649 0020 1A60     		str	r2, [r3]
 2650 0022 2200     		movs	r2, r4
 2651 0024 AB88     		ldrh	r3, [r5, #4]
 2652 0026 F632     		adds	r2, r2, #246
 2653 0028 9B00     		lsls	r3, r3, #2
 2654 002a 1380     		strh	r3, [r2]
 2655 002c 2200     		movs	r2, r4
 2656 002e EB88     		ldrh	r3, [r5, #6]
 2657 0030 F432     		adds	r2, r2, #244
 2658 0032 4033     		adds	r3, r3, #64
 2659 0034 1380     		strh	r3, [r2]
 2660 0036 2B7A     		ldrb	r3, [r5, #8]
 2661 0038 2448     		ldr	r0, .L353+16
 2662 003a 2370     		strb	r3, [r4]
 2663 003c 2300     		movs	r3, r4
 2664 003e AA7A     		ldrb	r2, [r5, #10]
 2665 0040 FC33     		adds	r3, r3, #252
 2666 0042 1A70     		strb	r2, [r3]
 2667 0044 EA68     		ldr	r2, [r5, #12]
 2668 0046 5A60     		str	r2, [r3, #4]
 2669 0048 2300     		movs	r3, r4
 2670 004a 2A7C     		ldrb	r2, [r5, #16]
 2671 004c FF33     		adds	r3, r3, #255
 2672 004e 5A71     		strb	r2, [r3, #5]
 2673 0050 3A00     		movs	r2, r7
 2674 0052 FFF7FEFF 		bl	smtc_modem_hal_print_trace
 2675 0056 0025     		movs	r5, #0
 2676 0058 0F27     		movs	r7, #15
 2677              	.L347:
 2678 005a 2300     		movs	r3, r4
 2679 005c F333     		adds	r3, r3, #243
 2680 005e 1B78     		ldrb	r3, [r3]
 2681 0060 AB42     		cmp	r3, r5
 2682 0062 1ED8     		bhi	.L349
 2683              		@ sp needed
 2684 0064 1A48     		ldr	r0, .L353+20
 2685 0066 FFF7FEFF 		bl	smtc_modem_hal_print_trace
 2686 006a 2178     		ldrb	r1, [r4]
 2687 006c 1948     		ldr	r0, .L353+24
 2688 006e FFF7FEFF 		bl	smtc_modem_hal_print_trace
 2689 0072 2300     		movs	r3, r4
 2690 0074 F433     		adds	r3, r3, #244
 2691 0076 0022     		movs	r2, #0
 2692 0078 9A5E     		ldrsh	r2, [r3, r2]
 2693 007a 2300     		movs	r3, r4
 2694 007c F633     		adds	r3, r3, #246
 2695 007e 0021     		movs	r1, #0
 2696 0080 595E     		ldrsh	r1, [r3, r1]
ARM GAS  /tmp/ccHTTdmI.s 			page 47


 2697 0082 1548     		ldr	r0, .L353+28
 2698 0084 FFF7FEFF 		bl	smtc_modem_hal_print_trace
 2699 0088 2300     		movs	r3, r4
 2700 008a FC34     		adds	r4, r4, #252
 2701 008c FF33     		adds	r3, r3, #255
 2702 008e 5A79     		ldrb	r2, [r3, #5]
 2703 0090 6168     		ldr	r1, [r4, #4]
 2704 0092 1248     		ldr	r0, .L353+32
 2705 0094 FFF7FEFF 		bl	smtc_modem_hal_print_trace
 2706 0098 2178     		ldrb	r1, [r4]
 2707 009a 1148     		ldr	r0, .L353+36
 2708 009c FFF7FEFF 		bl	smtc_modem_hal_print_trace
 2709 00a0 F8BD     		pop	{r3, r4, r5, r6, r7, pc}
 2710              	.L349:
 2711 00a2 3D42     		tst	r5, r7
 2712 00a4 04D1     		bne	.L348
 2713 00a6 002D     		cmp	r5, #0
 2714 00a8 02D0     		beq	.L348
 2715 00aa 0948     		ldr	r0, .L353+20
 2716 00ac FFF7FEFF 		bl	smtc_modem_hal_print_trace
 2717              	.L348:
 2718 00b0 715D     		ldrb	r1, [r6, r5]
 2719 00b2 0C48     		ldr	r0, .L353+40
 2720 00b4 FFF7FEFF 		bl	smtc_modem_hal_print_trace
 2721 00b8 0135     		adds	r5, r5, #1
 2722 00ba CEE7     		b	.L347
 2723              	.L354:
 2724              		.align	2
 2725              	.L353:
 2726 00bc 01000000 		.word	modem_dwn_pkt+1
 2727 00c0 00000000 		.word	modem_dwn_pkt
 2728 00c4 F3000000 		.word	modem_dwn_pkt+243
 2729 00c8 00000000 		.word	.LC136
 2730 00cc 10000000 		.word	.LC138
 2731 00d0 24000000 		.word	.LC140
 2732 00d4 2D000000 		.word	.LC144
 2733 00d8 3D000000 		.word	.LC146
 2734 00dc 5B000000 		.word	.LC148
 2735 00e0 79000000 		.word	.LC150
 2736 00e4 27000000 		.word	.LC142
 2738              		.section	.text.get_modem_downlink_frame,"ax",%progbits
 2739              		.align	1
 2740              		.global	get_modem_downlink_frame
 2741              		.syntax unified
 2742              		.code	16
 2743              		.thumb_func
 2745              	get_modem_downlink_frame:
 2746              		@ args = 0, pretend = 0, frame = 0
 2747              		@ frame_needed = 0, uses_anonymous_args = 0
 2748 0000 134A     		ldr	r2, .L356
 2749 0002 144B     		ldr	r3, .L356+4
 2750 0004 1168     		ldr	r1, [r2]
 2751 0006 0200     		movs	r2, r0
 2752 0008 F832     		adds	r2, r2, #248
 2753 000a 10B5     		push	{r4, lr}
 2754 000c 1160     		str	r1, [r2]
 2755 000e 1A00     		movs	r2, r3
ARM GAS  /tmp/ccHTTdmI.s 			page 48


 2756              		@ sp needed
 2757 0010 F432     		adds	r2, r2, #244
 2758 0012 1168     		ldr	r1, [r2]
 2759 0014 0200     		movs	r2, r0
 2760 0016 F432     		adds	r2, r2, #244
 2761 0018 1160     		str	r1, [r2]
 2762 001a 1A78     		ldrb	r2, [r3]
 2763 001c 1900     		movs	r1, r3
 2764 001e 0270     		strb	r2, [r0]
 2765 0020 0200     		movs	r2, r0
 2766 0022 FC31     		adds	r1, r1, #252
 2767 0024 0C78     		ldrb	r4, [r1]
 2768 0026 4968     		ldr	r1, [r1, #4]
 2769 0028 FC32     		adds	r2, r2, #252
 2770 002a 5160     		str	r1, [r2, #4]
 2771 002c 1470     		strb	r4, [r2]
 2772 002e 1A00     		movs	r2, r3
 2773 0030 FF32     		adds	r2, r2, #255
 2774 0032 5179     		ldrb	r1, [r2, #5]
 2775 0034 0200     		movs	r2, r0
 2776 0036 FF32     		adds	r2, r2, #255
 2777 0038 5171     		strb	r1, [r2, #5]
 2778 003a F333     		adds	r3, r3, #243
 2779 003c 1A78     		ldrb	r2, [r3]
 2780 003e 0300     		movs	r3, r0
 2781 0040 F333     		adds	r3, r3, #243
 2782 0042 0549     		ldr	r1, .L356+8
 2783 0044 1A70     		strb	r2, [r3]
 2784 0046 0130     		adds	r0, r0, #1
 2785 0048 FFF7FEFF 		bl	memcpy
 2786 004c 10BD     		pop	{r4, pc}
 2787              	.L357:
 2788 004e C046     		.align	2
 2789              	.L356:
 2790 0050 F8000000 		.word	modem_dwn_pkt+248
 2791 0054 00000000 		.word	modem_dwn_pkt
 2792 0058 01000000 		.word	modem_dwn_pkt+1
 2794              		.section	.rodata.dm_status_payload.str1.1,"aMS",%progbits,1
 2795              	.LC170:
 2796 0000 1B5B303B 		.ascii	"\033[0;31mERROR: max_size must be greater than the "
 2796      33316D45 
 2796      52524F52 
 2796      3A206D61 
 2796      785F7369 
 2797 0030 736D616C 		.ascii	"smallest requested information\012\015\000"
 2797      6C657374 
 2797      20726571 
 2797      75657374 
 2797      65642069 
 2798              	.LC173:
 2799 0051 1B5B303B 		.ascii	"\033[0;31mERROR: check_dm_status_max_size\012\015\000"
 2799      33316D45 
 2799      52524F52 
 2799      3A206368 
 2799      65636B5F 
 2800              	.LC180:
 2801 007a 1B5B303B 		.ascii	"\033[0;31mERROR: Construct DM payload report, unkno"
ARM GAS  /tmp/ccHTTdmI.s 			page 49


 2801      33316D45 
 2801      52524F52 
 2801      3A20436F 
 2801      6E737472 
 2802 00aa 776E2063 		.ascii	"wn code 0x%02x\012\015\000"
 2802      6F646520 
 2802      30782530 
 2802      32780A0D 
 2802      00
 2803              		.section	.text.dm_status_payload,"ax",%progbits
 2804              		.align	1
 2805              		.global	dm_status_payload
 2806              		.syntax unified
 2807              		.code	16
 2808              		.thumb_func
 2810              	dm_status_payload:
 2811              		@ args = 0, pretend = 0, frame = 280
 2812              		@ frame_needed = 0, uses_anonymous_args = 0
 2813 0000 F0B5     		push	{r4, r5, r6, r7, lr}
 2814 0002 C7B0     		sub	sp, sp, #284
 2815 0004 0700     		movs	r7, r0
 2816 0006 0191     		str	r1, [sp, #4]
 2817 0008 0292     		str	r2, [sp, #8]
 2818 000a 012B     		cmp	r3, #1
 2819 000c 22D1     		bne	.L359
 2820 000e 754B     		ldr	r3, .L411
 2821 0010 754E     		ldr	r6, .L411+4
 2822 0012 1B68     		ldr	r3, [r3]
 2823 0014 0093     		str	r3, [sp]
 2824              	.L360:
 2825 0016 0023     		movs	r3, #0
 2826 0018 0122     		movs	r2, #1
 2827 001a 7449     		ldr	r1, .L411+8
 2828              	.L363:
 2829 001c 1000     		movs	r0, r2
 2830 001e 9840     		lsls	r0, r0, r3
 2831 0020 009C     		ldr	r4, [sp]
 2832 0022 0442     		tst	r4, r0
 2833 0024 1BD0     		beq	.L361
 2834 0026 C85C     		ldrb	r0, [r1, r3]
 2835 0028 029C     		ldr	r4, [sp, #8]
 2836 002a A042     		cmp	r0, r4
 2837 002c 17D9     		bls	.L361
 2838 002e 0024     		movs	r4, #0
 2839 0030 6F48     		ldr	r0, .L411+12
 2840 0032 FFF7FEFF 		bl	smtc_modem_hal_print_trace
 2841 0036 6F4D     		ldr	r5, .L411+16
 2842 0038 2800     		movs	r0, r5
 2843 003a FFF7FEFF 		bl	smtc_modem_hal_print_trace
 2844 003e 019B     		ldr	r3, [sp, #4]
 2845 0040 6D48     		ldr	r0, .L411+20
 2846 0042 1C70     		strb	r4, [r3]
 2847 0044 FFF7FEFF 		bl	smtc_modem_hal_print_trace
 2848 0048 2800     		movs	r0, r5
 2849 004a FFF7FEFF 		bl	smtc_modem_hal_print_trace
 2850 004e 2000     		movs	r0, r4
 2851              	.L362:
ARM GAS  /tmp/ccHTTdmI.s 			page 50


 2852 0050 47B0     		add	sp, sp, #284
 2853              		@ sp needed
 2854 0052 F0BD     		pop	{r4, r5, r6, r7, pc}
 2855              	.L359:
 2856 0054 694B     		ldr	r3, .L411+24
 2857 0056 6A4E     		ldr	r6, .L411+28
 2858 0058 1B68     		ldr	r3, [r3]
 2859 005a 0093     		str	r3, [sp]
 2860 005c DBE7     		b	.L360
 2861              	.L361:
 2862 005e 0133     		adds	r3, r3, #1
 2863 0060 1C2B     		cmp	r3, #28
 2864 0062 DBD1     		bne	.L363
 2865 0064 3378     		ldrb	r3, [r6]
 2866 0066 1B2B     		cmp	r3, #27
 2867 0068 01D9     		bls	.L364
 2868 006a 0023     		movs	r3, #0
 2869 006c 3370     		strb	r3, [r6]
 2870              	.L364:
 2871 006e 3C00     		movs	r4, r7
 2872              	.L365:
 2873 0070 3178     		ldrb	r1, [r6]
 2874 0072 1B29     		cmp	r1, #27
 2875 0074 04D9     		bls	.L394
 2876 0076 0020     		movs	r0, #0
 2877              	.L393:
 2878 0078 019B     		ldr	r3, [sp, #4]
 2879 007a E41B     		subs	r4, r4, r7
 2880 007c 1C70     		strb	r4, [r3]
 2881 007e E7E7     		b	.L362
 2882              	.L394:
 2883 0080 0123     		movs	r3, #1
 2884 0082 8B40     		lsls	r3, r3, r1
 2885 0084 009A     		ldr	r2, [sp]
 2886 0086 1A42     		tst	r2, r3
 2887 0088 21D0     		beq	.L366
 2888 008a 651C     		adds	r5, r4, #1
 2889 008c 2170     		strb	r1, [r4]
 2890 008e 1829     		cmp	r1, #24
 2891 0090 00D9     		bls	.LCB2951
 2892 0092 9DE0     		b	.L367	@long jump
 2893              	.LCB2951:
 2894 0094 0800     		movs	r0, r1
 2895 0096 FFF7FEFF 		bl	__gnu_thumb1_case_uqi
 2896              	.L369:
 2897 009a 0D       		.byte	(.L388-.L369)/2
 2898 009b 1E       		.byte	(.L387-.L369)/2
 2899 009c 2A       		.byte	(.L386-.L369)/2
 2900 009d 2D       		.byte	(.L385-.L369)/2
 2901 009e 30       		.byte	(.L384-.L369)/2
 2902 009f 44       		.byte	(.L383-.L369)/2
 2903 00a0 4B       		.byte	(.L382-.L369)/2
 2904 00a1 5F       		.byte	(.L381-.L369)/2
 2905 00a2 65       		.byte	(.L380-.L369)/2
 2906 00a3 69       		.byte	(.L379-.L369)/2
 2907 00a4 72       		.byte	(.L378-.L369)/2
 2908 00a5 74       		.byte	(.L377-.L369)/2
ARM GAS  /tmp/ccHTTdmI.s 			page 51


 2909 00a6 10       		.byte	(.L374-.L369)/2
 2910 00a7 10       		.byte	(.L374-.L369)/2
 2911 00a8 9B       		.byte	(.L367-.L369)/2
 2912 00a9 77       		.byte	(.L376-.L369)/2
 2913 00aa 7D       		.byte	(.L375-.L369)/2
 2914 00ab 10       		.byte	(.L374-.L369)/2
 2915 00ac 81       		.byte	(.L373-.L369)/2
 2916 00ad 87       		.byte	(.L372-.L369)/2
 2917 00ae 9B       		.byte	(.L367-.L369)/2
 2918 00af 8D       		.byte	(.L371-.L369)/2
 2919 00b0 93       		.byte	(.L370-.L369)/2
 2920 00b1 9B       		.byte	(.L367-.L369)/2
 2921 00b2 97       		.byte	(.L368-.L369)/2
 2922 00b3 00       		.p2align 1
 2923              	.L388:
 2924 00b4 FFF7FEFF 		bl	get_modem_status
 2925              	.L404:
 2926 00b8 6070     		strb	r0, [r4, #1]
 2927              	.L374:
 2928 00ba 3278     		ldrb	r2, [r6]
 2929 00bc 4B4B     		ldr	r3, .L411+8
 2930 00be 9B5C     		ldrb	r3, [r3, r2]
 2931 00c0 029A     		ldr	r2, [sp, #8]
 2932 00c2 ED18     		adds	r5, r5, r3
 2933 00c4 EB1B     		subs	r3, r5, r7
 2934 00c6 9342     		cmp	r3, r2
 2935 00c8 00DD     		ble	.LCB2973
 2936 00ca 88E0     		b	.L396	@long jump
 2937              	.LCB2973:
 2938 00cc 2C00     		movs	r4, r5
 2939              	.L366:
 2940 00ce 3378     		ldrb	r3, [r6]
 2941 00d0 0133     		adds	r3, r3, #1
 2942 00d2 3370     		strb	r3, [r6]
 2943 00d4 CCE7     		b	.L365
 2944              	.L387:
 2945 00d6 4B4B     		ldr	r3, .L411+32
 2946 00d8 1B78     		ldrb	r3, [r3]
 2947 00da 002B     		cmp	r3, #0
 2948 00dc 04D1     		bne	.L389
 2949 00de FFF7FEFF 		bl	get_modem_charge_ma_h
 2950              	.L409:
 2951 00e2 6070     		strb	r0, [r4, #1]
 2952              	.L408:
 2953 00e4 000A     		lsrs	r0, r0, #8
 2954 00e6 15E0     		b	.L405
 2955              	.L389:
 2956 00e8 474B     		ldr	r3, .L411+36
 2957 00ea 1888     		ldrh	r0, [r3]
 2958 00ec F9E7     		b	.L409
 2959              	.L386:
 2960 00ee FFF7FEFF 		bl	smtc_modem_hal_get_voltage
 2961 00f2 E1E7     		b	.L404
 2962              	.L385:
 2963 00f4 FFF7FEFF 		bl	smtc_modem_hal_get_temperature
 2964 00f8 DEE7     		b	.L404
 2965              	.L384:
ARM GAS  /tmp/ccHTTdmI.s 			page 52


 2966 00fa FFF7FEFF 		bl	lorawan_api_last_rssi_get
 2967 00fe 0300     		movs	r3, r0
 2968 0100 8033     		adds	r3, r3, #128
 2969 0102 9BB2     		uxth	r3, r3
 2970 0104 BF2B     		cmp	r3, #191
 2971 0106 07D8     		bhi	.L391
 2972 0108 4030     		adds	r0, r0, #64
 2973 010a C3B2     		uxtb	r3, r0
 2974              	.L392:
 2975 010c 6370     		strb	r3, [r4, #1]
 2976 010e FFF7FEFF 		bl	lorawan_api_last_snr_get
 2977 0112 8000     		lsls	r0, r0, #2
 2978              	.L405:
 2979 0114 A070     		strb	r0, [r4, #2]
 2980 0116 D0E7     		b	.L374
 2981              	.L391:
 2982 0118 7F23     		movs	r3, #127
 2983 011a 3F28     		cmp	r0, #63
 2984 011c F6DC     		bgt	.L392
 2985 011e 0133     		adds	r3, r3, #1
 2986 0120 F4E7     		b	.L392
 2987              	.L383:
 2988 0122 FFF7FEFF 		bl	get_modem_uptime_s
 2989              	.L410:
 2990 0126 E121     		movs	r1, #225
 2991 0128 0901     		lsls	r1, r1, #4
 2992 012a FFF7FEFF 		bl	__aeabi_uidiv
 2993 012e D8E7     		b	.L409
 2994              	.L382:
 2995 0130 8422     		movs	r2, #132
 2996 0132 0021     		movs	r1, #0
 2997 0134 5200     		lsls	r2, r2, #1
 2998 0136 04A8     		add	r0, sp, #16
 2999 0138 FFF7FEFF 		bl	memset
 3000 013c 04A8     		add	r0, sp, #16
 3001 013e FFF7FEFF 		bl	get_modem_downlink_frame
 3002 0142 FFF7FEFF 		bl	smtc_modem_hal_get_time_in_s
 3003 0146 FA21     		movs	r1, #250
 3004 0148 0390     		str	r0, [sp, #12]
 3005 014a 8900     		lsls	r1, r1, #2
 3006 014c 4298     		ldr	r0, [sp, #264]
 3007 014e FFF7FEFF 		bl	__aeabi_uidiv
 3008 0152 039B     		ldr	r3, [sp, #12]
 3009 0154 181A     		subs	r0, r3, r0
 3010 0156 E6E7     		b	.L410
 3011              	.L381:
 3012 0158 0822     		movs	r2, #8
 3013 015a 0021     		movs	r1, #0
 3014 015c 2800     		movs	r0, r5
 3015 015e FFF7FEFF 		bl	memset
 3016 0162 AAE7     		b	.L374
 3017              	.L380:
 3018 0164 294B     		ldr	r3, .L411+40
 3019              	.L407:
 3020 0166 1B78     		ldrb	r3, [r3]
 3021 0168 6370     		strb	r3, [r4, #1]
 3022 016a A6E7     		b	.L374
ARM GAS  /tmp/ccHTTdmI.s 			page 53


 3023              	.L379:
 3024 016c 04A8     		add	r0, sp, #16
 3025 016e FFF7FEFF 		bl	lorawan_api_get_joineui
 3026              	.L406:
 3027 0172 0822     		movs	r2, #8
 3028 0174 2800     		movs	r0, r5
 3029 0176 04A9     		add	r1, sp, #16
 3030 0178 FFF7FEFF 		bl	memcpy1_r
 3031 017c 9DE7     		b	.L374
 3032              	.L378:
 3033 017e 244B     		ldr	r3, .L411+44
 3034 0180 F1E7     		b	.L407
 3035              	.L377:
 3036 0182 FFF7FEFF 		bl	lorawan_api_get_region
 3037 0186 97E7     		b	.L404
 3038              	.L376:
 3039 0188 FFF7FEFF 		bl	lorawan_api_nb_reset_get
 3040 018c 6070     		strb	r0, [r4, #1]
 3041 018e FFF7FEFF 		bl	lorawan_api_nb_reset_get
 3042 0192 A7E7     		b	.L408
 3043              	.L375:
 3044 0194 04A8     		add	r0, sp, #16
 3045 0196 FFF7FEFF 		bl	lorawan_api_get_deveui
 3046 019a EAE7     		b	.L406
 3047              	.L373:
 3048 019c FFF7FEFF 		bl	lorawan_api_devnonce_get
 3049 01a0 6070     		strb	r0, [r4, #1]
 3050 01a2 FFF7FEFF 		bl	lorawan_api_devnonce_get
 3051 01a6 9DE7     		b	.L408
 3052              	.L372:
 3053 01a8 0822     		movs	r2, #8
 3054 01aa 0021     		movs	r1, #0
 3055 01ac 04A8     		add	r0, sp, #16
 3056 01ae FFF7FEFF 		bl	memset
 3057 01b2 DEE7     		b	.L406
 3058              	.L371:
 3059 01b4 174B     		ldr	r3, .L411+48
 3060 01b6 1A78     		ldrb	r2, [r3]
 3061 01b8 6270     		strb	r2, [r4, #1]
 3062 01ba 9B78     		ldrb	r3, [r3, #2]
 3063 01bc A370     		strb	r3, [r4, #2]
 3064 01be 7CE7     		b	.L374
 3065              	.L370:
 3066 01c0 2800     		movs	r0, r5
 3067 01c2 FFF7FEFF 		bl	get_modem_appstatus
 3068 01c6 78E7     		b	.L374
 3069              	.L368:
 3070 01c8 2800     		movs	r0, r5
 3071 01ca FFF7FEFF 		bl	get_modem_gnss_status
 3072 01ce 74E7     		b	.L374
 3073              	.L367:
 3074 01d0 1148     		ldr	r0, .L411+52
 3075 01d2 FFF7FEFF 		bl	smtc_modem_hal_print_trace
 3076 01d6 0748     		ldr	r0, .L411+16
 3077 01d8 FFF7FEFF 		bl	smtc_modem_hal_print_trace
 3078 01dc 6DE7     		b	.L374
 3079              	.L396:
ARM GAS  /tmp/ccHTTdmI.s 			page 54


 3080 01de 0120     		movs	r0, #1
 3081 01e0 4AE7     		b	.L393
 3082              	.L412:
 3083 01e2 C046     		.align	2
 3084              	.L411:
 3085 01e4 00000000 		.word	dm_info_bitfield_now
 3086 01e8 00000000 		.word	tag_number_now
 3087 01ec 00000000 		.word	dm_info_field_sz
 3088 01f0 00000000 		.word	.LC170
 3089 01f4 1E000000 		.word	.LC41
 3090 01f8 51000000 		.word	.LC173
 3091 01fc 00000000 		.word	dm_info_bitfield_periodic
 3092 0200 00000000 		.word	tag_number
 3093 0204 00000000 		.word	charge_counter_to_send
 3094 0208 00000000 		.word	user_define_charge_counter
 3095 020c 00000000 		.word	modem_adr_profile
 3096 0210 00000000 		.word	modem_dm_interval
 3097 0214 00000000 		.word	modem_stream_state
 3098 0218 7A000000 		.word	.LC180
 3100              		.section	.text.set_dm_retrieve_pending_dl,"ax",%progbits
 3101              		.align	1
 3102              		.global	set_dm_retrieve_pending_dl
 3103              		.syntax unified
 3104              		.code	16
 3105              		.thumb_func
 3107              	set_dm_retrieve_pending_dl:
 3108              		@ args = 0, pretend = 0, frame = 0
 3109              		@ frame_needed = 0, uses_anonymous_args = 0
 3110              		@ link register save eliminated.
 3111 0000 034B     		ldr	r3, .L415
 3112 0002 0A1C     		adds	r2, r1, #0
 3113 0004 1870     		strb	r0, [r3]
 3114 0006 1429     		cmp	r1, #20
 3115 0008 00D2     		bcs	.L414
 3116 000a 1422     		movs	r2, #20
 3117              	.L414:
 3118              		@ sp needed
 3119 000c 5A70     		strb	r2, [r3, #1]
 3120 000e 7047     		bx	lr
 3121              	.L416:
 3122              		.align	2
 3123              	.L415:
 3124 0010 00000000 		.word	dm_pending_dl
 3126              		.section	.text.get_dm_retrieve_pending_dl,"ax",%progbits
 3127              		.align	1
 3128              		.global	get_dm_retrieve_pending_dl
 3129              		.syntax unified
 3130              		.code	16
 3131              		.thumb_func
 3133              	get_dm_retrieve_pending_dl:
 3134              		@ args = 0, pretend = 0, frame = 0
 3135              		@ frame_needed = 0, uses_anonymous_args = 0
 3136              		@ link register save eliminated.
 3137 0000 024B     		ldr	r3, .L418
 3138              		@ sp needed
 3139 0002 1A78     		ldrb	r2, [r3]
 3140 0004 0270     		strb	r2, [r0]
ARM GAS  /tmp/ccHTTdmI.s 			page 55


 3141 0006 5B78     		ldrb	r3, [r3, #1]
 3142 0008 4370     		strb	r3, [r0, #1]
 3143 000a 7047     		bx	lr
 3144              	.L419:
 3145              		.align	2
 3146              	.L418:
 3147 000c 00000000 		.word	dm_pending_dl
 3149              		.section	.text.decrement_dm_retrieve_pending_dl,"ax",%progbits
 3150              		.align	1
 3151              		.global	decrement_dm_retrieve_pending_dl
 3152              		.syntax unified
 3153              		.code	16
 3154              		.thumb_func
 3156              	decrement_dm_retrieve_pending_dl:
 3157              		@ args = 0, pretend = 0, frame = 0
 3158              		@ frame_needed = 0, uses_anonymous_args = 0
 3159              		@ link register save eliminated.
 3160 0000 034A     		ldr	r2, .L425
 3161 0002 1378     		ldrb	r3, [r2]
 3162 0004 002B     		cmp	r3, #0
 3163 0006 01D0     		beq	.L420
 3164 0008 013B     		subs	r3, r3, #1
 3165 000a 1370     		strb	r3, [r2]
 3166              	.L420:
 3167              		@ sp needed
 3168 000c 7047     		bx	lr
 3169              	.L426:
 3170 000e C046     		.align	2
 3171              	.L425:
 3172 0010 00000000 		.word	dm_pending_dl
 3174              		.section	.rodata.modem_context_factory_reset.str1.1,"aMS",%progbits,1
 3175              	.LC186:
 3176 0000 1B5B303B 		.ascii	"\033[0;32mINFO: modem_context_factory_reset done\012"
 3176      33326D49 
 3176      4E464F3A 
 3176      206D6F64 
 3176      656D5F63 
 3177 002e 0D00     		.ascii	"\015\000"
 3178              		.section	.text.modem_context_factory_reset,"ax",%progbits
 3179              		.align	1
 3180              		.global	modem_context_factory_reset
 3181              		.syntax unified
 3182              		.code	16
 3183              		.thumb_func
 3185              	modem_context_factory_reset:
 3186              		@ args = 0, pretend = 0, frame = 32
 3187              		@ frame_needed = 0, uses_anonymous_args = 0
 3188 0000 10B5     		push	{r4, lr}
 3189 0002 88B0     		sub	sp, sp, #32
 3190 0004 6B46     		mov	r3, sp
 3191 0006 1A22     		movs	r2, #26
 3192 0008 0021     		movs	r1, #0
 3193 000a 981D     		adds	r0, r3, #6
 3194 000c FFF7FEFF 		bl	memset
 3195 0010 0124     		movs	r4, #1
 3196 0012 C723     		movs	r3, #199
 3197 0014 6A46     		mov	r2, sp
ARM GAS  /tmp/ccHTTdmI.s 			page 56


 3198 0016 1821     		movs	r1, #24
 3199 0018 01A8     		add	r0, sp, #4
 3200 001a 9380     		strh	r3, [r2, #4]
 3201 001c 1472     		strb	r4, [r2, #8]
 3202 001e FFF7FEFF 		bl	crc
 3203 0022 01A9     		add	r1, sp, #4
 3204 0024 0790     		str	r0, [sp, #28]
 3205 0026 1C22     		movs	r2, #28
 3206 0028 0020     		movs	r0, #0
 3207 002a FFF7FEFF 		bl	smtc_modem_hal_context_store
 3208 002e 1C22     		movs	r2, #28
 3209 0030 01A9     		add	r1, sp, #4
 3210 0032 2000     		movs	r0, r4
 3211 0034 FFF7FEFF 		bl	smtc_modem_hal_context_restore
 3212 0038 044B     		ldr	r3, .L428
 3213 003a 0548     		ldr	r0, .L428+4
 3214 003c 1C70     		strb	r4, [r3]
 3215 003e FFF7FEFF 		bl	smtc_modem_hal_print_trace
 3216 0042 0448     		ldr	r0, .L428+8
 3217 0044 FFF7FEFF 		bl	smtc_modem_hal_print_trace
 3218 0048 08B0     		add	sp, sp, #32
 3219              		@ sp needed
 3220 004a 10BD     		pop	{r4, pc}
 3221              	.L429:
 3222              		.align	2
 3223              	.L428:
 3224 004c 00000000 		.word	is_modem_reset_requested
 3225 0050 00000000 		.word	.LC186
 3226 0054 1E000000 		.word	.LC41
 3228              		.section	.rodata.modem_load_context.str1.1,"aMS",%progbits,1
 3229              	.LC192:
 3230 0000 4D6F6465 		.ascii	"Modem Load Config : Port = %d\012\015\000"
 3230      6D204C6F 
 3230      61642043 
 3230      6F6E6669 
 3230      67203A20 
 3231              	.LC195:
 3232 0020 55706C6F 		.ascii	"Upload_sctr = %d\012\015\000"
 3232      61645F73 
 3232      63747220 
 3232      3D202564 
 3232      0A0D00
 3233              	.LC197:
 3234 0033 1B5B303B 		.ascii	"\033[0;31mERROR: Restore Modem context fail => Fact"
 3234      33316D45 
 3234      52524F52 
 3234      3A205265 
 3234      73746F72 
 3235 0063 6F727920 		.ascii	"ory Reset Modem\012\015\000"
 3235      52657365 
 3235      74204D6F 
 3235      64656D0A 
 3235      0D00
 3236              		.section	.text.modem_load_context,"ax",%progbits
 3237              		.align	1
 3238              		.global	modem_load_context
 3239              		.syntax unified
ARM GAS  /tmp/ccHTTdmI.s 			page 57


 3240              		.code	16
 3241              		.thumb_func
 3243              	modem_load_context:
 3244              		@ args = 0, pretend = 0, frame = 32
 3245              		@ frame_needed = 0, uses_anonymous_args = 0
 3246 0000 00B5     		push	{lr}
 3247 0002 89B0     		sub	sp, sp, #36
 3248 0004 1C22     		movs	r2, #28
 3249 0006 0020     		movs	r0, #0
 3250 0008 01A9     		add	r1, sp, #4
 3251 000a FFF7FEFF 		bl	smtc_modem_hal_context_restore
 3252 000e 1821     		movs	r1, #24
 3253 0010 01A8     		add	r0, sp, #4
 3254 0012 FFF7FEFF 		bl	crc
 3255 0016 079B     		ldr	r3, [sp, #28]
 3256 0018 9842     		cmp	r0, r3
 3257 001a 14D1     		bne	.L431
 3258 001c 6B46     		mov	r3, sp
 3259 001e 6A46     		mov	r2, sp
 3260 0020 1979     		ldrb	r1, [r3, #4]
 3261 0022 0D4B     		ldr	r3, .L433
 3262 0024 0D48     		ldr	r0, .L433+4
 3263 0026 1970     		strb	r1, [r3]
 3264 0028 127A     		ldrb	r2, [r2, #8]
 3265 002a 0D4B     		ldr	r3, .L433+8
 3266 002c 1A80     		strh	r2, [r3]
 3267 002e 0D4B     		ldr	r3, .L433+12
 3268 0030 039A     		ldr	r2, [sp, #12]
 3269 0032 1A60     		str	r2, [r3]
 3270 0034 FFF7FEFF 		bl	smtc_modem_hal_print_trace
 3271 0038 0B4B     		ldr	r3, .L433+16
 3272 003a 0C48     		ldr	r0, .L433+20
 3273 003c 1978     		ldrb	r1, [r3]
 3274 003e FFF7FEFF 		bl	smtc_modem_hal_print_trace
 3275              	.L430:
 3276 0042 09B0     		add	sp, sp, #36
 3277              		@ sp needed
 3278 0044 00BD     		pop	{pc}
 3279              	.L431:
 3280 0046 0A48     		ldr	r0, .L433+24
 3281 0048 FFF7FEFF 		bl	smtc_modem_hal_print_trace
 3282 004c 0948     		ldr	r0, .L433+28
 3283 004e FFF7FEFF 		bl	smtc_modem_hal_print_trace
 3284 0052 FFF7FEFF 		bl	modem_context_factory_reset
 3285 0056 F4E7     		b	.L430
 3286              	.L434:
 3287              		.align	2
 3288              	.L433:
 3289 0058 00000000 		.word	modem_dm_port
 3290 005c 00000000 		.word	.LC192
 3291 0060 00000000 		.word	modem_appkey_status
 3292 0064 00000000 		.word	modem_appkey_crc
 3293 0068 00000000 		.word	modem_dm_upload_sctr
 3294 006c 20000000 		.word	.LC195
 3295 0070 33000000 		.word	.LC197
 3296 0074 1E000000 		.word	.LC41
 3298              		.section	.text.modem_store_context,"ax",%progbits
ARM GAS  /tmp/ccHTTdmI.s 			page 58


 3299              		.align	1
 3300              		.global	modem_store_context
 3301              		.syntax unified
 3302              		.code	16
 3303              		.thumb_func
 3305              	modem_store_context:
 3306              		@ args = 0, pretend = 0, frame = 32
 3307              		@ frame_needed = 0, uses_anonymous_args = 0
 3308 0000 00B5     		push	{lr}
 3309 0002 89B0     		sub	sp, sp, #36
 3310 0004 6B46     		mov	r3, sp
 3311 0006 1A22     		movs	r2, #26
 3312 0008 0021     		movs	r1, #0
 3313 000a 981D     		adds	r0, r3, #6
 3314 000c FFF7FEFF 		bl	memset
 3315 0010 6A46     		mov	r2, sp
 3316 0012 0B4B     		ldr	r3, .L436
 3317 0014 1821     		movs	r1, #24
 3318 0016 1B78     		ldrb	r3, [r3]
 3319 0018 01A8     		add	r0, sp, #4
 3320 001a 9380     		strh	r3, [r2, #4]
 3321 001c 094B     		ldr	r3, .L436+4
 3322 001e 1B88     		ldrh	r3, [r3]
 3323 0020 1372     		strb	r3, [r2, #8]
 3324 0022 094B     		ldr	r3, .L436+8
 3325 0024 1B68     		ldr	r3, [r3]
 3326 0026 0393     		str	r3, [sp, #12]
 3327 0028 FFF7FEFF 		bl	crc
 3328 002c 1C22     		movs	r2, #28
 3329 002e 0790     		str	r0, [sp, #28]
 3330 0030 01A9     		add	r1, sp, #4
 3331 0032 0020     		movs	r0, #0
 3332 0034 FFF7FEFF 		bl	smtc_modem_hal_context_store
 3333 0038 FFF7FEFF 		bl	modem_load_context
 3334 003c 09B0     		add	sp, sp, #36
 3335              		@ sp needed
 3336 003e 00BD     		pop	{pc}
 3337              	.L437:
 3338              		.align	2
 3339              	.L436:
 3340 0040 00000000 		.word	modem_dm_port
 3341 0044 00000000 		.word	modem_appkey_status
 3342 0048 00000000 		.word	modem_appkey_crc
 3344              		.section	.rodata.set_modem_dm_port.str1.1,"aMS",%progbits,1
 3345              	.LC203:
 3346 0000 1B5B303B 		.ascii	"\033[0;31mERROR: modem port invalid\012\015\000"
 3346      33316D45 
 3346      52524F52 
 3346      3A206D6F 
 3346      64656D20 
 3347              		.section	.text.set_modem_dm_port,"ax",%progbits
 3348              		.align	1
 3349              		.global	set_modem_dm_port
 3350              		.syntax unified
 3351              		.code	16
 3352              		.thumb_func
 3354              	set_modem_dm_port:
ARM GAS  /tmp/ccHTTdmI.s 			page 59


 3355              		@ args = 0, pretend = 0, frame = 0
 3356              		@ frame_needed = 0, uses_anonymous_args = 0
 3357 0000 431E     		subs	r3, r0, #1
 3358 0002 DBB2     		uxtb	r3, r3
 3359 0004 10B5     		push	{r4, lr}
 3360 0006 DE2B     		cmp	r3, #222
 3361 0008 07D9     		bls	.L439
 3362 000a 0848     		ldr	r0, .L442
 3363 000c FFF7FEFF 		bl	smtc_modem_hal_print_trace
 3364 0010 0748     		ldr	r0, .L442+4
 3365 0012 FFF7FEFF 		bl	smtc_modem_hal_print_trace
 3366 0016 0020     		movs	r0, #0
 3367              	.L440:
 3368              		@ sp needed
 3369 0018 10BD     		pop	{r4, pc}
 3370              	.L439:
 3371 001a 064B     		ldr	r3, .L442+8
 3372 001c 1A78     		ldrb	r2, [r3]
 3373 001e 8242     		cmp	r2, r0
 3374 0020 02D0     		beq	.L441
 3375 0022 1870     		strb	r0, [r3]
 3376 0024 FFF7FEFF 		bl	modem_store_context
 3377              	.L441:
 3378 0028 0120     		movs	r0, #1
 3379 002a F5E7     		b	.L440
 3380              	.L443:
 3381              		.align	2
 3382              	.L442:
 3383 002c 00000000 		.word	.LC203
 3384 0030 1E000000 		.word	.LC41
 3385 0034 00000000 		.word	modem_dm_port
 3387              		.section	.text.modem_context_compute_and_get_next_dm_upload_sctr,"ax",%progbits
 3388              		.align	1
 3389              		.global	modem_context_compute_and_get_next_dm_upload_sctr
 3390              		.syntax unified
 3391              		.code	16
 3392              		.thumb_func
 3394              	modem_context_compute_and_get_next_dm_upload_sctr:
 3395              		@ args = 0, pretend = 0, frame = 0
 3396              		@ frame_needed = 0, uses_anonymous_args = 0
 3397              		@ link register save eliminated.
 3398 0000 0F22     		movs	r2, #15
 3399              		@ sp needed
 3400 0002 034B     		ldr	r3, .L445
 3401 0004 1878     		ldrb	r0, [r3]
 3402 0006 0130     		adds	r0, r0, #1
 3403 0008 1040     		ands	r0, r2
 3404 000a 1870     		strb	r0, [r3]
 3405 000c 7047     		bx	lr
 3406              	.L446:
 3407 000e C046     		.align	2
 3408              	.L445:
 3409 0010 00000000 		.word	modem_dm_upload_sctr
 3411              		.section	.text.modem_get_upload_state,"ax",%progbits
 3412              		.align	1
 3413              		.global	modem_get_upload_state
 3414              		.syntax unified
ARM GAS  /tmp/ccHTTdmI.s 			page 60


 3415              		.code	16
 3416              		.thumb_func
 3418              	modem_get_upload_state:
 3419              		@ args = 0, pretend = 0, frame = 0
 3420              		@ frame_needed = 0, uses_anonymous_args = 0
 3421              		@ link register save eliminated.
 3422 0000 014B     		ldr	r3, .L448
 3423              		@ sp needed
 3424 0002 1878     		ldrb	r0, [r3]
 3425 0004 7047     		bx	lr
 3426              	.L449:
 3427 0006 C046     		.align	2
 3428              	.L448:
 3429 0008 00000000 		.word	modem_upload_state
 3431              		.section	.text.modem_set_upload_state,"ax",%progbits
 3432              		.align	1
 3433              		.global	modem_set_upload_state
 3434              		.syntax unified
 3435              		.code	16
 3436              		.thumb_func
 3438              	modem_set_upload_state:
 3439              		@ args = 0, pretend = 0, frame = 0
 3440              		@ frame_needed = 0, uses_anonymous_args = 0
 3441              		@ link register save eliminated.
 3442 0000 014B     		ldr	r3, .L451
 3443              		@ sp needed
 3444 0002 1870     		strb	r0, [r3]
 3445 0004 7047     		bx	lr
 3446              	.L452:
 3447 0006 C046     		.align	2
 3448              	.L451:
 3449 0008 00000000 		.word	modem_upload_state
 3451              		.section	.text.modem_get_stream_state,"ax",%progbits
 3452              		.align	1
 3453              		.global	modem_get_stream_state
 3454              		.syntax unified
 3455              		.code	16
 3456              		.thumb_func
 3458              	modem_get_stream_state:
 3459              		@ args = 0, pretend = 0, frame = 0
 3460              		@ frame_needed = 0, uses_anonymous_args = 0
 3461              		@ link register save eliminated.
 3462 0000 014B     		ldr	r3, .L454
 3463              		@ sp needed
 3464 0002 5878     		ldrb	r0, [r3, #1]
 3465 0004 7047     		bx	lr
 3466              	.L455:
 3467 0006 C046     		.align	2
 3468              	.L454:
 3469 0008 00000000 		.word	modem_stream_state
 3471              		.section	.text.modem_get_stream_port,"ax",%progbits
 3472              		.align	1
 3473              		.global	modem_get_stream_port
 3474              		.syntax unified
 3475              		.code	16
 3476              		.thumb_func
 3478              	modem_get_stream_port:
ARM GAS  /tmp/ccHTTdmI.s 			page 61


 3479              		@ args = 0, pretend = 0, frame = 0
 3480              		@ frame_needed = 0, uses_anonymous_args = 0
 3481              		@ link register save eliminated.
 3482 0000 014B     		ldr	r3, .L457
 3483              		@ sp needed
 3484 0002 1878     		ldrb	r0, [r3]
 3485 0004 7047     		bx	lr
 3486              	.L458:
 3487 0006 C046     		.align	2
 3488              	.L457:
 3489 0008 00000000 		.word	modem_stream_state
 3491              		.section	.text.modem_get_stream_encryption,"ax",%progbits
 3492              		.align	1
 3493              		.global	modem_get_stream_encryption
 3494              		.syntax unified
 3495              		.code	16
 3496              		.thumb_func
 3498              	modem_get_stream_encryption:
 3499              		@ args = 0, pretend = 0, frame = 0
 3500              		@ frame_needed = 0, uses_anonymous_args = 0
 3501              		@ link register save eliminated.
 3502 0000 014B     		ldr	r3, .L460
 3503              		@ sp needed
 3504 0002 9878     		ldrb	r0, [r3, #2]
 3505 0004 7047     		bx	lr
 3506              	.L461:
 3507 0006 C046     		.align	2
 3508              	.L460:
 3509 0008 00000000 		.word	modem_stream_state
 3511              		.section	.text.modem_set_stream_state,"ax",%progbits
 3512              		.align	1
 3513              		.global	modem_set_stream_state
 3514              		.syntax unified
 3515              		.code	16
 3516              		.thumb_func
 3518              	modem_set_stream_state:
 3519              		@ args = 0, pretend = 0, frame = 0
 3520              		@ frame_needed = 0, uses_anonymous_args = 0
 3521              		@ link register save eliminated.
 3522 0000 014B     		ldr	r3, .L463
 3523              		@ sp needed
 3524 0002 5870     		strb	r0, [r3, #1]
 3525 0004 7047     		bx	lr
 3526              	.L464:
 3527 0006 C046     		.align	2
 3528              	.L463:
 3529 0008 00000000 		.word	modem_stream_state
 3531              		.section	.text.modem_set_stream_port,"ax",%progbits
 3532              		.align	1
 3533              		.global	modem_set_stream_port
 3534              		.syntax unified
 3535              		.code	16
 3536              		.thumb_func
 3538              	modem_set_stream_port:
 3539              		@ args = 0, pretend = 0, frame = 0
 3540              		@ frame_needed = 0, uses_anonymous_args = 0
 3541              		@ link register save eliminated.
ARM GAS  /tmp/ccHTTdmI.s 			page 62


 3542 0000 014B     		ldr	r3, .L466
 3543              		@ sp needed
 3544 0002 1870     		strb	r0, [r3]
 3545 0004 7047     		bx	lr
 3546              	.L467:
 3547 0006 C046     		.align	2
 3548              	.L466:
 3549 0008 00000000 		.word	modem_stream_state
 3551              		.section	.text.modem_set_stream_encryption,"ax",%progbits
 3552              		.align	1
 3553              		.global	modem_set_stream_encryption
 3554              		.syntax unified
 3555              		.code	16
 3556              		.thumb_func
 3558              	modem_set_stream_encryption:
 3559              		@ args = 0, pretend = 0, frame = 0
 3560              		@ frame_needed = 0, uses_anonymous_args = 0
 3561              		@ link register save eliminated.
 3562 0000 014B     		ldr	r3, .L469
 3563              		@ sp needed
 3564 0002 9870     		strb	r0, [r3, #2]
 3565 0004 7047     		bx	lr
 3566              	.L470:
 3567 0006 C046     		.align	2
 3568              	.L469:
 3569 0008 00000000 		.word	modem_stream_state
 3571              		.section	.text.modem_set_dm_info_bitfield_periodic,"ax",%progbits
 3572              		.align	1
 3573              		.global	modem_set_dm_info_bitfield_periodic
 3574              		.syntax unified
 3575              		.code	16
 3576              		.thumb_func
 3578              	modem_set_dm_info_bitfield_periodic:
 3579              		@ args = 0, pretend = 0, frame = 0
 3580              		@ frame_needed = 0, uses_anonymous_args = 0
 3581              		@ link register save eliminated.
 3582 0000 024B     		ldr	r3, .L473
 3583 0002 1A68     		ldr	r2, [r3]
 3584 0004 8242     		cmp	r2, r0
 3585 0006 00D0     		beq	.L471
 3586 0008 1860     		str	r0, [r3]
 3587              	.L471:
 3588              		@ sp needed
 3589 000a 7047     		bx	lr
 3590              	.L474:
 3591              		.align	2
 3592              	.L473:
 3593 000c 00000000 		.word	dm_info_bitfield_periodic
 3595              		.section	.text.modem_context_reset_dm_tag_number,"ax",%progbits
 3596              		.align	1
 3597              		.global	modem_context_reset_dm_tag_number
 3598              		.syntax unified
 3599              		.code	16
 3600              		.thumb_func
 3602              	modem_context_reset_dm_tag_number:
 3603              		@ args = 0, pretend = 0, frame = 0
 3604              		@ frame_needed = 0, uses_anonymous_args = 0
ARM GAS  /tmp/ccHTTdmI.s 			page 63


 3605              		@ link register save eliminated.
 3606 0000 0022     		movs	r2, #0
 3607              		@ sp needed
 3608 0002 014B     		ldr	r3, .L476
 3609 0004 1A70     		strb	r2, [r3]
 3610 0006 7047     		bx	lr
 3611              	.L477:
 3612              		.align	2
 3613              	.L476:
 3614 0008 00000000 		.word	tag_number
 3616              		.section	.text.modem_get_dm_info_bitfield_periodic,"ax",%progbits
 3617              		.align	1
 3618              		.global	modem_get_dm_info_bitfield_periodic
 3619              		.syntax unified
 3620              		.code	16
 3621              		.thumb_func
 3623              	modem_get_dm_info_bitfield_periodic:
 3624              		@ args = 0, pretend = 0, frame = 0
 3625              		@ frame_needed = 0, uses_anonymous_args = 0
 3626              		@ link register save eliminated.
 3627 0000 014B     		ldr	r3, .L479
 3628              		@ sp needed
 3629 0002 1868     		ldr	r0, [r3]
 3630 0004 7047     		bx	lr
 3631              	.L480:
 3632 0006 C046     		.align	2
 3633              	.L479:
 3634 0008 00000000 		.word	dm_info_bitfield_periodic
 3636              		.section	.text.modem_get_user_alarm,"ax",%progbits
 3637              		.align	1
 3638              		.global	modem_get_user_alarm
 3639              		.syntax unified
 3640              		.code	16
 3641              		.thumb_func
 3643              	modem_get_user_alarm:
 3644              		@ args = 0, pretend = 0, frame = 0
 3645              		@ frame_needed = 0, uses_anonymous_args = 0
 3646              		@ link register save eliminated.
 3647 0000 014B     		ldr	r3, .L482
 3648              		@ sp needed
 3649 0002 1868     		ldr	r0, [r3]
 3650 0004 7047     		bx	lr
 3651              	.L483:
 3652 0006 C046     		.align	2
 3653              	.L482:
 3654 0008 00000000 		.word	user_alarm
 3656              		.section	.text.modem_set_user_alarm,"ax",%progbits
 3657              		.align	1
 3658              		.global	modem_set_user_alarm
 3659              		.syntax unified
 3660              		.code	16
 3661              		.thumb_func
 3663              	modem_set_user_alarm:
 3664              		@ args = 0, pretend = 0, frame = 0
 3665              		@ frame_needed = 0, uses_anonymous_args = 0
 3666              		@ link register save eliminated.
 3667 0000 014B     		ldr	r3, .L485
ARM GAS  /tmp/ccHTTdmI.s 			page 64


 3668              		@ sp needed
 3669 0002 1860     		str	r0, [r3]
 3670 0004 7047     		bx	lr
 3671              	.L486:
 3672 0006 C046     		.align	2
 3673              	.L485:
 3674 0008 00000000 		.word	user_alarm
 3676              		.section	.text.get_modem_reset_requested,"ax",%progbits
 3677              		.align	1
 3678              		.global	get_modem_reset_requested
 3679              		.syntax unified
 3680              		.code	16
 3681              		.thumb_func
 3683              	get_modem_reset_requested:
 3684              		@ args = 0, pretend = 0, frame = 0
 3685              		@ frame_needed = 0, uses_anonymous_args = 0
 3686              		@ link register save eliminated.
 3687 0000 014B     		ldr	r3, .L488
 3688              		@ sp needed
 3689 0002 1878     		ldrb	r0, [r3]
 3690 0004 7047     		bx	lr
 3691              	.L489:
 3692 0006 C046     		.align	2
 3693              	.L488:
 3694 0008 00000000 		.word	is_modem_reset_requested
 3696              		.section	.text.set_modem_reset_requested,"ax",%progbits
 3697              		.align	1
 3698              		.global	set_modem_reset_requested
 3699              		.syntax unified
 3700              		.code	16
 3701              		.thumb_func
 3703              	set_modem_reset_requested:
 3704              		@ args = 0, pretend = 0, frame = 0
 3705              		@ frame_needed = 0, uses_anonymous_args = 0
 3706              		@ link register save eliminated.
 3707 0000 014B     		ldr	r3, .L491
 3708              		@ sp needed
 3709 0002 1870     		strb	r0, [r3]
 3710 0004 7047     		bx	lr
 3711              	.L492:
 3712 0006 C046     		.align	2
 3713              	.L491:
 3714 0008 00000000 		.word	is_modem_reset_requested
 3716              		.section	.text.modem_get_rfo_pa,"ax",%progbits
 3717              		.align	1
 3718              		.global	modem_get_rfo_pa
 3719              		.syntax unified
 3720              		.code	16
 3721              		.thumb_func
 3723              	modem_get_rfo_pa:
 3724              		@ args = 0, pretend = 0, frame = 0
 3725              		@ frame_needed = 0, uses_anonymous_args = 0
 3726              		@ link register save eliminated.
 3727 0000 014B     		ldr	r3, .L494
 3728              		@ sp needed
 3729 0002 1878     		ldrb	r0, [r3]
 3730 0004 7047     		bx	lr
ARM GAS  /tmp/ccHTTdmI.s 			page 65


 3731              	.L495:
 3732 0006 C046     		.align	2
 3733              	.L494:
 3734 0008 00000000 		.word	modem_rf_output
 3736              		.section	.text.modem_set_rfo_pa,"ax",%progbits
 3737              		.align	1
 3738              		.global	modem_set_rfo_pa
 3739              		.syntax unified
 3740              		.code	16
 3741              		.thumb_func
 3743              	modem_set_rfo_pa:
 3744              		@ args = 0, pretend = 0, frame = 0
 3745              		@ frame_needed = 0, uses_anonymous_args = 0
 3746              		@ link register save eliminated.
 3747 0000 0300     		movs	r3, r0
 3748 0002 0020     		movs	r0, #0
 3749 0004 022B     		cmp	r3, #2
 3750 0006 02D8     		bhi	.L497
 3751 0008 014A     		ldr	r2, .L499
 3752 000a 0130     		adds	r0, r0, #1
 3753 000c 1370     		strb	r3, [r2]
 3754              	.L497:
 3755              		@ sp needed
 3756 000e 7047     		bx	lr
 3757              	.L500:
 3758              		.align	2
 3759              	.L499:
 3760 0010 00000000 		.word	modem_rf_output
 3762              		.section	.text.modem_set_duty_cycle_disabled_by_host,"ax",%progbits
 3763              		.align	1
 3764              		.global	modem_set_duty_cycle_disabled_by_host
 3765              		.syntax unified
 3766              		.code	16
 3767              		.thumb_func
 3769              	modem_set_duty_cycle_disabled_by_host:
 3770              		@ args = 0, pretend = 0, frame = 0
 3771              		@ frame_needed = 0, uses_anonymous_args = 0
 3772              		@ link register save eliminated.
 3773 0000 014B     		ldr	r3, .L502
 3774              		@ sp needed
 3775 0002 1870     		strb	r0, [r3]
 3776 0004 7047     		bx	lr
 3777              	.L503:
 3778 0006 C046     		.align	2
 3779              	.L502:
 3780 0008 00000000 		.word	duty_cycle_disabled_by_host
 3782              		.section	.text.modem_get_duty_cycle_disabled_by_host,"ax",%progbits
 3783              		.align	1
 3784              		.global	modem_get_duty_cycle_disabled_by_host
 3785              		.syntax unified
 3786              		.code	16
 3787              		.thumb_func
 3789              	modem_get_duty_cycle_disabled_by_host:
 3790              		@ args = 0, pretend = 0, frame = 0
 3791              		@ frame_needed = 0, uses_anonymous_args = 0
 3792              		@ link register save eliminated.
 3793 0000 014B     		ldr	r3, .L505
ARM GAS  /tmp/ccHTTdmI.s 			page 66


 3794              		@ sp needed
 3795 0002 1878     		ldrb	r0, [r3]
 3796 0004 7047     		bx	lr
 3797              	.L506:
 3798 0006 C046     		.align	2
 3799              	.L505:
 3800 0008 00000000 		.word	duty_cycle_disabled_by_host
 3802              		.section	.text.modem_set_adr_mobile_timeout_config,"ax",%progbits
 3803              		.align	1
 3804              		.global	modem_set_adr_mobile_timeout_config
 3805              		.syntax unified
 3806              		.code	16
 3807              		.thumb_func
 3809              	modem_set_adr_mobile_timeout_config:
 3810              		@ args = 0, pretend = 0, frame = 0
 3811              		@ frame_needed = 0, uses_anonymous_args = 0
 3812              		@ link register save eliminated.
 3813 0000 014B     		ldr	r3, .L508
 3814              		@ sp needed
 3815 0002 1880     		strh	r0, [r3]
 3816 0004 7047     		bx	lr
 3817              	.L509:
 3818 0006 C046     		.align	2
 3819              	.L508:
 3820 0008 00000000 		.word	nb_adr_mobile_timeout
 3822              		.section	.text.modem_get_adr_mobile_timeout_config,"ax",%progbits
 3823              		.align	1
 3824              		.global	modem_get_adr_mobile_timeout_config
 3825              		.syntax unified
 3826              		.code	16
 3827              		.thumb_func
 3829              	modem_get_adr_mobile_timeout_config:
 3830              		@ args = 0, pretend = 0, frame = 0
 3831              		@ frame_needed = 0, uses_anonymous_args = 0
 3832              		@ link register save eliminated.
 3833 0000 014B     		ldr	r3, .L511
 3834              		@ sp needed
 3835 0002 1888     		ldrh	r0, [r3]
 3836 0004 7047     		bx	lr
 3837              	.L512:
 3838 0006 C046     		.align	2
 3839              	.L511:
 3840 0008 00000000 		.word	nb_adr_mobile_timeout
 3842              		.section	.text.modem_available_new_link_adr_request,"ax",%progbits
 3843              		.align	1
 3844              		.global	modem_available_new_link_adr_request
 3845              		.syntax unified
 3846              		.code	16
 3847              		.thumb_func
 3849              	modem_available_new_link_adr_request:
 3850              		@ args = 0, pretend = 0, frame = 0
 3851              		@ frame_needed = 0, uses_anonymous_args = 0
 3852 0000 10B5     		push	{r4, lr}
 3853 0002 FFF7FEFF 		bl	lorawan_api_available_link_adr_get
 3854              		@ sp needed
 3855 0006 10BD     		pop	{r4, pc}
 3857              		.section	.text.modem_set_test_mode_status,"ax",%progbits
ARM GAS  /tmp/ccHTTdmI.s 			page 67


 3858              		.align	1
 3859              		.global	modem_set_test_mode_status
 3860              		.syntax unified
 3861              		.code	16
 3862              		.thumb_func
 3864              	modem_set_test_mode_status:
 3865              		@ args = 0, pretend = 0, frame = 0
 3866              		@ frame_needed = 0, uses_anonymous_args = 0
 3867              		@ link register save eliminated.
 3868 0000 014B     		ldr	r3, .L515
 3869              		@ sp needed
 3870 0002 1870     		strb	r0, [r3]
 3871 0004 7047     		bx	lr
 3872              	.L516:
 3873 0006 C046     		.align	2
 3874              	.L515:
 3875 0008 00000000 		.word	is_modem_in_test_mode
 3877              		.section	.text.modem_get_test_mode_status,"ax",%progbits
 3878              		.align	1
 3879              		.global	modem_get_test_mode_status
 3880              		.syntax unified
 3881              		.code	16
 3882              		.thumb_func
 3884              	modem_get_test_mode_status:
 3885              		@ args = 0, pretend = 0, frame = 0
 3886              		@ frame_needed = 0, uses_anonymous_args = 0
 3887              		@ link register save eliminated.
 3888 0000 014B     		ldr	r3, .L518
 3889              		@ sp needed
 3890 0002 1878     		ldrb	r0, [r3]
 3891 0004 7047     		bx	lr
 3892              	.L519:
 3893 0006 C046     		.align	2
 3894              	.L518:
 3895 0008 00000000 		.word	is_modem_in_test_mode
 3897              		.section	.text.modem_context_set_rx_pathloss_db,"ax",%progbits
 3898              		.align	1
 3899              		.global	modem_context_set_rx_pathloss_db
 3900              		.syntax unified
 3901              		.code	16
 3902              		.thumb_func
 3904              	modem_context_set_rx_pathloss_db:
 3905              		@ args = 0, pretend = 0, frame = 0
 3906              		@ frame_needed = 0, uses_anonymous_args = 0
 3907              		@ link register save eliminated.
 3908 0000 014B     		ldr	r3, .L521
 3909              		@ sp needed
 3910 0002 1870     		strb	r0, [r3]
 3911 0004 7047     		bx	lr
 3912              	.L522:
 3913 0006 C046     		.align	2
 3914              	.L521:
 3915 0008 00000000 		.word	rx_pathloss_db
 3917              		.section	.text.modem_context_get_rx_pathloss_db,"ax",%progbits
 3918              		.align	1
 3919              		.global	modem_context_get_rx_pathloss_db
 3920              		.syntax unified
ARM GAS  /tmp/ccHTTdmI.s 			page 68


 3921              		.code	16
 3922              		.thumb_func
 3924              	modem_context_get_rx_pathloss_db:
 3925              		@ args = 0, pretend = 0, frame = 0
 3926              		@ frame_needed = 0, uses_anonymous_args = 0
 3927              		@ link register save eliminated.
 3928 0000 0020     		movs	r0, #0
 3929              		@ sp needed
 3930 0002 014B     		ldr	r3, .L524
 3931 0004 1856     		ldrsb	r0, [r3, r0]
 3932 0006 7047     		bx	lr
 3933              	.L525:
 3934              		.align	2
 3935              	.L524:
 3936 0008 00000000 		.word	rx_pathloss_db
 3938              		.section	.text.modem_context_set_tx_power_offset_db,"ax",%progbits
 3939              		.align	1
 3940              		.global	modem_context_set_tx_power_offset_db
 3941              		.syntax unified
 3942              		.code	16
 3943              		.thumb_func
 3945              	modem_context_set_tx_power_offset_db:
 3946              		@ args = 0, pretend = 0, frame = 0
 3947              		@ frame_needed = 0, uses_anonymous_args = 0
 3948              		@ link register save eliminated.
 3949 0000 014B     		ldr	r3, .L527
 3950              		@ sp needed
 3951 0002 1870     		strb	r0, [r3]
 3952 0004 7047     		bx	lr
 3953              	.L528:
 3954 0006 C046     		.align	2
 3955              	.L527:
 3956 0008 00000000 		.word	tx_power_offset_db
 3958              		.section	.text.modem_context_get_tx_power_offset_db,"ax",%progbits
 3959              		.align	1
 3960              		.global	modem_context_get_tx_power_offset_db
 3961              		.syntax unified
 3962              		.code	16
 3963              		.thumb_func
 3965              	modem_context_get_tx_power_offset_db:
 3966              		@ args = 0, pretend = 0, frame = 0
 3967              		@ frame_needed = 0, uses_anonymous_args = 0
 3968              		@ link register save eliminated.
 3969 0000 0020     		movs	r0, #0
 3970              		@ sp needed
 3971 0002 014B     		ldr	r3, .L530
 3972 0004 1856     		ldrsb	r0, [r3, r0]
 3973 0006 7047     		bx	lr
 3974              	.L531:
 3975              		.align	2
 3976              	.L530:
 3977 0008 00000000 		.word	tx_power_offset_db
 3979              		.section	.text.modem_context_get_modem_rp,"ax",%progbits
 3980              		.align	1
 3981              		.global	modem_context_get_modem_rp
 3982              		.syntax unified
 3983              		.code	16
ARM GAS  /tmp/ccHTTdmI.s 			page 69


 3984              		.thumb_func
 3986              	modem_context_get_modem_rp:
 3987              		@ args = 0, pretend = 0, frame = 0
 3988              		@ frame_needed = 0, uses_anonymous_args = 0
 3989              		@ link register save eliminated.
 3990 0000 014B     		ldr	r3, .L533
 3991              		@ sp needed
 3992 0002 1868     		ldr	r0, [r3]
 3993 0004 7047     		bx	lr
 3994              	.L534:
 3995 0006 C046     		.align	2
 3996              	.L533:
 3997 0008 00000000 		.word	modem_rp
 3999              		.section	.text.modem_context_set_modem_rp,"ax",%progbits
 4000              		.align	1
 4001              		.global	modem_context_set_modem_rp
 4002              		.syntax unified
 4003              		.code	16
 4004              		.thumb_func
 4006              	modem_context_set_modem_rp:
 4007              		@ args = 0, pretend = 0, frame = 0
 4008              		@ frame_needed = 0, uses_anonymous_args = 0
 4009              		@ link register save eliminated.
 4010 0000 014B     		ldr	r3, .L536
 4011              		@ sp needed
 4012 0002 1860     		str	r0, [r3]
 4013 0004 7047     		bx	lr
 4014              	.L537:
 4015 0006 C046     		.align	2
 4016              	.L536:
 4017 0008 00000000 		.word	modem_rp
 4019              		.section	.text.modem_context_suspend_user_radio_access,"ax",%progbits
 4020              		.align	1
 4021              		.global	modem_context_suspend_user_radio_access
 4022              		.syntax unified
 4023              		.code	16
 4024              		.thumb_func
 4026              	modem_context_suspend_user_radio_access:
 4027              		@ args = 0, pretend = 0, frame = 160
 4028              		@ frame_needed = 0, uses_anonymous_args = 0
 4029 0000 70B5     		push	{r4, r5, r6, lr}
 4030 0002 0600     		movs	r6, r0
 4031 0004 AAB0     		sub	sp, sp, #168
 4032 0006 09AD     		add	r5, sp, #36
 4033 0008 02AC     		add	r4, sp, #8
 4034 000a 8422     		movs	r2, #132
 4035 000c 0021     		movs	r1, #0
 4036 000e 2800     		movs	r0, r5
 4037 0010 FFF7FEFF 		bl	memset
 4038 0014 1C22     		movs	r2, #28
 4039 0016 0021     		movs	r1, #0
 4040 0018 2000     		movs	r0, r4
 4041 001a FFF7FEFF 		bl	memset
 4042 001e 0B4B     		ldr	r3, .L539
 4043 0020 6670     		strb	r6, [r4, #1]
 4044 0022 0393     		str	r3, [sp, #12]
 4045 0024 FFF7FEFF 		bl	smtc_modem_hal_get_time_in_ms
ARM GAS  /tmp/ccHTTdmI.s 			page 70


 4046 0028 094B     		ldr	r3, .L539+4
 4047 002a 0430     		adds	r0, r0, #4
 4048 002c 0893     		str	r3, [sp, #32]
 4049 002e 0023     		movs	r3, #0
 4050 0030 0590     		str	r0, [sp, #20]
 4051 0032 0848     		ldr	r0, .L539+8
 4052 0034 0095     		str	r5, [sp]
 4053 0036 1A00     		movs	r2, r3
 4054 0038 2100     		movs	r1, r4
 4055 003a 0068     		ldr	r0, [r0]
 4056 003c FFF7FEFF 		bl	rp_task_enqueue
 4057 0040 4342     		rsbs	r3, r0, #0
 4058 0042 5841     		adcs	r0, r0, r3
 4059 0044 C0B2     		uxtb	r0, r0
 4060 0046 2AB0     		add	sp, sp, #168
 4061              		@ sp needed
 4062 0048 70BD     		pop	{r4, r5, r6, pc}
 4063              	.L540:
 4064 004a C046     		.align	2
 4065              	.L539:
 4066 004c 00000000 		.word	modem_context_empty_callback
 4067 0050 204E0000 		.word	20000
 4068 0054 00000000 		.word	modem_rp
 4070              		.section	.rodata.modem_context_resume_user_radio_access.str1.1,"aMS",%progbits,1
 4071              	.LC240:
 4072 0000 1B5B303B 		.ascii	"\033[0;31mERROR: Fail to abort hook\012\015\000"
 4072      33316D45 
 4072      52524F52 
 4072      3A204661 
 4072      696C2074 
 4073              		.section	.text.modem_context_resume_user_radio_access,"ax",%progbits
 4074              		.align	1
 4075              		.global	modem_context_resume_user_radio_access
 4076              		.syntax unified
 4077              		.code	16
 4078              		.thumb_func
 4080              	modem_context_resume_user_radio_access:
 4081              		@ args = 0, pretend = 0, frame = 0
 4082              		@ frame_needed = 0, uses_anonymous_args = 0
 4083 0000 084B     		ldr	r3, .L545
 4084 0002 0021     		movs	r1, #0
 4085 0004 1868     		ldr	r0, [r3]
 4086 0006 10B5     		push	{r4, lr}
 4087 0008 FFF7FEFF 		bl	rp_task_abort
 4088 000c 0123     		movs	r3, #1
 4089 000e 0028     		cmp	r0, #0
 4090 0010 06D0     		beq	.L542
 4091 0012 0548     		ldr	r0, .L545+4
 4092 0014 FFF7FEFF 		bl	smtc_modem_hal_print_trace
 4093 0018 0448     		ldr	r0, .L545+8
 4094 001a FFF7FEFF 		bl	smtc_modem_hal_print_trace
 4095 001e 0023     		movs	r3, #0
 4096              	.L542:
 4097              		@ sp needed
 4098 0020 1800     		movs	r0, r3
 4099 0022 10BD     		pop	{r4, pc}
 4100              	.L546:
ARM GAS  /tmp/ccHTTdmI.s 			page 71


 4101              		.align	2
 4102              	.L545:
 4103 0024 00000000 		.word	modem_rp
 4104 0028 00000000 		.word	.LC240
 4105 002c 1E000000 		.word	.LC41
 4107              		.section	.text.modem_context_suspend_radio_access,"ax",%progbits
 4108              		.align	1
 4109              		.global	modem_context_suspend_radio_access
 4110              		.syntax unified
 4111              		.code	16
 4112              		.thumb_func
 4114              	modem_context_suspend_radio_access:
 4115              		@ args = 0, pretend = 0, frame = 160
 4116              		@ frame_needed = 0, uses_anonymous_args = 0
 4117 0000 30B5     		push	{r4, r5, lr}
 4118 0002 ABB0     		sub	sp, sp, #172
 4119 0004 09AC     		add	r4, sp, #36
 4120 0006 0500     		movs	r5, r0
 4121 0008 8422     		movs	r2, #132
 4122 000a 0021     		movs	r1, #0
 4123 000c 2000     		movs	r0, r4
 4124 000e FFF7FEFF 		bl	memset
 4125 0012 0A20     		movs	r0, #10
 4126 0014 0021     		movs	r1, #0
 4127 0016 1A22     		movs	r2, #26
 4128 0018 6844     		add	r0, r0, sp
 4129 001a FFF7FEFF 		bl	memset
 4130 001e 6A46     		mov	r2, sp
 4131 0020 0223     		movs	r3, #2
 4132 0022 1372     		strb	r3, [r2, #8]
 4133 0024 0B4B     		ldr	r3, .L548
 4134 0026 5572     		strb	r5, [r2, #9]
 4135 0028 0393     		str	r3, [sp, #12]
 4136 002a FFF7FEFF 		bl	smtc_modem_hal_get_time_in_ms
 4137 002e 0A4B     		ldr	r3, .L548+4
 4138 0030 0430     		adds	r0, r0, #4
 4139 0032 0590     		str	r0, [sp, #20]
 4140 0034 0893     		str	r3, [sp, #32]
 4141 0036 FFF7FEFF 		bl	smtc_modem_hal_disable_modem_irq
 4142 003a 0023     		movs	r3, #0
 4143 003c 0748     		ldr	r0, .L548+8
 4144 003e 0094     		str	r4, [sp]
 4145 0040 1A00     		movs	r2, r3
 4146 0042 02A9     		add	r1, sp, #8
 4147 0044 0068     		ldr	r0, [r0]
 4148 0046 FFF7FEFF 		bl	rp_task_enqueue
 4149 004a 4342     		rsbs	r3, r0, #0
 4150 004c 5841     		adcs	r0, r0, r3
 4151 004e C0B2     		uxtb	r0, r0
 4152 0050 2BB0     		add	sp, sp, #172
 4153              		@ sp needed
 4154 0052 30BD     		pop	{r4, r5, pc}
 4155              	.L549:
 4156              		.align	2
 4157              	.L548:
 4158 0054 00000000 		.word	modem_context_empty_callback
 4159 0058 204E0000 		.word	20000
ARM GAS  /tmp/ccHTTdmI.s 			page 72


 4160 005c 00000000 		.word	modem_rp
 4162              		.section	.text.modem_context_resume_radio_access,"ax",%progbits
 4163              		.align	1
 4164              		.global	modem_context_resume_radio_access
 4165              		.syntax unified
 4166              		.code	16
 4167              		.thumb_func
 4169              	modem_context_resume_radio_access:
 4170              		@ args = 0, pretend = 0, frame = 0
 4171              		@ frame_needed = 0, uses_anonymous_args = 0
 4172 0000 094B     		ldr	r3, .L554
 4173 0002 10B5     		push	{r4, lr}
 4174 0004 0221     		movs	r1, #2
 4175 0006 1868     		ldr	r0, [r3]
 4176 0008 FFF7FEFF 		bl	rp_task_abort
 4177 000c 0124     		movs	r4, #1
 4178 000e 0028     		cmp	r0, #0
 4179 0010 06D0     		beq	.L551
 4180 0012 0648     		ldr	r0, .L554+4
 4181 0014 FFF7FEFF 		bl	smtc_modem_hal_print_trace
 4182 0018 0548     		ldr	r0, .L554+8
 4183 001a FFF7FEFF 		bl	smtc_modem_hal_print_trace
 4184 001e 0024     		movs	r4, #0
 4185              	.L551:
 4186              		@ sp needed
 4187 0020 FFF7FEFF 		bl	smtc_modem_hal_enable_modem_irq
 4188 0024 2000     		movs	r0, r4
 4189 0026 10BD     		pop	{r4, pc}
 4190              	.L555:
 4191              		.align	2
 4192              	.L554:
 4193 0028 00000000 		.word	modem_rp
 4194 002c 00000000 		.word	.LC240
 4195 0030 1E000000 		.word	.LC41
 4197              		.section	.text.modem_context_set_power_config_lut,"ax",%progbits
 4198              		.align	1
 4199              		.global	modem_context_set_power_config_lut
 4200              		.syntax unified
 4201              		.code	16
 4202              		.thumb_func
 4204              	modem_context_set_power_config_lut:
 4205              		@ args = 0, pretend = 0, frame = 0
 4206              		@ frame_needed = 0, uses_anonymous_args = 0
 4207              		@ link register save eliminated.
 4208 0000 0200     		movs	r2, r0
 4209 0002 084B     		ldr	r3, .L559
 4210 0004 1E32     		adds	r2, r2, #30
 4211              	.L557:
 4212 0006 0178     		ldrb	r1, [r0]
 4213 0008 1970     		strb	r1, [r3]
 4214 000a 4178     		ldrb	r1, [r0, #1]
 4215 000c 5970     		strb	r1, [r3, #1]
 4216 000e 8178     		ldrb	r1, [r0, #2]
 4217 0010 9970     		strb	r1, [r3, #2]
 4218 0012 C178     		ldrb	r1, [r0, #3]
 4219 0014 D970     		strb	r1, [r3, #3]
 4220 0016 0179     		ldrb	r1, [r0, #4]
ARM GAS  /tmp/ccHTTdmI.s 			page 73


 4221 0018 0530     		adds	r0, r0, #5
 4222 001a 1971     		strb	r1, [r3, #4]
 4223 001c 0533     		adds	r3, r3, #5
 4224 001e 9042     		cmp	r0, r2
 4225 0020 F1D1     		bne	.L557
 4226              		@ sp needed
 4227 0022 7047     		bx	lr
 4228              	.L560:
 4229              		.align	2
 4230              	.L559:
 4231 0024 00000000 		.word	power_config_lut
 4233              		.section	.text.modem_context_get_power_config_lut,"ax",%progbits
 4234              		.align	1
 4235              		.global	modem_context_get_power_config_lut
 4236              		.syntax unified
 4237              		.code	16
 4238              		.thumb_func
 4240              	modem_context_get_power_config_lut:
 4241              		@ args = 0, pretend = 0, frame = 0
 4242              		@ frame_needed = 0, uses_anonymous_args = 0
 4243              		@ link register save eliminated.
 4244 0000 0048     		ldr	r0, .L562
 4245              		@ sp needed
 4246 0002 7047     		bx	lr
 4247              	.L563:
 4248              		.align	2
 4249              	.L562:
 4250 0004 00000000 		.word	power_config_lut
 4252              		.section	.text.modem_context_set_appkey,"ax",%progbits
 4253              		.align	1
 4254              		.global	modem_context_set_appkey
 4255              		.syntax unified
 4256              		.code	16
 4257              		.thumb_func
 4259              	modem_context_set_appkey:
 4260              		@ args = 0, pretend = 0, frame = 0
 4261              		@ frame_needed = 0, uses_anonymous_args = 0
 4262 0000 10B5     		push	{r4, lr}
 4263 0002 FFF7FEFF 		bl	lorawan_api_set_appkey
 4264              		@ sp needed
 4265 0006 431E     		subs	r3, r0, #1
 4266 0008 9841     		sbcs	r0, r0, r3
 4267 000a C0B2     		uxtb	r0, r0
 4268 000c 10BD     		pop	{r4, pc}
 4270              		.section	.text.modem_context_appkey_is_derived,"ax",%progbits
 4271              		.align	1
 4272              		.global	modem_context_appkey_is_derived
 4273              		.syntax unified
 4274              		.code	16
 4275              		.thumb_func
 4277              	modem_context_appkey_is_derived:
 4278              		@ args = 0, pretend = 0, frame = 0
 4279              		@ frame_needed = 0, uses_anonymous_args = 0
 4280 0000 0122     		movs	r2, #1
 4281 0002 10B5     		push	{r4, lr}
 4282 0004 024B     		ldr	r3, .L566
 4283              		@ sp needed
ARM GAS  /tmp/ccHTTdmI.s 			page 74


 4284 0006 1A80     		strh	r2, [r3]
 4285 0008 FFF7FEFF 		bl	modem_store_context
 4286 000c 10BD     		pop	{r4, pc}
 4287              	.L567:
 4288 000e C046     		.align	2
 4289              	.L566:
 4290 0010 00000000 		.word	modem_appkey_status
 4292              		.section	.text.modem_context_get_network_type,"ax",%progbits
 4293              		.align	1
 4294              		.global	modem_context_get_network_type
 4295              		.syntax unified
 4296              		.code	16
 4297              		.thumb_func
 4299              	modem_context_get_network_type:
 4300              		@ args = 0, pretend = 0, frame = 0
 4301              		@ frame_needed = 0, uses_anonymous_args = 0
 4302 0000 10B5     		push	{r4, lr}
 4303 0002 FFF7FEFF 		bl	lorawan_api_get_network_type
 4304              		@ sp needed
 4305 0006 10BD     		pop	{r4, pc}
 4307              		.section	.text.modem_context_set_network_type,"ax",%progbits
 4308              		.align	1
 4309              		.global	modem_context_set_network_type
 4310              		.syntax unified
 4311              		.code	16
 4312              		.thumb_func
 4314              	modem_context_set_network_type:
 4315              		@ args = 0, pretend = 0, frame = 0
 4316              		@ frame_needed = 0, uses_anonymous_args = 0
 4317 0000 10B5     		push	{r4, lr}
 4318 0002 FFF7FEFF 		bl	lorawan_api_set_network_type
 4319              		@ sp needed
 4320 0006 10BD     		pop	{r4, pc}
 4322              		.section	.text.modem_context_get_modem_radio_ctx,"ax",%progbits
 4323              		.align	1
 4324              		.global	modem_context_get_modem_radio_ctx
 4325              		.syntax unified
 4326              		.code	16
 4327              		.thumb_func
 4329              	modem_context_get_modem_radio_ctx:
 4330              		@ args = 0, pretend = 0, frame = 0
 4331              		@ frame_needed = 0, uses_anonymous_args = 0
 4332              		@ link register save eliminated.
 4333 0000 014B     		ldr	r3, .L571
 4334              		@ sp needed
 4335 0002 1868     		ldr	r0, [r3]
 4336 0004 7047     		bx	lr
 4337              	.L572:
 4338 0006 C046     		.align	2
 4339              	.L571:
 4340 0008 00000000 		.word	modem_radio_ctx
 4342              		.section	.text.modem_context_set_modem_radio_ctx,"ax",%progbits
 4343              		.align	1
 4344              		.global	modem_context_set_modem_radio_ctx
 4345              		.syntax unified
 4346              		.code	16
 4347              		.thumb_func
ARM GAS  /tmp/ccHTTdmI.s 			page 75


 4349              	modem_context_set_modem_radio_ctx:
 4350              		@ args = 0, pretend = 0, frame = 0
 4351              		@ frame_needed = 0, uses_anonymous_args = 0
 4352              		@ link register save eliminated.
 4353 0000 014B     		ldr	r3, .L574
 4354              		@ sp needed
 4355 0002 1860     		str	r0, [r3]
 4356 0004 7047     		bx	lr
 4357              	.L575:
 4358 0006 C046     		.align	2
 4359              	.L574:
 4360 0008 00000000 		.word	modem_radio_ctx
 4362              		.section	.text.modem_set_extended_callback,"ax",%progbits
 4363              		.align	1
 4364              		.global	modem_set_extended_callback
 4365              		.syntax unified
 4366              		.code	16
 4367              		.thumb_func
 4369              	modem_set_extended_callback:
 4370              		@ args = 0, pretend = 0, frame = 0
 4371              		@ frame_needed = 0, uses_anonymous_args = 0
 4372              		@ link register save eliminated.
 4373 0000 034B     		ldr	r3, .L580
 4374 0002 0129     		cmp	r1, #1
 4375 0004 02D0     		beq	.L579
 4376 0006 0229     		cmp	r1, #2
 4377 0008 01D1     		bne	.L576
 4378 000a 024B     		ldr	r3, .L580+4
 4379              	.L579:
 4380 000c 1860     		str	r0, [r3]
 4381              	.L576:
 4382              		@ sp needed
 4383 000e 7047     		bx	lr
 4384              	.L581:
 4385              		.align	2
 4386              	.L580:
 4387 0010 00000000 		.word	modem_lbm_notification_extended_1_callback
 4388 0014 00000000 		.word	modem_lbm_notification_extended_2_callback
 4390              		.section	.text.modem_get_extended_callback,"ax",%progbits
 4391              		.align	1
 4392              		.global	modem_get_extended_callback
 4393              		.syntax unified
 4394              		.code	16
 4395              		.thumb_func
 4397              	modem_get_extended_callback:
 4398              		@ args = 0, pretend = 0, frame = 0
 4399              		@ frame_needed = 0, uses_anonymous_args = 0
 4400              		@ link register save eliminated.
 4401 0000 0300     		movs	r3, r0
 4402 0002 0128     		cmp	r0, #1
 4403 0004 02D1     		bne	.L583
 4404 0006 044B     		ldr	r3, .L587
 4405              	.L586:
 4406 0008 1868     		ldr	r0, [r3]
 4407              	.L582:
 4408              		@ sp needed
 4409 000a 7047     		bx	lr
ARM GAS  /tmp/ccHTTdmI.s 			page 76


 4410              	.L583:
 4411 000c 0020     		movs	r0, #0
 4412 000e 022B     		cmp	r3, #2
 4413 0010 FBD1     		bne	.L582
 4414 0012 024B     		ldr	r3, .L587+4
 4415 0014 F8E7     		b	.L586
 4416              	.L588:
 4417 0016 C046     		.align	2
 4418              	.L587:
 4419 0018 00000000 		.word	modem_lbm_notification_extended_1_callback
 4420 001c 00000000 		.word	modem_lbm_notification_extended_2_callback
 4422              		.section	.text.modem_leave,"ax",%progbits
 4423              		.align	1
 4424              		.global	modem_leave
 4425              		.syntax unified
 4426              		.code	16
 4427              		.thumb_func
 4429              	modem_leave:
 4430              		@ args = 0, pretend = 0, frame = 0
 4431              		@ frame_needed = 0, uses_anonymous_args = 0
 4432 0000 10B5     		push	{r4, lr}
 4433 0002 0024     		movs	r4, #0
 4434              		@ sp needed
 4435 0004 0020     		movs	r0, #0
 4436 0006 FFF7FEFF 		bl	set_modem_status_modem_joined
 4437 000a FFF7FEFF 		bl	lorawan_api_join_status_clear
 4438 000e 0020     		movs	r0, #0
 4439 0010 FFF7FEFF 		bl	set_modem_status_joining
 4440 0014 0020     		movs	r0, #0
 4441 0016 FFF7FEFF 		bl	lorawan_api_class_b_enabled
 4442 001a 0020     		movs	r0, #0
 4443 001c FFF7FEFF 		bl	lorawan_api_class_c_enabled
 4444 0020 0020     		movs	r0, #0
 4445 0022 FFF7FEFF 		bl	set_modem_status_file_upload
 4446 0026 054B     		ldr	r3, .L590
 4447 0028 2000     		movs	r0, r4
 4448 002a 1C70     		strb	r4, [r3]
 4449 002c FFF7FEFF 		bl	set_modem_status_streaming
 4450 0030 034B     		ldr	r3, .L590+4
 4451 0032 5C70     		strb	r4, [r3, #1]
 4452 0034 FFF7FEFF 		bl	modem_supervisor_init_task
 4453 0038 10BD     		pop	{r4, pc}
 4454              	.L591:
 4455 003a C046     		.align	2
 4456              	.L590:
 4457 003c 00000000 		.word	modem_upload_state
 4458 0040 00000000 		.word	modem_stream_state
 4460              		.section	.rodata.__func__.1,"a"
 4463              	__func__.1:
 4464 0000 6765745F 		.ascii	"get_modem_event_status\000"
 4464      6D6F6465 
 4464      6D5F6576 
 4464      656E745F 
 4464      73746174 
 4465              		.section	.rodata.__func__.2,"a"
 4468              	__func__.2:
 4469 0000 6765745F 		.ascii	"get_modem_event_count\000"
ARM GAS  /tmp/ccHTTdmI.s 			page 77


 4469      6D6F6465 
 4469      6D5F6576 
 4469      656E745F 
 4469      636F756E 
 4470              		.section	.rodata.dm_info_field_sz,"a"
 4471              		.align	2
 4474              	dm_info_field_sz:
 4475 0000 01020101 		.ascii	"\001\002\001\001\002\002\002\010\001\010\001\001\004"
 4475      02020208 
 4475      01080101 
 4475      04
 4476 000d 00000208 		.ascii	"\000\000\002\010\002\002\010\000\002\010\000\007\000"
 4476      02020800 
 4476      02080007 
 4476      00
 4477 001a 0000     		.space	2
 4478              		.section	.bss.modem_radio_ctx,"aw",%nobits
 4479              		.align	2
 4482              	modem_radio_ctx:
 4483 0000 00000000 		.space	4
 4484              		.section	.bss.modem_lbm_notification_extended_2_callback,"aw",%nobits
 4485              		.align	2
 4488              	modem_lbm_notification_extended_2_callback:
 4489 0000 00000000 		.space	4
 4490              		.section	.bss.modem_lbm_notification_extended_1_callback,"aw",%nobits
 4491              		.align	2
 4494              	modem_lbm_notification_extended_1_callback:
 4495 0000 00000000 		.space	4
 4496              		.section	.bss.power_config_lut,"aw",%nobits
 4499              	power_config_lut:
 4500 0000 00000000 		.space	30
 4500      00000000 
 4500      00000000 
 4500      00000000 
 4500      00000000 
 4501              		.section	.bss.modem_rp,"aw",%nobits
 4502              		.align	2
 4505              	modem_rp:
 4506 0000 00000000 		.space	4
 4507              		.section	.bss.tx_power_offset_db,"aw",%nobits
 4510              	tx_power_offset_db:
 4511 0000 00       		.space	1
 4512              		.section	.bss.rx_pathloss_db,"aw",%nobits
 4515              	rx_pathloss_db:
 4516 0000 00       		.space	1
 4517              		.section	.bss.is_modem_in_test_mode,"aw",%nobits
 4520              	is_modem_in_test_mode:
 4521 0000 00       		.space	1
 4522              		.section	.bss.nb_adr_mobile_timeout,"aw",%nobits
 4523              		.align	1
 4526              	nb_adr_mobile_timeout:
 4527 0000 0000     		.space	2
 4528              		.section	.bss.modem_adr_profile,"aw",%nobits
 4531              	modem_adr_profile:
 4532 0000 00       		.space	1
 4533              		.section	.bss.duty_cycle_disabled_by_host,"aw",%nobits
 4536              	duty_cycle_disabled_by_host:
ARM GAS  /tmp/ccHTTdmI.s 			page 78


 4537 0000 00       		.space	1
 4538              		.section	.bss.modem_rf_output,"aw",%nobits
 4541              	modem_rf_output:
 4542 0000 00       		.space	1
 4543              		.section	.bss.charge_counter_to_send,"aw",%nobits
 4546              	charge_counter_to_send:
 4547 0000 00       		.space	1
 4548              		.section	.bss.user_define_charge_counter,"aw",%nobits
 4549              		.align	1
 4552              	user_define_charge_counter:
 4553 0000 0000     		.space	2
 4554              		.section	.bss.start_time_was_set,"aw",%nobits
 4557              	start_time_was_set:
 4558 0000 00       		.space	1
 4559              		.section	.bss.modem_charge_offset,"aw",%nobits
 4560              		.align	2
 4563              	modem_charge_offset:
 4564 0000 00000000 		.space	4
 4565              		.section	.bss.is_modem_reset_requested,"aw",%nobits
 4568              	is_modem_reset_requested:
 4569 0000 00       		.space	1
 4570              		.section	.bss.modem_dwn_pkt,"aw",%nobits
 4571              		.align	2
 4574              	modem_dwn_pkt:
 4575 0000 00000000 		.space	264
 4575      00000000 
 4575      00000000 
 4575      00000000 
 4575      00000000 
 4576              		.section	.bss.asynch_msg,"aw",%nobits
 4577              		.align	2
 4580              	asynch_msg:
 4581 0000 00000000 		.space	25
 4581      00000000 
 4581      00000000 
 4581      00000000 
 4581      00000000 
 4582              		.section	.bss.modem_event_status,"aw",%nobits
 4583              		.align	2
 4586              	modem_event_status:
 4587 0000 00000000 		.space	25
 4587      00000000 
 4587      00000000 
 4587      00000000 
 4587      00000000 
 4588              		.section	.bss.modem_event_count,"aw",%nobits
 4589              		.align	2
 4592              	modem_event_count:
 4593 0000 00000000 		.space	25
 4593      00000000 
 4593      00000000 
 4593      00000000 
 4593      00000000 
 4594              		.section	.bss.asynchronous_msgnumber,"aw",%nobits
 4597              	asynchronous_msgnumber:
 4598 0000 00       		.space	1
 4599              		.section	.data.user_alarm,"aw"
ARM GAS  /tmp/ccHTTdmI.s 			page 79


 4600              		.align	2
 4603              	user_alarm:
 4604 0000 FFFFFF7F 		.word	2147483647
 4605              		.section	.bss.dm_pending_dl,"aw",%nobits
 4606              		.align	1
 4609              	dm_pending_dl:
 4610 0000 0000     		.space	2
 4611              		.section	.bss.number_of_muted_day,"aw",%nobits
 4614              	number_of_muted_day:
 4615 0000 00       		.space	1
 4616              		.section	.bss.tag_number_now,"aw",%nobits
 4619              	tag_number_now:
 4620 0000 00       		.space	1
 4621              		.section	.bss.tag_number,"aw",%nobits
 4624              	tag_number:
 4625 0000 00       		.space	1
 4626              		.section	.bss.dm_info_bitfield_now,"aw",%nobits
 4627              		.align	2
 4630              	dm_info_bitfield_now:
 4631 0000 00000000 		.space	4
 4632              		.section	.data.dm_info_bitfield_periodic,"aw"
 4633              		.align	2
 4636              	dm_info_bitfield_periodic:
 4637 0000 7B000000 		.word	123
 4638              		.section	.data.modem_stream_state,"aw"
 4639              		.align	1
 4642              	modem_stream_state:
 4643 0000 C7       		.byte	-57
 4644 0001 00       		.byte	0
 4645 0002 00       		.byte	0
 4646              		.section	.bss.modem_upload_state,"aw",%nobits
 4649              	modem_upload_state:
 4650 0000 00       		.space	1
 4651              		.section	.bss.modem_dm_upload_sctr,"aw",%nobits
 4654              	modem_dm_upload_sctr:
 4655 0000 00       		.space	1
 4656              		.section	.bss.modem_start_time,"aw",%nobits
 4657              		.align	2
 4660              	modem_start_time:
 4661 0000 00000000 		.space	4
 4662              		.section	.bss.is_modem_suspend,"aw",%nobits
 4665              	is_modem_suspend:
 4666 0000 00       		.space	1
 4667              		.section	.bss.modem_dm_class,"aw",%nobits
 4670              	modem_dm_class:
 4671 0000 00       		.space	1
 4672              		.section	.bss.modem_appstatus,"aw",%nobits
 4673              		.align	2
 4676              	modem_appstatus:
 4677 0000 00000000 		.space	8
 4677      00000000 
 4678              		.section	.data.modem_dm_port,"aw"
 4681              	modem_dm_port:
 4682 0000 C7       		.byte	-57
 4683              		.section	.data.modem_dm_interval,"aw"
 4686              	modem_dm_interval:
 4687 0000 81       		.byte	-127
ARM GAS  /tmp/ccHTTdmI.s 			page 80


 4688              		.section	.bss.modem_status,"aw",%nobits
 4691              	modem_status:
 4692 0000 00       		.space	1
 4693              		.section	.bss.modem_appkey_crc,"aw",%nobits
 4694              		.align	2
 4697              	modem_appkey_crc:
 4698 0000 00000000 		.space	4
 4699              		.section	.data.modem_appkey_status,"aw"
 4700              		.align	1
 4703              	modem_appkey_status:
 4704 0000 0100     		.short	1
 4705              		.ident	"GCC: (Arch Repository) 13.2.0"
ARM GAS  /tmp/ccHTTdmI.s 			page 81


DEFINED SYMBOLS
                            *ABS*:00000000 modem_context.c
     /tmp/ccHTTdmI.s:14     .text.modem_context_empty_callback:00000000 $t
     /tmp/ccHTTdmI.s:20     .text.modem_context_empty_callback:00000000 modem_context_empty_callback
     /tmp/ccHTTdmI.s:28     .text.modem_context_init:00000000 $t
     /tmp/ccHTTdmI.s:34     .text.modem_context_init:00000000 modem_context_init
     /tmp/ccHTTdmI.s:139    .text.modem_context_init:000000d4 $d
     /tmp/ccHTTdmI.s:4691   .bss.modem_status:00000000 modem_status
     /tmp/ccHTTdmI.s:4686   .data.modem_dm_interval:00000000 modem_dm_interval
     /tmp/ccHTTdmI.s:4681   .data.modem_dm_port:00000000 modem_dm_port
     /tmp/ccHTTdmI.s:4670   .bss.modem_dm_class:00000000 modem_dm_class
     /tmp/ccHTTdmI.s:4665   .bss.is_modem_suspend:00000000 is_modem_suspend
     /tmp/ccHTTdmI.s:4660   .bss.modem_start_time:00000000 modem_start_time
     /tmp/ccHTTdmI.s:4654   .bss.modem_dm_upload_sctr:00000000 modem_dm_upload_sctr
     /tmp/ccHTTdmI.s:4649   .bss.modem_upload_state:00000000 modem_upload_state
     /tmp/ccHTTdmI.s:4642   .data.modem_stream_state:00000000 modem_stream_state
     /tmp/ccHTTdmI.s:4636   .data.dm_info_bitfield_periodic:00000000 dm_info_bitfield_periodic
     /tmp/ccHTTdmI.s:4630   .bss.dm_info_bitfield_now:00000000 dm_info_bitfield_now
     /tmp/ccHTTdmI.s:4624   .bss.tag_number:00000000 tag_number
     /tmp/ccHTTdmI.s:4619   .bss.tag_number_now:00000000 tag_number_now
     /tmp/ccHTTdmI.s:4614   .bss.number_of_muted_day:00000000 number_of_muted_day
     /tmp/ccHTTdmI.s:4609   .bss.dm_pending_dl:00000000 dm_pending_dl
     /tmp/ccHTTdmI.s:4603   .data.user_alarm:00000000 user_alarm
     /tmp/ccHTTdmI.s:4597   .bss.asynchronous_msgnumber:00000000 asynchronous_msgnumber
     /tmp/ccHTTdmI.s:4568   .bss.is_modem_reset_requested:00000000 is_modem_reset_requested
     /tmp/ccHTTdmI.s:4563   .bss.modem_charge_offset:00000000 modem_charge_offset
     /tmp/ccHTTdmI.s:4557   .bss.start_time_was_set:00000000 start_time_was_set
     /tmp/ccHTTdmI.s:4552   .bss.user_define_charge_counter:00000000 user_define_charge_counter
     /tmp/ccHTTdmI.s:4546   .bss.charge_counter_to_send:00000000 charge_counter_to_send
     /tmp/ccHTTdmI.s:4541   .bss.modem_rf_output:00000000 modem_rf_output
     /tmp/ccHTTdmI.s:4536   .bss.duty_cycle_disabled_by_host:00000000 duty_cycle_disabled_by_host
     /tmp/ccHTTdmI.s:4531   .bss.modem_adr_profile:00000000 modem_adr_profile
     /tmp/ccHTTdmI.s:4526   .bss.nb_adr_mobile_timeout:00000000 nb_adr_mobile_timeout
     /tmp/ccHTTdmI.s:4676   .bss.modem_appstatus:00000000 modem_appstatus
     /tmp/ccHTTdmI.s:4520   .bss.is_modem_in_test_mode:00000000 is_modem_in_test_mode
     /tmp/ccHTTdmI.s:4515   .bss.rx_pathloss_db:00000000 rx_pathloss_db
     /tmp/ccHTTdmI.s:4510   .bss.tx_power_offset_db:00000000 tx_power_offset_db
     /tmp/ccHTTdmI.s:4505   .bss.modem_rp:00000000 modem_rp
     /tmp/ccHTTdmI.s:4703   .data.modem_appkey_status:00000000 modem_appkey_status
     /tmp/ccHTTdmI.s:4697   .bss.modem_appkey_crc:00000000 modem_appkey_crc
     /tmp/ccHTTdmI.s:4592   .bss.modem_event_count:00000000 modem_event_count
     /tmp/ccHTTdmI.s:4586   .bss.modem_event_status:00000000 modem_event_status
     /tmp/ccHTTdmI.s:4580   .bss.asynch_msg:00000000 asynch_msg
     /tmp/ccHTTdmI.s:4574   .bss.modem_dwn_pkt:00000000 modem_dwn_pkt
     /tmp/ccHTTdmI.s:4499   .bss.power_config_lut:00000000 power_config_lut
     /tmp/ccHTTdmI.s:186    .text.get_modem_event_count:00000000 $t
     /tmp/ccHTTdmI.s:192    .text.get_modem_event_count:00000000 get_modem_event_count
     /tmp/ccHTTdmI.s:223    .text.get_modem_event_count:0000003c $d
     /tmp/ccHTTdmI.s:4468   .rodata.__func__.2:00000000 __func__.2
     /tmp/ccHTTdmI.s:230    .text.get_modem_event_status:00000000 $t
     /tmp/ccHTTdmI.s:236    .text.get_modem_event_status:00000000 get_modem_event_status
     /tmp/ccHTTdmI.s:267    .text.get_modem_event_status:0000003c $d
     /tmp/ccHTTdmI.s:4463   .rodata.__func__.1:00000000 __func__.1
     /tmp/ccHTTdmI.s:274    .text.set_modem_event_count_and_status:00000000 $t
     /tmp/ccHTTdmI.s:280    .text.set_modem_event_count_and_status:00000000 set_modem_event_count_and_status
     /tmp/ccHTTdmI.s:296    .text.set_modem_event_count_and_status:00000010 $d
     /tmp/ccHTTdmI.s:300    .text.modem_event_init:00000000 $t
ARM GAS  /tmp/ccHTTdmI.s 			page 82


     /tmp/ccHTTdmI.s:306    .text.modem_event_init:00000000 modem_event_init
     /tmp/ccHTTdmI.s:323    .text.increment_modem_event_count_and_status:00000000 $t
     /tmp/ccHTTdmI.s:329    .text.increment_modem_event_count_and_status:00000000 increment_modem_event_count_and_status
     /tmp/ccHTTdmI.s:350    .text.increment_modem_event_count_and_status:00000018 $d
     /tmp/ccHTTdmI.s:354    .text.decrement_asynchronous_msgnumber:00000000 $t
     /tmp/ccHTTdmI.s:360    .text.decrement_asynchronous_msgnumber:00000000 decrement_asynchronous_msgnumber
     /tmp/ccHTTdmI.s:377    .text.decrement_asynchronous_msgnumber:00000010 $d
     /tmp/ccHTTdmI.s:380    .text.get_asynchronous_msgnumber:00000000 $t
     /tmp/ccHTTdmI.s:386    .text.get_asynchronous_msgnumber:00000000 get_asynchronous_msgnumber
     /tmp/ccHTTdmI.s:397    .text.get_asynchronous_msgnumber:00000008 $d
     /tmp/ccHTTdmI.s:404    .text.increment_asynchronous_msgnumber:00000000 $t
     /tmp/ccHTTdmI.s:410    .text.increment_asynchronous_msgnumber:00000000 increment_asynchronous_msgnumber
     /tmp/ccHTTdmI.s:445    .text.increment_asynchronous_msgnumber:0000003c $d
     /tmp/ccHTTdmI.s:451    .text.get_last_msg_event:00000000 $t
     /tmp/ccHTTdmI.s:457    .text.get_last_msg_event:00000000 get_last_msg_event
     /tmp/ccHTTdmI.s:470    .text.get_last_msg_event:0000000c $d
     /tmp/ccHTTdmI.s:474    .text.get_modem_uptime_s:00000000 $t
     /tmp/ccHTTdmI.s:480    .text.get_modem_uptime_s:00000000 get_modem_uptime_s
     /tmp/ccHTTdmI.s:493    .text.get_modem_uptime_s:00000010 $d
     /tmp/ccHTTdmI.s:496    .text.set_modem_start_time_s:00000000 $t
     /tmp/ccHTTdmI.s:502    .text.set_modem_start_time_s:00000000 set_modem_start_time_s
     /tmp/ccHTTdmI.s:520    .text.set_modem_start_time_s:00000014 $d
     /tmp/ccHTTdmI.s:524    .text.set_modem_dm_interval:00000000 $t
     /tmp/ccHTTdmI.s:530    .text.set_modem_dm_interval:00000000 set_modem_dm_interval
     /tmp/ccHTTdmI.s:546    .text.set_modem_dm_interval:00000010 $d
     /tmp/ccHTTdmI.s:549    .text.get_modem_dm_interval:00000000 $t
     /tmp/ccHTTdmI.s:555    .text.get_modem_dm_interval:00000000 get_modem_dm_interval
     /tmp/ccHTTdmI.s:566    .text.get_modem_dm_interval:00000008 $d
     /tmp/ccHTTdmI.s:569    .text.get_modem_dm_interval_second:00000000 $t
     /tmp/ccHTTdmI.s:575    .text.get_modem_dm_interval_second:00000000 get_modem_dm_interval_second
     /tmp/ccHTTdmI.s:610    .text.get_modem_dm_interval_second:00000030 $d
     /tmp/ccHTTdmI.s:614    .text.set_modem_class:00000000 $t
     /tmp/ccHTTdmI.s:620    .text.set_modem_class:00000000 set_modem_class
     /tmp/ccHTTdmI.s:631    .text.set_modem_class:00000008 $d
     /tmp/ccHTTdmI.s:634    .text.get_modem_class:00000000 $t
     /tmp/ccHTTdmI.s:640    .text.get_modem_class:00000000 get_modem_class
     /tmp/ccHTTdmI.s:651    .text.get_modem_class:00000008 $d
     /tmp/ccHTTdmI.s:654    .text.get_modem_dm_port:00000000 $t
     /tmp/ccHTTdmI.s:660    .text.get_modem_dm_port:00000000 get_modem_dm_port
     /tmp/ccHTTdmI.s:671    .text.get_modem_dm_port:00000008 $d
     /tmp/ccHTTdmI.s:674    .text.get_modem_adr_profile:00000000 $t
     /tmp/ccHTTdmI.s:680    .text.get_modem_adr_profile:00000000 get_modem_adr_profile
     /tmp/ccHTTdmI.s:691    .text.get_modem_adr_profile:00000008 $d
     /tmp/ccHTTdmI.s:694    .text.get_modem_region:00000000 $t
     /tmp/ccHTTdmI.s:700    .text.get_modem_region:00000000 get_modem_region
     /tmp/ccHTTdmI.s:709    .text.set_modem_region:00000000 $t
     /tmp/ccHTTdmI.s:715    .text.set_modem_region:00000000 set_modem_region
     /tmp/ccHTTdmI.s:727    .text.set_modem_appstatus:00000000 $t
     /tmp/ccHTTdmI.s:733    .text.set_modem_appstatus:00000000 set_modem_appstatus
     /tmp/ccHTTdmI.s:747    .text.set_modem_appstatus:00000010 $d
     /tmp/ccHTTdmI.s:750    .text.get_modem_appstatus:00000000 $t
     /tmp/ccHTTdmI.s:756    .text.get_modem_appstatus:00000000 get_modem_appstatus
     /tmp/ccHTTdmI.s:768    .text.get_modem_appstatus:0000000c $d
     /tmp/ccHTTdmI.s:771    .text.modem_supervisor_add_task_dm_status_now:00000000 $t
     /tmp/ccHTTdmI.s:777    .text.modem_supervisor_add_task_dm_status_now:00000000 modem_supervisor_add_task_dm_status_now
     /tmp/ccHTTdmI.s:802    .text.modem_supervisor_add_task_crash_log:00000000 $t
     /tmp/ccHTTdmI.s:808    .text.modem_supervisor_add_task_crash_log:00000000 modem_supervisor_add_task_crash_log
ARM GAS  /tmp/ccHTTdmI.s 			page 83


     /tmp/ccHTTdmI.s:836    .text.modem_supervisor_add_task_clock_sync_time_req:00000000 $t
     /tmp/ccHTTdmI.s:842    .text.modem_supervisor_add_task_clock_sync_time_req:00000000 modem_supervisor_add_task_clock_sync_time_req
     /tmp/ccHTTdmI.s:865    .text.modem_supervisor_remove_task_clock_sync:00000000 $t
     /tmp/ccHTTdmI.s:871    .text.modem_supervisor_remove_task_clock_sync:00000000 modem_supervisor_remove_task_clock_sync
     /tmp/ccHTTdmI.s:893    .text.modem_supervisor_is_clock_sync_running:00000000 $t
     /tmp/ccHTTdmI.s:899    .text.modem_supervisor_is_clock_sync_running:00000000 modem_supervisor_is_clock_sync_running
     /tmp/ccHTTdmI.s:913    .text.modem_supervisor_add_task_modem_mute:00000000 $t
     /tmp/ccHTTdmI.s:919    .text.modem_supervisor_add_task_modem_mute:00000000 modem_supervisor_add_task_modem_mute
     /tmp/ccHTTdmI.s:940    .text.modem_supervisor_add_task_modem_mute:00000020 $d
     /tmp/ccHTTdmI.s:943    .text.modem_supervisor_add_task_file_upload:00000000 $t
     /tmp/ccHTTdmI.s:949    .text.modem_supervisor_add_task_file_upload:00000000 modem_supervisor_add_task_file_upload
     /tmp/ccHTTdmI.s:970    .text.get_modem_gnss_status:00000000 $t
     /tmp/ccHTTdmI.s:976    .text.get_modem_gnss_status:00000000 get_modem_gnss_status
     /tmp/ccHTTdmI.s:995    .text.get_modem_gnss_status:0000001c $d
     /tmp/ccHTTdmI.s:4482   .bss.modem_radio_ctx:00000000 modem_radio_ctx
     /tmp/ccHTTdmI.s:998    .text.set_modem_status_reset_after_brownout:00000000 $t
     /tmp/ccHTTdmI.s:1004   .text.set_modem_status_reset_after_brownout:00000000 set_modem_status_reset_after_brownout
     /tmp/ccHTTdmI.s:1024   .text.set_modem_status_reset_after_brownout:00000018 $d
     /tmp/ccHTTdmI.s:1027   .text.set_modem_status_reset_after_crash:00000000 $t
     /tmp/ccHTTdmI.s:1033   .text.set_modem_status_reset_after_crash:00000000 set_modem_status_reset_after_crash
     /tmp/ccHTTdmI.s:1053   .text.set_modem_status_reset_after_crash:00000018 $d
     /tmp/ccHTTdmI.s:1056   .text.set_modem_status_modem_mute:00000000 $t
     /tmp/ccHTTdmI.s:1062   .text.set_modem_status_modem_mute:00000000 set_modem_status_modem_mute
     /tmp/ccHTTdmI.s:1082   .text.set_modem_status_modem_mute:00000018 $d
     /tmp/ccHTTdmI.s:1085   .text.set_modem_status_modem_joined:00000000 $t
     /tmp/ccHTTdmI.s:1091   .text.set_modem_status_modem_joined:00000000 set_modem_status_modem_joined
     /tmp/ccHTTdmI.s:1111   .text.set_modem_status_modem_joined:00000018 $d
     /tmp/ccHTTdmI.s:1114   .text.set_modem_status_radio_suspend:00000000 $t
     /tmp/ccHTTdmI.s:1120   .text.set_modem_status_radio_suspend:00000000 set_modem_status_radio_suspend
     /tmp/ccHTTdmI.s:1140   .text.set_modem_status_radio_suspend:00000018 $d
     /tmp/ccHTTdmI.s:1143   .text.set_modem_status_file_upload:00000000 $t
     /tmp/ccHTTdmI.s:1149   .text.set_modem_status_file_upload:00000000 set_modem_status_file_upload
     /tmp/ccHTTdmI.s:1169   .text.set_modem_status_file_upload:00000018 $d
     /tmp/ccHTTdmI.s:1172   .text.set_modem_status_joining:00000000 $t
     /tmp/ccHTTdmI.s:1178   .text.set_modem_status_joining:00000000 set_modem_status_joining
     /tmp/ccHTTdmI.s:1198   .text.set_modem_status_joining:00000018 $d
     /tmp/ccHTTdmI.s:1206   .text.modem_supervisor_add_task_join:00000000 $t
     /tmp/ccHTTdmI.s:1212   .text.modem_supervisor_add_task_join:00000000 modem_supervisor_add_task_join
     /tmp/ccHTTdmI.s:1256   .text.modem_supervisor_add_task_join:00000054 $d
     /tmp/ccHTTdmI.s:1260   .text.set_modem_status_streaming:00000000 $t
     /tmp/ccHTTdmI.s:1266   .text.set_modem_status_streaming:00000000 set_modem_status_streaming
     /tmp/ccHTTdmI.s:1287   .text.set_modem_status_streaming:00000018 $d
     /tmp/ccHTTdmI.s:1290   .text.modem_supervisor_add_task_stream:00000000 $t
     /tmp/ccHTTdmI.s:1296   .text.modem_supervisor_add_task_stream:00000000 modem_supervisor_add_task_stream
     /tmp/ccHTTdmI.s:1327   .text.modem_supervisor_add_task_stream:00000038 $d
     /tmp/ccHTTdmI.s:1330   .text.get_modem_status_reset_after_crash:00000000 $t
     /tmp/ccHTTdmI.s:1336   .text.get_modem_status_reset_after_crash:00000000 get_modem_status_reset_after_crash
     /tmp/ccHTTdmI.s:1349   .text.get_modem_status_reset_after_crash:0000000c $d
     /tmp/ccHTTdmI.s:1352   .text.get_modem_status_file_upload:00000000 $t
     /tmp/ccHTTdmI.s:1358   .text.get_modem_status_file_upload:00000000 get_modem_status_file_upload
     /tmp/ccHTTdmI.s:1371   .text.get_modem_status_file_upload:0000000c $d
     /tmp/ccHTTdmI.s:1374   .text.get_modem_status_joining:00000000 $t
     /tmp/ccHTTdmI.s:1380   .text.get_modem_status_joining:00000000 get_modem_status_joining
     /tmp/ccHTTdmI.s:1393   .text.get_modem_status_joining:0000000c $d
     /tmp/ccHTTdmI.s:1396   .text.get_join_state:00000000 $t
     /tmp/ccHTTdmI.s:1402   .text.get_join_state:00000000 get_join_state
     /tmp/ccHTTdmI.s:1421   .text.modem_supervisor_add_task_dm_status:00000000 $t
ARM GAS  /tmp/ccHTTdmI.s 			page 84


     /tmp/ccHTTdmI.s:1427   .text.modem_supervisor_add_task_dm_status:00000000 modem_supervisor_add_task_dm_status
     /tmp/ccHTTdmI.s:1453   .text.modem_supervisor_add_task_alc_sync_ans:00000000 $t
     /tmp/ccHTTdmI.s:1459   .text.modem_supervisor_add_task_alc_sync_ans:00000000 modem_supervisor_add_task_alc_sync_ans
     /tmp/ccHTTdmI.s:1486   .text.modem_supervisor_add_task_alm_dbg_ans:00000000 $t
     /tmp/ccHTTdmI.s:1492   .text.modem_supervisor_add_task_alm_dbg_ans:00000000 modem_supervisor_add_task_alm_dbg_ans
     /tmp/ccHTTdmI.s:1519   .text.modem_supervisor_add_task_retrieve_dl:00000000 $t
     /tmp/ccHTTdmI.s:1525   .text.modem_supervisor_add_task_retrieve_dl:00000000 modem_supervisor_add_task_retrieve_dl
     /tmp/ccHTTdmI.s:1553   .text.modem_supervisor_add_task_frag:00000000 $t
     /tmp/ccHTTdmI.s:1559   .text.modem_supervisor_add_task_frag:00000000 modem_supervisor_add_task_frag
     /tmp/ccHTTdmI.s:1586   .text.modem_supervisor_add_task_link_check_req:00000000 $t
     /tmp/ccHTTdmI.s:1592   .text.modem_supervisor_add_task_link_check_req:00000000 modem_supervisor_add_task_link_check_req
     /tmp/ccHTTdmI.s:1619   .text.modem_supervisor_add_task_device_time_req:00000000 $t
     /tmp/ccHTTdmI.s:1625   .text.modem_supervisor_add_task_device_time_req:00000000 modem_supervisor_add_task_device_time_req
     /tmp/ccHTTdmI.s:1652   .text.modem_supervisor_add_task_ping_slot_info_req:00000000 $t
     /tmp/ccHTTdmI.s:1658   .text.modem_supervisor_add_task_ping_slot_info_req:00000000 modem_supervisor_add_task_ping_slot_info_req
     /tmp/ccHTTdmI.s:1685   .text.get_modem_status:00000000 $t
     /tmp/ccHTTdmI.s:1691   .text.get_modem_status:00000000 get_modem_status
     /tmp/ccHTTdmI.s:1708   .text.get_modem_status:00000018 $d
     /tmp/ccHTTdmI.s:1711   .text.get_modem_status_streaming:00000000 $t
     /tmp/ccHTTdmI.s:1717   .text.get_modem_status_streaming:00000000 get_modem_status_streaming
     /tmp/ccHTTdmI.s:1729   .text.get_modem_status_streaming:00000008 $d
     /tmp/ccHTTdmI.s:1732   .text.reset_modem_charge:00000000 $t
     /tmp/ccHTTdmI.s:1738   .text.reset_modem_charge:00000000 reset_modem_charge
     /tmp/ccHTTdmI.s:1755   .text.reset_modem_charge:00000018 $d
     /tmp/ccHTTdmI.s:1760   .text.get_modem_charge_ma_s:00000000 $t
     /tmp/ccHTTdmI.s:1766   .text.get_modem_charge_ma_s:00000000 get_modem_charge_ma_s
     /tmp/ccHTTdmI.s:1791   .text.get_modem_charge_ma_s:00000028 $d
     /tmp/ccHTTdmI.s:1798   .text.get_modem_charge_ma_h:00000000 $t
     /tmp/ccHTTdmI.s:1804   .text.get_modem_charge_ma_h:00000000 get_modem_charge_ma_h
     /tmp/ccHTTdmI.s:1816   .text.get_modem_user_define_charge_ma_h:00000000 $t
     /tmp/ccHTTdmI.s:1822   .text.get_modem_user_define_charge_ma_h:00000000 get_modem_user_define_charge_ma_h
     /tmp/ccHTTdmI.s:1833   .text.get_modem_user_define_charge_ma_h:00000008 $d
     /tmp/ccHTTdmI.s:1836   .text.set_modem_user_define_charge_ma_h:00000000 $t
     /tmp/ccHTTdmI.s:1842   .text.set_modem_user_define_charge_ma_h:00000000 set_modem_user_define_charge_ma_h
     /tmp/ccHTTdmI.s:1853   .text.set_modem_user_define_charge_ma_h:00000008 $d
     /tmp/ccHTTdmI.s:1856   .text.choose_modem_charge_counter:00000000 $t
     /tmp/ccHTTdmI.s:1862   .text.choose_modem_charge_counter:00000000 choose_modem_charge_counter
     /tmp/ccHTTdmI.s:1874   .text.choose_modem_charge_counter:00000008 $d
     /tmp/ccHTTdmI.s:1877   .text.choose_user_define_charge_counter:00000000 $t
     /tmp/ccHTTdmI.s:1883   .text.choose_user_define_charge_counter:00000000 choose_user_define_charge_counter
     /tmp/ccHTTdmI.s:1895   .text.choose_user_define_charge_counter:00000008 $d
     /tmp/ccHTTdmI.s:1898   .text.get_charge_counter_to_send:00000000 $t
     /tmp/ccHTTdmI.s:1904   .text.get_charge_counter_to_send:00000000 get_charge_counter_to_send
     /tmp/ccHTTdmI.s:1915   .text.get_charge_counter_to_send:00000008 $d
     /tmp/ccHTTdmI.s:1918   .text.get_modem_voltage:00000000 $t
     /tmp/ccHTTdmI.s:1924   .text.get_modem_voltage:00000000 get_modem_voltage
     /tmp/ccHTTdmI.s:1933   .text.get_modem_temp:00000000 $t
     /tmp/ccHTTdmI.s:1939   .text.get_modem_temp:00000000 get_modem_temp
     /tmp/ccHTTdmI.s:1953   .text.dm_check_dminfo_size:00000000 $t
     /tmp/ccHTTdmI.s:1959   .text.dm_check_dminfo_size:00000000 dm_check_dminfo_size
     /tmp/ccHTTdmI.s:1985   .text.dm_check_dminfo_size:00000024 $d
     /tmp/ccHTTdmI.s:4474   .rodata.dm_info_field_sz:00000000 dm_info_field_sz
     /tmp/ccHTTdmI.s:1991   .text.dm_set_conf:00000000 $t
     /tmp/ccHTTdmI.s:1997   .text.dm_set_conf:00000000 dm_set_conf
     /tmp/ccHTTdmI.s:2019   .text.dm_set_conf:00000020 $d
     /tmp/ccHTTdmI.s:2023   .text.dm_set_conf:00000024 $t
     /tmp/ccHTTdmI.s:2060   .text.dm_set_conf:00000070 $d
ARM GAS  /tmp/ccHTTdmI.s 			page 85


     /tmp/ccHTTdmI.s:2063   .text.get_modem_muted:00000000 $t
     /tmp/ccHTTdmI.s:2069   .text.get_modem_muted:00000000 get_modem_muted
     /tmp/ccHTTdmI.s:2086   .text.get_modem_muted:00000010 $d
     /tmp/ccHTTdmI.s:2089   .text.dm_get_number_of_days_mute:00000000 $t
     /tmp/ccHTTdmI.s:2095   .text.dm_get_number_of_days_mute:00000000 dm_get_number_of_days_mute
     /tmp/ccHTTdmI.s:2106   .text.dm_get_number_of_days_mute:00000008 $d
     /tmp/ccHTTdmI.s:2112   .text.dm_set_number_of_days_mute:00000000 $t
     /tmp/ccHTTdmI.s:2118   .text.dm_set_number_of_days_mute:00000000 dm_set_number_of_days_mute
     /tmp/ccHTTdmI.s:2143   .text.dm_set_number_of_days_mute:00000024 $d
     /tmp/ccHTTdmI.s:2147   .text.get_dm_info_tag_list:00000000 $t
     /tmp/ccHTTdmI.s:2153   .text.get_dm_info_tag_list:00000000 get_dm_info_tag_list
     /tmp/ccHTTdmI.s:2184   .text.get_dm_info_tag_list:0000002c $d
     /tmp/ccHTTdmI.s:2192   .text.set_dm_info:00000000 $t
     /tmp/ccHTTdmI.s:2198   .text.set_dm_info:00000000 set_dm_info
     /tmp/ccHTTdmI.s:2296   .text.set_dm_info:000000a0 $d
     /tmp/ccHTTdmI.s:2305   .text.set_modem_suspend:00000000 $t
     /tmp/ccHTTdmI.s:2311   .text.set_modem_suspend:00000000 set_modem_suspend
     /tmp/ccHTTdmI.s:2325   .text.set_modem_suspend:00000010 $d
     /tmp/ccHTTdmI.s:2328   .text.get_modem_suspend:00000000 $t
     /tmp/ccHTTdmI.s:2334   .text.get_modem_suspend:00000000 get_modem_suspend
     /tmp/ccHTTdmI.s:2349   .text.get_modem_suspend:00000010 $d
     /tmp/ccHTTdmI.s:2362   .text.set_modem_adr_profile:00000000 $t
     /tmp/ccHTTdmI.s:2368   .text.set_modem_adr_profile:00000000 set_modem_adr_profile
     /tmp/ccHTTdmI.s:2437   .text.set_modem_adr_profile:0000007c $d
     /tmp/ccHTTdmI.s:2449   .text.set_modem_adr_profile:00000088 $t
     /tmp/ccHTTdmI.s:2597   .text.set_modem_adr_profile:00000188 $d
     /tmp/ccHTTdmI.s:2625   .text.set_modem_downlink_frame:00000000 $t
     /tmp/ccHTTdmI.s:2631   .text.set_modem_downlink_frame:00000000 set_modem_downlink_frame
     /tmp/ccHTTdmI.s:2726   .text.set_modem_downlink_frame:000000bc $d
     /tmp/ccHTTdmI.s:2739   .text.get_modem_downlink_frame:00000000 $t
     /tmp/ccHTTdmI.s:2745   .text.get_modem_downlink_frame:00000000 get_modem_downlink_frame
     /tmp/ccHTTdmI.s:2790   .text.get_modem_downlink_frame:00000050 $d
     /tmp/ccHTTdmI.s:2804   .text.dm_status_payload:00000000 $t
     /tmp/ccHTTdmI.s:2810   .text.dm_status_payload:00000000 dm_status_payload
     /tmp/ccHTTdmI.s:2897   .text.dm_status_payload:0000009a $d
     /tmp/ccHTTdmI.s:3085   .text.dm_status_payload:000001e4 $d
     /tmp/ccHTTdmI.s:3101   .text.set_dm_retrieve_pending_dl:00000000 $t
     /tmp/ccHTTdmI.s:3107   .text.set_dm_retrieve_pending_dl:00000000 set_dm_retrieve_pending_dl
     /tmp/ccHTTdmI.s:3124   .text.set_dm_retrieve_pending_dl:00000010 $d
     /tmp/ccHTTdmI.s:3127   .text.get_dm_retrieve_pending_dl:00000000 $t
     /tmp/ccHTTdmI.s:3133   .text.get_dm_retrieve_pending_dl:00000000 get_dm_retrieve_pending_dl
     /tmp/ccHTTdmI.s:3147   .text.get_dm_retrieve_pending_dl:0000000c $d
     /tmp/ccHTTdmI.s:3150   .text.decrement_dm_retrieve_pending_dl:00000000 $t
     /tmp/ccHTTdmI.s:3156   .text.decrement_dm_retrieve_pending_dl:00000000 decrement_dm_retrieve_pending_dl
     /tmp/ccHTTdmI.s:3172   .text.decrement_dm_retrieve_pending_dl:00000010 $d
     /tmp/ccHTTdmI.s:3179   .text.modem_context_factory_reset:00000000 $t
     /tmp/ccHTTdmI.s:3185   .text.modem_context_factory_reset:00000000 modem_context_factory_reset
     /tmp/ccHTTdmI.s:3224   .text.modem_context_factory_reset:0000004c $d
     /tmp/ccHTTdmI.s:3237   .text.modem_load_context:00000000 $t
     /tmp/ccHTTdmI.s:3243   .text.modem_load_context:00000000 modem_load_context
     /tmp/ccHTTdmI.s:3289   .text.modem_load_context:00000058 $d
     /tmp/ccHTTdmI.s:3299   .text.modem_store_context:00000000 $t
     /tmp/ccHTTdmI.s:3305   .text.modem_store_context:00000000 modem_store_context
     /tmp/ccHTTdmI.s:3340   .text.modem_store_context:00000040 $d
     /tmp/ccHTTdmI.s:3348   .text.set_modem_dm_port:00000000 $t
     /tmp/ccHTTdmI.s:3354   .text.set_modem_dm_port:00000000 set_modem_dm_port
     /tmp/ccHTTdmI.s:3383   .text.set_modem_dm_port:0000002c $d
ARM GAS  /tmp/ccHTTdmI.s 			page 86


     /tmp/ccHTTdmI.s:3388   .text.modem_context_compute_and_get_next_dm_upload_sctr:00000000 $t
     /tmp/ccHTTdmI.s:3394   .text.modem_context_compute_and_get_next_dm_upload_sctr:00000000 modem_context_compute_and_get_next_dm_upload_sctr
     /tmp/ccHTTdmI.s:3409   .text.modem_context_compute_and_get_next_dm_upload_sctr:00000010 $d
     /tmp/ccHTTdmI.s:3412   .text.modem_get_upload_state:00000000 $t
     /tmp/ccHTTdmI.s:3418   .text.modem_get_upload_state:00000000 modem_get_upload_state
     /tmp/ccHTTdmI.s:3429   .text.modem_get_upload_state:00000008 $d
     /tmp/ccHTTdmI.s:3432   .text.modem_set_upload_state:00000000 $t
     /tmp/ccHTTdmI.s:3438   .text.modem_set_upload_state:00000000 modem_set_upload_state
     /tmp/ccHTTdmI.s:3449   .text.modem_set_upload_state:00000008 $d
     /tmp/ccHTTdmI.s:3452   .text.modem_get_stream_state:00000000 $t
     /tmp/ccHTTdmI.s:3458   .text.modem_get_stream_state:00000000 modem_get_stream_state
     /tmp/ccHTTdmI.s:3469   .text.modem_get_stream_state:00000008 $d
     /tmp/ccHTTdmI.s:3472   .text.modem_get_stream_port:00000000 $t
     /tmp/ccHTTdmI.s:3478   .text.modem_get_stream_port:00000000 modem_get_stream_port
     /tmp/ccHTTdmI.s:3489   .text.modem_get_stream_port:00000008 $d
     /tmp/ccHTTdmI.s:3492   .text.modem_get_stream_encryption:00000000 $t
     /tmp/ccHTTdmI.s:3498   .text.modem_get_stream_encryption:00000000 modem_get_stream_encryption
     /tmp/ccHTTdmI.s:3509   .text.modem_get_stream_encryption:00000008 $d
     /tmp/ccHTTdmI.s:3512   .text.modem_set_stream_state:00000000 $t
     /tmp/ccHTTdmI.s:3518   .text.modem_set_stream_state:00000000 modem_set_stream_state
     /tmp/ccHTTdmI.s:3529   .text.modem_set_stream_state:00000008 $d
     /tmp/ccHTTdmI.s:3532   .text.modem_set_stream_port:00000000 $t
     /tmp/ccHTTdmI.s:3538   .text.modem_set_stream_port:00000000 modem_set_stream_port
     /tmp/ccHTTdmI.s:3549   .text.modem_set_stream_port:00000008 $d
     /tmp/ccHTTdmI.s:3552   .text.modem_set_stream_encryption:00000000 $t
     /tmp/ccHTTdmI.s:3558   .text.modem_set_stream_encryption:00000000 modem_set_stream_encryption
     /tmp/ccHTTdmI.s:3569   .text.modem_set_stream_encryption:00000008 $d
     /tmp/ccHTTdmI.s:3572   .text.modem_set_dm_info_bitfield_periodic:00000000 $t
     /tmp/ccHTTdmI.s:3578   .text.modem_set_dm_info_bitfield_periodic:00000000 modem_set_dm_info_bitfield_periodic
     /tmp/ccHTTdmI.s:3593   .text.modem_set_dm_info_bitfield_periodic:0000000c $d
     /tmp/ccHTTdmI.s:3596   .text.modem_context_reset_dm_tag_number:00000000 $t
     /tmp/ccHTTdmI.s:3602   .text.modem_context_reset_dm_tag_number:00000000 modem_context_reset_dm_tag_number
     /tmp/ccHTTdmI.s:3614   .text.modem_context_reset_dm_tag_number:00000008 $d
     /tmp/ccHTTdmI.s:3617   .text.modem_get_dm_info_bitfield_periodic:00000000 $t
     /tmp/ccHTTdmI.s:3623   .text.modem_get_dm_info_bitfield_periodic:00000000 modem_get_dm_info_bitfield_periodic
     /tmp/ccHTTdmI.s:3634   .text.modem_get_dm_info_bitfield_periodic:00000008 $d
     /tmp/ccHTTdmI.s:3637   .text.modem_get_user_alarm:00000000 $t
     /tmp/ccHTTdmI.s:3643   .text.modem_get_user_alarm:00000000 modem_get_user_alarm
     /tmp/ccHTTdmI.s:3654   .text.modem_get_user_alarm:00000008 $d
     /tmp/ccHTTdmI.s:3657   .text.modem_set_user_alarm:00000000 $t
     /tmp/ccHTTdmI.s:3663   .text.modem_set_user_alarm:00000000 modem_set_user_alarm
     /tmp/ccHTTdmI.s:3674   .text.modem_set_user_alarm:00000008 $d
     /tmp/ccHTTdmI.s:3677   .text.get_modem_reset_requested:00000000 $t
     /tmp/ccHTTdmI.s:3683   .text.get_modem_reset_requested:00000000 get_modem_reset_requested
     /tmp/ccHTTdmI.s:3694   .text.get_modem_reset_requested:00000008 $d
     /tmp/ccHTTdmI.s:3697   .text.set_modem_reset_requested:00000000 $t
     /tmp/ccHTTdmI.s:3703   .text.set_modem_reset_requested:00000000 set_modem_reset_requested
     /tmp/ccHTTdmI.s:3714   .text.set_modem_reset_requested:00000008 $d
     /tmp/ccHTTdmI.s:3717   .text.modem_get_rfo_pa:00000000 $t
     /tmp/ccHTTdmI.s:3723   .text.modem_get_rfo_pa:00000000 modem_get_rfo_pa
     /tmp/ccHTTdmI.s:3734   .text.modem_get_rfo_pa:00000008 $d
     /tmp/ccHTTdmI.s:3737   .text.modem_set_rfo_pa:00000000 $t
     /tmp/ccHTTdmI.s:3743   .text.modem_set_rfo_pa:00000000 modem_set_rfo_pa
     /tmp/ccHTTdmI.s:3760   .text.modem_set_rfo_pa:00000010 $d
     /tmp/ccHTTdmI.s:3763   .text.modem_set_duty_cycle_disabled_by_host:00000000 $t
     /tmp/ccHTTdmI.s:3769   .text.modem_set_duty_cycle_disabled_by_host:00000000 modem_set_duty_cycle_disabled_by_host
     /tmp/ccHTTdmI.s:3780   .text.modem_set_duty_cycle_disabled_by_host:00000008 $d
ARM GAS  /tmp/ccHTTdmI.s 			page 87


     /tmp/ccHTTdmI.s:3783   .text.modem_get_duty_cycle_disabled_by_host:00000000 $t
     /tmp/ccHTTdmI.s:3789   .text.modem_get_duty_cycle_disabled_by_host:00000000 modem_get_duty_cycle_disabled_by_host
     /tmp/ccHTTdmI.s:3800   .text.modem_get_duty_cycle_disabled_by_host:00000008 $d
     /tmp/ccHTTdmI.s:3803   .text.modem_set_adr_mobile_timeout_config:00000000 $t
     /tmp/ccHTTdmI.s:3809   .text.modem_set_adr_mobile_timeout_config:00000000 modem_set_adr_mobile_timeout_config
     /tmp/ccHTTdmI.s:3820   .text.modem_set_adr_mobile_timeout_config:00000008 $d
     /tmp/ccHTTdmI.s:3823   .text.modem_get_adr_mobile_timeout_config:00000000 $t
     /tmp/ccHTTdmI.s:3829   .text.modem_get_adr_mobile_timeout_config:00000000 modem_get_adr_mobile_timeout_config
     /tmp/ccHTTdmI.s:3840   .text.modem_get_adr_mobile_timeout_config:00000008 $d
     /tmp/ccHTTdmI.s:3843   .text.modem_available_new_link_adr_request:00000000 $t
     /tmp/ccHTTdmI.s:3849   .text.modem_available_new_link_adr_request:00000000 modem_available_new_link_adr_request
     /tmp/ccHTTdmI.s:3858   .text.modem_set_test_mode_status:00000000 $t
     /tmp/ccHTTdmI.s:3864   .text.modem_set_test_mode_status:00000000 modem_set_test_mode_status
     /tmp/ccHTTdmI.s:3875   .text.modem_set_test_mode_status:00000008 $d
     /tmp/ccHTTdmI.s:3878   .text.modem_get_test_mode_status:00000000 $t
     /tmp/ccHTTdmI.s:3884   .text.modem_get_test_mode_status:00000000 modem_get_test_mode_status
     /tmp/ccHTTdmI.s:3895   .text.modem_get_test_mode_status:00000008 $d
     /tmp/ccHTTdmI.s:3898   .text.modem_context_set_rx_pathloss_db:00000000 $t
     /tmp/ccHTTdmI.s:3904   .text.modem_context_set_rx_pathloss_db:00000000 modem_context_set_rx_pathloss_db
     /tmp/ccHTTdmI.s:3915   .text.modem_context_set_rx_pathloss_db:00000008 $d
     /tmp/ccHTTdmI.s:3918   .text.modem_context_get_rx_pathloss_db:00000000 $t
     /tmp/ccHTTdmI.s:3924   .text.modem_context_get_rx_pathloss_db:00000000 modem_context_get_rx_pathloss_db
     /tmp/ccHTTdmI.s:3936   .text.modem_context_get_rx_pathloss_db:00000008 $d
     /tmp/ccHTTdmI.s:3939   .text.modem_context_set_tx_power_offset_db:00000000 $t
     /tmp/ccHTTdmI.s:3945   .text.modem_context_set_tx_power_offset_db:00000000 modem_context_set_tx_power_offset_db
     /tmp/ccHTTdmI.s:3956   .text.modem_context_set_tx_power_offset_db:00000008 $d
     /tmp/ccHTTdmI.s:3959   .text.modem_context_get_tx_power_offset_db:00000000 $t
     /tmp/ccHTTdmI.s:3965   .text.modem_context_get_tx_power_offset_db:00000000 modem_context_get_tx_power_offset_db
     /tmp/ccHTTdmI.s:3977   .text.modem_context_get_tx_power_offset_db:00000008 $d
     /tmp/ccHTTdmI.s:3980   .text.modem_context_get_modem_rp:00000000 $t
     /tmp/ccHTTdmI.s:3986   .text.modem_context_get_modem_rp:00000000 modem_context_get_modem_rp
     /tmp/ccHTTdmI.s:3997   .text.modem_context_get_modem_rp:00000008 $d
     /tmp/ccHTTdmI.s:4000   .text.modem_context_set_modem_rp:00000000 $t
     /tmp/ccHTTdmI.s:4006   .text.modem_context_set_modem_rp:00000000 modem_context_set_modem_rp
     /tmp/ccHTTdmI.s:4017   .text.modem_context_set_modem_rp:00000008 $d
     /tmp/ccHTTdmI.s:4020   .text.modem_context_suspend_user_radio_access:00000000 $t
     /tmp/ccHTTdmI.s:4026   .text.modem_context_suspend_user_radio_access:00000000 modem_context_suspend_user_radio_access
     /tmp/ccHTTdmI.s:4066   .text.modem_context_suspend_user_radio_access:0000004c $d
     /tmp/ccHTTdmI.s:4074   .text.modem_context_resume_user_radio_access:00000000 $t
     /tmp/ccHTTdmI.s:4080   .text.modem_context_resume_user_radio_access:00000000 modem_context_resume_user_radio_access
     /tmp/ccHTTdmI.s:4103   .text.modem_context_resume_user_radio_access:00000024 $d
     /tmp/ccHTTdmI.s:4108   .text.modem_context_suspend_radio_access:00000000 $t
     /tmp/ccHTTdmI.s:4114   .text.modem_context_suspend_radio_access:00000000 modem_context_suspend_radio_access
     /tmp/ccHTTdmI.s:4158   .text.modem_context_suspend_radio_access:00000054 $d
     /tmp/ccHTTdmI.s:4163   .text.modem_context_resume_radio_access:00000000 $t
     /tmp/ccHTTdmI.s:4169   .text.modem_context_resume_radio_access:00000000 modem_context_resume_radio_access
     /tmp/ccHTTdmI.s:4193   .text.modem_context_resume_radio_access:00000028 $d
     /tmp/ccHTTdmI.s:4198   .text.modem_context_set_power_config_lut:00000000 $t
     /tmp/ccHTTdmI.s:4204   .text.modem_context_set_power_config_lut:00000000 modem_context_set_power_config_lut
     /tmp/ccHTTdmI.s:4231   .text.modem_context_set_power_config_lut:00000024 $d
     /tmp/ccHTTdmI.s:4234   .text.modem_context_get_power_config_lut:00000000 $t
     /tmp/ccHTTdmI.s:4240   .text.modem_context_get_power_config_lut:00000000 modem_context_get_power_config_lut
     /tmp/ccHTTdmI.s:4250   .text.modem_context_get_power_config_lut:00000004 $d
     /tmp/ccHTTdmI.s:4253   .text.modem_context_set_appkey:00000000 $t
     /tmp/ccHTTdmI.s:4259   .text.modem_context_set_appkey:00000000 modem_context_set_appkey
     /tmp/ccHTTdmI.s:4271   .text.modem_context_appkey_is_derived:00000000 $t
     /tmp/ccHTTdmI.s:4277   .text.modem_context_appkey_is_derived:00000000 modem_context_appkey_is_derived
ARM GAS  /tmp/ccHTTdmI.s 			page 88


     /tmp/ccHTTdmI.s:4290   .text.modem_context_appkey_is_derived:00000010 $d
     /tmp/ccHTTdmI.s:4293   .text.modem_context_get_network_type:00000000 $t
     /tmp/ccHTTdmI.s:4299   .text.modem_context_get_network_type:00000000 modem_context_get_network_type
     /tmp/ccHTTdmI.s:4308   .text.modem_context_set_network_type:00000000 $t
     /tmp/ccHTTdmI.s:4314   .text.modem_context_set_network_type:00000000 modem_context_set_network_type
     /tmp/ccHTTdmI.s:4323   .text.modem_context_get_modem_radio_ctx:00000000 $t
     /tmp/ccHTTdmI.s:4329   .text.modem_context_get_modem_radio_ctx:00000000 modem_context_get_modem_radio_ctx
     /tmp/ccHTTdmI.s:4340   .text.modem_context_get_modem_radio_ctx:00000008 $d
     /tmp/ccHTTdmI.s:4343   .text.modem_context_set_modem_radio_ctx:00000000 $t
     /tmp/ccHTTdmI.s:4349   .text.modem_context_set_modem_radio_ctx:00000000 modem_context_set_modem_radio_ctx
     /tmp/ccHTTdmI.s:4360   .text.modem_context_set_modem_radio_ctx:00000008 $d
     /tmp/ccHTTdmI.s:4363   .text.modem_set_extended_callback:00000000 $t
     /tmp/ccHTTdmI.s:4369   .text.modem_set_extended_callback:00000000 modem_set_extended_callback
     /tmp/ccHTTdmI.s:4387   .text.modem_set_extended_callback:00000010 $d
     /tmp/ccHTTdmI.s:4494   .bss.modem_lbm_notification_extended_1_callback:00000000 modem_lbm_notification_extended_1_callback
     /tmp/ccHTTdmI.s:4488   .bss.modem_lbm_notification_extended_2_callback:00000000 modem_lbm_notification_extended_2_callback
     /tmp/ccHTTdmI.s:4391   .text.modem_get_extended_callback:00000000 $t
     /tmp/ccHTTdmI.s:4397   .text.modem_get_extended_callback:00000000 modem_get_extended_callback
     /tmp/ccHTTdmI.s:4419   .text.modem_get_extended_callback:00000018 $d
     /tmp/ccHTTdmI.s:4423   .text.modem_leave:00000000 $t
     /tmp/ccHTTdmI.s:4429   .text.modem_leave:00000000 modem_leave
     /tmp/ccHTTdmI.s:4457   .text.modem_leave:0000003c $d
     /tmp/ccHTTdmI.s:4471   .rodata.dm_info_field_sz:00000000 $d
     /tmp/ccHTTdmI.s:4479   .bss.modem_radio_ctx:00000000 $d
     /tmp/ccHTTdmI.s:4485   .bss.modem_lbm_notification_extended_2_callback:00000000 $d
     /tmp/ccHTTdmI.s:4491   .bss.modem_lbm_notification_extended_1_callback:00000000 $d
     /tmp/ccHTTdmI.s:4500   .bss.power_config_lut:00000000 $d
     /tmp/ccHTTdmI.s:4502   .bss.modem_rp:00000000 $d
     /tmp/ccHTTdmI.s:4511   .bss.tx_power_offset_db:00000000 $d
     /tmp/ccHTTdmI.s:4516   .bss.rx_pathloss_db:00000000 $d
     /tmp/ccHTTdmI.s:4521   .bss.is_modem_in_test_mode:00000000 $d
     /tmp/ccHTTdmI.s:4523   .bss.nb_adr_mobile_timeout:00000000 $d
     /tmp/ccHTTdmI.s:4532   .bss.modem_adr_profile:00000000 $d
     /tmp/ccHTTdmI.s:4537   .bss.duty_cycle_disabled_by_host:00000000 $d
     /tmp/ccHTTdmI.s:4542   .bss.modem_rf_output:00000000 $d
     /tmp/ccHTTdmI.s:4547   .bss.charge_counter_to_send:00000000 $d
     /tmp/ccHTTdmI.s:4549   .bss.user_define_charge_counter:00000000 $d
     /tmp/ccHTTdmI.s:4558   .bss.start_time_was_set:00000000 $d
     /tmp/ccHTTdmI.s:4560   .bss.modem_charge_offset:00000000 $d
     /tmp/ccHTTdmI.s:4569   .bss.is_modem_reset_requested:00000000 $d
     /tmp/ccHTTdmI.s:4571   .bss.modem_dwn_pkt:00000000 $d
     /tmp/ccHTTdmI.s:4577   .bss.asynch_msg:00000000 $d
     /tmp/ccHTTdmI.s:4583   .bss.modem_event_status:00000000 $d
     /tmp/ccHTTdmI.s:4589   .bss.modem_event_count:00000000 $d
     /tmp/ccHTTdmI.s:4598   .bss.asynchronous_msgnumber:00000000 $d
     /tmp/ccHTTdmI.s:4600   .data.user_alarm:00000000 $d
     /tmp/ccHTTdmI.s:4606   .bss.dm_pending_dl:00000000 $d
     /tmp/ccHTTdmI.s:4615   .bss.number_of_muted_day:00000000 $d
     /tmp/ccHTTdmI.s:4620   .bss.tag_number_now:00000000 $d
     /tmp/ccHTTdmI.s:4625   .bss.tag_number:00000000 $d
     /tmp/ccHTTdmI.s:4627   .bss.dm_info_bitfield_now:00000000 $d
     /tmp/ccHTTdmI.s:4633   .data.dm_info_bitfield_periodic:00000000 $d
     /tmp/ccHTTdmI.s:4639   .data.modem_stream_state:00000000 $d
     /tmp/ccHTTdmI.s:4650   .bss.modem_upload_state:00000000 $d
     /tmp/ccHTTdmI.s:4655   .bss.modem_dm_upload_sctr:00000000 $d
     /tmp/ccHTTdmI.s:4657   .bss.modem_start_time:00000000 $d
     /tmp/ccHTTdmI.s:4666   .bss.is_modem_suspend:00000000 $d
ARM GAS  /tmp/ccHTTdmI.s 			page 89


     /tmp/ccHTTdmI.s:4671   .bss.modem_dm_class:00000000 $d
     /tmp/ccHTTdmI.s:4673   .bss.modem_appstatus:00000000 $d
     /tmp/ccHTTdmI.s:4692   .bss.modem_status:00000000 $d
     /tmp/ccHTTdmI.s:4694   .bss.modem_appkey_crc:00000000 $d
     /tmp/ccHTTdmI.s:4700   .data.modem_appkey_status:00000000 $d
     /tmp/ccHTTdmI.s:2922   .text.dm_status_payload:000000b3 $d
     /tmp/ccHTTdmI.s:2922   .text.dm_status_payload:000000b4 $t

UNDEFINED SYMBOLS
compute_crc_fw
memset
smtc_modem_hal_store_crashlog
smtc_modem_hal_set_crashlog_status
smtc_modem_hal_print_trace
smtc_modem_hal_reset_mcu
smtc_modem_hal_get_time_in_s
lorawan_api_get_region
lorawan_api_set_region
memcpy
smtc_modem_hal_get_random_nb_in_range
modem_supervisor_add_task
modem_supervisor_get_task_priority
modem_supervisor_remove_task
almanac_update_create_uplink_payload
lorawan_api_modem_certification_is_enabled
lorawan_api_next_join_time_second_get
lorawan_api_isjoined
__aeabi_uidiv
smtc_modem_hal_get_voltage
smtc_modem_hal_get_temperature
__gnu_thumb1_case_uqi
lorawan_api_dr_strategy_set
memcpy1_r
lorawan_api_set_joineui
smtc_modem_leave_network
lorawan_api_mask_tx_dr_channel_up_dwell_time_check
lorawan_api_dr_custom_set
lorawan_api_last_rssi_get
lorawan_api_last_snr_get
lorawan_api_get_joineui
lorawan_api_nb_reset_get
lorawan_api_get_deveui
lorawan_api_devnonce_get
crc
smtc_modem_hal_context_store
smtc_modem_hal_context_restore
lorawan_api_available_link_adr_get
smtc_modem_hal_get_time_in_ms
rp_task_enqueue
rp_task_abort
smtc_modem_hal_disable_modem_irq
smtc_modem_hal_enable_modem_irq
lorawan_api_set_appkey
lorawan_api_get_network_type
lorawan_api_set_network_type
lorawan_api_join_status_clear
lorawan_api_class_b_enabled
ARM GAS  /tmp/ccHTTdmI.s 			page 90


lorawan_api_class_c_enabled
modem_supervisor_init_task
