ARM GAS  /tmp/cc4ZbK1l.s 			page 1


   1              		.cpu cortex-m0
   2              		.arch armv6s-m
   3              		.fpu softvfp
   4              		.eabi_attribute 23, 1
   5              		.eabi_attribute 24, 1
   6              		.eabi_attribute 25, 1
   7              		.eabi_attribute 26, 1
   8              		.eabi_attribute 30, 4
   9              		.eabi_attribute 34, 0
  10              		.eabi_attribute 18, 4
  11              		.file	"radio_planner_hal.c"
  12              		.text
  13              		.section	.text.rp_hal_critical_section_begin,"ax",%progbits
  14              		.align	1
  15              		.global	rp_hal_critical_section_begin
  16              		.syntax unified
  17              		.code	16
  18              		.thumb_func
  20              	rp_hal_critical_section_begin:
  21              		@ args = 0, pretend = 0, frame = 0
  22              		@ frame_needed = 0, uses_anonymous_args = 0
  23 0000 10B5     		push	{r4, lr}
  24 0002 FFF7FEFF 		bl	smtc_modem_hal_disable_modem_irq
  25              		@ sp needed
  26 0006 10BD     		pop	{r4, pc}
  28              		.section	.text.rp_hal_critical_section_end,"ax",%progbits
  29              		.align	1
  30              		.global	rp_hal_critical_section_end
  31              		.syntax unified
  32              		.code	16
  33              		.thumb_func
  35              	rp_hal_critical_section_end:
  36              		@ args = 0, pretend = 0, frame = 0
  37              		@ frame_needed = 0, uses_anonymous_args = 0
  38 0000 10B5     		push	{r4, lr}
  39 0002 FFF7FEFF 		bl	smtc_modem_hal_enable_modem_irq
  40              		@ sp needed
  41 0006 10BD     		pop	{r4, pc}
  43              		.section	.text.rp_hal_timer_stop,"ax",%progbits
  44              		.align	1
  45              		.global	rp_hal_timer_stop
  46              		.syntax unified
  47              		.code	16
  48              		.thumb_func
  50              	rp_hal_timer_stop:
  51              		@ args = 0, pretend = 0, frame = 0
  52              		@ frame_needed = 0, uses_anonymous_args = 0
  53 0000 10B5     		push	{r4, lr}
  54 0002 FFF7FEFF 		bl	smtc_modem_hal_stop_timer
  55              		@ sp needed
  56 0006 10BD     		pop	{r4, pc}
  58              		.section	.text.rp_hal_timer_start,"ax",%progbits
  59              		.align	1
  60              		.global	rp_hal_timer_start
  61              		.syntax unified
  62              		.code	16
  63              		.thumb_func
ARM GAS  /tmp/cc4ZbK1l.s 			page 2


  65              	rp_hal_timer_start:
  66              		@ args = 0, pretend = 0, frame = 0
  67              		@ frame_needed = 0, uses_anonymous_args = 0
  68 0000 0300     		movs	r3, r0
  69 0002 10B5     		push	{r4, lr}
  70 0004 0800     		movs	r0, r1
  71              		@ sp needed
  72 0006 1100     		movs	r1, r2
  73 0008 1A00     		movs	r2, r3
  74 000a FFF7FEFF 		bl	smtc_modem_hal_start_timer
  75 000e 10BD     		pop	{r4, pc}
  77              		.section	.text.rp_hal_get_time_in_ms,"ax",%progbits
  78              		.align	1
  79              		.global	rp_hal_get_time_in_ms
  80              		.syntax unified
  81              		.code	16
  82              		.thumb_func
  84              	rp_hal_get_time_in_ms:
  85              		@ args = 0, pretend = 0, frame = 0
  86              		@ frame_needed = 0, uses_anonymous_args = 0
  87 0000 10B5     		push	{r4, lr}
  88 0002 FFF7FEFF 		bl	smtc_modem_hal_get_time_in_ms
  89              		@ sp needed
  90 0006 10BD     		pop	{r4, pc}
  92              		.section	.text.rp_hal_get_radio_irq_timestamp_in_100us,"ax",%progbits
  93              		.align	1
  94              		.global	rp_hal_get_radio_irq_timestamp_in_100us
  95              		.syntax unified
  96              		.code	16
  97              		.thumb_func
  99              	rp_hal_get_radio_irq_timestamp_in_100us:
 100              		@ args = 0, pretend = 0, frame = 0
 101              		@ frame_needed = 0, uses_anonymous_args = 0
 102 0000 10B5     		push	{r4, lr}
 103 0002 FFF7FEFF 		bl	smtc_modem_hal_get_radio_irq_timestamp_in_100us
 104              		@ sp needed
 105 0006 10BD     		pop	{r4, pc}
 107              		.section	.text.rp_hal_irq_clear_pending,"ax",%progbits
 108              		.align	1
 109              		.global	rp_hal_irq_clear_pending
 110              		.syntax unified
 111              		.code	16
 112              		.thumb_func
 114              	rp_hal_irq_clear_pending:
 115              		@ args = 0, pretend = 0, frame = 0
 116              		@ frame_needed = 0, uses_anonymous_args = 0
 117 0000 10B5     		push	{r4, lr}
 118 0002 FFF7FEFF 		bl	smtc_modem_hal_radio_irq_clear_pending
 119              		@ sp needed
 120 0006 10BD     		pop	{r4, pc}
 122              		.ident	"GCC: (Arch Repository) 13.2.0"
ARM GAS  /tmp/cc4ZbK1l.s 			page 3

