ARM GAS  /tmp/ccTzVZYe.s 			page 1


   1              		.cpu cortex-m0
   2              		.arch armv6s-m
   3              		.fpu softvfp
   4              		.eabi_attribute 23, 1
   5              		.eabi_attribute 24, 1
   6              		.eabi_attribute 25, 1
   7              		.eabi_attribute 26, 1
   8              		.eabi_attribute 30, 4
   9              		.eabi_attribute 34, 0
  10              		.eabi_attribute 18, 4
  11              		.file	"region_eu_868.c"
  12              		.text
  13              		.section	.text.region_eu_868_config,"ax",%progbits
  14              		.align	1
  15              		.global	region_eu_868_config
  16              		.syntax unified
  17              		.code	16
  18              		.thumb_func
  20              	region_eu_868_config:
  21              		@ args = 0, pretend = 0, frame = 0
  22              		@ frame_needed = 0, uses_anonymous_args = 0
  23 0000 836B     		ldr	r3, [r0, #56]
  24 0002 F7B5     		push	{r0, r1, r2, r4, r5, r6, r7, lr}
  25 0004 414A     		ldr	r2, .L4
  26 0006 0500     		movs	r5, r0
  27 0008 5A60     		str	r2, [r3, #4]
  28 000a 414A     		ldr	r2, .L4+4
  29 000c 6420     		movs	r0, #100
  30 000e 9A60     		str	r2, [r3, #8]
  31 0010 8122     		movs	r2, #129
  32 0012 9201     		lsls	r2, r2, #6
  33 0014 9A81     		strh	r2, [r3, #12]
  34 0016 3F4A     		ldr	r2, .L4+8
  35 0018 591D     		adds	r1, r3, #5
  36 001a 1A61     		str	r2, [r3, #16]
  37 001c 0222     		movs	r2, #2
  38 001e 1A75     		strb	r2, [r3, #20]
  39 0020 3D4A     		ldr	r2, .L4+12
  40 0022 0024     		movs	r4, #0
  41 0024 9A61     		str	r2, [r3, #24]
  42 0026 3D4A     		ldr	r2, .L4+16
  43 0028 3D4E     		ldr	r6, .L4+20
  44 002a DA61     		str	r2, [r3, #28]
  45 002c 3D4A     		ldr	r2, .L4+24
  46 002e 1A62     		str	r2, [r3, #32]
  47 0030 C877     		strb	r0, [r1, #31]
  48 0032 9021     		movs	r1, #144
  49 0034 4901     		lsls	r1, r1, #5
  50 0036 9985     		strh	r1, [r3, #44]
  51 0038 1900     		movs	r1, r3
  52 003a 3038     		subs	r0, r0, #48
  53 003c 2E31     		adds	r1, r1, #46
  54 003e 0870     		strb	r0, [r1]
  55 0040 3949     		ldr	r1, .L4+28
  56 0042 0220     		movs	r0, #2
  57 0044 1963     		str	r1, [r3, #48]
  58 0046 3949     		ldr	r1, .L4+32
ARM GAS  /tmp/ccTzVZYe.s 			page 2


  59 0048 FF30     		adds	r0, r0, #255
  60 004a 5963     		str	r1, [r3, #52]
  61 004c B021     		movs	r1, #176
  62 004e 0905     		lsls	r1, r1, #20
  63 0050 9963     		str	r1, [r3, #56]
  64 0052 3749     		ldr	r1, .L4+36
  65 0054 DE65     		str	r6, [r3, #92]
  66 0056 D963     		str	r1, [r3, #60]
  67 0058 3649     		ldr	r1, .L4+40
  68 005a 1964     		str	r1, [r3, #64]
  69 005c 991D     		adds	r1, r3, #6
  70 005e C887     		strh	r0, [r1, #62]
  71 0060 4031     		adds	r1, r1, #64
  72 0062 0C70     		strb	r4, [r1]
  73 0064 0521     		movs	r1, #5
  74 0066 9964     		str	r1, [r3, #72]
  75 0068 1900     		movs	r1, r3
  76 006a 5238     		subs	r0, r0, #82
  77 006c 4C31     		adds	r1, r1, #76
  78 006e FF38     		subs	r0, r0, #255
  79 0070 0880     		strh	r0, [r1]
  80 0072 3149     		ldr	r1, .L4+44
  81 0074 3148     		ldr	r0, .L4+48
  82 0076 1965     		str	r1, [r3, #80]
  83 0078 3149     		ldr	r1, .L4+52
  84 007a 5965     		str	r1, [r3, #84]
  85 007c 1900     		movs	r1, r3
  86 007e 5831     		adds	r1, r1, #88
  87 0080 0880     		strh	r0, [r1]
  88 0082 3049     		ldr	r1, .L4+56
  89 0084 C020     		movs	r0, #192
  90 0086 1966     		str	r1, [r3, #96]
  91 0088 2F49     		ldr	r1, .L4+60
  92 008a 8000     		lsls	r0, r0, #2
  93 008c 5966     		str	r1, [r3, #100]
  94 008e 2F49     		ldr	r1, .L4+64
  95 0090 9966     		str	r1, [r3, #104]
  96 0092 2F49     		ldr	r1, .L4+68
  97 0094 D966     		str	r1, [r3, #108]
  98 0096 1900     		movs	r1, r3
  99 0098 7031     		adds	r1, r1, #112
 100 009a 0880     		strh	r0, [r1]
 101 009c 5A67     		str	r2, [r3, #116]
 102 009e 9A67     		str	r2, [r3, #120]
 103 00a0 1A00     		movs	r2, r3
 104 00a2 1800     		movs	r0, r3
 105 00a4 A432     		adds	r2, r2, #164
 106 00a6 DA67     		str	r2, [r3, #124]
 107 00a8 7431     		adds	r1, r1, #116
 108 00aa 1A1D     		adds	r2, r3, #4
 109 00ac D167     		str	r1, [r2, #124]
 110 00ae 0432     		adds	r2, r2, #4
 111 00b0 7831     		adds	r1, r1, #120
 112 00b2 D167     		str	r1, [r2, #124]
 113 00b4 4530     		adds	r0, r0, #69
 114 00b6 8032     		adds	r2, r2, #128
 115 00b8 0231     		adds	r1, r1, #2
ARM GAS  /tmp/ccTzVZYe.s 			page 3


 116 00ba 5133     		adds	r3, r3, #81
 117 00bc 1160     		str	r1, [r2]
 118 00be FF30     		adds	r0, r0, #255
 119 00c0 FF33     		adds	r3, r3, #255
 120 00c2 3A39     		subs	r1, r1, #58
 121 00c4 D160     		str	r1, [r2, #12]
 122 00c6 1061     		str	r0, [r2, #16]
 123 00c8 5361     		str	r3, [r2, #20]
 124 00ca 0121     		movs	r1, #1
 125 00cc 0C22     		movs	r2, #12
 126 00ce FFF7FEFF 		bl	memset1
 127 00d2 A86B     		ldr	r0, [r5, #56]
 128 00d4 2100     		movs	r1, r4
 129 00d6 0300     		movs	r3, r0
 130 00d8 5130     		adds	r0, r0, #81
 131 00da 4233     		adds	r3, r3, #66
 132 00dc 1A78     		ldrb	r2, [r3]
 133 00de FF30     		adds	r0, r0, #255
 134 00e0 FFF7FEFF 		bl	memset1
 135 00e4 1B4F     		ldr	r7, .L4+72
 136              	.L2:
 137 00e6 AB6B     		ldr	r3, [r5, #56]
 138 00e8 5933     		adds	r3, r3, #89
 139 00ea 1978     		ldrb	r1, [r3]
 140 00ec A142     		cmp	r1, r4
 141 00ee 00DC     		bgt	.L3
 142              		@ sp needed
 143 00f0 F7BD     		pop	{r0, r1, r2, r4, r5, r6, r7, pc}
 144              	.L3:
 145 00f2 7868     		ldr	r0, [r7, #4]
 146 00f4 6300     		lsls	r3, r4, #1
 147 00f6 0190     		str	r0, [sp, #4]
 148 00f8 3868     		ldr	r0, [r7]
 149 00fa E2B2     		uxtb	r2, r4
 150 00fc 0090     		str	r0, [sp]
 151 00fe F35A     		ldrh	r3, [r6, r3]
 152 0100 E86B     		ldr	r0, [r5, #60]
 153 0102 FFF7FEFF 		bl	smtc_duty_cycle_config
 154 0106 0134     		adds	r4, r4, #1
 155 0108 0837     		adds	r7, r7, #8
 156 010a ECE7     		b	.L2
 157              	.L5:
 158              		.align	2
 159              	.L4:
 160 010c 10100302 		.word	33755152
 161 0110 05010E07 		.word	118358277
 162 0114 00000000 		.word	datarate_backoff_eu_868
 163 0118 C0557033 		.word	863000000
 164 011c 8025DB33 		.word	870000000
 165 0120 00000000 		.word	duty_cycle_by_band_eu_868
 166 0124 08E6D333 		.word	869525000
 167 0128 00000000 		.word	SYNC_WORD_GFSK_EU_868
 168 012c 00000000 		.word	SYNC_WORD_LR_FHSS_EU_868
 169 0130 0706FF00 		.word	16713223
 170 0134 3F000C00 		.word	786495
 171 0138 400D0300 		.word	200000
 172 013c 01060000 		.word	1537
ARM GAS  /tmp/ccTzVZYe.s 			page 4


 173 0140 00000000 		.word	M_eu_868
 174 0144 00000000 		.word	MOBILE_LONGRANGE_DR_DISTRIBUTION_EU_868
 175 0148 00000000 		.word	MOBILE_LOWPER_DR_DISTRIBUTION_EU_868
 176 014c 00000000 		.word	JOIN_DR_DISTRIBUTION_EU_868
 177 0150 00000000 		.word	DEFAULT_DR_DISTRIBUTION_EU_868
 178 0154 00000000 		.word	frequency_range_by_band_eu_868
 180              		.section	.text.region_eu_868_init,"ax",%progbits
 181              		.align	1
 182              		.global	region_eu_868_init
 183              		.syntax unified
 184              		.code	16
 185              		.thumb_func
 187              	region_eu_868_init:
 188              		@ args = 0, pretend = 0, frame = 0
 189              		@ frame_needed = 0, uses_anonymous_args = 0
 190 0000 70B5     		push	{r4, r5, r6, lr}
 191 0002 0500     		movs	r5, r0
 192 0004 0026     		movs	r6, #0
 193              	.L7:
 194 0006 A86B     		ldr	r0, [r5, #56]
 195 0008 0022     		movs	r2, #0
 196 000a 0379     		ldrb	r3, [r0, #4]
 197 000c B342     		cmp	r3, r6
 198 000e 0BDC     		bgt	.L8
 199 0010 1400     		movs	r4, r2
 200              	.L9:
 201 0012 A86B     		ldr	r0, [r5, #56]
 202 0014 8379     		ldrb	r3, [r0, #6]
 203 0016 A342     		cmp	r3, r4
 204 0018 1CD8     		bhi	.L10
 205              		@ sp needed
 206 001a 5F30     		adds	r0, r0, #95
 207 001c 0222     		movs	r2, #2
 208 001e FF21     		movs	r1, #255
 209 0020 FF30     		adds	r0, r0, #255
 210 0022 FFF7FEFF 		bl	memset1
 211 0026 70BD     		pop	{r4, r5, r6, pc}
 212              	.L8:
 213 0028 B300     		lsls	r3, r6, #2
 214 002a C318     		adds	r3, r0, r3
 215 002c 1900     		movs	r1, r3
 216 002e 5D30     		adds	r0, r0, #93
 217 0030 E433     		adds	r3, r3, #228
 218 0032 A431     		adds	r1, r1, #164
 219 0034 0A60     		str	r2, [r1]
 220 0036 FF30     		adds	r0, r0, #255
 221 0038 1A60     		str	r2, [r3]
 222 003a F1B2     		uxtb	r1, r6
 223 003c FFF7FEFF 		bl	SMTC_PUT_BIT8
 224 0040 3300     		movs	r3, r6
 225 0042 AA6B     		ldr	r2, [r5, #56]
 226 0044 9033     		adds	r3, r3, #144
 227 0046 5B00     		lsls	r3, r3, #1
 228 0048 D318     		adds	r3, r2, r3
 229 004a 0232     		adds	r2, r2, #2
 230 004c D28F     		ldrh	r2, [r2, #62]
 231 004e 0136     		adds	r6, r6, #1
ARM GAS  /tmp/ccTzVZYe.s 			page 5


 232 0050 9A80     		strh	r2, [r3, #4]
 233 0052 D8E7     		b	.L7
 234              	.L10:
 235 0054 084A     		ldr	r2, .L11
 236 0056 A300     		lsls	r3, r4, #2
 237 0058 9A58     		ldr	r2, [r3, r2]
 238 005a C318     		adds	r3, r0, r3
 239 005c 1900     		movs	r1, r3
 240 005e 5D30     		adds	r0, r0, #93
 241 0060 A431     		adds	r1, r1, #164
 242 0062 E433     		adds	r3, r3, #228
 243 0064 0A60     		str	r2, [r1]
 244 0066 FF30     		adds	r0, r0, #255
 245 0068 2100     		movs	r1, r4
 246 006a 1A60     		str	r2, [r3]
 247 006c 0134     		adds	r4, r4, #1
 248 006e 0122     		movs	r2, #1
 249 0070 FFF7FEFF 		bl	SMTC_PUT_BIT8
 250 0074 E4B2     		uxtb	r4, r4
 251 0076 CCE7     		b	.L9
 252              	.L12:
 253              		.align	2
 254              	.L11:
 255 0078 00000000 		.word	default_freq_eu_868
 257              		.section	.rodata.region_eu_868_get_next_channel.str1.1,"aMS",%progbits,1
 258              	.LC11:
 259 0000 1B5B303B 		.ascii	"\033[0;33mWARN: NO CHANNELS AVAILABLE \012\000"
 259      33336D57 
 259      41524E3A 
 259      204E4F20 
 259      4348414E 
 260              	.LC13:
 261 0025 1B5B306D 		.ascii	"\033[0m\000"
 261      00
 262              		.global	__aeabi_uidivmod
 263              	.LC15:
 264 002a 494E5641 		.ascii	"INVALID CHANNEL  active channel = %d and random cha"
 264      4C494420 
 264      4348414E 
 264      4E454C20 
 264      20616374 
 265 005d 6E6E656C 		.ascii	"nnel = %d \012\000"
 265      203D2025 
 265      64200A00 
 266              		.section	.text.region_eu_868_get_next_channel,"ax",%progbits
 267              		.align	1
 268              		.global	region_eu_868_get_next_channel
 269              		.syntax unified
 270              		.code	16
 271              		.thumb_func
 273              	region_eu_868_get_next_channel:
 274              		@ args = 0, pretend = 0, frame = 16
 275              		@ frame_needed = 0, uses_anonymous_args = 0
 276 0000 7FB5     		push	{r0, r1, r2, r3, r4, r5, r6, lr}
 277 0002 0025     		movs	r5, #0
 278 0004 0400     		movs	r4, r0
 279 0006 2E00     		movs	r6, r5
ARM GAS  /tmp/ccTzVZYe.s 			page 6


 280              	.L14:
 281 0008 A06B     		ldr	r0, [r4, #56]
 282 000a 0379     		ldrb	r3, [r0, #4]
 283 000c AB42     		cmp	r3, r5
 284 000e 0BD8     		bhi	.L18
 285 0010 002E     		cmp	r6, #0
 286 0012 2ED1     		bne	.L19
 287 0014 2648     		ldr	r0, .L23
 288 0016 FFF7FEFF 		bl	smtc_modem_hal_print_trace
 289 001a 2648     		ldr	r0, .L23+4
 290 001c FFF7FEFF 		bl	smtc_modem_hal_print_trace
 291              	.L20:
 292 0020 0120     		movs	r0, #1
 293 0022 4042     		rsbs	r0, r0, #0
 294              	.L22:
 295 0024 04B0     		add	sp, sp, #16
 296              		@ sp needed
 297 0026 70BD     		pop	{r4, r5, r6, pc}
 298              	.L18:
 299 0028 5D30     		adds	r0, r0, #93
 300 002a 2900     		movs	r1, r5
 301 002c FF30     		adds	r0, r0, #255
 302 002e FFF7FEFF 		bl	SMTC_GET_BIT8
 303 0032 0128     		cmp	r0, #1
 304 0034 1AD1     		bne	.L17
 305 0036 2A00     		movs	r2, r5
 306 0038 A36B     		ldr	r3, [r4, #56]
 307 003a 2832     		adds	r2, r2, #40
 308 003c 9200     		lsls	r2, r2, #2
 309 003e 9B18     		adds	r3, r3, r2
 310 0040 5968     		ldr	r1, [r3, #4]
 311 0042 E06B     		ldr	r0, [r4, #60]
 312 0044 FFF7FEFF 		bl	smtc_duty_cycle_is_channel_free
 313 0048 0028     		cmp	r0, #0
 314 004a 0FD0     		beq	.L17
 315 004c 2300     		movs	r3, r4
 316 004e 4E33     		adds	r3, r3, #78
 317 0050 1978     		ldrb	r1, [r3]
 318 0052 2B00     		movs	r3, r5
 319 0054 A06B     		ldr	r0, [r4, #56]
 320 0056 9233     		adds	r3, r3, #146
 321 0058 5B00     		lsls	r3, r3, #1
 322 005a C018     		adds	r0, r0, r3
 323 005c FFF7FEFF 		bl	SMTC_GET_BIT16
 324 0060 0128     		cmp	r0, #1
 325 0062 03D1     		bne	.L17
 326 0064 6B46     		mov	r3, sp
 327 0066 9D55     		strb	r5, [r3, r6]
 328 0068 0136     		adds	r6, r6, #1
 329 006a F6B2     		uxtb	r6, r6
 330              	.L17:
 331 006c 0135     		adds	r5, r5, #1
 332 006e EDB2     		uxtb	r5, r5
 333 0070 CAE7     		b	.L14
 334              	.L19:
 335 0072 711E     		subs	r1, r6, #1
 336 0074 0020     		movs	r0, #0
ARM GAS  /tmp/ccTzVZYe.s 			page 7


 337 0076 FFF7FEFF 		bl	smtc_modem_hal_get_random_nb_in_range
 338 007a 3100     		movs	r1, r6
 339 007c FFF7FEFF 		bl	__aeabi_uidivmod
 340 0080 6B46     		mov	r3, sp
 341 0082 A06B     		ldr	r0, [r4, #56]
 342 0084 0A00     		movs	r2, r1
 343 0086 5B5C     		ldrb	r3, [r3, r1]
 344 0088 0179     		ldrb	r1, [r0, #4]
 345 008a 9942     		cmp	r1, r3
 346 008c 04D8     		bhi	.L21
 347 008e 3100     		movs	r1, r6
 348 0090 0948     		ldr	r0, .L23+8
 349 0092 FFF7FEFF 		bl	smtc_modem_hal_print_trace
 350 0096 C3E7     		b	.L20
 351              	.L21:
 352 0098 2833     		adds	r3, r3, #40
 353 009a 9B00     		lsls	r3, r3, #2
 354 009c C018     		adds	r0, r0, r3
 355 009e 9623     		movs	r3, #150
 356 00a0 4168     		ldr	r1, [r0, #4]
 357 00a2 DB00     		lsls	r3, r3, #3
 358 00a4 426C     		ldr	r2, [r0, #68]
 359 00a6 E150     		str	r1, [r4, r3]
 360 00a8 044B     		ldr	r3, .L23+12
 361 00aa 0020     		movs	r0, #0
 362 00ac E250     		str	r2, [r4, r3]
 363 00ae B9E7     		b	.L22
 364              	.L24:
 365              		.align	2
 366              	.L23:
 367 00b0 00000000 		.word	.LC11
 368 00b4 25000000 		.word	.LC13
 369 00b8 2A000000 		.word	.LC15
 370 00bc B4040000 		.word	1204
 372              		.section	.text.region_eu_868_get_join_next_channel,"ax",%progbits
 373              		.align	1
 374              		.global	region_eu_868_get_join_next_channel
 375              		.syntax unified
 376              		.code	16
 377              		.thumb_func
 379              	region_eu_868_get_join_next_channel:
 380              		@ args = 0, pretend = 0, frame = 0
 381              		@ frame_needed = 0, uses_anonymous_args = 0
 382 0000 10B5     		push	{r4, lr}
 383 0002 FFF7FEFF 		bl	region_eu_868_get_next_channel
 384              		@ sp needed
 385 0006 10BD     		pop	{r4, pc}
 387              		.section	.rodata.region_eu_868_set_rx_config.str1.1,"aMS",%progbits,1
 388              	.LC18:
 389 0000 1B5B303B 		.ascii	"\033[0;33mWARN: INVALID RX TYPE \012\000"
 389      33336D57 
 389      41524E3A 
 389      20494E56 
 389      414C4944 
 390              		.section	.text.region_eu_868_set_rx_config,"ax",%progbits
 391              		.align	1
 392              		.global	region_eu_868_set_rx_config
ARM GAS  /tmp/ccTzVZYe.s 			page 8


 393              		.syntax unified
 394              		.code	16
 395              		.thumb_func
 397              	region_eu_868_set_rx_config:
 398              		@ args = 0, pretend = 0, frame = 0
 399              		@ frame_needed = 0, uses_anonymous_args = 0
 400 0000 10B5     		push	{r4, lr}
 401 0002 0029     		cmp	r1, #0
 402 0004 0CD1     		bne	.L27
 403 0006 0200     		movs	r2, r0
 404 0008 4E32     		adds	r2, r2, #78
 405 000a 1478     		ldrb	r4, [r2]
 406 000c 917A     		ldrb	r1, [r2, #10]
 407 000e 0622     		movs	r2, #6
 408 0010 6243     		muls	r2, r4
 409 0012 0A4B     		ldr	r3, .L31
 410 0014 9B18     		adds	r3, r3, r2
 411 0016 5A5C     		ldrb	r2, [r3, r1]
 412              	.L30:
 413 0018 9723     		movs	r3, #151
 414 001a DB00     		lsls	r3, r3, #3
 415 001c C254     		strb	r2, [r0, r3]
 416              	.L26:
 417              		@ sp needed
 418 001e 10BD     		pop	{r4, pc}
 419              	.L27:
 420 0020 0129     		cmp	r1, #1
 421 0022 03D1     		bne	.L29
 422 0024 0300     		movs	r3, r0
 423 0026 5333     		adds	r3, r3, #83
 424 0028 1A78     		ldrb	r2, [r3]
 425 002a F5E7     		b	.L30
 426              	.L29:
 427 002c 0448     		ldr	r0, .L31+4
 428 002e FFF7FEFF 		bl	smtc_modem_hal_print_trace
 429 0032 0448     		ldr	r0, .L31+8
 430 0034 FFF7FEFF 		bl	smtc_modem_hal_print_trace
 431 0038 F1E7     		b	.L26
 432              	.L32:
 433 003a C046     		.align	2
 434              	.L31:
 435 003c 00000000 		.word	datarate_offsets_eu_868
 436 0040 00000000 		.word	.LC18
 437 0044 25000000 		.word	.LC13
 439              		.section	.rodata.region_eu_868_set_channel_mask.str1.1,"aMS",%progbits,1
 440              	.LC21:
 441 0000 20256420 		.ascii	" %d \000"
 441      00
 442              	.LC23:
 443 0005 200A00   		.ascii	" \012\000"
 444              	.LC26:
 445 0008 25732573 		.ascii	"%s%s\000"
 445      00
 446              		.section	.text.region_eu_868_set_channel_mask,"ax",%progbits
 447              		.align	1
 448              		.global	region_eu_868_set_channel_mask
 449              		.syntax unified
ARM GAS  /tmp/ccTzVZYe.s 			page 9


 450              		.code	16
 451              		.thumb_func
 453              	region_eu_868_set_channel_mask:
 454              		@ args = 0, pretend = 0, frame = 0
 455              		@ frame_needed = 0, uses_anonymous_args = 0
 456 0000 70B5     		push	{r4, r5, r6, lr}
 457 0002 0500     		movs	r5, r0
 458 0004 806B     		ldr	r0, [r0, #56]
 459 0006 0222     		movs	r2, #2
 460 0008 0100     		movs	r1, r0
 461 000a 5D30     		adds	r0, r0, #93
 462 000c 5F31     		adds	r1, r1, #95
 463 000e FF31     		adds	r1, r1, #255
 464 0010 FF30     		adds	r0, r0, #255
 465 0012 FFF7FEFF 		bl	memcpy1
 466 0016 0024     		movs	r4, #0
 467              	.L34:
 468 0018 A86B     		ldr	r0, [r5, #56]
 469 001a 0379     		ldrb	r3, [r0, #4]
 470 001c A342     		cmp	r3, r4
 471 001e 05D8     		bhi	.L35
 472              		@ sp needed
 473 0020 094A     		ldr	r2, .L36
 474 0022 0A49     		ldr	r1, .L36+4
 475 0024 0A48     		ldr	r0, .L36+8
 476 0026 FFF7FEFF 		bl	smtc_modem_hal_print_trace
 477 002a 70BD     		pop	{r4, r5, r6, pc}
 478              	.L35:
 479 002c 5D30     		adds	r0, r0, #93
 480 002e 2100     		movs	r1, r4
 481 0030 FF30     		adds	r0, r0, #255
 482 0032 FFF7FEFF 		bl	SMTC_GET_BIT8
 483 0036 074B     		ldr	r3, .L36+12
 484 0038 0100     		movs	r1, r0
 485 003a 0134     		adds	r4, r4, #1
 486 003c 1800     		movs	r0, r3
 487 003e FFF7FEFF 		bl	smtc_modem_hal_print_trace
 488 0042 E4B2     		uxtb	r4, r4
 489 0044 E8E7     		b	.L34
 490              	.L37:
 491 0046 C046     		.align	2
 492              	.L36:
 493 0048 05000000 		.word	.LC23
 494 004c 25000000 		.word	.LC13
 495 0050 08000000 		.word	.LC26
 496 0054 00000000 		.word	.LC21
 498              		.section	.rodata.region_eu_868_build_channel_mask.str1.1,"aMS",%progbits,1
 499              	.LC28:
 500 0000 556E7772 		.ascii	"UnwrappedChannelMask = 0x\000"
 500      61707065 
 500      64436861 
 500      6E6E656C 
 500      4D61736B 
 501              	.LC30:
 502 001a 25782000 		.ascii	"%x \000"
 503              	.LC32:
 504 001e 2C204368 		.ascii	", ChMask = 0x%x\012\000"
ARM GAS  /tmp/ccTzVZYe.s 			page 10


 504      4D61736B 
 504      203D2030 
 504      7825780A 
 504      00
 505              		.section	.text.region_eu_868_build_channel_mask,"ax",%progbits
 506              		.align	1
 507              		.global	region_eu_868_build_channel_mask
 508              		.syntax unified
 509              		.code	16
 510              		.thumb_func
 512              	region_eu_868_build_channel_mask:
 513              		@ args = 0, pretend = 0, frame = 8
 514              		@ frame_needed = 0, uses_anonymous_args = 0
 515 0000 73B5     		push	{r0, r1, r4, r5, r6, lr}
 516 0002 6B46     		mov	r3, sp
 517 0004 0500     		movs	r5, r0
 518 0006 0C1E     		subs	r4, r1, #0
 519 0008 806B     		ldr	r0, [r0, #56]
 520 000a DA80     		strh	r2, [r3, #6]
 521 000c 0FD0     		beq	.L39
 522 000e 0629     		cmp	r1, #6
 523 0010 46D0     		beq	.L40
 524 0012 0224     		movs	r4, #2
 525 0014 6442     		rsbs	r4, r4, #0
 526              	.L41:
 527 0016 A86B     		ldr	r0, [r5, #56]
 528 0018 0221     		movs	r1, #2
 529 001a 5F30     		adds	r0, r0, #95
 530 001c FF30     		adds	r0, r0, #255
 531 001e FFF7FEFF 		bl	SMTC_ARE_CLR_BYTE8
 532 0022 0128     		cmp	r0, #1
 533 0024 01D1     		bne	.L49
 534 0026 0124     		movs	r4, #1
 535 0028 6442     		rsbs	r4, r4, #0
 536              	.L49:
 537 002a 2000     		movs	r0, r4
 538              		@ sp needed
 539 002c 76BD     		pop	{r1, r2, r4, r5, r6, pc}
 540              	.L39:
 541 002e 6B46     		mov	r3, sp
 542 0030 5F30     		adds	r0, r0, #95
 543 0032 0222     		movs	r2, #2
 544 0034 FF30     		adds	r0, r0, #255
 545 0036 991D     		adds	r1, r3, #6
 546 0038 FFF7FEFF 		bl	memcpy1
 547              	.L42:
 548 003c A86B     		ldr	r0, [r5, #56]
 549 003e 0379     		ldrb	r3, [r0, #4]
 550 0040 A342     		cmp	r3, r4
 551 0042 18D8     		bhi	.L45
 552 0044 0024     		movs	r4, #0
 553              	.L44:
 554 0046 2548     		ldr	r0, .L55
 555 0048 FFF7FEFF 		bl	smtc_modem_hal_print_trace
 556 004c AF23     		movs	r3, #175
 557 004e AA6B     		ldr	r2, [r5, #56]
 558 0050 234E     		ldr	r6, .L55+4
ARM GAS  /tmp/ccTzVZYe.s 			page 11


 559 0052 5B00     		lsls	r3, r3, #1
 560 0054 D15C     		ldrb	r1, [r2, r3]
 561 0056 3000     		movs	r0, r6
 562 0058 FFF7FEFF 		bl	smtc_modem_hal_print_trace
 563 005c 6023     		movs	r3, #96
 564 005e AA6B     		ldr	r2, [r5, #56]
 565 0060 FF33     		adds	r3, r3, #255
 566 0062 D15C     		ldrb	r1, [r2, r3]
 567 0064 3000     		movs	r0, r6
 568 0066 FFF7FEFF 		bl	smtc_modem_hal_print_trace
 569 006a 6B46     		mov	r3, sp
 570 006c 1D48     		ldr	r0, .L55+8
 571 006e D988     		ldrh	r1, [r3, #6]
 572 0070 FFF7FEFF 		bl	smtc_modem_hal_print_trace
 573 0074 CFE7     		b	.L41
 574              	.L45:
 575 0076 5F30     		adds	r0, r0, #95
 576 0078 2100     		movs	r1, r4
 577 007a FF30     		adds	r0, r0, #255
 578 007c FFF7FEFF 		bl	SMTC_GET_BIT8
 579 0080 0128     		cmp	r0, #1
 580 0082 07D1     		bne	.L43
 581 0084 2200     		movs	r2, r4
 582 0086 AB6B     		ldr	r3, [r5, #56]
 583 0088 2832     		adds	r2, r2, #40
 584 008a 9200     		lsls	r2, r2, #2
 585 008c 9B18     		adds	r3, r3, r2
 586 008e 5B68     		ldr	r3, [r3, #4]
 587 0090 002B     		cmp	r3, #0
 588 0092 02D0     		beq	.L50
 589              	.L43:
 590 0094 0134     		adds	r4, r4, #1
 591 0096 E4B2     		uxtb	r4, r4
 592 0098 D0E7     		b	.L42
 593              	.L50:
 594 009a 0124     		movs	r4, #1
 595 009c 6442     		rsbs	r4, r4, #0
 596 009e D2E7     		b	.L44
 597              	.L40:
 598 00a0 5F30     		adds	r0, r0, #95
 599 00a2 0222     		movs	r2, #2
 600 00a4 0021     		movs	r1, #0
 601 00a6 FF30     		adds	r0, r0, #255
 602 00a8 FFF7FEFF 		bl	memset1
 603 00ac 0024     		movs	r4, #0
 604              	.L46:
 605 00ae A86B     		ldr	r0, [r5, #56]
 606 00b0 0379     		ldrb	r3, [r0, #4]
 607 00b2 A342     		cmp	r3, r4
 608 00b4 01D8     		bhi	.L48
 609 00b6 0024     		movs	r4, #0
 610 00b8 ADE7     		b	.L41
 611              	.L48:
 612 00ba 2300     		movs	r3, r4
 613 00bc 2833     		adds	r3, r3, #40
 614 00be 9B00     		lsls	r3, r3, #2
 615 00c0 C318     		adds	r3, r0, r3
ARM GAS  /tmp/ccTzVZYe.s 			page 12


 616 00c2 5B68     		ldr	r3, [r3, #4]
 617 00c4 002B     		cmp	r3, #0
 618 00c6 05D0     		beq	.L47
 619 00c8 5F30     		adds	r0, r0, #95
 620 00ca 0122     		movs	r2, #1
 621 00cc 2100     		movs	r1, r4
 622 00ce FF30     		adds	r0, r0, #255
 623 00d0 FFF7FEFF 		bl	SMTC_PUT_BIT8
 624              	.L47:
 625 00d4 0134     		adds	r4, r4, #1
 626 00d6 E4B2     		uxtb	r4, r4
 627 00d8 E9E7     		b	.L46
 628              	.L56:
 629 00da C046     		.align	2
 630              	.L55:
 631 00dc 00000000 		.word	.LC28
 632 00e0 1A000000 		.word	.LC30
 633 00e4 1E000000 		.word	.LC32
 635              		.section	.rodata.region_eu_868_get_modulation_type_from_datarate.str1.1,"aMS",%progbits,1
 636              	.LC35:
 637 0000 1B5B303B 		.ascii	"\033[0;31mERROR: crash log :%s\012\015\000"
 637      33316D45 
 637      52524F52 
 637      3A206372 
 637      61736820 
 638              	.LC38:
 639 001e 1B5B303B 		.ascii	"\033[0;31mERROR: -> \000"
 639      33316D45 
 639      52524F52 
 639      3A202D3E 
 639      2000
 640              		.section	.text.region_eu_868_get_modulation_type_from_datarate,"ax",%progbits
 641              		.align	1
 642              		.global	region_eu_868_get_modulation_type_from_datarate
 643              		.syntax unified
 644              		.code	16
 645              		.thumb_func
 647              	region_eu_868_get_modulation_type_from_datarate:
 648              		@ args = 0, pretend = 0, frame = 0
 649              		@ frame_needed = 0, uses_anonymous_args = 0
 650 0000 0300     		movs	r3, r0
 651 0002 10B5     		push	{r4, lr}
 652 0004 0628     		cmp	r0, #6
 653 0006 1DD9     		bls	.L58
 654 0008 0120     		movs	r0, #1
 655 000a 072B     		cmp	r3, #7
 656 000c 1BD0     		beq	.L59
 657 000e 083B     		subs	r3, r3, #8
 658 0010 0018     		adds	r0, r0, r0
 659 0012 032B     		cmp	r3, #3
 660 0014 17D9     		bls	.L59
 661 0016 0C4C     		ldr	r4, .L62
 662 0018 2000     		movs	r0, r4
 663 001a FFF7FEFF 		bl	smtc_modem_hal_store_crashlog
 664 001e 0120     		movs	r0, #1
 665 0020 FFF7FEFF 		bl	smtc_modem_hal_set_crashlog_status
 666 0024 2100     		movs	r1, r4
ARM GAS  /tmp/ccTzVZYe.s 			page 13


 667 0026 0948     		ldr	r0, .L62+4
 668 0028 FFF7FEFF 		bl	smtc_modem_hal_print_trace
 669 002c 084C     		ldr	r4, .L62+8
 670 002e 2000     		movs	r0, r4
 671 0030 FFF7FEFF 		bl	smtc_modem_hal_print_trace
 672 0034 0748     		ldr	r0, .L62+12
 673 0036 FFF7FEFF 		bl	smtc_modem_hal_print_trace
 674 003a 2000     		movs	r0, r4
 675 003c FFF7FEFF 		bl	smtc_modem_hal_print_trace
 676 0040 FFF7FEFF 		bl	smtc_modem_hal_reset_mcu
 677              	.L58:
 678 0044 0020     		movs	r0, #0
 679              	.L59:
 680              		@ sp needed
 681 0046 10BD     		pop	{r4, pc}
 682              	.L63:
 683              		.align	2
 684              	.L62:
 685 0048 00000000 		.word	__func__.3
 686 004c 00000000 		.word	.LC35
 687 0050 25000000 		.word	.LC13
 688 0054 1E000000 		.word	.LC38
 690              		.section	.text.region_eu_868_lora_dr_to_sf_bw,"ax",%progbits
 691              		.align	1
 692              		.global	region_eu_868_lora_dr_to_sf_bw
 693              		.syntax unified
 694              		.code	16
 695              		.thumb_func
 697              	region_eu_868_lora_dr_to_sf_bw:
 698              		@ args = 0, pretend = 0, frame = 0
 699              		@ frame_needed = 0, uses_anonymous_args = 0
 700 0000 10B5     		push	{r4, lr}
 701 0002 0628     		cmp	r0, #6
 702 0004 07D8     		bhi	.L65
 703 0006 104B     		ldr	r3, .L67
 704 0008 1B5C     		ldrb	r3, [r3, r0]
 705 000a 8000     		lsls	r0, r0, #2
 706 000c 0B70     		strb	r3, [r1]
 707 000e 0F4B     		ldr	r3, .L67+4
 708 0010 C358     		ldr	r3, [r0, r3]
 709 0012 1370     		strb	r3, [r2]
 710              	.L64:
 711              		@ sp needed
 712 0014 10BD     		pop	{r4, pc}
 713              	.L65:
 714 0016 0E4C     		ldr	r4, .L67+8
 715 0018 2000     		movs	r0, r4
 716 001a FFF7FEFF 		bl	smtc_modem_hal_store_crashlog
 717 001e 0120     		movs	r0, #1
 718 0020 FFF7FEFF 		bl	smtc_modem_hal_set_crashlog_status
 719 0024 2100     		movs	r1, r4
 720 0026 0B48     		ldr	r0, .L67+12
 721 0028 FFF7FEFF 		bl	smtc_modem_hal_print_trace
 722 002c 0A4C     		ldr	r4, .L67+16
 723 002e 2000     		movs	r0, r4
 724 0030 FFF7FEFF 		bl	smtc_modem_hal_print_trace
 725 0034 0948     		ldr	r0, .L67+20
ARM GAS  /tmp/ccTzVZYe.s 			page 14


 726 0036 FFF7FEFF 		bl	smtc_modem_hal_print_trace
 727 003a 2000     		movs	r0, r4
 728 003c FFF7FEFF 		bl	smtc_modem_hal_print_trace
 729 0040 FFF7FEFF 		bl	smtc_modem_hal_reset_mcu
 730 0044 E6E7     		b	.L64
 731              	.L68:
 732 0046 C046     		.align	2
 733              	.L67:
 734 0048 00000000 		.word	datarates_to_sf_eu_868
 735 004c 00000000 		.word	datarates_to_bandwidths_eu_868
 736 0050 00000000 		.word	__func__.2
 737 0054 00000000 		.word	.LC35
 738 0058 25000000 		.word	.LC13
 739 005c 1E000000 		.word	.LC38
 741              		.section	.text.region_eu_868_fsk_dr_to_bitrate,"ax",%progbits
 742              		.align	1
 743              		.global	region_eu_868_fsk_dr_to_bitrate
 744              		.syntax unified
 745              		.code	16
 746              		.thumb_func
 748              	region_eu_868_fsk_dr_to_bitrate:
 749              		@ args = 0, pretend = 0, frame = 0
 750              		@ frame_needed = 0, uses_anonymous_args = 0
 751 0000 10B5     		push	{r4, lr}
 752 0002 0728     		cmp	r0, #7
 753 0004 02D1     		bne	.L70
 754 0006 3223     		movs	r3, #50
 755 0008 0B70     		strb	r3, [r1]
 756              	.L69:
 757              		@ sp needed
 758 000a 10BD     		pop	{r4, pc}
 759              	.L70:
 760 000c 0B4C     		ldr	r4, .L72
 761 000e 2000     		movs	r0, r4
 762 0010 FFF7FEFF 		bl	smtc_modem_hal_store_crashlog
 763 0014 0120     		movs	r0, #1
 764 0016 FFF7FEFF 		bl	smtc_modem_hal_set_crashlog_status
 765 001a 2100     		movs	r1, r4
 766 001c 0848     		ldr	r0, .L72+4
 767 001e FFF7FEFF 		bl	smtc_modem_hal_print_trace
 768 0022 084C     		ldr	r4, .L72+8
 769 0024 2000     		movs	r0, r4
 770 0026 FFF7FEFF 		bl	smtc_modem_hal_print_trace
 771 002a 0748     		ldr	r0, .L72+12
 772 002c FFF7FEFF 		bl	smtc_modem_hal_print_trace
 773 0030 2000     		movs	r0, r4
 774 0032 FFF7FEFF 		bl	smtc_modem_hal_print_trace
 775 0036 FFF7FEFF 		bl	smtc_modem_hal_reset_mcu
 776 003a E6E7     		b	.L69
 777              	.L73:
 778              		.align	2
 779              	.L72:
 780 003c 00000000 		.word	__func__.1
 781 0040 00000000 		.word	.LC35
 782 0044 25000000 		.word	.LC13
 783 0048 1E000000 		.word	.LC38
 785              		.section	.text.region_eu_868_lr_fhss_dr_to_cr_bw,"ax",%progbits
ARM GAS  /tmp/ccTzVZYe.s 			page 15


 786              		.align	1
 787              		.global	region_eu_868_lr_fhss_dr_to_cr_bw
 788              		.syntax unified
 789              		.code	16
 790              		.thumb_func
 792              	region_eu_868_lr_fhss_dr_to_cr_bw:
 793              		@ args = 0, pretend = 0, frame = 0
 794              		@ frame_needed = 0, uses_anonymous_args = 0
 795 0000 0300     		movs	r3, r0
 796 0002 083B     		subs	r3, r3, #8
 797 0004 10B5     		push	{r4, lr}
 798 0006 032B     		cmp	r3, #3
 799 0008 07D8     		bhi	.L75
 800 000a 104B     		ldr	r3, .L77
 801 000c 8000     		lsls	r0, r0, #2
 802 000e C358     		ldr	r3, [r0, r3]
 803 0010 0B70     		strb	r3, [r1]
 804 0012 0F4B     		ldr	r3, .L77+4
 805 0014 C358     		ldr	r3, [r0, r3]
 806 0016 1370     		strb	r3, [r2]
 807              	.L74:
 808              		@ sp needed
 809 0018 10BD     		pop	{r4, pc}
 810              	.L75:
 811 001a 0E4C     		ldr	r4, .L77+8
 812 001c 2000     		movs	r0, r4
 813 001e FFF7FEFF 		bl	smtc_modem_hal_store_crashlog
 814 0022 0120     		movs	r0, #1
 815 0024 FFF7FEFF 		bl	smtc_modem_hal_set_crashlog_status
 816 0028 2100     		movs	r1, r4
 817 002a 0B48     		ldr	r0, .L77+12
 818 002c FFF7FEFF 		bl	smtc_modem_hal_print_trace
 819 0030 0A4C     		ldr	r4, .L77+16
 820 0032 2000     		movs	r0, r4
 821 0034 FFF7FEFF 		bl	smtc_modem_hal_print_trace
 822 0038 0948     		ldr	r0, .L77+20
 823 003a FFF7FEFF 		bl	smtc_modem_hal_print_trace
 824 003e 2000     		movs	r0, r4
 825 0040 FFF7FEFF 		bl	smtc_modem_hal_print_trace
 826 0044 FFF7FEFF 		bl	smtc_modem_hal_reset_mcu
 827 0048 E6E7     		b	.L74
 828              	.L78:
 829 004a C046     		.align	2
 830              	.L77:
 831 004c 00000000 		.word	datarates_to_lr_fhss_cr_eu_868
 832 0050 00000000 		.word	datarates_to_lr_fhss_bw_eu_868
 833 0054 00000000 		.word	__func__.0
 834 0058 00000000 		.word	.LC35
 835 005c 25000000 		.word	.LC13
 836 0060 1E000000 		.word	.LC38
 838              		.section	.rodata.__func__.0,"a"
 841              	__func__.0:
 842 0000 72656769 		.ascii	"region_eu_868_lr_fhss_dr_to_cr_bw\000"
 842      6F6E5F65 
 842      755F3836 
 842      385F6C72 
 842      5F666873 
ARM GAS  /tmp/ccTzVZYe.s 			page 16


 843              		.section	.rodata.__func__.1,"a"
 846              	__func__.1:
 847 0000 72656769 		.ascii	"region_eu_868_fsk_dr_to_bitrate\000"
 847      6F6E5F65 
 847      755F3836 
 847      385F6673 
 847      6B5F6472 
 848              		.section	.rodata.__func__.2,"a"
 851              	__func__.2:
 852 0000 72656769 		.ascii	"region_eu_868_lora_dr_to_sf_bw\000"
 852      6F6E5F65 
 852      755F3836 
 852      385F6C6F 
 852      72615F64 
 853              		.section	.rodata.__func__.3,"a"
 856              	__func__.3:
 857 0000 72656769 		.ascii	"region_eu_868_get_modulation_type_from_datarate\000"
 857      6F6E5F65 
 857      755F3836 
 857      385F6765 
 857      745F6D6F 
 858              		.section	.rodata.frequency_range_by_band_eu_868,"a"
 859              		.align	2
 862              	frequency_range_by_band_eu_868:
 863 0000 C0557033 		.word	863000000
 864 0004 40DA8E33 		.word	865000000
 865 0008 40DA8E33 		.word	865000000
 866 000c 01A1BC33 		.word	868000001
 867 0010 01A1BC33 		.word	868000001
 868 0014 C1C8C533 		.word	868600001
 869 0018 604FC733 		.word	868700000
 870 001c 81F0CE33 		.word	869200001
 871 0020 C0FDD133 		.word	869400000
 872 0024 51CED533 		.word	869650001
 873 0028 A091D633 		.word	869700000
 874 002c 8125DB33 		.word	870000001
 875              		.section	.rodata.duty_cycle_by_band_eu_868,"a"
 876              		.align	2
 879              	duty_cycle_by_band_eu_868:
 880 0000 E803     		.short	1000
 881 0002 6400     		.short	100
 882 0004 6400     		.short	100
 883 0006 E803     		.short	1000
 884 0008 0A00     		.short	10
 885 000a 6400     		.short	100
 886              		.section	.rodata.DEFAULT_DR_DISTRIBUTION_EU_868,"a"
 887              		.align	2
 890              	DEFAULT_DR_DISTRIBUTION_EU_868:
 891 0000 01000000 		.ascii	"\001\000\000\000\000\000\000\000\000\000\000\000"
 891      00000000 
 891      00000000 
 892              		.section	.rodata.JOIN_DR_DISTRIBUTION_EU_868,"a"
 893              		.align	2
 896              	JOIN_DR_DISTRIBUTION_EU_868:
 897 0000 01020304 		.ascii	"\001\002\003\004\004\006\000\000\000\000\000\000"
 897      04060000 
 897      00000000 
ARM GAS  /tmp/ccTzVZYe.s 			page 17


 898              		.section	.rodata.MOBILE_LOWPER_DR_DISTRIBUTION_EU_868,"a"
 899              		.align	2
 902              	MOBILE_LOWPER_DR_DISTRIBUTION_EU_868:
 903 0000 00000103 		.ascii	"\000\000\001\003\003\003\000\000\000\000\000\000"
 903      03030000 
 903      00000000 
 904              		.section	.rodata.MOBILE_LONGRANGE_DR_DISTRIBUTION_EU_868,"a"
 905              		.align	2
 908              	MOBILE_LONGRANGE_DR_DISTRIBUTION_EU_868:
 909 0000 02020303 		.ascii	"\002\002\003\003\000\000\000\000\000\000\000\000"
 909      00000000 
 909      00000000 
 910              		.section	.rodata.M_eu_868,"a"
 911              		.align	2
 914              	M_eu_868:
 915 0000 3B3B3B7B 		.ascii	";;;{\372\372\372\372:{:{"
 915      FAFAFAFA 
 915      3A7B3A7B 
 916              		.section	.rodata.datarates_to_lr_fhss_cr_eu_868,"a"
 917              		.align	2
 920              	datarates_to_lr_fhss_cr_eu_868:
 921 0000 FFFFFFFF 		.word	-1
 922 0004 FFFFFFFF 		.word	-1
 923 0008 FFFFFFFF 		.word	-1
 924 000c FFFFFFFF 		.word	-1
 925 0010 FFFFFFFF 		.word	-1
 926 0014 FFFFFFFF 		.word	-1
 927 0018 FFFFFFFF 		.word	-1
 928 001c FFFFFFFF 		.word	-1
 929 0020 03000000 		.word	3
 930 0024 01000000 		.word	1
 931 0028 03000000 		.word	3
 932 002c 01000000 		.word	1
 933              		.section	.rodata.datarates_to_lr_fhss_bw_eu_868,"a"
 934              		.align	2
 937              	datarates_to_lr_fhss_bw_eu_868:
 938 0000 FFFFFFFF 		.word	-1
 939 0004 FFFFFFFF 		.word	-1
 940 0008 FFFFFFFF 		.word	-1
 941 000c FFFFFFFF 		.word	-1
 942 0010 FFFFFFFF 		.word	-1
 943 0014 FFFFFFFF 		.word	-1
 944 0018 FFFFFFFF 		.word	-1
 945 001c FFFFFFFF 		.word	-1
 946 0020 02000000 		.word	2
 947 0024 02000000 		.word	2
 948 0028 04000000 		.word	4
 949 002c 04000000 		.word	4
 950              		.section	.rodata.datarates_to_bandwidths_eu_868,"a"
 951              		.align	2
 954              	datarates_to_bandwidths_eu_868:
 955 0000 07000000 		.word	7
 956 0004 07000000 		.word	7
 957 0008 07000000 		.word	7
 958 000c 07000000 		.word	7
 959 0010 07000000 		.word	7
 960 0014 07000000 		.word	7
ARM GAS  /tmp/ccTzVZYe.s 			page 18


 961 0018 09000000 		.word	9
 962              		.section	.rodata.datarates_to_sf_eu_868,"a"
 963              		.align	2
 966              	datarates_to_sf_eu_868:
 967 0000 0C0B0A09 		.ascii	"\014\013\012\011\010\007\007"
 967      080707
 968              		.section	.rodata.datarate_backoff_eu_868,"a"
 969              		.align	2
 972              	datarate_backoff_eu_868:
 973 0000 00000102 		.ascii	"\000\000\001\002\003\004\005\006\000\010\000\012"
 973      03040506 
 973      0008000A 
 974              		.section	.rodata.datarate_offsets_eu_868,"a"
 975              		.align	2
 978              	datarate_offsets_eu_868:
 979 0000 00000000 		.ascii	"\000\000\000\000\000\000"
 979      0000
 980 0006 01000000 		.ascii	"\001\000\000\000\000\000"
 980      0000
 981 000c 02010000 		.ascii	"\002\001\000\000\000\000"
 981      0000
 982 0012 03020100 		.ascii	"\003\002\001\000\000\000"
 982      0000
 983 0018 04030201 		.ascii	"\004\003\002\001\000\000"
 983      0000
 984 001e 05040302 		.ascii	"\005\004\003\002\001\000"
 984      0100
 985 0024 06050403 		.ascii	"\006\005\004\003\002\001"
 985      0201
 986 002a 07060504 		.ascii	"\007\006\005\004\003\002"
 986      0302
 987 0030 01000000 		.ascii	"\001\000\000\000\000\000"
 987      0000
 988 0036 02010000 		.ascii	"\002\001\000\000\000\000"
 988      0000
 989 003c 01000000 		.ascii	"\001\000\000\000\000\000"
 989      0000
 990 0042 02010000 		.ascii	"\002\001\000\000\000\000"
 990      0000
 991              		.section	.rodata.default_freq_eu_868,"a"
 992              		.align	2
 995              	default_freq_eu_868:
 996 0000 A027BE33 		.word	868100000
 997 0004 E034C133 		.word	868300000
 998 0008 2042C433 		.word	868500000
 999              		.section	.rodata.SYNC_WORD_LR_FHSS_EU_868,"a"
 1000              		.align	2
 1003              	SYNC_WORD_LR_FHSS_EU_868:
 1004 0000 2C0F7995 		.ascii	",\017y\225"
 1005              		.section	.rodata.SYNC_WORD_GFSK_EU_868,"a"
 1008              	SYNC_WORD_GFSK_EU_868:
 1009 0000 C194C1   		.ascii	"\301\224\301"
 1010              		.ident	"GCC: (Arch Repository) 13.2.0"
ARM GAS  /tmp/ccTzVZYe.s 			page 19

