ARM GAS  /tmp/ccmNjtPN.s 			page 1


   1              		.cpu cortex-m0
   2              		.arch armv6s-m
   3              		.fpu softvfp
   4              		.eabi_attribute 23, 1
   5              		.eabi_attribute 24, 1
   6              		.eabi_attribute 25, 1
   7              		.eabi_attribute 26, 1
   8              		.eabi_attribute 30, 4
   9              		.eabi_attribute 34, 0
  10              		.eabi_attribute 18, 4
  11              		.file	"smtc_duty_cycle.c"
  12              		.text
  13              		.section	.text.smtc_duty_cycle_get_band,"ax",%progbits
  14              		.align	1
  15              		.syntax unified
  16              		.code	16
  17              		.thumb_func
  19              	smtc_duty_cycle_get_band:
  20              		@ args = 0, pretend = 0, frame = 0
  21              		@ frame_needed = 0, uses_anonymous_args = 0
  22 0000 10B5     		push	{r4, lr}
  23 0002 0300     		movs	r3, r0
  24 0004 4278     		ldrb	r2, [r0, #1]
  25 0006 0020     		movs	r0, #0
  26 0008 0433     		adds	r3, r3, #4
  27              	.L2:
  28 000a 8242     		cmp	r2, r0
  29 000c 01D1     		bne	.L5
  30 000e 0020     		movs	r0, #0
  31              	.L4:
  32              		@ sp needed
  33 0010 10BD     		pop	{r4, pc}
  34              	.L5:
  35 0012 1C68     		ldr	r4, [r3]
  36 0014 8C42     		cmp	r4, r1
  37 0016 02D8     		bhi	.L3
  38 0018 5C68     		ldr	r4, [r3, #4]
  39 001a 8C42     		cmp	r4, r1
  40 001c F8D8     		bhi	.L4
  41              	.L3:
  42 001e 0130     		adds	r0, r0, #1
  43 0020 C0B2     		uxtb	r0, r0
  44 0022 5033     		adds	r3, r3, #80
  45 0024 F1E7     		b	.L2
  47              		.section	.text.smtc_duty_cycle_init,"ax",%progbits
  48              		.align	1
  49              		.global	smtc_duty_cycle_init
  50              		.syntax unified
  51              		.code	16
  52              		.thumb_func
  54              	smtc_duty_cycle_init:
  55              		@ args = 0, pretend = 0, frame = 0
  56              		@ frame_needed = 0, uses_anonymous_args = 0
  57 0000 F222     		movs	r2, #242
  58 0002 10B5     		push	{r4, lr}
  59 0004 0021     		movs	r1, #0
  60              		@ sp needed
ARM GAS  /tmp/ccmNjtPN.s 			page 2


  61 0006 5200     		lsls	r2, r2, #1
  62 0008 FFF7FEFF 		bl	memset
  63 000c 10BD     		pop	{r4, pc}
  65              		.section	.rodata.smtc_duty_cycle_config.str1.1,"aMS",%progbits,1
  66              	.LC1:
  67 0000 1B5B303B 		.ascii	"\033[0;31mERROR: crash log :%s\012\000"
  67      33316D45 
  67      52524F52 
  67      3A206372 
  67      61736820 
  68              	.LC3:
  69 001d 1B5B306D 		.ascii	"\033[0m\000"
  69      00
  70              	.LC5:
  71 0022 1B5B303B 		.ascii	"\033[0;31mERROR: -> \000"
  71      33316D45 
  71      52524F52 
  71      3A202D3E 
  71      2000
  72              		.section	.text.smtc_duty_cycle_config,"ax",%progbits
  73              		.align	1
  74              		.global	smtc_duty_cycle_config
  75              		.syntax unified
  76              		.code	16
  77              		.thumb_func
  79              	smtc_duty_cycle_config:
  80              		@ args = 8, pretend = 0, frame = 8
  81              		@ frame_needed = 0, uses_anonymous_args = 0
  82 0000 F7B5     		push	{r0, r1, r2, r4, r5, r6, r7, lr}
  83 0002 0400     		movs	r4, r0
  84 0004 0D00     		movs	r5, r1
  85 0006 1600     		movs	r6, r2
  86 0008 0193     		str	r3, [sp, #4]
  87 000a 0629     		cmp	r1, #6
  88 000c 16D9     		bls	.L8
  89 000e 1D4F     		ldr	r7, .L10
  90 0010 3800     		movs	r0, r7
  91 0012 FFF7FEFF 		bl	smtc_modem_hal_store_crashlog
  92 0016 0120     		movs	r0, #1
  93 0018 FFF7FEFF 		bl	smtc_modem_hal_set_crashlog_status
  94 001c 3900     		movs	r1, r7
  95 001e 1A48     		ldr	r0, .L10+4
  96 0020 FFF7FEFF 		bl	smtc_modem_hal_print_trace
  97 0024 194F     		ldr	r7, .L10+8
  98 0026 3800     		movs	r0, r7
  99 0028 FFF7FEFF 		bl	smtc_modem_hal_print_trace
 100 002c 1848     		ldr	r0, .L10+12
 101 002e FFF7FEFF 		bl	smtc_modem_hal_print_trace
 102 0032 3800     		movs	r0, r7
 103 0034 FFF7FEFF 		bl	smtc_modem_hal_print_trace
 104 0038 FFF7FEFF 		bl	smtc_modem_hal_reset_mcu
 105              	.L8:
 106 003c 6570     		strb	r5, [r4, #1]
 107 003e B542     		cmp	r5, r6
 108 0040 16D8     		bhi	.L9
 109 0042 104D     		ldr	r5, .L10
 110 0044 2800     		movs	r0, r5
ARM GAS  /tmp/ccmNjtPN.s 			page 3


 111 0046 FFF7FEFF 		bl	smtc_modem_hal_store_crashlog
 112 004a 0120     		movs	r0, #1
 113 004c FFF7FEFF 		bl	smtc_modem_hal_set_crashlog_status
 114 0050 2900     		movs	r1, r5
 115 0052 0D48     		ldr	r0, .L10+4
 116 0054 FFF7FEFF 		bl	smtc_modem_hal_print_trace
 117 0058 0C4D     		ldr	r5, .L10+8
 118 005a 2800     		movs	r0, r5
 119 005c FFF7FEFF 		bl	smtc_modem_hal_print_trace
 120 0060 0B48     		ldr	r0, .L10+12
 121 0062 FFF7FEFF 		bl	smtc_modem_hal_print_trace
 122 0066 2800     		movs	r0, r5
 123 0068 FFF7FEFF 		bl	smtc_modem_hal_print_trace
 124 006c FFF7FEFF 		bl	smtc_modem_hal_reset_mcu
 125              	.L9:
 126              		@ sp needed
 127 0070 5023     		movs	r3, #80
 128 0072 7343     		muls	r3, r6
 129 0074 E418     		adds	r4, r4, r3
 130 0076 019B     		ldr	r3, [sp, #4]
 131 0078 A381     		strh	r3, [r4, #12]
 132 007a 089B     		ldr	r3, [sp, #32]
 133 007c 6360     		str	r3, [r4, #4]
 134 007e 099B     		ldr	r3, [sp, #36]
 135 0080 A360     		str	r3, [r4, #8]
 136 0082 F7BD     		pop	{r0, r1, r2, r4, r5, r6, r7, pc}
 137              	.L11:
 138              		.align	2
 139              	.L10:
 140 0084 00000000 		.word	__func__.1
 141 0088 00000000 		.word	.LC1
 142 008c 1D000000 		.word	.LC3
 143 0090 22000000 		.word	.LC5
 145              		.section	.text.smtc_duty_cycle_enable_set,"ax",%progbits
 146              		.align	1
 147              		.global	smtc_duty_cycle_enable_set
 148              		.syntax unified
 149              		.code	16
 150              		.thumb_func
 152              	smtc_duty_cycle_enable_set:
 153              		@ args = 0, pretend = 0, frame = 0
 154              		@ frame_needed = 0, uses_anonymous_args = 0
 155              		@ link register save eliminated.
 156 0000 0300     		movs	r3, r0
 157 0002 4078     		ldrb	r0, [r0, #1]
 158 0004 0028     		cmp	r0, #0
 159 0006 01D0     		beq	.L13
 160 0008 0120     		movs	r0, #1
 161 000a 1970     		strb	r1, [r3]
 162              	.L13:
 163              		@ sp needed
 164 000c 7047     		bx	lr
 166              		.section	.text.smtc_duty_cycle_enable_get,"ax",%progbits
 167              		.align	1
 168              		.global	smtc_duty_cycle_enable_get
 169              		.syntax unified
 170              		.code	16
ARM GAS  /tmp/ccmNjtPN.s 			page 4


 171              		.thumb_func
 173              	smtc_duty_cycle_enable_get:
 174              		@ args = 0, pretend = 0, frame = 0
 175              		@ frame_needed = 0, uses_anonymous_args = 0
 176              		@ link register save eliminated.
 177 0000 0078     		ldrb	r0, [r0]
 178              		@ sp needed
 179 0002 7047     		bx	lr
 181              		.global	__aeabi_uidivmod
 182              		.global	__aeabi_uidiv
 183              		.global	__aeabi_idivmod
 184              		.section	.text.smtc_duty_cycle_sum,"ax",%progbits
 185              		.align	1
 186              		.global	smtc_duty_cycle_sum
 187              		.syntax unified
 188              		.code	16
 189              		.thumb_func
 191              	smtc_duty_cycle_sum:
 192              		@ args = 0, pretend = 0, frame = 16
 193              		@ frame_needed = 0, uses_anonymous_args = 0
 194 0000 F0B5     		push	{r4, r5, r6, r7, lr}
 195 0002 85B0     		sub	sp, sp, #20
 196 0004 0392     		str	r2, [sp, #12]
 197 0006 4378     		ldrb	r3, [r0, #1]
 198 0008 0400     		movs	r4, r0
 199 000a 0D00     		movs	r5, r1
 200 000c 002B     		cmp	r3, #0
 201 000e 47D0     		beq	.L18
 202 0010 0378     		ldrb	r3, [r0]
 203 0012 022B     		cmp	r3, #2
 204 0014 44D0     		beq	.L18
 205 0016 FFF7FEFF 		bl	smtc_modem_hal_get_time_in_ms
 206 001a 2900     		movs	r1, r5
 207 001c 0290     		str	r0, [sp, #8]
 208 001e 2000     		movs	r0, r4
 209 0020 FFF7FEFF 		bl	smtc_duty_cycle_get_band
 210 0024 5023     		movs	r3, #80
 211 0026 4343     		muls	r3, r0
 212 0028 E318     		adds	r3, r4, r3
 213 002a 1F69     		ldr	r7, [r3, #16]
 214 002c 0600     		movs	r6, r0
 215 002e 2E49     		ldr	r1, .L38
 216 0030 3800     		movs	r0, r7
 217 0032 1D7D     		ldrb	r5, [r3, #20]
 218 0034 FFF7FEFF 		bl	__aeabi_uidivmod
 219 0038 029B     		ldr	r3, [sp, #8]
 220 003a C91B     		subs	r1, r1, r7
 221 003c CB18     		adds	r3, r1, r3
 222 003e 1800     		movs	r0, r3
 223 0040 2A49     		ldr	r1, .L38+4
 224 0042 0193     		str	r3, [sp, #4]
 225 0044 FFF7FEFF 		bl	__aeabi_uidiv
 226 0048 3E21     		movs	r1, #62
 227 004a FFF7FEFF 		bl	__aeabi_uidivmod
 228 004e 4808     		lsrs	r0, r1, #1
 229 0050 4019     		adds	r0, r0, r5
 230 0052 1E21     		movs	r1, #30
ARM GAS  /tmp/ccmNjtPN.s 			page 5


 231 0054 C0B2     		uxtb	r0, r0
 232 0056 FFF7FEFF 		bl	__aeabi_uidivmod
 233 005a 0123     		movs	r3, #1
 234 005c 0093     		str	r3, [sp]
 235 005e 039B     		ldr	r3, [sp, #12]
 236 0060 CFB2     		uxtb	r7, r1
 237 0062 012B     		cmp	r3, #1
 238 0064 02D9     		bls	.L20
 239 0066 5B08     		lsrs	r3, r3, #1
 240 0068 0133     		adds	r3, r3, #1
 241 006a 0093     		str	r3, [sp]
 242              	.L20:
 243 006c 204B     		ldr	r3, .L38+8
 244 006e 019A     		ldr	r2, [sp, #4]
 245 0070 9A42     		cmp	r2, r3
 246 0072 17D9     		bls	.L21
 247 0074 5020     		movs	r0, #80
 248 0076 7043     		muls	r0, r6
 249 0078 1630     		adds	r0, r0, #22
 250 007a 3C22     		movs	r2, #60
 251 007c 0021     		movs	r1, #0
 252 007e 2018     		adds	r0, r4, r0
 253 0080 FFF7FEFF 		bl	memset
 254              	.L24:
 255 0084 2823     		movs	r3, #40
 256 0086 7343     		muls	r3, r6
 257 0088 DB19     		adds	r3, r3, r7
 258 008a 0833     		adds	r3, r3, #8
 259 008c 009A     		ldr	r2, [sp]
 260 008e 5B00     		lsls	r3, r3, #1
 261 0090 E318     		adds	r3, r4, r3
 262 0092 DA80     		strh	r2, [r3, #6]
 263 0094 5023     		movs	r3, #80
 264 0096 7343     		muls	r3, r6
 265 0098 E418     		adds	r4, r4, r3
 266 009a 029B     		ldr	r3, [sp, #8]
 267 009c 2775     		strb	r7, [r4, #20]
 268 009e 2361     		str	r3, [r4, #16]
 269              	.L18:
 270 00a0 05B0     		add	sp, sp, #20
 271              		@ sp needed
 272 00a2 F0BD     		pop	{r4, r5, r6, r7, pc}
 273              	.L21:
 274 00a4 BD42     		cmp	r5, r7
 275 00a6 0FD0     		beq	.L37
 276 00a8 2822     		movs	r2, #40
 277 00aa 0021     		movs	r1, #0
 278 00ac 7243     		muls	r2, r6
 279              	.L26:
 280 00ae 0135     		adds	r5, r5, #1
 281 00b0 EDB2     		uxtb	r5, r5
 282 00b2 1D2D     		cmp	r5, #29
 283 00b4 00D9     		bls	.L25
 284 00b6 0025     		movs	r5, #0
 285              	.L25:
 286 00b8 5319     		adds	r3, r2, r5
 287 00ba 0833     		adds	r3, r3, #8
ARM GAS  /tmp/ccmNjtPN.s 			page 6


 288 00bc 5B00     		lsls	r3, r3, #1
 289 00be E318     		adds	r3, r4, r3
 290 00c0 D980     		strh	r1, [r3, #6]
 291 00c2 BD42     		cmp	r5, r7
 292 00c4 F3D1     		bne	.L26
 293 00c6 DDE7     		b	.L24
 294              	.L37:
 295 00c8 0A4B     		ldr	r3, .L38+12
 296 00ca 019A     		ldr	r2, [sp, #4]
 297 00cc 9A42     		cmp	r2, r3
 298 00ce D9D8     		bhi	.L24
 299 00d0 2823     		movs	r3, #40
 300 00d2 7343     		muls	r3, r6
 301 00d4 DB19     		adds	r3, r3, r7
 302 00d6 0833     		adds	r3, r3, #8
 303 00d8 5B00     		lsls	r3, r3, #1
 304 00da E318     		adds	r3, r4, r3
 305 00dc 009A     		ldr	r2, [sp]
 306 00de DB88     		ldrh	r3, [r3, #6]
 307 00e0 D318     		adds	r3, r2, r3
 308 00e2 0093     		str	r3, [sp]
 309 00e4 CEE7     		b	.L24
 310              	.L39:
 311 00e6 C046     		.align	2
 312              	.L38:
 313 00e8 C0D40100 		.word	120000
 314 00ec 60EA0000 		.word	60000
 315 00f0 7FEE3600 		.word	3599999
 316 00f4 BFD40100 		.word	119999
 318              		.section	.text.smtc_duty_cycle_update,"ax",%progbits
 319              		.align	1
 320              		.global	smtc_duty_cycle_update
 321              		.syntax unified
 322              		.code	16
 323              		.thumb_func
 325              	smtc_duty_cycle_update:
 326              		@ args = 0, pretend = 0, frame = 16
 327              		@ frame_needed = 0, uses_anonymous_args = 0
 328 0000 F0B5     		push	{r4, r5, r6, r7, lr}
 329 0002 4378     		ldrb	r3, [r0, #1]
 330 0004 0500     		movs	r5, r0
 331 0006 85B0     		sub	sp, sp, #20
 332 0008 002B     		cmp	r3, #0
 333 000a 08D0     		beq	.L40
 334 000c FFF7FEFF 		bl	smtc_modem_hal_get_time_in_ms
 335 0010 0023     		movs	r3, #0
 336 0012 0290     		str	r0, [sp, #8]
 337              	.L54:
 338 0014 0093     		str	r3, [sp]
 339 0016 6B78     		ldrb	r3, [r5, #1]
 340 0018 009A     		ldr	r2, [sp]
 341 001a 9342     		cmp	r3, r2
 342 001c 01D8     		bhi	.L49
 343              	.L40:
 344 001e 05B0     		add	sp, sp, #20
 345              		@ sp needed
 346 0020 F0BD     		pop	{r4, r5, r6, r7, pc}
ARM GAS  /tmp/ccmNjtPN.s 			page 7


 347              	.L49:
 348 0022 5023     		movs	r3, #80
 349 0024 009A     		ldr	r2, [sp]
 350 0026 2249     		ldr	r1, .L55
 351 0028 5A43     		muls	r2, r3
 352 002a AF18     		adds	r7, r5, r2
 353 002c 3E69     		ldr	r6, [r7, #16]
 354 002e 0392     		str	r2, [sp, #12]
 355 0030 3000     		movs	r0, r6
 356 0032 FFF7FEFF 		bl	__aeabi_uidivmod
 357 0036 029B     		ldr	r3, [sp, #8]
 358 0038 891B     		subs	r1, r1, r6
 359 003a CB18     		adds	r3, r1, r3
 360 003c 1800     		movs	r0, r3
 361 003e 1D49     		ldr	r1, .L55+4
 362 0040 0193     		str	r3, [sp, #4]
 363 0042 FFF7FEFF 		bl	__aeabi_uidiv
 364 0046 3E21     		movs	r1, #62
 365 0048 FFF7FEFF 		bl	__aeabi_uidivmod
 366 004c 3C7D     		ldrb	r4, [r7, #20]
 367 004e 4808     		lsrs	r0, r1, #1
 368 0050 0019     		adds	r0, r0, r4
 369 0052 1E21     		movs	r1, #30
 370 0054 C0B2     		uxtb	r0, r0
 371 0056 FFF7FEFF 		bl	__aeabi_uidivmod
 372 005a 174B     		ldr	r3, .L55+8
 373 005c 019A     		ldr	r2, [sp, #4]
 374 005e CEB2     		uxtb	r6, r1
 375 0060 9A42     		cmp	r2, r3
 376 0062 16D8     		bhi	.L53
 377 0064 2822     		movs	r2, #40
 378 0066 0021     		movs	r1, #0
 379 0068 009B     		ldr	r3, [sp]
 380 006a 1448     		ldr	r0, .L55+12
 381 006c 5A43     		muls	r2, r3
 382              	.L43:
 383 006e B442     		cmp	r4, r6
 384 0070 19D0     		beq	.L44
 385 0072 0134     		adds	r4, r4, #1
 386 0074 E4B2     		uxtb	r4, r4
 387 0076 1D2C     		cmp	r4, #29
 388 0078 00D9     		bls	.L45
 389 007a 0024     		movs	r4, #0
 390              	.L45:
 391 007c B442     		cmp	r4, r6
 392 007e 02D1     		bne	.L46
 393 0080 019B     		ldr	r3, [sp, #4]
 394 0082 8342     		cmp	r3, r0
 395 0084 F3D9     		bls	.L43
 396              	.L46:
 397 0086 1319     		adds	r3, r2, r4
 398 0088 0833     		adds	r3, r3, #8
 399 008a 5B00     		lsls	r3, r3, #1
 400 008c EB18     		adds	r3, r5, r3
 401 008e D980     		strh	r1, [r3, #6]
 402 0090 EDE7     		b	.L43
 403              	.L53:
ARM GAS  /tmp/ccmNjtPN.s 			page 8


 404 0092 0398     		ldr	r0, [sp, #12]
 405 0094 3C22     		movs	r2, #60
 406 0096 1630     		adds	r0, r0, #22
 407 0098 0021     		movs	r1, #0
 408 009a 2818     		adds	r0, r5, r0
 409 009c FFF7FEFF 		bl	memset
 410 00a0 029B     		ldr	r3, [sp, #8]
 411 00a2 3E75     		strb	r6, [r7, #20]
 412 00a4 3B61     		str	r3, [r7, #16]
 413              	.L44:
 414 00a6 009B     		ldr	r3, [sp]
 415 00a8 0133     		adds	r3, r3, #1
 416 00aa DBB2     		uxtb	r3, r3
 417 00ac B2E7     		b	.L54
 418              	.L56:
 419 00ae C046     		.align	2
 420              	.L55:
 421 00b0 C0D40100 		.word	120000
 422 00b4 60EA0000 		.word	60000
 423 00b8 7FEE3600 		.word	3599999
 424 00bc BFD40100 		.word	119999
 426              		.global	__aeabi_idiv
 427              		.section	.text.smtc_duty_cycle_is_toa_accepted,"ax",%progbits
 428              		.align	1
 429              		.global	smtc_duty_cycle_is_toa_accepted
 430              		.syntax unified
 431              		.code	16
 432              		.thumb_func
 434              	smtc_duty_cycle_is_toa_accepted:
 435              		@ args = 0, pretend = 0, frame = 0
 436              		@ frame_needed = 0, uses_anonymous_args = 0
 437 0000 70B5     		push	{r4, r5, r6, lr}
 438 0002 0378     		ldrb	r3, [r0]
 439 0004 0400     		movs	r4, r0
 440 0006 0120     		movs	r0, #1
 441 0008 1500     		movs	r5, r2
 442 000a 8342     		cmp	r3, r0
 443 000c 21D1     		bne	.L58
 444 000e 6378     		ldrb	r3, [r4, #1]
 445 0010 002B     		cmp	r3, #0
 446 0012 1ED0     		beq	.L58
 447 0014 2000     		movs	r0, r4
 448 0016 FFF7FEFF 		bl	smtc_duty_cycle_get_band
 449 001a 5022     		movs	r2, #80
 450 001c 2100     		movs	r1, r4
 451 001e 0026     		movs	r6, #0
 452 0020 4243     		muls	r2, r0
 453 0022 3C31     		adds	r1, r1, #60
 454 0024 A318     		adds	r3, r4, r2
 455 0026 8A18     		adds	r2, r1, r2
 456              	.L59:
 457 0028 D98A     		ldrh	r1, [r3, #22]
 458 002a 0233     		adds	r3, r3, #2
 459 002c 7618     		adds	r6, r6, r1
 460 002e 9342     		cmp	r3, r2
 461 0030 FAD1     		bne	.L59
 462 0032 5023     		movs	r3, #80
ARM GAS  /tmp/ccmNjtPN.s 			page 9


 463 0034 4343     		muls	r3, r0
 464 0036 E418     		adds	r4, r4, r3
 465 0038 A189     		ldrh	r1, [r4, #12]
 466 003a 0648     		ldr	r0, .L65
 467 003c FFF7FEFF 		bl	__aeabi_uidiv
 468 0040 0023     		movs	r3, #0
 469 0042 7600     		lsls	r6, r6, #1
 470 0044 861B     		subs	r6, r0, r6
 471 0046 1800     		movs	r0, r3
 472 0048 9E42     		cmp	r6, r3
 473 004a 02DB     		blt	.L58
 474 004c AE42     		cmp	r6, r5
 475 004e 5B41     		adcs	r3, r3, r3
 476 0050 D8B2     		uxtb	r0, r3
 477              	.L58:
 478              		@ sp needed
 479 0052 70BD     		pop	{r4, r5, r6, pc}
 480              	.L66:
 481              		.align	2
 482              	.L65:
 483 0054 80EE3600 		.word	3600000
 485              		.section	.text.smtc_duty_cycle_band_get_available_toa_ms,"ax",%progbits
 486              		.align	1
 487              		.global	smtc_duty_cycle_band_get_available_toa_ms
 488              		.syntax unified
 489              		.code	16
 490              		.thumb_func
 492              	smtc_duty_cycle_band_get_available_toa_ms:
 493              		@ args = 0, pretend = 0, frame = 0
 494              		@ frame_needed = 0, uses_anonymous_args = 0
 495 0000 0200     		movs	r2, r0
 496 0002 0378     		ldrb	r3, [r0]
 497 0004 0120     		movs	r0, #1
 498 0006 70B5     		push	{r4, r5, r6, lr}
 499 0008 8342     		cmp	r3, r0
 500 000a 16D1     		bne	.L67
 501 000c 5378     		ldrb	r3, [r2, #1]
 502 000e 002B     		cmp	r3, #0
 503 0010 13D0     		beq	.L67
 504 0012 5023     		movs	r3, #80
 505 0014 4B43     		muls	r3, r1
 506 0016 D318     		adds	r3, r2, r3
 507 0018 1800     		movs	r0, r3
 508 001a 0024     		movs	r4, #0
 509 001c 3C30     		adds	r0, r0, #60
 510              	.L69:
 511 001e DD8A     		ldrh	r5, [r3, #22]
 512 0020 0233     		adds	r3, r3, #2
 513 0022 6419     		adds	r4, r4, r5
 514 0024 8342     		cmp	r3, r0
 515 0026 FAD1     		bne	.L69
 516 0028 5023     		movs	r3, #80
 517 002a 4B43     		muls	r3, r1
 518 002c D218     		adds	r2, r2, r3
 519 002e 9189     		ldrh	r1, [r2, #12]
 520 0030 0248     		ldr	r0, .L73
 521 0032 FFF7FEFF 		bl	__aeabi_uidiv
ARM GAS  /tmp/ccmNjtPN.s 			page 10


 522 0036 6400     		lsls	r4, r4, #1
 523 0038 001B     		subs	r0, r0, r4
 524              	.L67:
 525              		@ sp needed
 526 003a 70BD     		pop	{r4, r5, r6, pc}
 527              	.L74:
 528              		.align	2
 529              	.L73:
 530 003c 80EE3600 		.word	3600000
 532              		.section	.text.smtc_duty_cycle_is_channel_free,"ax",%progbits
 533              		.align	1
 534              		.global	smtc_duty_cycle_is_channel_free
 535              		.syntax unified
 536              		.code	16
 537              		.thumb_func
 539              	smtc_duty_cycle_is_channel_free:
 540              		@ args = 0, pretend = 0, frame = 0
 541              		@ frame_needed = 0, uses_anonymous_args = 0
 542 0000 10B5     		push	{r4, lr}
 543 0002 0378     		ldrb	r3, [r0]
 544 0004 0400     		movs	r4, r0
 545 0006 0120     		movs	r0, #1
 546 0008 8342     		cmp	r3, r0
 547 000a 0CD1     		bne	.L76
 548 000c 6378     		ldrb	r3, [r4, #1]
 549 000e 002B     		cmp	r3, #0
 550 0010 09D0     		beq	.L76
 551 0012 2000     		movs	r0, r4
 552 0014 FFF7FEFF 		bl	smtc_duty_cycle_get_band
 553 0018 0100     		movs	r1, r0
 554 001a 2000     		movs	r0, r4
 555 001c FFF7FEFF 		bl	smtc_duty_cycle_band_get_available_toa_ms
 556 0020 C317     		asrs	r3, r0, #31
 557 0022 181A     		subs	r0, r3, r0
 558 0024 C00F     		lsrs	r0, r0, #31
 559              	.L76:
 560              		@ sp needed
 561 0026 10BD     		pop	{r4, pc}
 563              		.section	.text.smtc_duty_cycle_is_band_free,"ax",%progbits
 564              		.align	1
 565              		.global	smtc_duty_cycle_is_band_free
 566              		.syntax unified
 567              		.code	16
 568              		.thumb_func
 570              	smtc_duty_cycle_is_band_free:
 571              		@ args = 0, pretend = 0, frame = 0
 572              		@ frame_needed = 0, uses_anonymous_args = 0
 573 0000 0123     		movs	r3, #1
 574 0002 0278     		ldrb	r2, [r0]
 575 0004 10B5     		push	{r4, lr}
 576 0006 9A42     		cmp	r2, r3
 577 0008 07D1     		bne	.L81
 578 000a 4278     		ldrb	r2, [r0, #1]
 579 000c 002A     		cmp	r2, #0
 580 000e 04D0     		beq	.L81
 581 0010 FFF7FEFF 		bl	smtc_duty_cycle_band_get_available_toa_ms
 582 0014 C317     		asrs	r3, r0, #31
ARM GAS  /tmp/ccmNjtPN.s 			page 11


 583 0016 1B1A     		subs	r3, r3, r0
 584 0018 DB0F     		lsrs	r3, r3, #31
 585              	.L81:
 586 001a 1800     		movs	r0, r3
 587              		@ sp needed
 588 001c 10BD     		pop	{r4, pc}
 590              		.section	.rodata.smtc_duty_cycle_get_next_free_time_ms.str1.1,"aMS",%progbits,1
 591              	.LC10:
 592 0000 1B5B303B 		.ascii	"\033[0;31mERROR: -> Empty frequency list\012\000"
 592      33316D45 
 592      52524F52 
 592      3A202D3E 
 592      20456D70 
 593              		.section	.text.smtc_duty_cycle_get_next_free_time_ms,"ax",%progbits
 594              		.align	1
 595              		.global	smtc_duty_cycle_get_next_free_time_ms
 596              		.syntax unified
 597              		.code	16
 598              		.thumb_func
 600              	smtc_duty_cycle_get_next_free_time_ms:
 601              		@ args = 0, pretend = 0, frame = 48
 602              		@ frame_needed = 0, uses_anonymous_args = 0
 603 0000 F0B5     		push	{r4, r5, r6, r7, lr}
 604 0002 0378     		ldrb	r3, [r0]
 605 0004 8DB0     		sub	sp, sp, #52
 606 0006 0E00     		movs	r6, r1
 607 0008 1500     		movs	r5, r2
 608 000a 0024     		movs	r4, #0
 609 000c 0190     		str	r0, [sp, #4]
 610 000e 012B     		cmp	r3, #1
 611 0010 00D0     		beq	.LCB621
 612 0012 89E0     		b	.L84	@long jump
 613              	.LCB621:
 614 0014 4378     		ldrb	r3, [r0, #1]
 615 0016 A342     		cmp	r3, r4
 616 0018 00D1     		bne	.LCB624
 617 001a 85E0     		b	.L84	@long jump
 618              	.LCB624:
 619 001c 0622     		movs	r2, #6
 620 001e FF21     		movs	r1, #255
 621 0020 08A8     		add	r0, sp, #32
 622 0022 FFF7FEFF 		bl	memset
 623 0026 0622     		movs	r2, #6
 624 0028 FF21     		movs	r1, #255
 625 002a 0AA8     		add	r0, sp, #40
 626 002c FFF7FEFF 		bl	memset
 627 0030 B600     		lsls	r6, r6, #2
 628 0032 0198     		ldr	r0, [sp, #4]
 629 0034 FFF7FEFF 		bl	smtc_duty_cycle_update
 630 0038 AB19     		adds	r3, r5, r6
 631 003a 0393     		str	r3, [sp, #12]
 632 003c FF23     		movs	r3, #255
 633 003e 2700     		movs	r7, r4
 634 0040 2600     		movs	r6, r4
 635 0042 0293     		str	r3, [sp, #8]
 636              	.L86:
 637 0044 039B     		ldr	r3, [sp, #12]
ARM GAS  /tmp/ccmNjtPN.s 			page 12


 638 0046 9D42     		cmp	r5, r3
 639 0048 2FD1     		bne	.L94
 640 004a 002F     		cmp	r7, #0
 641 004c 5ED1     		bne	.L95
 642 004e 3D00     		movs	r5, r7
 643 0050 3C00     		movs	r4, r7
 644 0052 002E     		cmp	r6, #0
 645 0054 5ED1     		bne	.L98
 646 0056 664C     		ldr	r4, .L120
 647 0058 2000     		movs	r0, r4
 648 005a FFF7FEFF 		bl	smtc_modem_hal_store_crashlog
 649 005e 0120     		movs	r0, #1
 650 0060 FFF7FEFF 		bl	smtc_modem_hal_set_crashlog_status
 651 0064 2100     		movs	r1, r4
 652 0066 6348     		ldr	r0, .L120+4
 653 0068 FFF7FEFF 		bl	smtc_modem_hal_print_trace
 654 006c 624C     		ldr	r4, .L120+8
 655 006e 2000     		movs	r0, r4
 656 0070 FFF7FEFF 		bl	smtc_modem_hal_print_trace
 657 0074 6148     		ldr	r0, .L120+12
 658 0076 FFF7FEFF 		bl	smtc_modem_hal_print_trace
 659 007a 2000     		movs	r0, r4
 660 007c FFF7FEFF 		bl	smtc_modem_hal_print_trace
 661 0080 FFF7FEFF 		bl	smtc_modem_hal_reset_mcu
 662              	.L97:
 663 0084 FFF7FEFF 		bl	smtc_modem_hal_get_time_in_ms
 664 0088 5D49     		ldr	r1, .L120+16
 665 008a 0590     		str	r0, [sp, #20]
 666 008c FFF7FEFF 		bl	__aeabi_uidivmod
 667 0090 5B4B     		ldr	r3, .L120+16
 668 0092 5B1A     		subs	r3, r3, r1
 669 0094 0693     		str	r3, [sp, #24]
 670 0096 0023     		movs	r3, #0
 671 0098 0293     		str	r3, [sp, #8]
 672 009a 013B     		subs	r3, r3, #1
 673 009c 0393     		str	r3, [sp, #12]
 674              	.L99:
 675 009e 6B46     		mov	r3, sp
 676 00a0 1B7A     		ldrb	r3, [r3, #8]
 677 00a2 9F42     		cmp	r7, r3
 678 00a4 43D8     		bhi	.L106
 679 00a6 039C     		ldr	r4, [sp, #12]
 680 00a8 3EE0     		b	.L84
 681              	.L94:
 682 00aa 2968     		ldr	r1, [r5]
 683 00ac 0198     		ldr	r0, [sp, #4]
 684 00ae FFF7FEFF 		bl	smtc_duty_cycle_get_band
 685 00b2 029B     		ldr	r3, [sp, #8]
 686 00b4 0400     		movs	r4, r0
 687 00b6 8342     		cmp	r3, r0
 688 00b8 15D0     		beq	.L87
 689 00ba 0100     		movs	r1, r0
 690 00bc 0198     		ldr	r0, [sp, #4]
 691 00be FFF7FEFF 		bl	smtc_duty_cycle_is_band_free
 692 00c2 019B     		ldr	r3, [sp, #4]
 693 00c4 5A78     		ldrb	r2, [r3, #1]
 694 00c6 0028     		cmp	r0, #0
ARM GAS  /tmp/ccmNjtPN.s 			page 13


 695 00c8 10D1     		bne	.L110
 696              	.L89:
 697 00ca C3B2     		uxtb	r3, r0
 698 00cc 9A42     		cmp	r2, r3
 699 00ce 16D8     		bhi	.L92
 700 00d0 0AAB     		add	r3, sp, #40
 701 00d2 DC55     		strb	r4, [r3, r7]
 702 00d4 0137     		adds	r7, r7, #1
 703 00d6 FFB2     		uxtb	r7, r7
 704 00d8 05E0     		b	.L87
 705              	.L90:
 706 00da 08A9     		add	r1, sp, #32
 707 00dc 0133     		adds	r3, r3, #1
 708 00de 0139     		subs	r1, r1, #1
 709 00e0 C95C     		ldrb	r1, [r1, r3]
 710 00e2 A142     		cmp	r1, r4
 711 00e4 03D1     		bne	.L88
 712              	.L87:
 713 00e6 0435     		adds	r5, r5, #4
 714 00e8 0294     		str	r4, [sp, #8]
 715 00ea ABE7     		b	.L86
 716              	.L110:
 717 00ec 0023     		movs	r3, #0
 718              	.L88:
 719 00ee D9B2     		uxtb	r1, r3
 720 00f0 8A42     		cmp	r2, r1
 721 00f2 F2D8     		bhi	.L90
 722 00f4 08AB     		add	r3, sp, #32
 723 00f6 9C55     		strb	r4, [r3, r6]
 724 00f8 0136     		adds	r6, r6, #1
 725 00fa F6B2     		uxtb	r6, r6
 726 00fc F3E7     		b	.L87
 727              	.L92:
 728 00fe 08AB     		add	r3, sp, #32
 729 0100 0130     		adds	r0, r0, #1
 730 0102 0733     		adds	r3, r3, #7
 731 0104 1B5C     		ldrb	r3, [r3, r0]
 732 0106 A342     		cmp	r3, r4
 733 0108 DFD1     		bne	.L89
 734 010a ECE7     		b	.L87
 735              	.L95:
 736 010c 002E     		cmp	r6, #0
 737 010e B9D0     		beq	.L97
 738 0110 0025     		movs	r5, #0
 739 0112 2C00     		movs	r4, r5
 740              	.L98:
 741 0114 08AB     		add	r3, sp, #32
 742 0116 595D     		ldrb	r1, [r3, r5]
 743 0118 0198     		ldr	r0, [sp, #4]
 744 011a FFF7FEFF 		bl	smtc_duty_cycle_band_get_available_toa_ms
 745 011e 0135     		adds	r5, r5, #1
 746 0120 EBB2     		uxtb	r3, r5
 747 0122 241A     		subs	r4, r4, r0
 748 0124 9E42     		cmp	r6, r3
 749 0126 F5D8     		bhi	.L98
 750              	.L84:
 751 0128 2000     		movs	r0, r4
ARM GAS  /tmp/ccmNjtPN.s 			page 14


 752 012a 0DB0     		add	sp, sp, #52
 753              		@ sp needed
 754 012c F0BD     		pop	{r4, r5, r6, r7, pc}
 755              	.L106:
 756 012e 029A     		ldr	r2, [sp, #8]
 757 0130 0AAB     		add	r3, sp, #40
 758 0132 D65C     		ldrb	r6, [r2, r3]
 759 0134 5023     		movs	r3, #80
 760 0136 7343     		muls	r3, r6
 761 0138 019A     		ldr	r2, [sp, #4]
 762 013a 3149     		ldr	r1, .L120+16
 763 013c D318     		adds	r3, r2, r3
 764 013e 1C69     		ldr	r4, [r3, #16]
 765 0140 1A7D     		ldrb	r2, [r3, #20]
 766 0142 2000     		movs	r0, r4
 767 0144 0492     		str	r2, [sp, #16]
 768 0146 FFF7FEFF 		bl	__aeabi_uidivmod
 769 014a 059B     		ldr	r3, [sp, #20]
 770 014c 081B     		subs	r0, r1, r4
 771 014e C018     		adds	r0, r0, r3
 772 0150 2C49     		ldr	r1, .L120+20
 773 0152 FFF7FEFF 		bl	__aeabi_uidiv
 774 0156 3E21     		movs	r1, #62
 775 0158 FFF7FEFF 		bl	__aeabi_uidivmod
 776 015c 049B     		ldr	r3, [sp, #16]
 777 015e 4808     		lsrs	r0, r1, #1
 778 0160 C018     		adds	r0, r0, r3
 779 0162 1E21     		movs	r1, #30
 780 0164 C0B2     		uxtb	r0, r0
 781 0166 FFF7FEFF 		bl	__aeabi_uidivmod
 782 016a 2823     		movs	r3, #40
 783 016c 0024     		movs	r4, #0
 784 016e 7343     		muls	r3, r6
 785 0170 CDB2     		uxtb	r5, r1
 786 0172 0793     		str	r3, [sp, #28]
 787              	.L104:
 788 0174 0135     		adds	r5, r5, #1
 789 0176 EDB2     		uxtb	r5, r5
 790 0178 1E2D     		cmp	r5, #30
 791 017a 00D1     		bne	.L100
 792 017c 0025     		movs	r5, #0
 793              	.L100:
 794 017e 079B     		ldr	r3, [sp, #28]
 795 0180 019A     		ldr	r2, [sp, #4]
 796 0182 5B19     		adds	r3, r3, r5
 797 0184 0833     		adds	r3, r3, #8
 798 0186 5B00     		lsls	r3, r3, #1
 799 0188 D318     		adds	r3, r2, r3
 800 018a DB88     		ldrh	r3, [r3, #6]
 801 018c 002B     		cmp	r3, #0
 802 018e 20D1     		bne	.L101
 803 0190 049B     		ldr	r3, [sp, #16]
 804 0192 9D42     		cmp	r5, r3
 805 0194 29D0     		beq	.L102
 806 0196 0134     		adds	r4, r4, #1
 807 0198 E4B2     		uxtb	r4, r4
 808 019a 1E2C     		cmp	r4, #30
ARM GAS  /tmp/ccmNjtPN.s 			page 15


 809 019c EAD9     		bls	.L104
 810              	.L107:
 811 019e 144E     		ldr	r6, .L120
 812 01a0 3000     		movs	r0, r6
 813 01a2 FFF7FEFF 		bl	smtc_modem_hal_store_crashlog
 814 01a6 0120     		movs	r0, #1
 815 01a8 FFF7FEFF 		bl	smtc_modem_hal_set_crashlog_status
 816 01ac 3100     		movs	r1, r6
 817 01ae 1148     		ldr	r0, .L120+4
 818 01b0 FFF7FEFF 		bl	smtc_modem_hal_print_trace
 819 01b4 104E     		ldr	r6, .L120+8
 820 01b6 3000     		movs	r0, r6
 821 01b8 FFF7FEFF 		bl	smtc_modem_hal_print_trace
 822 01bc 1248     		ldr	r0, .L120+24
 823 01be FFF7FEFF 		bl	smtc_modem_hal_print_trace
 824 01c2 3000     		movs	r0, r6
 825 01c4 FFF7FEFF 		bl	smtc_modem_hal_print_trace
 826 01c8 FFF7FEFF 		bl	smtc_modem_hal_reset_mcu
 827 01cc 049B     		ldr	r3, [sp, #16]
 828 01ce 9D42     		cmp	r5, r3
 829 01d0 D0D1     		bne	.L104
 830              	.L101:
 831 01d2 0B4B     		ldr	r3, .L120+16
 832 01d4 5C43     		muls	r4, r3
 833 01d6 069B     		ldr	r3, [sp, #24]
 834 01d8 E418     		adds	r4, r4, r3
 835 01da 039B     		ldr	r3, [sp, #12]
 836 01dc A342     		cmp	r3, r4
 837 01de 00D9     		bls	.L105
 838 01e0 0394     		str	r4, [sp, #12]
 839              	.L105:
 840 01e2 029B     		ldr	r3, [sp, #8]
 841 01e4 0133     		adds	r3, r3, #1
 842 01e6 0293     		str	r3, [sp, #8]
 843 01e8 59E7     		b	.L99
 844              	.L102:
 845 01ea 1E2C     		cmp	r4, #30
 846 01ec D7D8     		bhi	.L107
 847 01ee F0E7     		b	.L101
 848              	.L121:
 849              		.align	2
 850              	.L120:
 851 01f0 00000000 		.word	__func__.0
 852 01f4 00000000 		.word	.LC1
 853 01f8 1D000000 		.word	.LC3
 854 01fc 00000000 		.word	.LC10
 855 0200 C0D40100 		.word	120000
 856 0204 60EA0000 		.word	60000
 857 0208 22000000 		.word	.LC5
 859              		.section	.rodata.__func__.0,"a"
 862              	__func__.0:
 863 0000 736D7463 		.ascii	"smtc_duty_cycle_get_next_free_time_ms\000"
 863      5F647574 
 863      795F6379 
 863      636C655F 
 863      6765745F 
 864              		.section	.rodata.__func__.1,"a"
ARM GAS  /tmp/ccmNjtPN.s 			page 16


 867              	__func__.1:
 868 0000 736D7463 		.ascii	"smtc_duty_cycle_config\000"
 868      5F647574 
 868      795F6379 
 868      636C655F 
 868      636F6E66 
 869              		.ident	"GCC: (Arch Repository) 13.2.0"
ARM GAS  /tmp/ccmNjtPN.s 			page 17

