ARM GAS  /tmp/ccfhiFMo.s 			page 1


   1              		.cpu cortex-m0
   2              		.arch armv6s-m
   3              		.fpu softvfp
   4              		.eabi_attribute 23, 1
   5              		.eabi_attribute 24, 1
   6              		.eabi_attribute 25, 1
   7              		.eabi_attribute 26, 1
   8              		.eabi_attribute 30, 4
   9              		.eabi_attribute 34, 0
  10              		.eabi_attribute 18, 4
  11              		.file	"smtc_beacon_sniff.c"
  12              		.text
  13              		.section	.text.crc16_beacon.part.0,"ax",%progbits
  14              		.align	1
  15              		.syntax unified
  16              		.code	16
  17              		.thumb_func
  19              	crc16_beacon.part.0:
  20              		@ args = 0, pretend = 0, frame = 0
  21              		@ frame_needed = 0, uses_anonymous_args = 0
  22 0000 F0B5     		push	{r4, r5, r6, r7, lr}
  23 0002 0400     		movs	r4, r0
  24 0004 0D00     		movs	r5, r1
  25 0006 081E     		subs	r0, r1, #0
  26 0008 17D0     		beq	.L2
  27 000a 0020     		movs	r0, #0
  28 000c 0827     		movs	r7, #8
  29 000e 0200     		movs	r2, r0
  30 0010 0A4E     		ldr	r6, .L12
  31              	.L5:
  32 0012 A35C     		ldrb	r3, [r4, r2]
  33 0014 1B02     		lsls	r3, r3, #8
  34 0016 5840     		eors	r0, r3
  35 0018 3B00     		movs	r3, r7
  36              	.L4:
  37 001a 4100     		lsls	r1, r0, #1
  38 001c 00B2     		sxth	r0, r0
  39 001e 8446     		mov	ip, r0
  40 0020 89B2     		uxth	r1, r1
  41 0022 0800     		movs	r0, r1
  42 0024 6146     		mov	r1, ip
  43 0026 0029     		cmp	r1, #0
  44 0028 00DA     		bge	.L3
  45 002a 7040     		eors	r0, r6
  46              	.L3:
  47 002c 013B     		subs	r3, r3, #1
  48 002e DBB2     		uxtb	r3, r3
  49 0030 002B     		cmp	r3, #0
  50 0032 F2D1     		bne	.L4
  51 0034 0132     		adds	r2, r2, #1
  52 0036 9542     		cmp	r5, r2
  53 0038 EBD8     		bhi	.L5
  54              	.L2:
  55              		@ sp needed
  56 003a F0BD     		pop	{r4, r5, r6, r7, pc}
  57              	.L13:
  58              		.align	2
ARM GAS  /tmp/ccfhiFMo.s 			page 2


  59              	.L12:
  60 003c 21100000 		.word	4129
  62              		.section	.rodata.get_beacon_length.str1.1,"aMS",%progbits,1
  63              	.LC2:
  64 0000 1B5B303B 		.ascii	"\033[0;31mERROR: crash log :%s\012\000"
  64      33316D45 
  64      52524F52 
  64      3A206372 
  64      61736820 
  65              	.LC4:
  66 001d 1B5B306D 		.ascii	"\033[0m\000"
  66      00
  67              	.LC6:
  68 0022 1B5B303B 		.ascii	"\033[0;31mERROR: ->  invalid beacon sf \000"
  68      33316D45 
  68      52524F52 
  68      3A202D3E 
  68      2020696E 
  69              		.section	.text.get_beacon_length,"ax",%progbits
  70              		.align	1
  71              		.syntax unified
  72              		.code	16
  73              		.thumb_func
  75              	get_beacon_length:
  76              		@ args = 0, pretend = 0, frame = 0
  77              		@ frame_needed = 0, uses_anonymous_args = 0
  78 0000 0838     		subs	r0, r0, #8
  79 0002 C0B2     		uxtb	r0, r0
  80 0004 10B5     		push	{r4, lr}
  81 0006 0428     		cmp	r0, #4
  82 0008 02D8     		bhi	.L15
  83 000a 0E4B     		ldr	r3, .L17
  84 000c 185C     		ldrb	r0, [r3, r0]
  85              	.L16:
  86              		@ sp needed
  87 000e 10BD     		pop	{r4, pc}
  88              	.L15:
  89 0010 0D4C     		ldr	r4, .L17+4
  90 0012 2000     		movs	r0, r4
  91 0014 FFF7FEFF 		bl	smtc_modem_hal_store_crashlog
  92 0018 0120     		movs	r0, #1
  93 001a FFF7FEFF 		bl	smtc_modem_hal_set_crashlog_status
  94 001e 2100     		movs	r1, r4
  95 0020 0A48     		ldr	r0, .L17+8
  96 0022 FFF7FEFF 		bl	smtc_modem_hal_print_trace
  97 0026 0A4C     		ldr	r4, .L17+12
  98 0028 2000     		movs	r0, r4
  99 002a FFF7FEFF 		bl	smtc_modem_hal_print_trace
 100 002e 0948     		ldr	r0, .L17+16
 101 0030 FFF7FEFF 		bl	smtc_modem_hal_print_trace
 102 0034 2000     		movs	r0, r4
 103 0036 FFF7FEFF 		bl	smtc_modem_hal_print_trace
 104 003a FFF7FEFF 		bl	smtc_modem_hal_reset_mcu
 105 003e 0020     		movs	r0, #0
 106 0040 E5E7     		b	.L16
 107              	.L18:
 108 0042 C046     		.align	2
ARM GAS  /tmp/ccfhiFMo.s 			page 3


 109              	.L17:
 110 0044 00000000 		.word	CSWTCH.66
 111 0048 00000000 		.word	__func__.0
 112 004c 00000000 		.word	.LC2
 113 0050 1D000000 		.word	.LC4
 114 0054 22000000 		.word	.LC6
 116              		.section	.rodata.smtc_beacon_sniff_launch_callback_for_rp.str1.1,"aMS",%progbits,1
 117              	.LC8:
 118 0000 646F6573 		.ascii	"doesn't listen this beacon , jump it to save power "
 118      6E277420 
 118      6C697374 
 118      656E2074 
 118      68697320 
 119 0033 0A00     		.ascii	"\012\000"
 120              		.section	.text.smtc_beacon_sniff_launch_callback_for_rp,"ax",%progbits
 121              		.align	1
 122              		.syntax unified
 123              		.code	16
 124              		.thumb_func
 126              	smtc_beacon_sniff_launch_callback_for_rp:
 127              		@ args = 0, pretend = 0, frame = 0
 128              		@ frame_needed = 0, uses_anonymous_args = 0
 129 0000 F8B5     		push	{r3, r4, r5, r6, r7, lr}
 130 0002 2B4B     		ldr	r3, .L36
 131 0004 2B4A     		ldr	r2, .L36+4
 132 0006 C65C     		ldrb	r6, [r0, r3]
 133 0008 1C23     		movs	r3, #28
 134 000a 7343     		muls	r3, r6
 135 000c C318     		adds	r3, r0, r3
 136 000e 9B18     		adds	r3, r3, r2
 137 0010 1B78     		ldrb	r3, [r3]
 138 0012 0400     		movs	r4, r0
 139 0014 0E2B     		cmp	r3, #14
 140 0016 07D1     		bne	.L20
 141 0018 2748     		ldr	r0, .L36+8
 142 001a FFF7FEFF 		bl	smtc_modem_hal_print_trace
 143 001e 3100     		movs	r1, r6
 144 0020 2000     		movs	r0, r4
 145 0022 FFF7FEFF 		bl	rp_task_abort
 146              	.L19:
 147              		@ sp needed
 148 0026 F8BD     		pop	{r3, r4, r5, r6, r7, pc}
 149              	.L20:
 150 0028 9C25     		movs	r5, #156
 151 002a FFF7FEFF 		bl	smtc_modem_hal_start_radio_tcxo
 152 002e 8421     		movs	r1, #132
 153 0030 2D01     		lsls	r5, r5, #4
 154 0032 6059     		ldr	r0, [r4, r5]
 155 0034 7143     		muls	r1, r6
 156 0036 0300     		movs	r3, r0
 157 0038 4C31     		adds	r1, r1, #76
 158 003a F433     		adds	r3, r3, #244
 159 003c 1B68     		ldr	r3, [r3]
 160 003e 6118     		adds	r1, r4, r1
 161 0040 9847     		blx	r3
 162 0042 0028     		cmp	r0, #0
 163 0044 04D0     		beq	.L22
ARM GAS  /tmp/ccfhiFMo.s 			page 4


 164 0046 6E21     		movs	r1, #110
 165 0048 1C48     		ldr	r0, .L36+12
 166 004a FF31     		adds	r1, r1, #255
 167 004c FFF7FEFF 		bl	smtc_modem_hal_assert_fail
 168              	.L22:
 169 0050 6359     		ldr	r3, [r4, r5]
 170 0052 CC21     		movs	r1, #204
 171 0054 1A6E     		ldr	r2, [r3, #96]
 172 0056 1868     		ldr	r0, [r3]
 173 0058 9047     		blx	r2
 174 005a 0028     		cmp	r0, #0
 175 005c 04D0     		beq	.L23
 176 005e B721     		movs	r1, #183
 177 0060 1648     		ldr	r0, .L36+12
 178 0062 4900     		lsls	r1, r1, #1
 179 0064 FFF7FEFF 		bl	smtc_modem_hal_assert_fail
 180              	.L23:
 181 0068 1C25     		movs	r5, #28
 182 006a 7543     		muls	r5, r6
 183 006c 144B     		ldr	r3, .L36+16
 184 006e 6519     		adds	r5, r4, r5
 185 0070 ED18     		adds	r5, r5, r3
 186              	.L24:
 187 0072 2F68     		ldr	r7, [r5]
 188 0074 FFF7FEFF 		bl	smtc_modem_hal_get_time_in_ms
 189 0078 3F1A     		subs	r7, r7, r0
 190 007a 002F     		cmp	r7, #0
 191 007c F9DC     		bgt	.L24
 192 007e 9C23     		movs	r3, #156
 193 0080 1B01     		lsls	r3, r3, #4
 194 0082 E258     		ldr	r2, [r4, r3]
 195 0084 8423     		movs	r3, #132
 196 0086 7343     		muls	r3, r6
 197 0088 E318     		adds	r3, r4, r3
 198 008a 556A     		ldr	r5, [r2, #36]
 199 008c 996F     		ldr	r1, [r3, #120]
 200 008e 1068     		ldr	r0, [r2]
 201 0090 A847     		blx	r5
 202 0092 0028     		cmp	r0, #0
 203 0094 04D0     		beq	.L25
 204 0096 7621     		movs	r1, #118
 205 0098 0848     		ldr	r0, .L36+12
 206 009a FF31     		adds	r1, r1, #255
 207 009c FFF7FEFF 		bl	smtc_modem_hal_assert_fail
 208              	.L25:
 209 00a0 FFF7FEFF 		bl	smtc_modem_hal_get_time_in_ms
 210 00a4 8F23     		movs	r3, #143
 211 00a6 1B01     		lsls	r3, r3, #4
 212 00a8 E418     		adds	r4, r4, r3
 213 00aa 6065     		str	r0, [r4, #84]
 214 00ac BBE7     		b	.L19
 215              	.L37:
 216 00ae C046     		.align	2
 217              	.L36:
 218 00b0 84090000 		.word	2436
 219 00b4 C9050000 		.word	1481
 220 00b8 00000000 		.word	.LC8
ARM GAS  /tmp/ccfhiFMo.s 			page 5


 221 00bc 00000000 		.word	__func__.1
 222 00c0 D4050000 		.word	1492
 224              		.global	__aeabi_uidivmod
 225              		.global	__aeabi_uidiv
 226              		.section	.text.beacon_rp_request,"ax",%progbits
 227              		.align	1
 228              		.syntax unified
 229              		.code	16
 230              		.thumb_func
 232              	beacon_rp_request:
 233              		@ args = 0, pretend = 0, frame = 192
 234              		@ frame_needed = 0, uses_anonymous_args = 0
 235 0000 F0B5     		push	{r4, r5, r6, r7, lr}
 236 0002 0400     		movs	r4, r0
 237 0004 B3B0     		sub	sp, sp, #204
 238 0006 0AAE     		add	r6, sp, #40
 239 0008 1C22     		movs	r2, #28
 240 000a 0021     		movs	r1, #0
 241 000c 3000     		movs	r0, r6
 242 000e FFF7FEFF 		bl	memset
 243 0012 1422     		movs	r2, #20
 244 0014 0021     		movs	r1, #0
 245 0016 05A8     		add	r0, sp, #20
 246 0018 FFF7FEFF 		bl	memset
 247 001c A36D     		ldr	r3, [r4, #88]
 248 001e E06D     		ldr	r0, [r4, #92]
 249 0020 C018     		adds	r0, r0, r3
 250 0022 2300     		movs	r3, r4
 251 0024 4C33     		adds	r3, r3, #76
 252 0026 1978     		ldrb	r1, [r3]
 253 0028 FFF7FEFF 		bl	__aeabi_uidivmod
 254 002c 0B1E     		subs	r3, r1, #0
 255 002e 06D0     		beq	.L39
 256 0030 2300     		movs	r3, r4
 257 0032 2A33     		adds	r3, r3, #42
 258 0034 1A78     		ldrb	r2, [r3]
 259 0036 0023     		movs	r3, #0
 260 0038 9A42     		cmp	r2, r3
 261 003a 00D0     		beq	.L39
 262 003c 0E33     		adds	r3, r3, #14
 263              	.L39:
 264 003e 7370     		strb	r3, [r6, #1]
 265 0040 237B     		ldrb	r3, [r4, #12]
 266 0042 3370     		strb	r3, [r6]
 267 0044 0023     		movs	r3, #0
 268 0046 B372     		strb	r3, [r6, #10]
 269 0048 FFF7FEFF 		bl	smtc_modem_hal_get_radio_tcxo_startup_delay_ms
 270 004c 0500     		movs	r5, r0
 271 004e FFF7FEFF 		bl	smtc_modem_hal_get_board_delay_ms
 272 0052 A768     		ldr	r7, [r4, #8]
 273 0054 0390     		str	r0, [sp, #12]
 274 0056 3800     		movs	r0, r7
 275 0058 FFF7FEFF 		bl	smtc_real_get_beacon_dr
 276 005c 039A     		ldr	r2, [sp, #12]
 277 005e 0100     		movs	r1, r0
 278 0060 AA18     		adds	r2, r5, r2
 279 0062 11A8     		add	r0, sp, #68
ARM GAS  /tmp/ccfhiFMo.s 			page 6


 280 0064 238E     		ldrh	r3, [r4, #48]
 281 0066 52B2     		sxtb	r2, r2
 282 0068 0090     		str	r0, [sp]
 283 006a 3800     		movs	r0, r7
 284 006c FFF7FEFF 		bl	smtc_real_get_rx_start_time_offset_ms
 285 0070 0A21     		movs	r1, #10
 286 0072 A06C     		ldr	r0, [r4, #72]
 287 0074 FFF7FEFF 		bl	__aeabi_uidiv
 288 0078 119B     		ldr	r3, [sp, #68]
 289 007a A568     		ldr	r5, [r4, #8]
 290 007c C018     		adds	r0, r0, r3
 291 007e F060     		str	r0, [r6, #12]
 292 0080 2800     		movs	r0, r5
 293 0082 FFF7FEFF 		bl	smtc_real_get_beacon_dr
 294 0086 0100     		movs	r1, r0
 295 0088 2800     		movs	r0, r5
 296 008a FFF7FEFF 		bl	smtc_real_get_symbol_duration_us
 297 008e FA25     		movs	r5, #250
 298 0090 0123     		movs	r3, #1
 299 0092 AD00     		lsls	r5, r5, #2
 300 0094 A842     		cmp	r0, r5
 301 0096 0BD3     		bcc	.L40
 302 0098 A768     		ldr	r7, [r4, #8]
 303 009a 3800     		movs	r0, r7
 304 009c FFF7FEFF 		bl	smtc_real_get_beacon_dr
 305 00a0 0100     		movs	r1, r0
 306 00a2 3800     		movs	r0, r7
 307 00a4 FFF7FEFF 		bl	smtc_real_get_symbol_duration_us
 308 00a8 2900     		movs	r1, r5
 309 00aa FFF7FEFF 		bl	__aeabi_uidiv
 310 00ae 0300     		movs	r3, r0
 311              	.L40:
 312 00b0 278E     		ldrh	r7, [r4, #48]
 313 00b2 0021     		movs	r1, #0
 314 00b4 7B43     		muls	r3, r7
 315 00b6 B361     		str	r3, [r6, #24]
 316 00b8 4F4B     		ldr	r3, .L59
 317 00ba 8422     		movs	r2, #132
 318 00bc 11A8     		add	r0, sp, #68
 319 00be 7360     		str	r3, [r6, #4]
 320 00c0 FFF7FEFF 		bl	memset
 321 00c4 3C22     		movs	r2, #60
 322 00c6 02AB     		add	r3, sp, #8
 323 00c8 9A18     		adds	r2, r3, r2
 324 00ca 0123     		movs	r3, #1
 325 00cc 05AD     		add	r5, sp, #20
 326 00ce 1370     		strb	r3, [r2]
 327 00d0 A068     		ldr	r0, [r4, #8]
 328 00d2 AF74     		strb	r7, [r5, #18]
 329 00d4 FFF7FEFF 		bl	smtc_real_get_sync_word
 330 00d8 6874     		strb	r0, [r5, #17]
 331 00da A068     		ldr	r0, [r4, #8]
 332 00dc FFF7FEFF 		bl	smtc_real_get_coding_rate
 333 00e0 0123     		movs	r3, #1
 334 00e2 AB71     		strb	r3, [r5, #6]
 335 00e4 A368     		ldr	r3, [r4, #8]
 336 00e6 A870     		strb	r0, [r5, #2]
ARM GAS  /tmp/ccfhiFMo.s 			page 7


 337 00e8 1800     		movs	r0, r3
 338 00ea 0393     		str	r3, [sp, #12]
 339 00ec 0B27     		movs	r7, #11
 340 00ee FFF7FEFF 		bl	smtc_real_get_beacon_dr
 341 00f2 0A22     		movs	r2, #10
 342 00f4 02AB     		add	r3, sp, #8
 343 00f6 0100     		movs	r1, r0
 344 00f8 FF18     		adds	r7, r7, r3
 345 00fa 02A8     		add	r0, sp, #8
 346 00fc 1218     		adds	r2, r2, r0
 347 00fe 3B00     		movs	r3, r7
 348 0100 0398     		ldr	r0, [sp, #12]
 349 0102 FFF7FEFF 		bl	smtc_real_lora_dr_to_sf_bw
 350 0106 02AB     		add	r3, sp, #8
 351 0108 987A     		ldrb	r0, [r3, #10]
 352 010a FFF7FEFF 		bl	get_beacon_length
 353 010e 0023     		movs	r3, #0
 354 0110 2B81     		strh	r3, [r5, #8]
 355 0112 A368     		ldr	r3, [r4, #8]
 356 0114 E871     		strb	r0, [r5, #7]
 357 0116 1800     		movs	r0, r3
 358 0118 0393     		str	r3, [sp, #12]
 359 011a FFF7FEFF 		bl	smtc_real_get_beacon_dr
 360 011e 0A22     		movs	r2, #10
 361 0120 0100     		movs	r1, r0
 362 0122 02A8     		add	r0, sp, #8
 363 0124 1218     		adds	r2, r2, r0
 364 0126 3B00     		movs	r3, r7
 365 0128 0398     		ldr	r0, [sp, #12]
 366 012a FFF7FEFF 		bl	smtc_real_lora_dr_to_sf_bw
 367 012e 02AB     		add	r3, sp, #8
 368 0130 9B7A     		ldrb	r3, [r3, #10]
 369 0132 2B70     		strb	r3, [r5]
 370 0134 A368     		ldr	r3, [r4, #8]
 371 0136 1800     		movs	r0, r3
 372 0138 0393     		str	r3, [sp, #12]
 373 013a FFF7FEFF 		bl	smtc_real_get_beacon_dr
 374 013e 0A22     		movs	r2, #10
 375 0140 0100     		movs	r1, r0
 376 0142 02A8     		add	r0, sp, #8
 377 0144 1218     		adds	r2, r2, r0
 378 0146 3B00     		movs	r3, r7
 379 0148 0398     		ldr	r0, [sp, #12]
 380 014a FFF7FEFF 		bl	smtc_real_lora_dr_to_sf_bw
 381 014e 3B78     		ldrb	r3, [r7]
 382 0150 E16A     		ldr	r1, [r4, #44]
 383 0152 A068     		ldr	r0, [r4, #8]
 384 0154 6B70     		strb	r3, [r5, #1]
 385 0156 FFF7FEFF 		bl	smtc_real_get_beacon_frequency
 386 015a E860     		str	r0, [r5, #12]
 387 015c 6878     		ldrb	r0, [r5, #1]
 388 015e 2B78     		ldrb	r3, [r5]
 389 0160 0C28     		cmp	r0, #12
 390 0162 08D8     		bhi	.L41
 391 0164 FFF7FEFF 		bl	__gnu_thumb1_case_uqi
 392              	.L43:
 393 0168 45       		.byte	(.L52-.L43)/2
ARM GAS  /tmp/ccfhiFMo.s 			page 8


 394 0169 45       		.byte	(.L52-.L43)/2
 395 016a 45       		.byte	(.L52-.L43)/2
 396 016b 45       		.byte	(.L52-.L43)/2
 397 016c 45       		.byte	(.L52-.L43)/2
 398 016d 40       		.byte	(.L46-.L43)/2
 399 016e 3B       		.byte	(.L45-.L43)/2
 400 016f 34       		.byte	(.L42-.L43)/2
 401 0170 34       		.byte	(.L42-.L43)/2
 402 0171 2F       		.byte	(.L44-.L43)/2
 403 0172 34       		.byte	(.L42-.L43)/2
 404 0173 07       		.byte	(.L41-.L43)/2
 405 0174 34       		.byte	(.L42-.L43)/2
 406 0175 00       		.p2align 1
 407              	.L41:
 408 0176 0023     		movs	r3, #0
 409              	.L47:
 410 0178 EB70     		strb	r3, [r5, #3]
 411 017a 0A23     		movs	r3, #10
 412 017c 2A00     		movs	r2, r5
 413 017e AB80     		strh	r3, [r5, #4]
 414 0180 1DAB     		add	r3, sp, #116
 415 0182 83CA     		ldmia	r2!, {r0, r1, r7}
 416 0184 83C3     		stmia	r3!, {r0, r1, r7}
 417 0186 03CA     		ldmia	r2!, {r0, r1}
 418 0188 03C3     		stmia	r3!, {r0, r1}
 419 018a 1C4B     		ldr	r3, .L59+4
 420 018c 6268     		ldr	r2, [r4, #4]
 421 018e 2893     		str	r3, [sp, #160]
 422 0190 F93B     		subs	r3, r3, #249
 423 0192 FF3B     		subs	r3, r3, #255
 424 0194 D358     		ldr	r3, [r2, r3]
 425 0196 2900     		movs	r1, r5
 426 0198 A033     		adds	r3, r3, #160
 427 019a 1B68     		ldr	r3, [r3]
 428 019c 06A8     		add	r0, sp, #24
 429 019e 9847     		blx	r3
 430 01a0 2200     		movs	r2, r4
 431 01a2 11AB     		add	r3, sp, #68
 432 01a4 6063     		str	r0, [r4, #52]
 433 01a6 0093     		str	r3, [sp]
 434 01a8 3100     		movs	r1, r6
 435 01aa 1923     		movs	r3, #25
 436 01ac 6068     		ldr	r0, [r4, #4]
 437 01ae 1032     		adds	r2, r2, #16
 438 01b0 FFF7FEFF 		bl	rp_task_enqueue
 439 01b4 0028     		cmp	r0, #0
 440 01b6 04D0     		beq	.L38
 441 01b8 AE21     		movs	r1, #174
 442 01ba 1148     		ldr	r0, .L59+8
 443 01bc 4900     		lsls	r1, r1, #1
 444 01be FFF7FEFF 		bl	smtc_modem_hal_assert_fail
 445              	.L38:
 446 01c2 33B0     		add	sp, sp, #204
 447              		@ sp needed
 448 01c4 F0BD     		pop	{r4, r5, r6, r7, pc}
 449              	.L44:
 450 01c6 0C3B     		subs	r3, r3, #12
ARM GAS  /tmp/ccfhiFMo.s 			page 9


 451 01c8 5A42     		rsbs	r2, r3, #0
 452 01ca 5341     		adcs	r3, r3, r2
 453              	.L58:
 454 01cc DBB2     		uxtb	r3, r3
 455 01ce D3E7     		b	.L47
 456              	.L42:
 457 01d0 0B3B     		subs	r3, r3, #11
 458 01d2 DAB2     		uxtb	r2, r3
 459 01d4 0121     		movs	r1, #1
 460 01d6 0023     		movs	r3, #0
 461              	.L57:
 462 01d8 9142     		cmp	r1, r2
 463 01da 5B41     		adcs	r3, r3, r3
 464 01dc F6E7     		b	.L58
 465              	.L45:
 466 01de 0A3B     		subs	r3, r3, #10
 467 01e0 DAB2     		uxtb	r2, r3
 468 01e2 0221     		movs	r1, #2
 469 01e4 0023     		movs	r3, #0
 470 01e6 F7E7     		b	.L57
 471              	.L46:
 472 01e8 093B     		subs	r3, r3, #9
 473 01ea DAB2     		uxtb	r2, r3
 474 01ec 0321     		movs	r1, #3
 475 01ee 0023     		movs	r3, #0
 476 01f0 F2E7     		b	.L57
 477              	.L52:
 478 01f2 0123     		movs	r3, #1
 479 01f4 C0E7     		b	.L47
 480              	.L60:
 481 01f6 C046     		.align	2
 482              	.L59:
 483 01f8 00000000 		.word	smtc_beacon_sniff_launch_callback_for_rp
 484 01fc B80B0000 		.word	3000
 485 0200 00000000 		.word	__func__.2
 487              		.section	.text.smtc_beacon_sniff_init,"ax",%progbits
 488              		.align	1
 489              		.global	smtc_beacon_sniff_init
 490              		.syntax unified
 491              		.code	16
 492              		.thumb_func
 494              	smtc_beacon_sniff_init:
 495              		@ args = 12, pretend = 0, frame = 8
 496              		@ frame_needed = 0, uses_anonymous_args = 0
 497 0000 F7B5     		push	{r0, r1, r2, r4, r5, r6, r7, lr}
 498 0002 0400     		movs	r4, r0
 499              		@ sp needed
 500 0004 1D00     		movs	r5, r3
 501 0006 0E00     		movs	r6, r1
 502 0008 08AB     		add	r3, sp, #32
 503 000a 0192     		str	r2, [sp, #4]
 504 000c 0021     		movs	r1, #0
 505 000e 8422     		movs	r2, #132
 506 0010 1F78     		ldrb	r7, [r3]
 507 0012 FFF7FEFF 		bl	memset
 508 0016 019B     		ldr	r3, [sp, #4]
 509 0018 2200     		movs	r2, r4
ARM GAS  /tmp/ccfhiFMo.s 			page 10


 510 001a A360     		str	r3, [r4, #8]
 511 001c 0023     		movs	r3, #0
 512 001e 2A32     		adds	r2, r2, #42
 513 0020 6560     		str	r5, [r4, #4]
 514 0022 2773     		strb	r7, [r4, #12]
 515 0024 2660     		str	r6, [r4]
 516 0026 6373     		strb	r3, [r4, #13]
 517 0028 E381     		strh	r3, [r4, #14]
 518 002a 1370     		strb	r3, [r2]
 519 002c 099B     		ldr	r3, [sp, #36]
 520 002e 0122     		movs	r2, #1
 521 0030 2365     		str	r3, [r4, #80]
 522 0032 0A9B     		ldr	r3, [sp, #40]
 523 0034 3900     		movs	r1, r7
 524 0036 6365     		str	r3, [r4, #84]
 525 0038 074B     		ldr	r3, .L62
 526 003a 2800     		movs	r0, r5
 527 003c 6364     		str	r3, [r4, #68]
 528 003e 2300     		movs	r3, r4
 529 0040 4C33     		adds	r3, r3, #76
 530 0042 1A70     		strb	r2, [r3]
 531 0044 FFF7FEFF 		bl	rp_release_hook
 532 0048 2300     		movs	r3, r4
 533 004a 044A     		ldr	r2, .L62+4
 534 004c 217B     		ldrb	r1, [r4, #12]
 535 004e 6068     		ldr	r0, [r4, #4]
 536 0050 FFF7FEFF 		bl	rp_hook_init
 537 0054 F7BD     		pop	{r0, r1, r2, r4, r5, r6, r7, pc}
 538              	.L63:
 539 0056 C046     		.align	2
 540              	.L62:
 541 0058 00881300 		.word	1280000
 542 005c 00000000 		.word	smtc_beacon_sniff_rp_callback
 544              		.section	.text.smtc_beacon_sniff_stop,"ax",%progbits
 545              		.align	1
 546              		.global	smtc_beacon_sniff_stop
 547              		.syntax unified
 548              		.code	16
 549              		.thumb_func
 551              	smtc_beacon_sniff_stop:
 552              		@ args = 0, pretend = 0, frame = 0
 553              		@ frame_needed = 0, uses_anonymous_args = 0
 554 0000 10B5     		push	{r4, lr}
 555 0002 837B     		ldrb	r3, [r0, #14]
 556 0004 0400     		movs	r4, r0
 557 0006 002B     		cmp	r3, #0
 558 0008 08D0     		beq	.L64
 559 000a 0023     		movs	r3, #0
 560 000c 017B     		ldrb	r1, [r0, #12]
 561 000e C373     		strb	r3, [r0, #15]
 562 0010 4068     		ldr	r0, [r0, #4]
 563 0012 FFF7FEFF 		bl	rp_task_abort
 564 0016 2068     		ldr	r0, [r4]
 565 0018 FFF7FEFF 		bl	smtc_ping_slot_stop
 566              	.L64:
 567              		@ sp needed
 568 001c 10BD     		pop	{r4, pc}
ARM GAS  /tmp/ccfhiFMo.s 			page 11


 570              		.section	.text.smtc_beacon_class_b_enable_service,"ax",%progbits
 571              		.align	1
 572              		.global	smtc_beacon_class_b_enable_service
 573              		.syntax unified
 574              		.code	16
 575              		.thumb_func
 577              	smtc_beacon_class_b_enable_service:
 578              		@ args = 0, pretend = 0, frame = 0
 579              		@ frame_needed = 0, uses_anonymous_args = 0
 580 0000 70B5     		push	{r4, r5, r6, lr}
 581 0002 0400     		movs	r4, r0
 582 0004 0D1E     		subs	r5, r1, #0
 583 0006 01D1     		bne	.L70
 584 0008 FFF7FEFF 		bl	smtc_beacon_sniff_stop
 585              	.L70:
 586              		@ sp needed
 587 000c A573     		strb	r5, [r4, #14]
 588 000e 70BD     		pop	{r4, r5, r6, pc}
 590              		.section	.rodata.smtc_beacon_sniff_start.str1.1,"aMS",%progbits,1
 591              	.LC15:
 592 0000 636C6173 		.ascii	"class_b_obj disabled\012\000"
 592      735F625F 
 592      6F626A20 
 592      64697361 
 592      626C6564 
 593              	.LC17:
 594 0016 62656163 		.ascii	"beacon sniff not started, time is not sync\012\000"
 594      6F6E2073 
 594      6E696666 
 594      206E6F74 
 594      20737461 
 595              		.global	__aeabi_idiv
 596              	.LC19:
 597 0042 21212121 		.ascii	"!!!!! seconds_since_epoch %u, fractional_second %u "
 597      21207365 
 597      636F6E64 
 597      735F7369 
 597      6E63655F 
 598 0075 6D730A00 		.ascii	"ms\012\000"
 599              	.LC21:
 600 0079 4E657874 		.ascii	"Next beacon in %u ms at %u\012\000"
 600      20626561 
 600      636F6E20 
 600      696E2025 
 600      75206D73 
 601              		.section	.text.smtc_beacon_sniff_start,"ax",%progbits
 602              		.align	1
 603              		.global	smtc_beacon_sniff_start
 604              		.syntax unified
 605              		.code	16
 606              		.thumb_func
 608              	smtc_beacon_sniff_start:
 609              		@ args = 0, pretend = 0, frame = 24
 610              		@ frame_needed = 0, uses_anonymous_args = 0
 611 0000 F0B5     		push	{r4, r5, r6, r7, lr}
 612 0002 87B0     		sub	sp, sp, #28
 613 0004 0400     		movs	r4, r0
ARM GAS  /tmp/ccfhiFMo.s 			page 12


 614 0006 FFF7FEFF 		bl	smtc_modem_hal_get_time_in_ms
 615 000a 0026     		movs	r6, #0
 616 000c 02AB     		add	r3, sp, #8
 617 000e DF1D     		adds	r7, r3, #7
 618 0010 3A00     		movs	r2, r7
 619 0012 0500     		movs	r5, r0
 620 0014 2100     		movs	r1, r4
 621 0016 6068     		ldr	r0, [r4, #4]
 622 0018 0496     		str	r6, [sp, #16]
 623 001a 0596     		str	r6, [sp, #20]
 624 001c FFF7FEFF 		bl	rp_hook_get_id
 625 0020 2300     		movs	r3, r4
 626 0022 2A33     		adds	r3, r3, #42
 627 0024 1E70     		strb	r6, [r3]
 628 0026 227B     		ldrb	r2, [r4, #12]
 629 0028 3B78     		ldrb	r3, [r7]
 630 002a 9A42     		cmp	r2, r3
 631 002c 04D0     		beq	.L72
 632 002e 1821     		movs	r1, #24
 633 0030 4348     		ldr	r0, .L81
 634 0032 FF31     		adds	r1, r1, #255
 635 0034 FFF7FEFF 		bl	smtc_modem_hal_assert_fail
 636              	.L72:
 637 0038 A37B     		ldrb	r3, [r4, #14]
 638 003a 002B     		cmp	r3, #0
 639 003c 05D1     		bne	.L73
 640 003e 4148     		ldr	r0, .L81+4
 641 0040 FFF7FEFF 		bl	smtc_modem_hal_print_trace
 642 0044 0120     		movs	r0, #1
 643              	.L74:
 644 0046 07B0     		add	sp, sp, #28
 645              		@ sp needed
 646 0048 F0BD     		pop	{r4, r5, r6, r7, pc}
 647              	.L73:
 648 004a FA23     		movs	r3, #250
 649 004c 9B00     		lsls	r3, r3, #2
 650 004e EB18     		adds	r3, r5, r3
 651 0050 0193     		str	r3, [sp, #4]
 652 0052 0199     		ldr	r1, [sp, #4]
 653 0054 A068     		ldr	r0, [r4, #8]
 654 0056 05AB     		add	r3, sp, #20
 655 0058 04AA     		add	r2, sp, #16
 656 005a FFF7FEFF 		bl	lr1mac_core_convert_rtc_to_gps_epoch_time
 657 005e 0028     		cmp	r0, #0
 658 0060 04D1     		bne	.L75
 659 0062 3948     		ldr	r0, .L81+8
 660 0064 FFF7FEFF 		bl	smtc_modem_hal_print_trace
 661 0068 0320     		movs	r0, #3
 662 006a ECE7     		b	.L74
 663              	.L75:
 664 006c 7F22     		movs	r2, #127
 665 006e 049B     		ldr	r3, [sp, #16]
 666 0070 364D     		ldr	r5, .L81+12
 667 0072 1340     		ands	r3, r2
 668 0074 5D43     		muls	r5, r3
 669 0076 059B     		ldr	r3, [sp, #20]
 670 0078 A668     		ldr	r6, [r4, #8]
ARM GAS  /tmp/ccfhiFMo.s 			page 13


 671 007a ED1A     		subs	r5, r5, r3
 672 007c FA23     		movs	r3, #250
 673 007e 5B02     		lsls	r3, r3, #9
 674 0080 ED18     		adds	r5, r5, r3
 675 0082 019B     		ldr	r3, [sp, #4]
 676 0084 3000     		movs	r0, r6
 677 0086 ED18     		adds	r5, r5, r3
 678 0088 0A23     		movs	r3, #10
 679 008a 6B43     		muls	r3, r5
 680 008c A364     		str	r3, [r4, #72]
 681 008e FFF7FEFF 		bl	smtc_real_get_beacon_dr
 682 0092 0100     		movs	r1, r0
 683 0094 3000     		movs	r0, r6
 684 0096 FFF7FEFF 		bl	smtc_real_get_symbol_duration_us
 685 009a FA26     		movs	r6, #250
 686 009c B600     		lsls	r6, r6, #2
 687 009e B042     		cmp	r0, r6
 688 00a0 1FD2     		bcs	.L76
 689              	.L78:
 690 00a2 FF20     		movs	r0, #255
 691              	.L77:
 692 00a4 0123     		movs	r3, #1
 693 00a6 2086     		strh	r0, [r4, #48]
 694 00a8 E373     		strb	r3, [r4, #15]
 695 00aa 2900     		movs	r1, r5
 696 00ac 05AB     		add	r3, sp, #20
 697 00ae A068     		ldr	r0, [r4, #8]
 698 00b0 04AA     		add	r2, sp, #16
 699 00b2 FFF7FEFF 		bl	lr1mac_core_convert_rtc_to_gps_epoch_time
 700 00b6 0499     		ldr	r1, [sp, #16]
 701 00b8 059A     		ldr	r2, [sp, #20]
 702 00ba E162     		str	r1, [r4, #44]
 703 00bc 2448     		ldr	r0, .L81+16
 704 00be FFF7FEFF 		bl	smtc_modem_hal_print_trace
 705 00c2 2000     		movs	r0, r4
 706 00c4 FFF7FEFF 		bl	beacon_rp_request
 707 00c8 A46C     		ldr	r4, [r4, #72]
 708 00ca 0A21     		movs	r1, #10
 709 00cc 2000     		movs	r0, r4
 710 00ce FFF7FEFF 		bl	__aeabi_uidiv
 711 00d2 019B     		ldr	r3, [sp, #4]
 712 00d4 2200     		movs	r2, r4
 713 00d6 C11A     		subs	r1, r0, r3
 714 00d8 1E48     		ldr	r0, .L81+20
 715 00da FFF7FEFF 		bl	smtc_modem_hal_print_trace
 716 00de 0020     		movs	r0, #0
 717 00e0 B1E7     		b	.L74
 718              	.L76:
 719 00e2 A768     		ldr	r7, [r4, #8]
 720 00e4 3800     		movs	r0, r7
 721 00e6 FFF7FEFF 		bl	smtc_real_get_beacon_dr
 722 00ea 0100     		movs	r1, r0
 723 00ec 3800     		movs	r0, r7
 724 00ee FFF7FEFF 		bl	smtc_real_get_symbol_duration_us
 725 00f2 3100     		movs	r1, r6
 726 00f4 FFF7FEFF 		bl	__aeabi_uidiv
 727 00f8 0100     		movs	r1, r0
ARM GAS  /tmp/ccfhiFMo.s 			page 14


 728 00fa FA20     		movs	r0, #250
 729 00fc C000     		lsls	r0, r0, #3
 730 00fe FFF7FEFF 		bl	__aeabi_uidiv
 731 0102 FE28     		cmp	r0, #254
 732 0104 CDD8     		bhi	.L78
 733 0106 A768     		ldr	r7, [r4, #8]
 734 0108 3800     		movs	r0, r7
 735 010a FFF7FEFF 		bl	smtc_real_get_beacon_dr
 736 010e 0100     		movs	r1, r0
 737 0110 3800     		movs	r0, r7
 738 0112 FFF7FEFF 		bl	smtc_real_get_symbol_duration_us
 739 0116 0121     		movs	r1, #1
 740 0118 B042     		cmp	r0, r6
 741 011a 0BD3     		bcc	.L79
 742 011c A768     		ldr	r7, [r4, #8]
 743 011e 3800     		movs	r0, r7
 744 0120 FFF7FEFF 		bl	smtc_real_get_beacon_dr
 745 0124 0100     		movs	r1, r0
 746 0126 3800     		movs	r0, r7
 747 0128 FFF7FEFF 		bl	smtc_real_get_symbol_duration_us
 748 012c 3100     		movs	r1, r6
 749 012e FFF7FEFF 		bl	__aeabi_uidiv
 750 0132 0100     		movs	r1, r0
 751              	.L79:
 752 0134 FA20     		movs	r0, #250
 753 0136 C000     		lsls	r0, r0, #3
 754 0138 FFF7FEFF 		bl	__aeabi_uidiv
 755 013c 80B2     		uxth	r0, r0
 756 013e B1E7     		b	.L77
 757              	.L82:
 758              		.align	2
 759              	.L81:
 760 0140 00000000 		.word	__func__.3
 761 0144 00000000 		.word	.LC15
 762 0148 16000000 		.word	.LC17
 763 014c 18FCFFFF 		.word	-1000
 764 0150 42000000 		.word	.LC19
 765 0154 79000000 		.word	.LC21
 767              		.section	.text.smtc_beacon_sniff_get_metadata,"ax",%progbits
 768              		.align	1
 769              		.global	smtc_beacon_sniff_get_metadata
 770              		.syntax unified
 771              		.code	16
 772              		.thumb_func
 774              	smtc_beacon_sniff_get_metadata:
 775              		@ args = 0, pretend = 0, frame = 0
 776              		@ frame_needed = 0, uses_anonymous_args = 0
 777 0000 0B00     		movs	r3, r1
 778 0002 0100     		movs	r1, r0
 779 0004 10B5     		push	{r4, lr}
 780 0006 2C22     		movs	r2, #44
 781              		@ sp needed
 782 0008 1800     		movs	r0, r3
 783 000a 5831     		adds	r1, r1, #88
 784 000c FFF7FEFF 		bl	memcpy
 785 0010 10BD     		pop	{r4, pc}
 787              		.section	.rodata.smtc_decode_beacon_epoch_time.str1.1,"aMS",%progbits,1
ARM GAS  /tmp/ccfhiFMo.s 			page 15


 788              	.LC23:
 789 0000 494E5641 		.ascii	"INVALID CRC  \012\000"
 789      4C494420 
 789      43524320 
 789      200A00
 790              		.section	.text.smtc_decode_beacon_epoch_time,"ax",%progbits
 791              		.align	1
 792              		.global	smtc_decode_beacon_epoch_time
 793              		.syntax unified
 794              		.code	16
 795              		.thumb_func
 797              	smtc_decode_beacon_epoch_time:
 798              		@ args = 0, pretend = 0, frame = 0
 799              		@ frame_needed = 0, uses_anonymous_args = 0
 800 0000 70B5     		push	{r4, r5, r6, lr}
 801 0002 4418     		adds	r4, r0, r1
 802 0004 A31E     		subs	r3, r4, #2
 803 0006 1B78     		ldrb	r3, [r3]
 804 0008 E21E     		subs	r2, r4, #3
 805 000a 1578     		ldrb	r5, [r2]
 806 000c 1B02     		lsls	r3, r3, #8
 807 000e 0339     		subs	r1, r1, #3
 808 0010 ED18     		adds	r5, r5, r3
 809 0012 89B2     		uxth	r1, r1
 810 0014 ADB2     		uxth	r5, r5
 811 0016 0029     		cmp	r1, #0
 812 0018 02D0     		beq	.L85
 813 001a FFF7FEFF 		bl	crc16_beacon.part.0
 814 001e 0100     		movs	r1, r0
 815              	.L85:
 816 0020 8D42     		cmp	r5, r1
 817 0022 04D0     		beq	.L86
 818 0024 0948     		ldr	r0, .L91
 819 0026 FFF7FEFF 		bl	smtc_modem_hal_print_trace
 820 002a 0020     		movs	r0, #0
 821              	.L84:
 822              		@ sp needed
 823 002c 70BD     		pop	{r4, r5, r6, pc}
 824              	.L86:
 825 002e A31F     		subs	r3, r4, #6
 826 0030 1878     		ldrb	r0, [r3]
 827 0032 E31F     		subs	r3, r4, #7
 828 0034 1B78     		ldrb	r3, [r3]
 829 0036 0002     		lsls	r0, r0, #8
 830 0038 C018     		adds	r0, r0, r3
 831 003a 631F     		subs	r3, r4, #5
 832 003c 1B78     		ldrb	r3, [r3]
 833 003e 043C     		subs	r4, r4, #4
 834 0040 1B04     		lsls	r3, r3, #16
 835 0042 C018     		adds	r0, r0, r3
 836 0044 2378     		ldrb	r3, [r4]
 837 0046 1B06     		lsls	r3, r3, #24
 838 0048 C018     		adds	r0, r0, r3
 839 004a EFE7     		b	.L84
 840              	.L92:
 841              		.align	2
 842              	.L91:
ARM GAS  /tmp/ccfhiFMo.s 			page 16


 843 004c 00000000 		.word	.LC23
 845              		.section	.rodata.smtc_beacon_sniff_rp_callback.str1.1,"aMS",%progbits,1
 846              	.LC25:
 847 0000 20626561 		.ascii	" beacon_timestamp_us = %u us\012\000"
 847      636F6E5F 
 847      74696D65 
 847      7374616D 
 847      705F7573 
 848              	.LC27:
 849 001e 20626561 		.ascii	" beacon_time - network time = %d ms\012\000"
 849      636F6E5F 
 849      74696D65 
 849      202D206E 
 849      6574776F 
 850              	.LC29:
 851 0043 1B5B303B 		.ascii	"\033[0;31mERROR: device no more synchronized\012\000"
 851      33316D45 
 851      52524F52 
 851      3A206465 
 851      76696365 
 852              	.LC32:
 853 006e 74696D65 		.ascii	"time error on first beacon = %d (100us resolution) "
 853      20657272 
 853      6F72206F 
 853      6E206669 
 853      72737420 
 854 00a1 200A00   		.ascii	" \012\000"
 855              	.LC34:
 856 00a4 72782064 		.ascii	"rx delay = %d ms\012\000"
 856      656C6179 
 856      203D2025 
 856      64206D73 
 856      0A00
 857              	.LC36:
 858 00b6 42656163 		.ascii	"Beacon Payload \000"
 858      6F6E2050 
 858      61796C6F 
 858      61642000 
 859              	.LC38:
 860 00c6 2573202D 		.ascii	"%s - (%lu bytes):\012\000"
 860      2028256C 
 860      75206279 
 860      74657329 
 860      3A0A00
 861              	.LC40:
 862 00d9 0A00     		.ascii	"\012\000"
 863              	.LC42:
 864 00db 20253032 		.ascii	" %02X\000"
 864      5800
 865              	.LC44:
 866 00e1 2D2D3E20 		.ascii	"--> PLL INFO ppl_phase =%d, pll_error_100us= %d  pl"
 866      504C4C20 
 866      494E464F 
 866      2070706C 
 866      5F706861 
 867 0114 6C5F6672 		.ascii	"l_frequency_100us = %d \012\000"
 867      65717565 
ARM GAS  /tmp/ccfhiFMo.s 			page 17


 867      6E63795F 
 867      31303075 
 867      73203D20 
 868              	.LC46:
 869 012d 0A2A2A2A 		.ascii	"\012********************************************\012"
 869      2A2A2A2A 
 869      2A2A2A2A 
 869      2A2A2A2A 
 869      2A2A2A2A 
 870 015b 00       		.ascii	"\000"
 871              	.LC48:
 872 015c 2D2D3E42 		.ascii	"-->BEACON STATUS \012 received = %d\012 missed = %d"
 872      4541434F 
 872      4E205354 
 872      41545553 
 872      200A2072 
 873 0189 0A207265 		.ascii	"\012 received_consecutively = %d\012 lost_consecuti"
 873      63656976 
 873      65645F63 
 873      6F6E7365 
 873      63757469 
 874 01b6 76656C79 		.ascii	"vely =%d\012 four_last_beacon_rx_statistic = %d\012"
 874      203D2564 
 874      0A20666F 
 874      75725F6C 
 874      6173745F 
 875 01e3 206E6578 		.ascii	" next beacon rx_nb_symb = %d\012\000"
 875      74206265 
 875      61636F6E 
 875      2072785F 
 875      6E625F73 
 876              	.LC50:
 877 0201 2A2A2A2A 		.ascii	"*********************************************\012 \000"
 877      2A2A2A2A 
 877      2A2A2A2A 
 877      2A2A2A2A 
 877      2A2A2A2A 
 878              	.LC52:
 879 0231 62656163 		.ascii	"beacon stop ping slot\012\000"
 879      6F6E2073 
 879      746F7020 
 879      70696E67 
 879      20736C6F 
 880              		.section	.text.smtc_beacon_sniff_rp_callback,"ax",%progbits
 881              		.align	1
 882              		.global	smtc_beacon_sniff_rp_callback
 883              		.syntax unified
 884              		.code	16
 885              		.thumb_func
 887              	smtc_beacon_sniff_rp_callback:
 888              		@ args = 0, pretend = 0, frame = 24
 889              		@ frame_needed = 0, uses_anonymous_args = 0
 890 0000 F0B5     		push	{r4, r5, r6, r7, lr}
 891 0002 C37B     		ldrb	r3, [r0, #15]
 892 0004 0400     		movs	r4, r0
 893 0006 8BB0     		sub	sp, sp, #44
 894 0008 002B     		cmp	r3, #0
ARM GAS  /tmp/ccfhiFMo.s 			page 18


 895 000a 00D1     		bne	.LCB892
 896 000c A8E3     		b	.L93	@long jump
 897              	.LCB892:
 898 000e 4168     		ldr	r1, [r0, #4]
 899 0010 037B     		ldrb	r3, [r0, #12]
 900 0012 EF20     		movs	r0, #239
 901 0014 CA18     		adds	r2, r1, r3
 902 0016 A768     		ldr	r7, [r4, #8]
 903 0018 F333     		adds	r3, r3, #243
 904 001a C000     		lsls	r0, r0, #3
 905 001c FF33     		adds	r3, r3, #255
 906 001e 1218     		adds	r2, r2, r0
 907 0020 9B00     		lsls	r3, r3, #2
 908 0022 3800     		movs	r0, r7
 909 0024 5E58     		ldr	r6, [r3, r1]
 910 0026 1578     		ldrb	r5, [r2]
 911 0028 FFF7FEFF 		bl	smtc_real_get_beacon_dr
 912 002c 0100     		movs	r1, r0
 913 002e 3800     		movs	r0, r7
 914 0030 FFF7FEFF 		bl	smtc_real_get_symbol_duration_us
 915 0034 6421     		movs	r1, #100
 916 0036 4008     		lsrs	r0, r0, #1
 917 0038 FFF7FEFF 		bl	__aeabi_uidiv
 918 003c 6421     		movs	r1, #100
 919 003e 361A     		subs	r6, r6, r0
 920 0040 7143     		muls	r1, r6
 921 0042 D848     		ldr	r0, .L200
 922 0044 FFF7FEFF 		bl	smtc_modem_hal_print_trace
 923 0048 0023     		movs	r3, #0
 924 004a 6373     		strb	r3, [r4, #13]
 925 004c 042D     		cmp	r5, #4
 926 004e 7AD1     		bne	.L97
 927 0050 A568     		ldr	r5, [r4, #8]
 928 0052 2800     		movs	r0, r5
 929 0054 FFF7FEFF 		bl	smtc_real_get_beacon_dr
 930 0058 0100     		movs	r1, r0
 931 005a 2800     		movs	r0, r5
 932 005c 2500     		movs	r5, r4
 933 005e 08AA     		add	r2, sp, #32
 934 0060 09AB     		add	r3, sp, #36
 935 0062 FFF7FEFF 		bl	smtc_real_lora_dr_to_sf_bw
 936 0066 1035     		adds	r5, r5, #16
 937 0068 04AB     		add	r3, sp, #16
 938 006a 197C     		ldrb	r1, [r3, #16]
 939 006c 2800     		movs	r0, r5
 940 006e FFF7FEFF 		bl	smtc_decode_beacon_epoch_time
 941 0072 A768     		ldr	r7, [r4, #8]
 942 0074 3800     		movs	r0, r7
 943 0076 FFF7FEFF 		bl	smtc_real_get_beacon_dr
 944 007a 08AA     		add	r2, sp, #32
 945 007c 0100     		movs	r1, r0
 946 007e 09AB     		add	r3, sp, #36
 947 0080 3800     		movs	r0, r7
 948 0082 FFF7FEFF 		bl	smtc_real_lora_dr_to_sf_bw
 949 0086 04AB     		add	r3, sp, #16
 950 0088 197C     		ldrb	r1, [r3, #16]
 951 008a 2800     		movs	r0, r5
ARM GAS  /tmp/ccfhiFMo.s 			page 19


 952 008c FFF7FEFF 		bl	smtc_decode_beacon_epoch_time
 953 0090 0A21     		movs	r1, #10
 954 0092 0500     		movs	r5, r0
 955 0094 3000     		movs	r0, r6
 956 0096 FFF7FEFF 		bl	__aeabi_uidiv
 957 009a 616B     		ldr	r1, [r4, #52]
 958 009c 09AB     		add	r3, sp, #36
 959 009e 411A     		subs	r1, r0, r1
 960 00a0 08AA     		add	r2, sp, #32
 961 00a2 A068     		ldr	r0, [r4, #8]
 962 00a4 FFF7FEFF 		bl	lr1mac_core_convert_rtc_to_gps_epoch_time
 963 00a8 0028     		cmp	r0, #0
 964 00aa 00D1     		bne	.LCB965
 965 00ac D1E0     		b	.L98	@long jump
 966              	.LCB965:
 967 00ae FA21     		movs	r1, #250
 968 00b0 089B     		ldr	r3, [sp, #32]
 969 00b2 8900     		lsls	r1, r1, #2
 970 00b4 ED1A     		subs	r5, r5, r3
 971 00b6 6943     		muls	r1, r5
 972 00b8 099B     		ldr	r3, [sp, #36]
 973 00ba BB48     		ldr	r0, .L200+4
 974 00bc C91A     		subs	r1, r1, r3
 975 00be FFF7FEFF 		bl	smtc_modem_hal_print_trace
 976              	.L99:
 977 00c2 0123     		movs	r3, #1
 978 00c4 E521     		movs	r1, #229
 979 00c6 6373     		strb	r3, [r4, #13]
 980 00c8 237B     		ldrb	r3, [r4, #12]
 981 00ca 8900     		lsls	r1, r1, #2
 982 00cc 6268     		ldr	r2, [r4, #4]
 983 00ce 5B18     		adds	r3, r3, r1
 984 00d0 5B00     		lsls	r3, r3, #1
 985 00d2 9A5A     		ldrh	r2, [r3, r2]
 986 00d4 2300     		movs	r3, r4
 987 00d6 2933     		adds	r3, r3, #41
 988 00d8 1A70     		strb	r2, [r3]
 989 00da 0133     		adds	r3, r3, #1
 990 00dc 0593     		str	r3, [sp, #20]
 991 00de 1D78     		ldrb	r5, [r3]
 992 00e0 002D     		cmp	r5, #0
 993 00e2 11D1     		bne	.L100
 994 00e4 0A27     		movs	r7, #10
 995 00e6 616B     		ldr	r1, [r4, #52]
 996 00e8 A36C     		ldr	r3, [r4, #72]
 997 00ea 7943     		muls	r1, r7
 998 00ec C918     		adds	r1, r1, r3
 999 00ee AF48     		ldr	r0, .L200+8
 1000 00f0 711A     		subs	r1, r6, r1
 1001 00f2 FFF7FEFF 		bl	smtc_modem_hal_print_trace
 1002 00f6 AE4B     		ldr	r3, .L200+12
 1003 00f8 E563     		str	r5, [r4, #60]
 1004 00fa 6364     		str	r3, [r4, #68]
 1005 00fc 636B     		ldr	r3, [r4, #52]
 1006 00fe A563     		str	r5, [r4, #56]
 1007 0100 7B43     		muls	r3, r7
 1008 0102 F31A     		subs	r3, r6, r3
ARM GAS  /tmp/ccfhiFMo.s 			page 20


 1009 0104 2564     		str	r5, [r4, #64]
 1010 0106 A364     		str	r3, [r4, #72]
 1011              	.L100:
 1012 0108 059B     		ldr	r3, [sp, #20]
 1013 010a A06C     		ldr	r0, [r4, #72]
 1014 010c 1B78     		ldrb	r3, [r3]
 1015 010e E16B     		ldr	r1, [r4, #60]
 1016 0110 626C     		ldr	r2, [r4, #68]
 1017 0112 012B     		cmp	r3, #1
 1018 0114 17D1     		bne	.L97
 1019 0116 0A25     		movs	r5, #10
 1020 0118 636B     		ldr	r3, [r4, #52]
 1021 011a 6B43     		muls	r3, r5
 1022 011c 1B18     		adds	r3, r3, r0
 1023 011e 0720     		movs	r0, #7
 1024 0120 4143     		muls	r1, r0
 1025 0122 F31A     		subs	r3, r6, r3
 1026 0124 C918     		adds	r1, r1, r3
 1027 0126 A363     		str	r3, [r4, #56]
 1028 0128 CB17     		asrs	r3, r1, #31
 1029 012a 0340     		ands	r3, r0
 1030 012c 5B18     		adds	r3, r3, r1
 1031 012e 216C     		ldr	r1, [r4, #64]
 1032 0130 DB10     		asrs	r3, r3, #3
 1033 0132 E363     		str	r3, [r4, #60]
 1034 0134 5B18     		adds	r3, r3, r1
 1035 0136 2364     		str	r3, [r4, #64]
 1036 0138 0021     		movs	r1, #0
 1037 013a 202B     		cmp	r3, #32
 1038 013c 00DC     		bgt	.LCB1039
 1039 013e 8FE0     		b	.L102	@long jump
 1040              	.LCB1039:
 1041 0140 0132     		adds	r2, r2, #1
 1042              	.L190:
 1043 0142 6264     		str	r2, [r4, #68]
 1044 0144 2164     		str	r1, [r4, #64]
 1045              	.L97:
 1046 0146 E16B     		ldr	r1, [r4, #60]
 1047 0148 A36C     		ldr	r3, [r4, #72]
 1048 014a CA17     		asrs	r2, r1, #31
 1049 014c 8D18     		adds	r5, r1, r2
 1050 014e 5540     		eors	r5, r2
 1051 0150 606C     		ldr	r0, [r4, #68]
 1052 0152 0A00     		movs	r2, r1
 1053 0154 642D     		cmp	r5, #100
 1054 0156 03DD     		ble	.L104
 1055 0158 6422     		movs	r2, #100
 1056 015a 0029     		cmp	r1, #0
 1057 015c 00DA     		bge	.L104
 1058 015e C83A     		subs	r2, r2, #200
 1059              	.L104:
 1060 0160 1B18     		adds	r3, r3, r0
 1061 0162 9B18     		adds	r3, r3, r2
 1062 0164 A364     		str	r3, [r4, #72]
 1063 0166 637B     		ldrb	r3, [r4, #13]
 1064 0168 0125     		movs	r5, #1
 1065 016a 002B     		cmp	r3, #0
ARM GAS  /tmp/ccfhiFMo.s 			page 21


 1066 016c 17D1     		bne	.L105
 1067 016e A768     		ldr	r7, [r4, #8]
 1068 0170 238E     		ldrh	r3, [r4, #48]
 1069 0172 3800     		movs	r0, r7
 1070 0174 0693     		str	r3, [sp, #24]
 1071 0176 FFF7FEFF 		bl	smtc_real_get_beacon_dr
 1072 017a 0100     		movs	r1, r0
 1073 017c 3800     		movs	r0, r7
 1074 017e FFF7FEFF 		bl	smtc_real_get_symbol_duration_us
 1075 0182 FA27     		movs	r7, #250
 1076 0184 BF00     		lsls	r7, r7, #2
 1077 0186 B842     		cmp	r0, r7
 1078 0188 6FD2     		bcs	.L106
 1079              	.L108:
 1080 018a FF20     		movs	r0, #255
 1081              	.L107:
 1082 018c 069B     		ldr	r3, [sp, #24]
 1083 018e 0025     		movs	r5, #0
 1084 0190 8342     		cmp	r3, r0
 1085 0192 04D2     		bcs	.L105
 1086 0194 3822     		movs	r2, #56
 1087 0196 636E     		ldr	r3, [r4, #100]
 1088 0198 9A42     		cmp	r2, r3
 1089 019a 6D41     		adcs	r5, r5, r5
 1090 019c EDB2     		uxtb	r5, r5
 1091              	.L105:
 1092 019e 2700     		movs	r7, r4
 1093 01a0 2300     		movs	r3, r4
 1094 01a2 2A37     		adds	r7, r7, #42
 1095 01a4 3D70     		strb	r5, [r7]
 1096 01a6 0025     		movs	r5, #0
 1097 01a8 7A33     		adds	r3, r3, #122
 1098 01aa 1D70     		strb	r5, [r3]
 1099 01ac 023B     		subs	r3, r3, #2
 1100 01ae 1D70     		strb	r5, [r3]
 1101 01b0 6368     		ldr	r3, [r4, #4]
 1102 01b2 0693     		str	r3, [sp, #24]
 1103 01b4 237B     		ldrb	r3, [r4, #12]
 1104 01b6 0593     		str	r3, [sp, #20]
 1105 01b8 627B     		ldrb	r2, [r4, #13]
 1106 01ba AA42     		cmp	r2, r5
 1107 01bc 00D1     		bne	.LCB1111
 1108 01be 85E0     		b	.L110	@long jump
 1109              	.LCB1111:
 1110 01c0 0A21     		movs	r1, #10
 1111 01c2 3000     		movs	r0, r6
 1112 01c4 FFF7FEFF 		bl	__aeabi_uidiv
 1113 01c8 8423     		movs	r3, #132
 1114 01ca 059A     		ldr	r2, [sp, #20]
 1115 01cc 2067     		str	r0, [r4, #112]
 1116 01ce 5343     		muls	r3, r2
 1117 01d0 069A     		ldr	r2, [sp, #24]
 1118 01d2 0600     		movs	r6, r0
 1119 01d4 D318     		adds	r3, r2, r3
 1120 01d6 1A00     		movs	r2, r3
 1121 01d8 7E32     		adds	r2, r2, #126
 1122 01da 1188     		ldrh	r1, [r2]
ARM GAS  /tmp/ccfhiFMo.s 			page 22


 1123 01dc 2200     		movs	r2, r4
 1124 01de 7C33     		adds	r3, r3, #124
 1125 01e0 7432     		adds	r2, r2, #116
 1126 01e2 1180     		strh	r1, [r2]
 1127 01e4 1A88     		ldrh	r2, [r3]
 1128 01e6 2300     		movs	r3, r4
 1129 01e8 7633     		adds	r3, r3, #118
 1130 01ea 1A80     		strh	r2, [r3]
 1131 01ec A068     		ldr	r0, [r4, #8]
 1132 01ee FFF7FEFF 		bl	smtc_real_get_beacon_dr
 1133 01f2 2300     		movs	r3, r4
 1134 01f4 8033     		adds	r3, r3, #128
 1135 01f6 1870     		strb	r0, [r3]
 1136 01f8 E16A     		ldr	r1, [r4, #44]
 1137 01fa A068     		ldr	r0, [r4, #8]
 1138 01fc FFF7FEFF 		bl	smtc_real_get_beacon_frequency
 1139 0200 D423     		movs	r3, #212
 1140 0202 2268     		ldr	r2, [r4]
 1141 0204 5B00     		lsls	r3, r3, #1
 1142 0206 E067     		str	r0, [r4, #124]
 1143 0208 A666     		str	r6, [r4, #104]
 1144 020a D650     		str	r6, [r2, r3]
 1145 020c 2200     		movs	r2, r4
 1146 020e A36D     		ldr	r3, [r4, #88]
 1147 0210 6566     		str	r5, [r4, #100]
 1148 0212 0133     		adds	r3, r3, #1
 1149 0214 A365     		str	r3, [r4, #88]
 1150 0216 236E     		ldr	r3, [r4, #96]
 1151 0218 6C32     		adds	r2, r2, #108
 1152 021a 0133     		adds	r3, r3, #1
 1153 021c 2366     		str	r3, [r4, #96]
 1154 021e 1178     		ldrb	r1, [r2]
 1155 0220 0B1C     		adds	r3, r1, #0
 1156 0222 0329     		cmp	r1, #3
 1157 0224 00D9     		bls	.L111
 1158 0226 0323     		movs	r3, #3
 1159              	.L111:
 1160 0228 0133     		adds	r3, r3, #1
 1161              	.L191:
 1162 022a 1370     		strb	r3, [r2]
 1163              	.L112:
 1164 022c 3B78     		ldrb	r3, [r7]
 1165 022e A06C     		ldr	r0, [r4, #72]
 1166 0230 002B     		cmp	r3, #0
 1167 0232 63D1     		bne	.L113
 1168 0234 A568     		ldr	r5, [r4, #8]
 1169 0236 2800     		movs	r0, r5
 1170 0238 FFF7FEFF 		bl	smtc_real_get_beacon_dr
 1171 023c 0100     		movs	r1, r0
 1172 023e 2800     		movs	r0, r5
 1173 0240 FA25     		movs	r5, #250
 1174 0242 FFF7FEFF 		bl	smtc_real_get_symbol_duration_us
 1175 0246 AD00     		lsls	r5, r5, #2
 1176              	.L199:
 1177 0248 A842     		cmp	r0, r5
 1178 024a 00D3     		bcc	.LCB1189
 1179 024c 92E2     		b	.L154	@long jump
ARM GAS  /tmp/ccfhiFMo.s 			page 23


 1180              	.LCB1189:
 1181              	.L155:
 1182 024e FF20     		movs	r0, #255
 1183 0250 35E2     		b	.L139
 1184              	.L98:
 1185 0252 5848     		ldr	r0, .L200+16
 1186 0254 FFF7FEFF 		bl	smtc_modem_hal_print_trace
 1187 0258 5748     		ldr	r0, .L200+20
 1188 025a FFF7FEFF 		bl	smtc_modem_hal_print_trace
 1189 025e 30E7     		b	.L99
 1190              	.L102:
 1191 0260 2033     		adds	r3, r3, #32
 1192 0262 00DB     		blt	.LCB1205
 1193 0264 6FE7     		b	.L97	@long jump
 1194              	.LCB1205:
 1195 0266 013A     		subs	r2, r2, #1
 1196 0268 6BE7     		b	.L190
 1197              	.L106:
 1198 026a A368     		ldr	r3, [r4, #8]
 1199 026c 1800     		movs	r0, r3
 1200 026e 0593     		str	r3, [sp, #20]
 1201 0270 FFF7FEFF 		bl	smtc_real_get_beacon_dr
 1202 0274 0100     		movs	r1, r0
 1203 0276 0598     		ldr	r0, [sp, #20]
 1204 0278 FFF7FEFF 		bl	smtc_real_get_symbol_duration_us
 1205 027c 3900     		movs	r1, r7
 1206 027e FFF7FEFF 		bl	__aeabi_uidiv
 1207 0282 0100     		movs	r1, r0
 1208 0284 FA20     		movs	r0, #250
 1209 0286 C000     		lsls	r0, r0, #3
 1210 0288 FFF7FEFF 		bl	__aeabi_uidiv
 1211 028c FE28     		cmp	r0, #254
 1212 028e 00D9     		bls	.LCB1226
 1213 0290 7BE7     		b	.L108	@long jump
 1214              	.LCB1226:
 1215 0292 A368     		ldr	r3, [r4, #8]
 1216 0294 1800     		movs	r0, r3
 1217 0296 0593     		str	r3, [sp, #20]
 1218 0298 FFF7FEFF 		bl	smtc_real_get_beacon_dr
 1219 029c 0100     		movs	r1, r0
 1220 029e 0598     		ldr	r0, [sp, #20]
 1221 02a0 FFF7FEFF 		bl	smtc_real_get_symbol_duration_us
 1222 02a4 2900     		movs	r1, r5
 1223 02a6 B842     		cmp	r0, r7
 1224 02a8 0BD3     		bcc	.L109
 1225 02aa A568     		ldr	r5, [r4, #8]
 1226 02ac 2800     		movs	r0, r5
 1227 02ae FFF7FEFF 		bl	smtc_real_get_beacon_dr
 1228 02b2 0100     		movs	r1, r0
 1229 02b4 2800     		movs	r0, r5
 1230 02b6 FFF7FEFF 		bl	smtc_real_get_symbol_duration_us
 1231 02ba 3900     		movs	r1, r7
 1232 02bc FFF7FEFF 		bl	__aeabi_uidiv
 1233 02c0 0100     		movs	r1, r0
 1234              	.L109:
 1235 02c2 FA20     		movs	r0, #250
 1236 02c4 C000     		lsls	r0, r0, #3
ARM GAS  /tmp/ccfhiFMo.s 			page 24


 1237 02c6 FFF7FEFF 		bl	__aeabi_uidiv
 1238 02ca 5FE7     		b	.L107
 1239              	.L110:
 1240 02cc E36D     		ldr	r3, [r4, #92]
 1241 02ce 2266     		str	r2, [r4, #96]
 1242 02d0 0133     		adds	r3, r3, #1
 1243 02d2 E365     		str	r3, [r4, #92]
 1244 02d4 636E     		ldr	r3, [r4, #100]
 1245 02d6 059A     		ldr	r2, [sp, #20]
 1246 02d8 0133     		adds	r3, r3, #1
 1247 02da 6366     		str	r3, [r4, #100]
 1248 02dc 1C23     		movs	r3, #28
 1249 02de 5343     		muls	r3, r2
 1250 02e0 069A     		ldr	r2, [sp, #24]
 1251 02e2 D318     		adds	r3, r2, r3
 1252 02e4 354A     		ldr	r2, .L200+24
 1253 02e6 9B18     		adds	r3, r3, r2
 1254 02e8 1B78     		ldrb	r3, [r3]
 1255 02ea 0E2B     		cmp	r3, #14
 1256 02ec 9ED0     		beq	.L112
 1257 02ee 2200     		movs	r2, r4
 1258 02f0 6C32     		adds	r2, r2, #108
 1259 02f2 1378     		ldrb	r3, [r2]
 1260 02f4 002B     		cmp	r3, #0
 1261 02f6 99D0     		beq	.L112
 1262 02f8 013B     		subs	r3, r3, #1
 1263 02fa 96E7     		b	.L191
 1264              	.L113:
 1265 02fc 0A21     		movs	r1, #10
 1266 02fe FFF7FEFF 		bl	__aeabi_uidiv
 1267 0302 A16E     		ldr	r1, [r4, #104]
 1268 0304 0500     		movs	r5, r0
 1269 0306 411A     		subs	r1, r0, r1
 1270 0308 2D48     		ldr	r0, .L200+28
 1271 030a FFF7FEFF 		bl	smtc_modem_hal_print_trace
 1272 030e A668     		ldr	r6, [r4, #8]
 1273 0310 3000     		movs	r0, r6
 1274 0312 FFF7FEFF 		bl	smtc_real_get_beacon_dr
 1275 0316 0023     		movs	r3, #0
 1276 0318 A26E     		ldr	r2, [r4, #104]
 1277 031a 0293     		str	r3, [sp, #8]
 1278 031c 09AB     		add	r3, sp, #36
 1279 031e 0193     		str	r3, [sp, #4]
 1280 0320 08AB     		add	r3, sp, #32
 1281 0322 0093     		str	r3, [sp]
 1282 0324 2300     		movs	r3, r4
 1283 0326 0100     		movs	r1, r0
 1284 0328 3033     		adds	r3, r3, #48
 1285 032a 3000     		movs	r0, r6
 1286 032c AA1A     		subs	r2, r5, r2
 1287 032e FFF7FEFF 		bl	smtc_real_get_rx_window_parameters
 1288 0332 636E     		ldr	r3, [r4, #100]
 1289 0334 002B     		cmp	r3, #0
 1290 0336 00D0     		beq	.LCB1308
 1291 0338 C2E1     		b	.L118	@long jump
 1292              	.LCB1308:
 1293 033a 2300     		movs	r3, r4
ARM GAS  /tmp/ccfhiFMo.s 			page 25


 1294 033c 6C33     		adds	r3, r3, #108
 1295 033e 0693     		str	r3, [sp, #24]
 1296 0340 1A78     		ldrb	r2, [r3]
 1297 0342 0523     		movs	r3, #5
 1298 0344 9B1A     		subs	r3, r3, r2
 1299 0346 228E     		ldrh	r2, [r4, #48]
 1300 0348 A568     		ldr	r5, [r4, #8]
 1301 034a 5A43     		muls	r2, r3
 1302 034c 2800     		movs	r0, r5
 1303 034e 0792     		str	r2, [sp, #28]
 1304 0350 FFF7FEFF 		bl	smtc_real_get_beacon_dr
 1305 0354 0100     		movs	r1, r0
 1306 0356 2800     		movs	r0, r5
 1307 0358 FFF7FEFF 		bl	smtc_real_get_symbol_duration_us
 1308 035c FA25     		movs	r5, #250
 1309 035e AD00     		lsls	r5, r5, #2
 1310 0360 A842     		cmp	r0, r5
 1311 0362 2FD2     		bcs	.L120
 1312              	.L123:
 1313 0364 A568     		ldr	r5, [r4, #8]
 1314 0366 2800     		movs	r0, r5
 1315 0368 FFF7FEFF 		bl	smtc_real_get_beacon_dr
 1316 036c 0100     		movs	r1, r0
 1317 036e 2800     		movs	r0, r5
 1318 0370 FFF7FEFF 		bl	smtc_real_get_symbol_duration_us
 1319 0374 FA25     		movs	r5, #250
 1320 0376 0121     		movs	r1, #1
 1321 0378 AD00     		lsls	r5, r5, #2
 1322 037a A842     		cmp	r0, r5
 1323 037c 0BD3     		bcc	.L122
 1324 037e A668     		ldr	r6, [r4, #8]
 1325 0380 3000     		movs	r0, r6
 1326 0382 FFF7FEFF 		bl	smtc_real_get_beacon_dr
 1327 0386 0100     		movs	r1, r0
 1328 0388 3000     		movs	r0, r6
 1329 038a FFF7FEFF 		bl	smtc_real_get_symbol_duration_us
 1330 038e 2900     		movs	r1, r5
 1331 0390 FFF7FEFF 		bl	__aeabi_uidiv
 1332 0394 0100     		movs	r1, r0
 1333              	.L122:
 1334 0396 FA20     		movs	r0, #250
 1335 0398 C000     		lsls	r0, r0, #3
 1336 039a FFF7FEFF 		bl	__aeabi_uidiv
 1337 039e 0590     		str	r0, [sp, #20]
 1338 03a0 24E0     		b	.L124
 1339              	.L201:
 1340 03a2 C046     		.align	2
 1341              	.L200:
 1342 03a4 00000000 		.word	.LC25
 1343 03a8 1E000000 		.word	.LC27
 1344 03ac 6E000000 		.word	.LC32
 1345 03b0 00881300 		.word	1280000
 1346 03b4 43000000 		.word	.LC29
 1347 03b8 1D000000 		.word	.LC4
 1348 03bc C9050000 		.word	1481
 1349 03c0 A4000000 		.word	.LC34
 1350              	.L120:
ARM GAS  /tmp/ccfhiFMo.s 			page 26


 1351 03c4 A668     		ldr	r6, [r4, #8]
 1352 03c6 3000     		movs	r0, r6
 1353 03c8 FFF7FEFF 		bl	smtc_real_get_beacon_dr
 1354 03cc 0100     		movs	r1, r0
 1355 03ce 3000     		movs	r0, r6
 1356 03d0 FFF7FEFF 		bl	smtc_real_get_symbol_duration_us
 1357 03d4 2900     		movs	r1, r5
 1358 03d6 FFF7FEFF 		bl	__aeabi_uidiv
 1359 03da 0100     		movs	r1, r0
 1360 03dc FA20     		movs	r0, #250
 1361 03de C000     		lsls	r0, r0, #3
 1362 03e0 FFF7FEFF 		bl	__aeabi_uidiv
 1363 03e4 0628     		cmp	r0, #6
 1364 03e6 BDD8     		bhi	.L123
 1365 03e8 0623     		movs	r3, #6
 1366 03ea 0593     		str	r3, [sp, #20]
 1367              	.L124:
 1368 03ec A568     		ldr	r5, [r4, #8]
 1369 03ee 2800     		movs	r0, r5
 1370 03f0 FFF7FEFF 		bl	smtc_real_get_beacon_dr
 1371 03f4 0100     		movs	r1, r0
 1372 03f6 2800     		movs	r0, r5
 1373 03f8 FFF7FEFF 		bl	smtc_real_get_symbol_duration_us
 1374 03fc FA25     		movs	r5, #250
 1375 03fe AD00     		lsls	r5, r5, #2
 1376 0400 A842     		cmp	r0, r5
 1377 0402 2AD2     		bcs	.L125
 1378              	.L127:
 1379 0404 FF20     		movs	r0, #255
 1380              	.L126:
 1381 0406 FA25     		movs	r5, #250
 1382 0408 059B     		ldr	r3, [sp, #20]
 1383 040a A668     		ldr	r6, [r4, #8]
 1384 040c AD00     		lsls	r5, r5, #2
 1385 040e 8342     		cmp	r3, r0
 1386 0410 6FD2     		bcs	.L129
 1387 0412 3000     		movs	r0, r6
 1388 0414 FFF7FEFF 		bl	smtc_real_get_beacon_dr
 1389 0418 0100     		movs	r1, r0
 1390 041a 3000     		movs	r0, r6
 1391 041c FFF7FEFF 		bl	smtc_real_get_symbol_duration_us
 1392 0420 A842     		cmp	r0, r5
 1393 0422 48D2     		bcs	.L130
 1394              	.L133:
 1395 0424 A568     		ldr	r5, [r4, #8]
 1396 0426 2800     		movs	r0, r5
 1397 0428 FFF7FEFF 		bl	smtc_real_get_beacon_dr
 1398 042c 0100     		movs	r1, r0
 1399 042e 2800     		movs	r0, r5
 1400 0430 FFF7FEFF 		bl	smtc_real_get_symbol_duration_us
 1401 0434 FA25     		movs	r5, #250
 1402 0436 0121     		movs	r1, #1
 1403 0438 AD00     		lsls	r5, r5, #2
 1404 043a A842     		cmp	r0, r5
 1405 043c 00D2     		bcs	.LCB1434
 1406 043e 81E0     		b	.L137	@long jump
 1407              	.LCB1434:
ARM GAS  /tmp/ccfhiFMo.s 			page 27


 1408              	.L193:
 1409 0440 A668     		ldr	r6, [r4, #8]
 1410 0442 3000     		movs	r0, r6
 1411 0444 FFF7FEFF 		bl	smtc_real_get_beacon_dr
 1412 0448 0100     		movs	r1, r0
 1413 044a 3000     		movs	r0, r6
 1414 044c FFF7FEFF 		bl	smtc_real_get_symbol_duration_us
 1415 0450 2900     		movs	r1, r5
 1416 0452 FFF7FEFF 		bl	__aeabi_uidiv
 1417 0456 0100     		movs	r1, r0
 1418 0458 74E0     		b	.L137
 1419              	.L125:
 1420 045a A668     		ldr	r6, [r4, #8]
 1421 045c 3000     		movs	r0, r6
 1422 045e FFF7FEFF 		bl	smtc_real_get_beacon_dr
 1423 0462 0100     		movs	r1, r0
 1424 0464 3000     		movs	r0, r6
 1425 0466 FFF7FEFF 		bl	smtc_real_get_symbol_duration_us
 1426 046a 2900     		movs	r1, r5
 1427 046c FFF7FEFF 		bl	__aeabi_uidiv
 1428 0470 0100     		movs	r1, r0
 1429 0472 FA20     		movs	r0, #250
 1430 0474 C000     		lsls	r0, r0, #3
 1431 0476 FFF7FEFF 		bl	__aeabi_uidiv
 1432 047a FE28     		cmp	r0, #254
 1433 047c C2D8     		bhi	.L127
 1434 047e A668     		ldr	r6, [r4, #8]
 1435 0480 3000     		movs	r0, r6
 1436 0482 FFF7FEFF 		bl	smtc_real_get_beacon_dr
 1437 0486 0100     		movs	r1, r0
 1438 0488 3000     		movs	r0, r6
 1439 048a FFF7FEFF 		bl	smtc_real_get_symbol_duration_us
 1440 048e 0121     		movs	r1, #1
 1441 0490 A842     		cmp	r0, r5
 1442 0492 0BD3     		bcc	.L128
 1443 0494 A668     		ldr	r6, [r4, #8]
 1444 0496 3000     		movs	r0, r6
 1445 0498 FFF7FEFF 		bl	smtc_real_get_beacon_dr
 1446 049c 0100     		movs	r1, r0
 1447 049e 3000     		movs	r0, r6
 1448 04a0 FFF7FEFF 		bl	smtc_real_get_symbol_duration_us
 1449 04a4 2900     		movs	r1, r5
 1450 04a6 FFF7FEFF 		bl	__aeabi_uidiv
 1451 04aa 0100     		movs	r1, r0
 1452              	.L128:
 1453 04ac FA20     		movs	r0, #250
 1454 04ae C000     		lsls	r0, r0, #3
 1455 04b0 FFF7FEFF 		bl	__aeabi_uidiv
 1456 04b4 A7E7     		b	.L126
 1457              	.L130:
 1458 04b6 A668     		ldr	r6, [r4, #8]
 1459 04b8 3000     		movs	r0, r6
 1460 04ba FFF7FEFF 		bl	smtc_real_get_beacon_dr
 1461 04be 0100     		movs	r1, r0
 1462 04c0 3000     		movs	r0, r6
 1463 04c2 FFF7FEFF 		bl	smtc_real_get_symbol_duration_us
 1464 04c6 2900     		movs	r1, r5
ARM GAS  /tmp/ccfhiFMo.s 			page 28


 1465 04c8 FFF7FEFF 		bl	__aeabi_uidiv
 1466 04cc 0100     		movs	r1, r0
 1467 04ce FA20     		movs	r0, #250
 1468 04d0 C000     		lsls	r0, r0, #3
 1469 04d2 FFF7FEFF 		bl	__aeabi_uidiv
 1470 04d6 0628     		cmp	r0, #6
 1471 04d8 A4D8     		bhi	.L133
 1472 04da 0620     		movs	r0, #6
 1473              	.L134:
 1474 04dc 079B     		ldr	r3, [sp, #28]
 1475 04de 8342     		cmp	r3, r0
 1476 04e0 35D2     		bcs	.L138
 1477 04e2 0520     		movs	r0, #5
 1478 04e4 069B     		ldr	r3, [sp, #24]
 1479 04e6 1B78     		ldrb	r3, [r3]
 1480 04e8 C01A     		subs	r0, r0, r3
 1481 04ea 238E     		ldrh	r3, [r4, #48]
 1482 04ec 5843     		muls	r0, r3
 1483              	.L192:
 1484 04ee 80B2     		uxth	r0, r0
 1485 04f0 E5E0     		b	.L139
 1486              	.L129:
 1487 04f2 3000     		movs	r0, r6
 1488 04f4 FFF7FEFF 		bl	smtc_real_get_beacon_dr
 1489 04f8 0100     		movs	r1, r0
 1490 04fa 3000     		movs	r0, r6
 1491 04fc FFF7FEFF 		bl	smtc_real_get_symbol_duration_us
 1492 0500 A842     		cmp	r0, r5
 1493 0502 01D2     		bcs	.L135
 1494              	.L136:
 1495 0504 FF20     		movs	r0, #255
 1496 0506 E9E7     		b	.L134
 1497              	.L135:
 1498 0508 A668     		ldr	r6, [r4, #8]
 1499 050a 3000     		movs	r0, r6
 1500 050c FFF7FEFF 		bl	smtc_real_get_beacon_dr
 1501 0510 0100     		movs	r1, r0
 1502 0512 3000     		movs	r0, r6
 1503 0514 FFF7FEFF 		bl	smtc_real_get_symbol_duration_us
 1504 0518 2900     		movs	r1, r5
 1505 051a FFF7FEFF 		bl	__aeabi_uidiv
 1506 051e 0100     		movs	r1, r0
 1507 0520 FA20     		movs	r0, #250
 1508 0522 C000     		lsls	r0, r0, #3
 1509 0524 FFF7FEFF 		bl	__aeabi_uidiv
 1510 0528 FE28     		cmp	r0, #254
 1511 052a EBD8     		bhi	.L136
 1512 052c A668     		ldr	r6, [r4, #8]
 1513 052e 3000     		movs	r0, r6
 1514 0530 FFF7FEFF 		bl	smtc_real_get_beacon_dr
 1515 0534 0100     		movs	r1, r0
 1516 0536 3000     		movs	r0, r6
 1517 0538 FFF7FEFF 		bl	smtc_real_get_symbol_duration_us
 1518 053c 0121     		movs	r1, #1
 1519 053e A842     		cmp	r0, r5
 1520 0540 00D3     		bcc	.LCB1565
 1521 0542 7DE7     		b	.L193	@long jump
ARM GAS  /tmp/ccfhiFMo.s 			page 29


 1522              	.LCB1565:
 1523              	.L137:
 1524 0544 FA20     		movs	r0, #250
 1525 0546 C000     		lsls	r0, r0, #3
 1526 0548 FFF7FEFF 		bl	__aeabi_uidiv
 1527 054c C6E7     		b	.L134
 1528              	.L138:
 1529 054e A568     		ldr	r5, [r4, #8]
 1530 0550 2800     		movs	r0, r5
 1531 0552 FFF7FEFF 		bl	smtc_real_get_beacon_dr
 1532 0556 0100     		movs	r1, r0
 1533 0558 2800     		movs	r0, r5
 1534 055a FFF7FEFF 		bl	smtc_real_get_symbol_duration_us
 1535 055e FA25     		movs	r5, #250
 1536 0560 AD00     		lsls	r5, r5, #2
 1537 0562 A842     		cmp	r0, r5
 1538 0564 1ED2     		bcs	.L140
 1539              	.L143:
 1540 0566 A568     		ldr	r5, [r4, #8]
 1541 0568 2800     		movs	r0, r5
 1542 056a FFF7FEFF 		bl	smtc_real_get_beacon_dr
 1543 056e 0100     		movs	r1, r0
 1544 0570 2800     		movs	r0, r5
 1545 0572 FFF7FEFF 		bl	smtc_real_get_symbol_duration_us
 1546 0576 FA25     		movs	r5, #250
 1547 0578 0121     		movs	r1, #1
 1548 057a AD00     		lsls	r5, r5, #2
 1549 057c A842     		cmp	r0, r5
 1550 057e 0BD3     		bcc	.L142
 1551 0580 A668     		ldr	r6, [r4, #8]
 1552 0582 3000     		movs	r0, r6
 1553 0584 FFF7FEFF 		bl	smtc_real_get_beacon_dr
 1554 0588 0100     		movs	r1, r0
 1555 058a 3000     		movs	r0, r6
 1556 058c FFF7FEFF 		bl	smtc_real_get_symbol_duration_us
 1557 0590 2900     		movs	r1, r5
 1558 0592 FFF7FEFF 		bl	__aeabi_uidiv
 1559 0596 0100     		movs	r1, r0
 1560              	.L142:
 1561 0598 FA20     		movs	r0, #250
 1562 059a C000     		lsls	r0, r0, #3
 1563 059c FFF7FEFF 		bl	__aeabi_uidiv
 1564 05a0 0590     		str	r0, [sp, #20]
 1565 05a2 13E0     		b	.L144
 1566              	.L140:
 1567 05a4 A668     		ldr	r6, [r4, #8]
 1568 05a6 3000     		movs	r0, r6
 1569 05a8 FFF7FEFF 		bl	smtc_real_get_beacon_dr
 1570 05ac 0100     		movs	r1, r0
 1571 05ae 3000     		movs	r0, r6
 1572 05b0 FFF7FEFF 		bl	smtc_real_get_symbol_duration_us
 1573 05b4 2900     		movs	r1, r5
 1574 05b6 FFF7FEFF 		bl	__aeabi_uidiv
 1575 05ba 0100     		movs	r1, r0
 1576 05bc FA20     		movs	r0, #250
 1577 05be C000     		lsls	r0, r0, #3
 1578 05c0 FFF7FEFF 		bl	__aeabi_uidiv
ARM GAS  /tmp/ccfhiFMo.s 			page 30


 1579 05c4 0628     		cmp	r0, #6
 1580 05c6 CED8     		bhi	.L143
 1581 05c8 0623     		movs	r3, #6
 1582 05ca 0593     		str	r3, [sp, #20]
 1583              	.L144:
 1584 05cc A568     		ldr	r5, [r4, #8]
 1585 05ce 2800     		movs	r0, r5
 1586 05d0 FFF7FEFF 		bl	smtc_real_get_beacon_dr
 1587 05d4 0100     		movs	r1, r0
 1588 05d6 2800     		movs	r0, r5
 1589 05d8 FFF7FEFF 		bl	smtc_real_get_symbol_duration_us
 1590 05dc FA25     		movs	r5, #250
 1591 05de AD00     		lsls	r5, r5, #2
 1592 05e0 A842     		cmp	r0, r5
 1593 05e2 2BD2     		bcs	.L145
 1594              	.L147:
 1595 05e4 FF20     		movs	r0, #255
 1596              	.L146:
 1597 05e6 FA25     		movs	r5, #250
 1598 05e8 059B     		ldr	r3, [sp, #20]
 1599 05ea A668     		ldr	r6, [r4, #8]
 1600 05ec AD00     		lsls	r5, r5, #2
 1601 05ee 8342     		cmp	r3, r0
 1602 05f0 00D3     		bcc	.LCB1656
 1603 05f2 B7E0     		b	.L149	@long jump
 1604              	.LCB1656:
 1605 05f4 3000     		movs	r0, r6
 1606 05f6 FFF7FEFF 		bl	smtc_real_get_beacon_dr
 1607 05fa 0100     		movs	r1, r0
 1608 05fc 3000     		movs	r0, r6
 1609 05fe FFF7FEFF 		bl	smtc_real_get_symbol_duration_us
 1610 0602 A842     		cmp	r0, r5
 1611 0604 48D2     		bcs	.L150
 1612              	.L153:
 1613 0606 A568     		ldr	r5, [r4, #8]
 1614 0608 2800     		movs	r0, r5
 1615 060a FFF7FEFF 		bl	smtc_real_get_beacon_dr
 1616 060e 0100     		movs	r1, r0
 1617 0610 2800     		movs	r0, r5
 1618 0612 FFF7FEFF 		bl	smtc_real_get_symbol_duration_us
 1619 0616 FA25     		movs	r5, #250
 1620 0618 0121     		movs	r1, #1
 1621 061a AD00     		lsls	r5, r5, #2
 1622 061c A842     		cmp	r0, r5
 1623 061e 00D2     		bcs	.LCB1677
 1624 0620 C7E0     		b	.L156	@long jump
 1625              	.LCB1677:
 1626              	.L194:
 1627 0622 A668     		ldr	r6, [r4, #8]
 1628 0624 3000     		movs	r0, r6
 1629 0626 FFF7FEFF 		bl	smtc_real_get_beacon_dr
 1630 062a 0100     		movs	r1, r0
 1631 062c 3000     		movs	r0, r6
 1632 062e FFF7FEFF 		bl	smtc_real_get_symbol_duration_us
 1633 0632 2900     		movs	r1, r5
 1634 0634 FFF7FEFF 		bl	__aeabi_uidiv
 1635 0638 0100     		movs	r1, r0
ARM GAS  /tmp/ccfhiFMo.s 			page 31


 1636 063a BAE0     		b	.L156
 1637              	.L145:
 1638 063c A668     		ldr	r6, [r4, #8]
 1639 063e 3000     		movs	r0, r6
 1640 0640 FFF7FEFF 		bl	smtc_real_get_beacon_dr
 1641 0644 0100     		movs	r1, r0
 1642 0646 3000     		movs	r0, r6
 1643 0648 FFF7FEFF 		bl	smtc_real_get_symbol_duration_us
 1644 064c 2900     		movs	r1, r5
 1645 064e FFF7FEFF 		bl	__aeabi_uidiv
 1646 0652 0100     		movs	r1, r0
 1647 0654 FA20     		movs	r0, #250
 1648 0656 C000     		lsls	r0, r0, #3
 1649 0658 FFF7FEFF 		bl	__aeabi_uidiv
 1650 065c FE28     		cmp	r0, #254
 1651 065e C1D8     		bhi	.L147
 1652 0660 A668     		ldr	r6, [r4, #8]
 1653 0662 3000     		movs	r0, r6
 1654 0664 FFF7FEFF 		bl	smtc_real_get_beacon_dr
 1655 0668 0100     		movs	r1, r0
 1656 066a 3000     		movs	r0, r6
 1657 066c FFF7FEFF 		bl	smtc_real_get_symbol_duration_us
 1658 0670 0121     		movs	r1, #1
 1659 0672 A842     		cmp	r0, r5
 1660 0674 0BD3     		bcc	.L148
 1661 0676 A668     		ldr	r6, [r4, #8]
 1662 0678 3000     		movs	r0, r6
 1663 067a FFF7FEFF 		bl	smtc_real_get_beacon_dr
 1664 067e 0100     		movs	r1, r0
 1665 0680 3000     		movs	r0, r6
 1666 0682 FFF7FEFF 		bl	smtc_real_get_symbol_duration_us
 1667 0686 2900     		movs	r1, r5
 1668 0688 FFF7FEFF 		bl	__aeabi_uidiv
 1669 068c 0100     		movs	r1, r0
 1670              	.L148:
 1671 068e FA20     		movs	r0, #250
 1672 0690 C000     		lsls	r0, r0, #3
 1673 0692 FFF7FEFF 		bl	__aeabi_uidiv
 1674 0696 A6E7     		b	.L146
 1675              	.L150:
 1676 0698 A668     		ldr	r6, [r4, #8]
 1677 069a 3000     		movs	r0, r6
 1678 069c FFF7FEFF 		bl	smtc_real_get_beacon_dr
 1679 06a0 0100     		movs	r1, r0
 1680 06a2 3000     		movs	r0, r6
 1681 06a4 FFF7FEFF 		bl	smtc_real_get_symbol_duration_us
 1682 06a8 2900     		movs	r1, r5
 1683 06aa FFF7FEFF 		bl	__aeabi_uidiv
 1684 06ae 0100     		movs	r1, r0
 1685 06b0 FA20     		movs	r0, #250
 1686 06b2 C000     		lsls	r0, r0, #3
 1687 06b4 FFF7FEFF 		bl	__aeabi_uidiv
 1688 06b8 0628     		cmp	r0, #6
 1689 06ba A4D8     		bhi	.L153
 1690 06bc 0620     		movs	r0, #6
 1691              	.L139:
 1692 06be 2086     		strh	r0, [r4, #48]
ARM GAS  /tmp/ccfhiFMo.s 			page 32


 1693              	.L118:
 1694 06c0 637B     		ldrb	r3, [r4, #13]
 1695 06c2 002B     		cmp	r3, #0
 1696 06c4 0ED0     		beq	.L157
 1697 06c6 2600     		movs	r6, r4
 1698 06c8 2936     		adds	r6, r6, #41
 1699 06ca 3278     		ldrb	r2, [r6]
 1700 06cc 4E49     		ldr	r1, .L202
 1701 06ce 4F48     		ldr	r0, .L202+4
 1702 06d0 FFF7FEFF 		bl	smtc_modem_hal_print_trace
 1703 06d4 0025     		movs	r5, #0
 1704              	.L158:
 1705 06d6 3378     		ldrb	r3, [r6]
 1706 06d8 9D42     		cmp	r5, r3
 1707 06da 00D2     		bcs	.LCB1771
 1708 06dc 6EE0     		b	.L160	@long jump
 1709              	.LCB1771:
 1710 06de 4C48     		ldr	r0, .L202+8
 1711 06e0 FFF7FEFF 		bl	smtc_modem_hal_print_trace
 1712              	.L157:
 1713 06e4 636C     		ldr	r3, [r4, #68]
 1714 06e6 E26B     		ldr	r2, [r4, #60]
 1715 06e8 A16C     		ldr	r1, [r4, #72]
 1716 06ea 4A48     		ldr	r0, .L202+12
 1717 06ec FFF7FEFF 		bl	smtc_modem_hal_print_trace
 1718 06f0 4948     		ldr	r0, .L202+16
 1719 06f2 FFF7FEFF 		bl	smtc_modem_hal_print_trace
 1720 06f6 238E     		ldrh	r3, [r4, #48]
 1721 06f8 4848     		ldr	r0, .L202+20
 1722 06fa 0293     		str	r3, [sp, #8]
 1723 06fc 2300     		movs	r3, r4
 1724 06fe 6C33     		adds	r3, r3, #108
 1725 0700 1B78     		ldrb	r3, [r3]
 1726 0702 0193     		str	r3, [sp, #4]
 1727 0704 636E     		ldr	r3, [r4, #100]
 1728 0706 0093     		str	r3, [sp]
 1729 0708 236E     		ldr	r3, [r4, #96]
 1730 070a E26D     		ldr	r2, [r4, #92]
 1731 070c A16D     		ldr	r1, [r4, #88]
 1732 070e FFF7FEFF 		bl	smtc_modem_hal_print_trace
 1733 0712 4348     		ldr	r0, .L202+24
 1734 0714 FFF7FEFF 		bl	smtc_modem_hal_print_trace
 1735 0718 3B78     		ldrb	r3, [r7]
 1736 071a 012B     		cmp	r3, #1
 1737 071c 5ED1     		bne	.L161
 1738 071e A268     		ldr	r2, [r4, #8]
 1739 0720 404B     		ldr	r3, .L202+28
 1740 0722 D35C     		ldrb	r3, [r2, r3]
 1741 0724 032B     		cmp	r3, #3
 1742 0726 59D1     		bne	.L161
 1743 0728 A56C     		ldr	r5, [r4, #72]
 1744 072a 0A21     		movs	r1, #10
 1745 072c 2800     		movs	r0, r5
 1746 072e FFF7FEFF 		bl	__aeabi_uidiv
 1747 0732 E36A     		ldr	r3, [r4, #44]
 1748 0734 616C     		ldr	r1, [r4, #68]
 1749 0736 0193     		str	r3, [sp, #4]
ARM GAS  /tmp/ccfhiFMo.s 			page 33


 1750 0738 3B4B     		ldr	r3, .L202+32
 1751 073a 0200     		movs	r2, r0
 1752 073c 0093     		str	r3, [sp]
 1753 073e 2068     		ldr	r0, [r4]
 1754 0740 3A4B     		ldr	r3, .L202+36
 1755 0742 691A     		subs	r1, r5, r1
 1756 0744 FFF7FEFF 		bl	smtc_ping_slot_init_after_beacon
 1757 0748 2068     		ldr	r0, [r4]
 1758 074a FFF7FEFF 		bl	smtc_ping_slot_start
 1759              	.L162:
 1760 074e E36A     		ldr	r3, [r4, #44]
 1761 0750 2000     		movs	r0, r4
 1762 0752 8033     		adds	r3, r3, #128
 1763 0754 E362     		str	r3, [r4, #44]
 1764 0756 3B78     		ldrb	r3, [r7]
 1765 0758 002B     		cmp	r3, #0
 1766 075a 46D1     		bne	.L163
 1767 075c FFF7FEFF 		bl	smtc_beacon_sniff_start
 1768              	.L93:
 1769 0760 0BB0     		add	sp, sp, #44
 1770              		@ sp needed
 1771 0762 F0BD     		pop	{r4, r5, r6, r7, pc}
 1772              	.L149:
 1773 0764 3000     		movs	r0, r6
 1774 0766 FFF7FEFF 		bl	smtc_real_get_beacon_dr
 1775 076a 0100     		movs	r1, r0
 1776 076c 3000     		movs	r0, r6
 1777 076e FFF7FEFF 		bl	smtc_real_get_symbol_duration_us
 1778 0772 69E5     		b	.L199
 1779              	.L154:
 1780 0774 A668     		ldr	r6, [r4, #8]
 1781 0776 3000     		movs	r0, r6
 1782 0778 FFF7FEFF 		bl	smtc_real_get_beacon_dr
 1783 077c 0100     		movs	r1, r0
 1784 077e 3000     		movs	r0, r6
 1785 0780 FFF7FEFF 		bl	smtc_real_get_symbol_duration_us
 1786 0784 2900     		movs	r1, r5
 1787 0786 FFF7FEFF 		bl	__aeabi_uidiv
 1788 078a 0100     		movs	r1, r0
 1789 078c FA20     		movs	r0, #250
 1790 078e C000     		lsls	r0, r0, #3
 1791 0790 FFF7FEFF 		bl	__aeabi_uidiv
 1792 0794 FE28     		cmp	r0, #254
 1793 0796 00D9     		bls	.LCB1869
 1794 0798 59E5     		b	.L155	@long jump
 1795              	.LCB1869:
 1796 079a A668     		ldr	r6, [r4, #8]
 1797 079c 3000     		movs	r0, r6
 1798 079e FFF7FEFF 		bl	smtc_real_get_beacon_dr
 1799 07a2 0100     		movs	r1, r0
 1800 07a4 3000     		movs	r0, r6
 1801 07a6 FFF7FEFF 		bl	smtc_real_get_symbol_duration_us
 1802 07aa 0121     		movs	r1, #1
 1803 07ac A842     		cmp	r0, r5
 1804 07ae 00D3     		bcc	.LCB1879
 1805 07b0 37E7     		b	.L194	@long jump
 1806              	.LCB1879:
ARM GAS  /tmp/ccfhiFMo.s 			page 34


 1807              	.L156:
 1808 07b2 FA20     		movs	r0, #250
 1809 07b4 C000     		lsls	r0, r0, #3
 1810 07b6 FFF7FEFF 		bl	__aeabi_uidiv
 1811 07ba 98E6     		b	.L192
 1812              	.L160:
 1813 07bc 0F23     		movs	r3, #15
 1814 07be 1D42     		tst	r5, r3
 1815 07c0 04D1     		bne	.L159
 1816 07c2 002D     		cmp	r5, #0
 1817 07c4 02D0     		beq	.L159
 1818 07c6 1248     		ldr	r0, .L202+8
 1819 07c8 FFF7FEFF 		bl	smtc_modem_hal_print_trace
 1820              	.L159:
 1821 07cc 2300     		movs	r3, r4
 1822 07ce 1033     		adds	r3, r3, #16
 1823 07d0 595D     		ldrb	r1, [r3, r5]
 1824 07d2 1748     		ldr	r0, .L202+40
 1825 07d4 FFF7FEFF 		bl	smtc_modem_hal_print_trace
 1826 07d8 0135     		adds	r5, r5, #1
 1827 07da 7CE7     		b	.L158
 1828              	.L161:
 1829 07dc 1548     		ldr	r0, .L202+44
 1830 07de FFF7FEFF 		bl	smtc_modem_hal_print_trace
 1831 07e2 2068     		ldr	r0, [r4]
 1832 07e4 FFF7FEFF 		bl	smtc_ping_slot_stop
 1833 07e8 B1E7     		b	.L162
 1834              	.L163:
 1835 07ea FFF7FEFF 		bl	beacon_rp_request
 1836 07ee A068     		ldr	r0, [r4, #8]
 1837 07f0 FFF7FEFF 		bl	lr1mac_core_get_status_push_network_downlink_to_user
 1838 07f4 0028     		cmp	r0, #0
 1839 07f6 B3D0     		beq	.L93
 1840 07f8 2300     		movs	r3, r4
 1841 07fa 0D22     		movs	r2, #13
 1842 07fc 7933     		adds	r3, r3, #121
 1843 07fe 1A70     		strb	r2, [r3]
 1844 0800 236D     		ldr	r3, [r4, #80]
 1845 0802 606D     		ldr	r0, [r4, #84]
 1846 0804 9847     		blx	r3
 1847 0806 ABE7     		b	.L93
 1848              	.L203:
 1849              		.align	2
 1850              	.L202:
 1851 0808 B6000000 		.word	.LC36
 1852 080c C6000000 		.word	.LC38
 1853 0810 D9000000 		.word	.LC40
 1854 0814 E1000000 		.word	.LC44
 1855 0818 2D010000 		.word	.LC46
 1856 081c 5C010000 		.word	.LC48
 1857 0820 01020000 		.word	.LC50
 1858 0824 46050000 		.word	1350
 1859 0828 B80B0000 		.word	3000
 1860 082c 48080000 		.word	2120
 1861 0830 DB000000 		.word	.LC42
 1862 0834 31020000 		.word	.LC52
 1864              		.section	.text.smtc_decode_beacon_param,"ax",%progbits
ARM GAS  /tmp/ccfhiFMo.s 			page 35


 1865              		.align	1
 1866              		.global	smtc_decode_beacon_param
 1867              		.syntax unified
 1868              		.code	16
 1869              		.thumb_func
 1871              	smtc_decode_beacon_param:
 1872              		@ args = 0, pretend = 0, frame = 0
 1873              		@ frame_needed = 0, uses_anonymous_args = 0
 1874              		@ link register save eliminated.
 1875 0000 4018     		adds	r0, r0, r1
 1876 0002 0838     		subs	r0, r0, #8
 1877 0004 0078     		ldrb	r0, [r0]
 1878              		@ sp needed
 1879 0006 7047     		bx	lr
 1881              		.section	.rodata.smtc_decode_beacon_gw_specific.str1.1,"aMS",%progbits,1
 1882              	.LC54:
 1883 0000 494E5641 		.ascii	"INVALID CRC GwSpecific\012\000"
 1883      4C494420 
 1883      43524320 
 1883      47775370 
 1883      65636966 
 1884              		.section	.text.smtc_decode_beacon_gw_specific,"ax",%progbits
 1885              		.align	1
 1886              		.global	smtc_decode_beacon_gw_specific
 1887              		.syntax unified
 1888              		.code	16
 1889              		.thumb_func
 1891              	smtc_decode_beacon_gw_specific:
 1892              		@ args = 0, pretend = 0, frame = 0
 1893              		@ frame_needed = 0, uses_anonymous_args = 0
 1894 0000 F8B5     		push	{r3, r4, r5, r6, r7, lr}
 1895 0002 0400     		movs	r4, r0
 1896 0004 0800     		movs	r0, r1
 1897 0006 0F00     		movs	r7, r1
 1898 0008 1600     		movs	r6, r2
 1899 000a FFF7FEFF 		bl	get_beacon_length
 1900 000e 2018     		adds	r0, r4, r0
 1901 0010 0238     		subs	r0, r0, #2
 1902 0012 0578     		ldrb	r5, [r0]
 1903 0014 3800     		movs	r0, r7
 1904 0016 FFF7FEFF 		bl	get_beacon_length
 1905 001a 2018     		adds	r0, r4, r0
 1906 001c 0138     		subs	r0, r0, #1
 1907 001e 0378     		ldrb	r3, [r0]
 1908 0020 3800     		movs	r0, r7
 1909 0022 1B02     		lsls	r3, r3, #8
 1910 0024 ED18     		adds	r5, r5, r3
 1911 0026 7B1E     		subs	r3, r7, #1
 1912 0028 E418     		adds	r4, r4, r3
 1913 002a FFF7FEFF 		bl	get_beacon_length
 1914 002e C11B     		subs	r1, r0, r7
 1915 0030 0131     		adds	r1, r1, #1
 1916 0032 89B2     		uxth	r1, r1
 1917 0034 ADB2     		uxth	r5, r5
 1918 0036 0029     		cmp	r1, #0
 1919 0038 03D0     		beq	.L206
 1920 003a 2000     		movs	r0, r4
ARM GAS  /tmp/ccfhiFMo.s 			page 36


 1921 003c FFF7FEFF 		bl	crc16_beacon.part.0
 1922 0040 0100     		movs	r1, r0
 1923              	.L206:
 1924 0042 8D42     		cmp	r5, r1
 1925 0044 09D0     		beq	.L207
 1926 0046 0848     		ldr	r0, .L212
 1927 0048 FFF7FEFF 		bl	smtc_modem_hal_print_trace
 1928 004c 0722     		movs	r2, #7
 1929 004e 0021     		movs	r1, #0
 1930 0050 3000     		movs	r0, r6
 1931 0052 FFF7FEFF 		bl	memset
 1932 0056 0020     		movs	r0, #0
 1933              	.L208:
 1934              		@ sp needed
 1935 0058 F8BD     		pop	{r3, r4, r5, r6, r7, pc}
 1936              	.L207:
 1937 005a 0722     		movs	r2, #7
 1938 005c 2100     		movs	r1, r4
 1939 005e 3000     		movs	r0, r6
 1940 0060 FFF7FEFF 		bl	memcpy
 1941 0064 0120     		movs	r0, #1
 1942 0066 F7E7     		b	.L208
 1943              	.L213:
 1944              		.align	2
 1945              	.L212:
 1946 0068 00000000 		.word	.LC54
 1948              		.section	.rodata.CSWTCH.66,"a"
 1951              	CSWTCH.66:
 1952 0000 13       		.byte	19
 1953 0001 11       		.byte	17
 1954 0002 13       		.byte	19
 1955 0003 15       		.byte	21
 1956 0004 17       		.byte	23
 1957              		.section	.rodata.__func__.0,"a"
 1960              	__func__.0:
 1961 0000 6765745F 		.ascii	"get_beacon_length\000"
 1961      62656163 
 1961      6F6E5F6C 
 1961      656E6774 
 1961      6800
 1962              		.section	.rodata.__func__.1,"a"
 1965              	__func__.1:
 1966 0000 736D7463 		.ascii	"smtc_beacon_sniff_launch_callback_for_rp\000"
 1966      5F626561 
 1966      636F6E5F 
 1966      736E6966 
 1966      665F6C61 
 1967              		.section	.rodata.__func__.2,"a"
 1970              	__func__.2:
 1971 0000 62656163 		.ascii	"beacon_rp_request\000"
 1971      6F6E5F72 
 1971      705F7265 
 1971      71756573 
 1971      7400
 1972              		.section	.rodata.__func__.3,"a"
 1975              	__func__.3:
 1976 0000 736D7463 		.ascii	"smtc_beacon_sniff_start\000"
ARM GAS  /tmp/ccfhiFMo.s 			page 37


 1976      5F626561 
 1976      636F6E5F 
 1976      736E6966 
 1976      665F7374 
 1977              		.ident	"GCC: (Arch Repository) 13.2.0"
ARM GAS  /tmp/ccfhiFMo.s 			page 38


DEFINED SYMBOLS
                            *ABS*:00000000 smtc_beacon_sniff.c
     /tmp/ccfhiFMo.s:14     .text.crc16_beacon.part.0:00000000 $t
     /tmp/ccfhiFMo.s:19     .text.crc16_beacon.part.0:00000000 crc16_beacon.part.0
     /tmp/ccfhiFMo.s:60     .text.crc16_beacon.part.0:0000003c $d
     /tmp/ccfhiFMo.s:70     .text.get_beacon_length:00000000 $t
     /tmp/ccfhiFMo.s:75     .text.get_beacon_length:00000000 get_beacon_length
     /tmp/ccfhiFMo.s:110    .text.get_beacon_length:00000044 $d
     /tmp/ccfhiFMo.s:1951   .rodata.CSWTCH.66:00000000 CSWTCH.66
     /tmp/ccfhiFMo.s:1960   .rodata.__func__.0:00000000 __func__.0
     /tmp/ccfhiFMo.s:121    .text.smtc_beacon_sniff_launch_callback_for_rp:00000000 $t
     /tmp/ccfhiFMo.s:126    .text.smtc_beacon_sniff_launch_callback_for_rp:00000000 smtc_beacon_sniff_launch_callback_for_rp
     /tmp/ccfhiFMo.s:218    .text.smtc_beacon_sniff_launch_callback_for_rp:000000b0 $d
     /tmp/ccfhiFMo.s:1965   .rodata.__func__.1:00000000 __func__.1
     /tmp/ccfhiFMo.s:227    .text.beacon_rp_request:00000000 $t
     /tmp/ccfhiFMo.s:232    .text.beacon_rp_request:00000000 beacon_rp_request
     /tmp/ccfhiFMo.s:393    .text.beacon_rp_request:00000168 $d
     /tmp/ccfhiFMo.s:483    .text.beacon_rp_request:000001f8 $d
     /tmp/ccfhiFMo.s:1970   .rodata.__func__.2:00000000 __func__.2
     /tmp/ccfhiFMo.s:488    .text.smtc_beacon_sniff_init:00000000 $t
     /tmp/ccfhiFMo.s:494    .text.smtc_beacon_sniff_init:00000000 smtc_beacon_sniff_init
     /tmp/ccfhiFMo.s:541    .text.smtc_beacon_sniff_init:00000058 $d
     /tmp/ccfhiFMo.s:887    .text.smtc_beacon_sniff_rp_callback:00000000 smtc_beacon_sniff_rp_callback
     /tmp/ccfhiFMo.s:545    .text.smtc_beacon_sniff_stop:00000000 $t
     /tmp/ccfhiFMo.s:551    .text.smtc_beacon_sniff_stop:00000000 smtc_beacon_sniff_stop
     /tmp/ccfhiFMo.s:571    .text.smtc_beacon_class_b_enable_service:00000000 $t
     /tmp/ccfhiFMo.s:577    .text.smtc_beacon_class_b_enable_service:00000000 smtc_beacon_class_b_enable_service
     /tmp/ccfhiFMo.s:602    .text.smtc_beacon_sniff_start:00000000 $t
     /tmp/ccfhiFMo.s:608    .text.smtc_beacon_sniff_start:00000000 smtc_beacon_sniff_start
     /tmp/ccfhiFMo.s:760    .text.smtc_beacon_sniff_start:00000140 $d
     /tmp/ccfhiFMo.s:1975   .rodata.__func__.3:00000000 __func__.3
     /tmp/ccfhiFMo.s:768    .text.smtc_beacon_sniff_get_metadata:00000000 $t
     /tmp/ccfhiFMo.s:774    .text.smtc_beacon_sniff_get_metadata:00000000 smtc_beacon_sniff_get_metadata
     /tmp/ccfhiFMo.s:791    .text.smtc_decode_beacon_epoch_time:00000000 $t
     /tmp/ccfhiFMo.s:797    .text.smtc_decode_beacon_epoch_time:00000000 smtc_decode_beacon_epoch_time
     /tmp/ccfhiFMo.s:843    .text.smtc_decode_beacon_epoch_time:0000004c $d
     /tmp/ccfhiFMo.s:881    .text.smtc_beacon_sniff_rp_callback:00000000 $t
     /tmp/ccfhiFMo.s:1342   .text.smtc_beacon_sniff_rp_callback:000003a4 $d
     /tmp/ccfhiFMo.s:1351   .text.smtc_beacon_sniff_rp_callback:000003c4 $t
     /tmp/ccfhiFMo.s:1851   .text.smtc_beacon_sniff_rp_callback:00000808 $d
     /tmp/ccfhiFMo.s:1865   .text.smtc_decode_beacon_param:00000000 $t
     /tmp/ccfhiFMo.s:1871   .text.smtc_decode_beacon_param:00000000 smtc_decode_beacon_param
     /tmp/ccfhiFMo.s:1885   .text.smtc_decode_beacon_gw_specific:00000000 $t
     /tmp/ccfhiFMo.s:1891   .text.smtc_decode_beacon_gw_specific:00000000 smtc_decode_beacon_gw_specific
     /tmp/ccfhiFMo.s:1946   .text.smtc_decode_beacon_gw_specific:00000068 $d
     /tmp/ccfhiFMo.s:406    .text.beacon_rp_request:00000175 $d
     /tmp/ccfhiFMo.s:406    .text.beacon_rp_request:00000176 $t

UNDEFINED SYMBOLS
smtc_modem_hal_store_crashlog
smtc_modem_hal_set_crashlog_status
smtc_modem_hal_print_trace
smtc_modem_hal_reset_mcu
rp_task_abort
smtc_modem_hal_start_radio_tcxo
smtc_modem_hal_assert_fail
smtc_modem_hal_get_time_in_ms
ARM GAS  /tmp/ccfhiFMo.s 			page 39


__aeabi_uidivmod
__aeabi_uidiv
memset
smtc_modem_hal_get_radio_tcxo_startup_delay_ms
smtc_modem_hal_get_board_delay_ms
smtc_real_get_beacon_dr
smtc_real_get_rx_start_time_offset_ms
smtc_real_get_symbol_duration_us
smtc_real_get_sync_word
smtc_real_get_coding_rate
smtc_real_lora_dr_to_sf_bw
smtc_real_get_beacon_frequency
__gnu_thumb1_case_uqi
rp_task_enqueue
rp_release_hook
rp_hook_init
smtc_ping_slot_stop
__aeabi_idiv
rp_hook_get_id
lr1mac_core_convert_rtc_to_gps_epoch_time
memcpy
smtc_real_get_rx_window_parameters
smtc_ping_slot_init_after_beacon
smtc_ping_slot_start
lr1mac_core_get_status_push_network_downlink_to_user
