ARM GAS  /tmp/ccQgeTV1.s 			page 1


   1              		.cpu cortex-m0
   2              		.arch armv6s-m
   3              		.fpu softvfp
   4              		.eabi_attribute 23, 1
   5              		.eabi_attribute 24, 1
   6              		.eabi_attribute 25, 1
   7              		.eabi_attribute 26, 1
   8              		.eabi_attribute 30, 4
   9              		.eabi_attribute 34, 0
  10              		.eabi_attribute 18, 4
  11              		.file	"smtc_modem.c"
  12              		.text
  13              		.section	.text.empty_callback,"ax",%progbits
  14              		.align	1
  15              		.global	empty_callback
  16              		.syntax unified
  17              		.code	16
  18              		.thumb_func
  20              	empty_callback:
  21              		@ args = 0, pretend = 0, frame = 0
  22              		@ frame_needed = 0, uses_anonymous_args = 0
  23              		@ link register save eliminated.
  24              		@ sp needed
  25 0000 7047     		bx	lr
  27              		.section	.rodata.is_modem_connected.str1.1,"aMS",%progbits,1
  28              	.LC1:
  29 0000 1B5B303B 		.ascii	"\033[0;31mERROR: %s Modem is muted for %d day(s)\012"
  29      33316D45 
  29      52524F52 
  29      3A202573 
  29      204D6F64 
  30 002e 0D00     		.ascii	"\015\000"
  31              	.LC3:
  32 0030 1B5B306D 		.ascii	"\033[0m\000"
  32      00
  33              	.LC5:
  34 0035 1B5B303B 		.ascii	"\033[0;31mERROR: %s Modem is suspend\012\015\000"
  34      33316D45 
  34      52524F52 
  34      3A202573 
  34      204D6F64 
  35              	.LC7:
  36 0059 1B5B303B 		.ascii	"\033[0;31mERROR: %s Stack not joined or OTA device "
  36      33316D45 
  36      52524F52 
  36      3A202573 
  36      20537461 
  37 0089 2564200A 		.ascii	"%d \012\015\000"
  37      0D00
  38              		.section	.text.is_modem_connected,"ax",%progbits
  39              		.align	1
  40              		.syntax unified
  41              		.code	16
  42              		.thumb_func
  44              	is_modem_connected:
  45              		@ args = 0, pretend = 0, frame = 0
  46              		@ frame_needed = 0, uses_anonymous_args = 0
ARM GAS  /tmp/ccQgeTV1.s 			page 2


  47 0000 10B5     		push	{r4, lr}
  48 0002 FFF7FEFF 		bl	get_modem_muted
  49 0006 0028     		cmp	r0, #0
  50 0008 08D0     		beq	.L3
  51 000a FFF7FEFF 		bl	dm_get_number_of_days_mute
  52 000e 0200     		movs	r2, r0
  53 0010 1149     		ldr	r1, .L11
  54 0012 124B     		ldr	r3, .L11+4
  55              	.L10:
  56 0014 1800     		movs	r0, r3
  57 0016 FFF7FEFF 		bl	smtc_modem_hal_print_trace
  58 001a 07E0     		b	.L9
  59              	.L3:
  60 001c FFF7FEFF 		bl	get_modem_suspend
  61 0020 0128     		cmp	r0, #1
  62 0022 08D1     		bne	.L5
  63 0024 0C49     		ldr	r1, .L11
  64 0026 0E48     		ldr	r0, .L11+8
  65 0028 FFF7FEFF 		bl	smtc_modem_hal_print_trace
  66              	.L9:
  67 002c 0D48     		ldr	r0, .L11+12
  68 002e FFF7FEFF 		bl	smtc_modem_hal_print_trace
  69 0032 0020     		movs	r0, #0
  70              	.L6:
  71              		@ sp needed
  72 0034 10BD     		pop	{r4, pc}
  73              	.L5:
  74 0036 FFF7FEFF 		bl	get_join_state
  75 003a 0228     		cmp	r0, #2
  76 003c 01D1     		bne	.L7
  77              	.L8:
  78 003e 0120     		movs	r0, #1
  79 0040 F8E7     		b	.L6
  80              	.L7:
  81 0042 FFF7FEFF 		bl	lorawan_api_get_activation_mode
  82 0046 0028     		cmp	r0, #0
  83 0048 F9D1     		bne	.L8
  84 004a FFF7FEFF 		bl	get_join_state
  85 004e 0249     		ldr	r1, .L11
  86 0050 0200     		movs	r2, r0
  87 0052 054B     		ldr	r3, .L11+16
  88 0054 DEE7     		b	.L10
  89              	.L12:
  90 0056 C046     		.align	2
  91              	.L11:
  92 0058 00000000 		.word	__func__.13
  93 005c 00000000 		.word	.LC1
  94 0060 35000000 		.word	.LC5
  95 0064 30000000 		.word	.LC3
  96 0068 59000000 		.word	.LC7
  98              		.section	.rodata.user_radio_access_callback.str1.1,"aMS",%progbits,1
  99              	.LC11:
 100 0000 1B5B303B 		.ascii	"\033[0;32mINFO: User radio access callback: ignored"
 100      33326D49 
 100      4E464F3A 
 100      20557365 
 100      72207261 
ARM GAS  /tmp/ccQgeTV1.s 			page 3


 101 0030 2041424F 		.ascii	" ABORTED status \012\015\000"
 101      52544544 
 101      20737461 
 101      74757320 
 101      0A0D00
 102              		.section	.text.user_radio_access_callback,"ax",%progbits
 103              		.align	1
 104              		.global	user_radio_access_callback
 105              		.syntax unified
 106              		.code	16
 107              		.thumb_func
 109              	user_radio_access_callback:
 110              		@ args = 0, pretend = 0, frame = 0
 111              		@ frame_needed = 0, uses_anonymous_args = 0
 112 0000 10B5     		push	{r4, lr}
 113 0002 0B4B     		ldr	r3, .L16
 114 0004 0B4C     		ldr	r4, .L16+4
 115 0006 C15C     		ldrb	r1, [r0, r3]
 116 0008 0B4A     		ldr	r2, .L16+8
 117 000a 2300     		movs	r3, r4
 118 000c FFF7FEFF 		bl	rp_get_status
 119 0010 2378     		ldrb	r3, [r4]
 120 0012 0A2B     		cmp	r3, #10
 121 0014 06D1     		bne	.L14
 122 0016 0948     		ldr	r0, .L16+12
 123 0018 FFF7FEFF 		bl	smtc_modem_hal_print_trace
 124 001c 0848     		ldr	r0, .L16+16
 125 001e FFF7FEFF 		bl	smtc_modem_hal_print_trace
 126              	.L13:
 127              		@ sp needed
 128 0022 10BD     		pop	{r4, pc}
 129              	.L14:
 130 0024 0021     		movs	r1, #0
 131 0026 1220     		movs	r0, #18
 132 0028 FFF7FEFF 		bl	increment_asynchronous_msgnumber
 133 002c F9E7     		b	.L13
 134              	.L17:
 135 002e C046     		.align	2
 136              	.L16:
 137 0030 84090000 		.word	2436
 138 0034 00000000 		.word	user_radio_irq_status
 139 0038 00000000 		.word	user_radio_irq_timestamp
 140 003c 00000000 		.word	.LC11
 141 0040 30000000 		.word	.LC3
 143              		.section	.rodata.smtc_modem_send_tx.constprop.0.str1.1,"aMS",%progbits,1
 144              	.LC15:
 145 0000 1B5B303B 		.ascii	"\033[0;31mERROR: %s port %d is forbidden \012\015\000"
 145      33316D45 
 145      52524F52 
 145      3A202573 
 145      20706F72 
 146              		.section	.text.smtc_modem_send_tx.constprop.0,"ax",%progbits
 147              		.align	1
 148              		.syntax unified
 149              		.code	16
 150              		.thumb_func
 152              	smtc_modem_send_tx.constprop.0:
ARM GAS  /tmp/ccQgeTV1.s 			page 4


 153              		@ args = 4, pretend = 0, frame = 32
 154              		@ frame_needed = 0, uses_anonymous_args = 0
 155 0000 F0B5     		push	{r4, r5, r6, r7, lr}
 156 0002 89B0     		sub	sp, sp, #36
 157 0004 1E00     		movs	r6, r3
 158 0006 0EAB     		add	r3, sp, #56
 159 0008 0500     		movs	r5, r0
 160 000a 1F78     		ldrb	r7, [r3]
 161 000c 0091     		str	r1, [sp]
 162 000e 0192     		str	r2, [sp, #4]
 163 0010 FFF7FEFF 		bl	is_modem_connected
 164 0014 0028     		cmp	r0, #0
 165 0016 35D0     		beq	.L19
 166 0018 6B1E     		subs	r3, r5, #1
 167 001a DBB2     		uxtb	r3, r3
 168 001c DE2B     		cmp	r3, #222
 169 001e 0ED8     		bhi	.L20
 170              	.L23:
 171 0020 FFF7FEFF 		bl	get_modem_dm_port
 172 0024 8542     		cmp	r5, r0
 173 0026 0FD1     		bne	.L33
 174              	.L21:
 175 0028 2A00     		movs	r2, r5
 176 002a 1949     		ldr	r1, .L34
 177 002c 1948     		ldr	r0, .L34+4
 178 002e FFF7FEFF 		bl	smtc_modem_hal_print_trace
 179 0032 1948     		ldr	r0, .L34+8
 180 0034 FFF7FEFF 		bl	smtc_modem_hal_print_trace
 181 0038 0420     		movs	r0, #4
 182              	.L24:
 183 003a 09B0     		add	sp, sp, #36
 184              		@ sp needed
 185 003c F0BD     		pop	{r4, r5, r6, r7, pc}
 186              	.L20:
 187 003e FFF7FEFF 		bl	lorawan_api_modem_certification_is_enabled
 188 0042 0028     		cmp	r0, #0
 189 0044 ECD1     		bne	.L23
 190 0046 EFE7     		b	.L21
 191              	.L33:
 192 0048 03AC     		add	r4, sp, #12
 193 004a 002F     		cmp	r7, #0
 194 004c 1CD0     		beq	.L25
 195 004e 0020     		movs	r0, #0
 196 0050 2072     		strb	r0, [r4, #8]
 197 0052 FFF7FEFF 		bl	lorawan_api_duty_cycle_enable_set
 198              	.L26:
 199 0056 114F     		ldr	r7, .L34+12
 200 0058 3200     		movs	r2, r6
 201 005a 0199     		ldr	r1, [sp, #4]
 202 005c 3800     		movs	r0, r7
 203 005e FFF7FEFF 		bl	memcpy
 204 0062 0023     		movs	r3, #0
 205 0064 2370     		strb	r3, [r4]
 206 0066 0133     		adds	r3, r3, #1
 207 0068 A372     		strb	r3, [r4, #10]
 208 006a 009B     		ldr	r3, [sp]
 209 006c E760     		str	r7, [r4, #12]
ARM GAS  /tmp/ccQgeTV1.s 			page 5


 210 006e 6572     		strb	r5, [r4, #9]
 211 0070 6374     		strb	r3, [r4, #17]
 212 0072 2674     		strb	r6, [r4, #16]
 213 0074 FFF7FEFF 		bl	smtc_modem_hal_get_time_in_s
 214 0078 6060     		str	r0, [r4, #4]
 215 007a 2000     		movs	r0, r4
 216 007c FFF7FEFF 		bl	modem_supervisor_add_task
 217 0080 0028     		cmp	r0, #0
 218 0082 DAD0     		beq	.L24
 219              	.L19:
 220 0084 0620     		movs	r0, #6
 221 0086 D8E7     		b	.L24
 222              	.L25:
 223 0088 0123     		movs	r3, #1
 224 008a 2372     		strb	r3, [r4, #8]
 225 008c E3E7     		b	.L26
 226              	.L35:
 227 008e C046     		.align	2
 228              	.L34:
 229 0090 00000000 		.word	__func__.2
 230 0094 00000000 		.word	.LC15
 231 0098 30000000 		.word	.LC3
 232 009c 00000000 		.word	modem_buffer
 234              		.section	.rodata.smtc_modem_init.str1.1,"aMS",%progbits,1
 235              	.LC19:
 236 0000 1B5B303B 		.ascii	"\033[0;32mINFO: Modem Initialization\012\015\000"
 236      33326D49 
 236      4E464F3A 
 236      204D6F64 
 236      656D2049 
 237              		.section	.text.smtc_modem_init,"ax",%progbits
 238              		.align	1
 239              		.global	smtc_modem_init
 240              		.syntax unified
 241              		.code	16
 242              		.thumb_func
 244              	smtc_modem_init:
 245              		@ args = 0, pretend = 0, frame = 0
 246              		@ frame_needed = 0, uses_anonymous_args = 0
 247 0000 70B5     		push	{r4, r5, r6, lr}
 248 0002 0500     		movs	r5, r0
 249              		@ sp needed
 250 0004 0E00     		movs	r6, r1
 251 0006 2148     		ldr	r0, .L37
 252 0008 FFF7FEFF 		bl	smtc_modem_hal_print_trace
 253 000c 2048     		ldr	r0, .L37+4
 254 000e FFF7FEFF 		bl	smtc_modem_hal_print_trace
 255 0012 AB68     		ldr	r3, [r5, #8]
 256 0014 2868     		ldr	r0, [r5]
 257 0016 9847     		blx	r3
 258 0018 EB68     		ldr	r3, [r5, #12]
 259 001a 2868     		ldr	r0, [r5]
 260 001c 9847     		blx	r3
 261 001e 6B69     		ldr	r3, [r5, #20]
 262 0020 0121     		movs	r1, #1
 263 0022 2868     		ldr	r0, [r5]
 264 0024 9847     		blx	r3
ARM GAS  /tmp/ccQgeTV1.s 			page 6


 265 0026 2868     		ldr	r0, [r5]
 266 0028 FFF7FEFF 		bl	modem_context_set_modem_radio_ctx
 267 002c 194C     		ldr	r4, .L37+8
 268 002e 2900     		movs	r1, r5
 269 0030 2000     		movs	r0, r4
 270 0032 FFF7FEFF 		bl	rp_init
 271 0036 2100     		movs	r1, r4
 272 0038 1748     		ldr	r0, .L37+12
 273 003a FFF7FEFF 		bl	smtc_modem_hal_irq_config_radio_irq
 274 003e 2300     		movs	r3, r4
 275 0040 0221     		movs	r1, #2
 276 0042 2000     		movs	r0, r4
 277 0044 154A     		ldr	r2, .L37+16
 278 0046 FFF7FEFF 		bl	rp_hook_init
 279 004a 2300     		movs	r3, r4
 280 004c 0021     		movs	r1, #0
 281 004e 2000     		movs	r0, r4
 282 0050 134A     		ldr	r2, .L37+20
 283 0052 FFF7FEFF 		bl	rp_hook_init
 284 0056 2300     		movs	r3, r4
 285 0058 0121     		movs	r1, #1
 286 005a 2000     		movs	r0, r4
 287 005c 114A     		ldr	r2, .L37+24
 288 005e FFF7FEFF 		bl	rp_hook_init
 289 0062 2300     		movs	r3, r4
 290 0064 0821     		movs	r1, #8
 291 0066 2000     		movs	r0, r4
 292 0068 0F4A     		ldr	r2, .L37+28
 293 006a FFF7FEFF 		bl	rp_hook_init
 294 006e 2300     		movs	r3, r4
 295 0070 0921     		movs	r1, #9
 296 0072 2000     		movs	r0, r4
 297 0074 0D4A     		ldr	r2, .L37+32
 298 0076 FFF7FEFF 		bl	rp_hook_init
 299 007a 3000     		movs	r0, r6
 300 007c 2100     		movs	r1, r4
 301 007e 0C4A     		ldr	r2, .L37+36
 302 0080 FFF7FEFF 		bl	modem_supervisor_init
 303 0084 FFF7FEFF 		bl	smtc_secure_element_init
 304 0088 70BD     		pop	{r4, r5, r6, pc}
 305              	.L38:
 306 008a C046     		.align	2
 307              	.L37:
 308 008c 00000000 		.word	.LC19
 309 0090 30000000 		.word	.LC3
 310 0094 00000000 		.word	modem_radio_planner
 311 0098 00000000 		.word	rp_radio_irq_callback
 312 009c 00000000 		.word	empty_callback
 313 00a0 00000000 		.word	user_radio_access_callback
 314 00a4 00000000 		.word	callback_rp_user_radio_access_0
 315 00a8 00000000 		.word	callback_rp_user_radio_access_1
 316 00ac 00000000 		.word	callback_rp_user_radio_access_2
 317 00b0 00000000 		.word	smtc_modem_services_ctx
 319              		.section	.text.smtc_modem_run_engine,"ax",%progbits
 320              		.align	1
 321              		.global	smtc_modem_run_engine
 322              		.syntax unified
ARM GAS  /tmp/ccQgeTV1.s 			page 7


 323              		.code	16
 324              		.thumb_func
 326              	smtc_modem_run_engine:
 327              		@ args = 0, pretend = 0, frame = 0
 328              		@ frame_needed = 0, uses_anonymous_args = 0
 329 0000 10B5     		push	{r4, lr}
 330 0002 FFF7FEFF 		bl	lorawan_api_get_fifo_obj
 331 0006 FFF7FEFF 		bl	fifo_ctrl_get_nb_elt
 332 000a C4B2     		uxtb	r4, r0
 333 000c 002C     		cmp	r4, #0
 334 000e 08D0     		beq	.L40
 335 0010 0021     		movs	r1, #0
 336 0012 0420     		movs	r0, #4
 337 0014 FFF7FEFF 		bl	increment_asynchronous_msgnumber
 338 0018 0022     		movs	r2, #0
 339 001a 2100     		movs	r1, r4
 340 001c 0420     		movs	r0, #4
 341 001e FFF7FEFF 		bl	set_modem_event_count_and_status
 342              	.L40:
 343              		@ sp needed
 344 0022 FFF7FEFF 		bl	modem_supervisor_engine
 345 0026 10BD     		pop	{r4, pc}
 347              		.section	.text.smtc_modem_get_modem_version,"ax",%progbits
 348              		.align	1
 349              		.global	smtc_modem_get_modem_version
 350              		.syntax unified
 351              		.code	16
 352              		.thumb_func
 354              	smtc_modem_get_modem_version:
 355              		@ args = 0, pretend = 0, frame = 0
 356              		@ frame_needed = 0, uses_anonymous_args = 0
 357 0000 10B5     		push	{r4, lr}
 358 0002 0400     		movs	r4, r0
 359 0004 FFF7FEFF 		bl	modem_get_test_mode_status
 360 0008 0300     		movs	r3, r0
 361 000a 0520     		movs	r0, #5
 362 000c 002B     		cmp	r3, #0
 363 000e 08D1     		bne	.L45
 364 0010 0138     		subs	r0, r0, #1
 365 0012 002C     		cmp	r4, #0
 366 0014 05D0     		beq	.L45
 367 0016 0322     		movs	r2, #3
 368 0018 A070     		strb	r0, [r4, #2]
 369 001a 1800     		movs	r0, r3
 370 001c 2270     		strb	r2, [r4]
 371 001e 013A     		subs	r2, r2, #1
 372 0020 6270     		strb	r2, [r4, #1]
 373              	.L45:
 374              		@ sp needed
 375 0022 10BD     		pop	{r4, pc}
 377              		.section	.text.smtc_modem_get_lorawan_version,"ax",%progbits
 378              		.align	1
 379              		.global	smtc_modem_get_lorawan_version
 380              		.syntax unified
 381              		.code	16
 382              		.thumb_func
 384              	smtc_modem_get_lorawan_version:
ARM GAS  /tmp/ccQgeTV1.s 			page 8


 385              		@ args = 0, pretend = 0, frame = 8
 386              		@ frame_needed = 0, uses_anonymous_args = 0
 387 0000 37B5     		push	{r0, r1, r2, r4, r5, lr}
 388 0002 0400     		movs	r4, r0
 389 0004 FFF7FEFF 		bl	modem_get_test_mode_status
 390 0008 0500     		movs	r5, r0
 391 000a 0520     		movs	r0, #5
 392 000c 002D     		cmp	r5, #0
 393 000e 0CD1     		bne	.L49
 394 0010 0138     		subs	r0, r0, #1
 395 0012 002C     		cmp	r4, #0
 396 0014 09D0     		beq	.L49
 397 0016 FFF7FEFF 		bl	lorawan_api_get_spec_version
 398 001a 020A     		lsrs	r2, r0, #8
 399 001c 030C     		lsrs	r3, r0, #16
 400 001e 2070     		strb	r0, [r4]
 401 0020 000E     		lsrs	r0, r0, #24
 402 0022 E070     		strb	r0, [r4, #3]
 403 0024 2800     		movs	r0, r5
 404 0026 6270     		strb	r2, [r4, #1]
 405 0028 A370     		strb	r3, [r4, #2]
 406              	.L49:
 407              		@ sp needed
 408 002a 3EBD     		pop	{r1, r2, r3, r4, r5, pc}
 410              		.section	.text.smtc_modem_get_regional_params_version,"ax",%progbits
 411              		.align	1
 412              		.global	smtc_modem_get_regional_params_version
 413              		.syntax unified
 414              		.code	16
 415              		.thumb_func
 417              	smtc_modem_get_regional_params_version:
 418              		@ args = 0, pretend = 0, frame = 8
 419              		@ frame_needed = 0, uses_anonymous_args = 0
 420 0000 37B5     		push	{r0, r1, r2, r4, r5, lr}
 421 0002 0400     		movs	r4, r0
 422 0004 FFF7FEFF 		bl	modem_get_test_mode_status
 423 0008 0500     		movs	r5, r0
 424 000a 0520     		movs	r0, #5
 425 000c 002D     		cmp	r5, #0
 426 000e 0CD1     		bne	.L53
 427 0010 0138     		subs	r0, r0, #1
 428 0012 002C     		cmp	r4, #0
 429 0014 09D0     		beq	.L53
 430 0016 FFF7FEFF 		bl	lorawan_api_get_regional_parameters_version
 431 001a 020A     		lsrs	r2, r0, #8
 432 001c 030C     		lsrs	r3, r0, #16
 433 001e 2070     		strb	r0, [r4]
 434 0020 000E     		lsrs	r0, r0, #24
 435 0022 E070     		strb	r0, [r4, #3]
 436 0024 2800     		movs	r0, r5
 437 0026 6270     		strb	r2, [r4, #1]
 438 0028 A370     		strb	r3, [r4, #2]
 439              	.L53:
 440              		@ sp needed
 441 002a 3EBD     		pop	{r1, r2, r3, r4, r5, pc}
 443              		.section	.text.smtc_modem_reset,"ax",%progbits
 444              		.align	1
ARM GAS  /tmp/ccQgeTV1.s 			page 9


 445              		.global	smtc_modem_reset
 446              		.syntax unified
 447              		.code	16
 448              		.thumb_func
 450              	smtc_modem_reset:
 451              		@ args = 0, pretend = 0, frame = 0
 452              		@ frame_needed = 0, uses_anonymous_args = 0
 453 0000 10B5     		push	{r4, lr}
 454 0002 FFF7FEFF 		bl	modem_get_test_mode_status
 455 0006 0400     		movs	r4, r0
 456 0008 0520     		movs	r0, #5
 457 000a 002C     		cmp	r4, #0
 458 000c 03D1     		bne	.L57
 459 000e 0438     		subs	r0, r0, #4
 460 0010 FFF7FEFF 		bl	set_modem_reset_requested
 461 0014 2000     		movs	r0, r4
 462              	.L57:
 463              		@ sp needed
 464 0016 10BD     		pop	{r4, pc}
 466              		.section	.text.smtc_modem_factory_reset,"ax",%progbits
 467              		.align	1
 468              		.global	smtc_modem_factory_reset
 469              		.syntax unified
 470              		.code	16
 471              		.thumb_func
 473              	smtc_modem_factory_reset:
 474              		@ args = 0, pretend = 0, frame = 0
 475              		@ frame_needed = 0, uses_anonymous_args = 0
 476 0000 10B5     		push	{r4, lr}
 477 0002 FFF7FEFF 		bl	modem_get_test_mode_status
 478 0006 0400     		movs	r4, r0
 479 0008 0520     		movs	r0, #5
 480 000a 002C     		cmp	r4, #0
 481 000c 07D1     		bne	.L60
 482 000e FFF7FEFF 		bl	lorawan_api_factory_reset
 483 0012 FFF7FEFF 		bl	modem_context_factory_reset
 484 0016 0120     		movs	r0, #1
 485 0018 FFF7FEFF 		bl	set_modem_reset_requested
 486 001c 2000     		movs	r0, r4
 487              	.L60:
 488              		@ sp needed
 489 001e 10BD     		pop	{r4, pc}
 491              		.section	.text.smtc_modem_get_charge,"ax",%progbits
 492              		.align	1
 493              		.global	smtc_modem_get_charge
 494              		.syntax unified
 495              		.code	16
 496              		.thumb_func
 498              	smtc_modem_get_charge:
 499              		@ args = 0, pretend = 0, frame = 0
 500              		@ frame_needed = 0, uses_anonymous_args = 0
 501 0000 70B5     		push	{r4, r5, r6, lr}
 502 0002 0500     		movs	r5, r0
 503 0004 FFF7FEFF 		bl	modem_get_test_mode_status
 504 0008 0400     		movs	r4, r0
 505 000a 0520     		movs	r0, #5
 506 000c 002C     		cmp	r4, #0
ARM GAS  /tmp/ccQgeTV1.s 			page 10


 507 000e 06D1     		bne	.L63
 508 0010 0138     		subs	r0, r0, #1
 509 0012 002D     		cmp	r5, #0
 510 0014 03D0     		beq	.L63
 511 0016 FFF7FEFF 		bl	get_modem_charge_ma_h
 512 001a 2860     		str	r0, [r5]
 513 001c 2000     		movs	r0, r4
 514              	.L63:
 515              		@ sp needed
 516 001e 70BD     		pop	{r4, r5, r6, pc}
 518              		.section	.text.smtc_modem_reset_charge,"ax",%progbits
 519              		.align	1
 520              		.global	smtc_modem_reset_charge
 521              		.syntax unified
 522              		.code	16
 523              		.thumb_func
 525              	smtc_modem_reset_charge:
 526              		@ args = 0, pretend = 0, frame = 0
 527              		@ frame_needed = 0, uses_anonymous_args = 0
 528 0000 10B5     		push	{r4, lr}
 529 0002 FFF7FEFF 		bl	modem_get_test_mode_status
 530 0006 0400     		movs	r4, r0
 531 0008 0520     		movs	r0, #5
 532 000a 002C     		cmp	r4, #0
 533 000c 02D1     		bne	.L67
 534 000e FFF7FEFF 		bl	reset_modem_charge
 535 0012 2000     		movs	r0, r4
 536              	.L67:
 537              		@ sp needed
 538 0014 10BD     		pop	{r4, pc}
 540              		.section	.text.smtc_modem_get_tx_power_offset_db,"ax",%progbits
 541              		.align	1
 542              		.global	smtc_modem_get_tx_power_offset_db
 543              		.syntax unified
 544              		.code	16
 545              		.thumb_func
 547              	smtc_modem_get_tx_power_offset_db:
 548              		@ args = 0, pretend = 0, frame = 0
 549              		@ frame_needed = 0, uses_anonymous_args = 0
 550 0000 70B5     		push	{r4, r5, r6, lr}
 551 0002 0D00     		movs	r5, r1
 552 0004 FFF7FEFF 		bl	modem_get_test_mode_status
 553 0008 0400     		movs	r4, r0
 554 000a 0520     		movs	r0, #5
 555 000c 002C     		cmp	r4, #0
 556 000e 06D1     		bne	.L70
 557 0010 0138     		subs	r0, r0, #1
 558 0012 002D     		cmp	r5, #0
 559 0014 03D0     		beq	.L70
 560 0016 FFF7FEFF 		bl	modem_context_get_tx_power_offset_db
 561 001a 2870     		strb	r0, [r5]
 562 001c 2000     		movs	r0, r4
 563              	.L70:
 564              		@ sp needed
 565 001e 70BD     		pop	{r4, r5, r6, pc}
 567              		.section	.text.smtc_modem_set_tx_power_offset_db,"ax",%progbits
 568              		.align	1
ARM GAS  /tmp/ccQgeTV1.s 			page 11


 569              		.global	smtc_modem_set_tx_power_offset_db
 570              		.syntax unified
 571              		.code	16
 572              		.thumb_func
 574              	smtc_modem_set_tx_power_offset_db:
 575              		@ args = 0, pretend = 0, frame = 0
 576              		@ frame_needed = 0, uses_anonymous_args = 0
 577 0000 70B5     		push	{r4, r5, r6, lr}
 578 0002 0D00     		movs	r5, r1
 579 0004 FFF7FEFF 		bl	modem_get_test_mode_status
 580 0008 0400     		movs	r4, r0
 581 000a 0520     		movs	r0, #5
 582 000c 002C     		cmp	r4, #0
 583 000e 09D1     		bne	.L74
 584 0010 2B00     		movs	r3, r5
 585 0012 1E33     		adds	r3, r3, #30
 586 0014 DBB2     		uxtb	r3, r3
 587 0016 0138     		subs	r0, r0, #1
 588 0018 3C2B     		cmp	r3, #60
 589 001a 03D8     		bhi	.L74
 590 001c 2800     		movs	r0, r5
 591 001e FFF7FEFF 		bl	modem_context_set_tx_power_offset_db
 592 0022 2000     		movs	r0, r4
 593              	.L74:
 594              		@ sp needed
 595 0024 70BD     		pop	{r4, r5, r6, pc}
 597              		.section	.text.smtc_modem_time_start_sync_service,"ax",%progbits
 598              		.align	1
 599              		.global	smtc_modem_time_start_sync_service
 600              		.syntax unified
 601              		.code	16
 602              		.thumb_func
 604              	smtc_modem_time_start_sync_service:
 605              		@ args = 0, pretend = 0, frame = 0
 606              		@ frame_needed = 0, uses_anonymous_args = 0
 607 0000 70B5     		push	{r4, r5, r6, lr}
 608 0002 0C00     		movs	r4, r1
 609 0004 FFF7FEFF 		bl	modem_get_test_mode_status
 610 0008 0523     		movs	r3, #5
 611 000a 0028     		cmp	r0, #0
 612 000c 1DD1     		bne	.L78
 613 000e 013B     		subs	r3, r3, #1
 614 0010 012C     		cmp	r4, #1
 615 0012 1AD8     		bhi	.L78
 616 0014 0E4D     		ldr	r5, .L85
 617 0016 2800     		movs	r0, r5
 618 0018 FFF7FEFF 		bl	clock_sync_is_enabled
 619 001c 0623     		movs	r3, #6
 620 001e 0028     		cmp	r0, #0
 621 0020 13D1     		bne	.L78
 622 0022 2200     		movs	r2, r4
 623 0024 0121     		movs	r1, #1
 624 0026 2800     		movs	r0, r5
 625 0028 FFF7FEFF 		bl	clock_sync_set_enabled
 626 002c FFF7FEFF 		bl	get_join_state
 627 0030 0228     		cmp	r0, #2
 628 0032 09D1     		bne	.L80
ARM GAS  /tmp/ccQgeTV1.s 			page 12


 629 0034 FFF7FEFF 		bl	modem_supervisor_is_clock_sync_running
 630 0038 0028     		cmp	r0, #0
 631 003a 05D1     		bne	.L80
 632 003c 0130     		adds	r0, r0, #1
 633 003e FFF7FEFF 		bl	modem_supervisor_add_task_clock_sync_time_req
 634 0042 2800     		movs	r0, r5
 635 0044 FFF7FEFF 		bl	clock_sync_set_sync_lost
 636              	.L80:
 637 0048 0023     		movs	r3, #0
 638              	.L78:
 639              		@ sp needed
 640 004a 1800     		movs	r0, r3
 641 004c 70BD     		pop	{r4, r5, r6, pc}
 642              	.L86:
 643 004e C046     		.align	2
 644              	.L85:
 645 0050 2C000000 		.word	smtc_modem_services_ctx+44
 647              		.section	.text.smtc_modem_time_stop_sync_service,"ax",%progbits
 648              		.align	1
 649              		.global	smtc_modem_time_stop_sync_service
 650              		.syntax unified
 651              		.code	16
 652              		.thumb_func
 654              	smtc_modem_time_stop_sync_service:
 655              		@ args = 0, pretend = 0, frame = 0
 656              		@ frame_needed = 0, uses_anonymous_args = 0
 657 0000 70B5     		push	{r4, r5, r6, lr}
 658 0002 FFF7FEFF 		bl	modem_get_test_mode_status
 659 0006 0523     		movs	r3, #5
 660 0008 041E     		subs	r4, r0, #0
 661 000a 12D1     		bne	.L88
 662 000c 0A4D     		ldr	r5, .L92
 663 000e 2800     		movs	r0, r5
 664 0010 FFF7FEFF 		bl	clock_sync_is_enabled
 665 0014 0623     		movs	r3, #6
 666 0016 0028     		cmp	r0, #0
 667 0018 0BD0     		beq	.L88
 668 001a 084B     		ldr	r3, .L92+4
 669 001c 2100     		movs	r1, r4
 670 001e 1A78     		ldrb	r2, [r3]
 671 0020 2800     		movs	r0, r5
 672 0022 FFF7FEFF 		bl	clock_sync_set_enabled
 673 0026 FFF7FEFF 		bl	modem_supervisor_remove_task_clock_sync
 674 002a 2800     		movs	r0, r5
 675 002c FFF7FEFF 		bl	clock_sync_set_sync_lost
 676 0030 2300     		movs	r3, r4
 677              	.L88:
 678              		@ sp needed
 679 0032 1800     		movs	r0, r3
 680 0034 70BD     		pop	{r4, r5, r6, pc}
 681              	.L93:
 682 0036 C046     		.align	2
 683              	.L92:
 684 0038 2C000000 		.word	smtc_modem_services_ctx+44
 685 003c 3C000000 		.word	smtc_modem_services_ctx+60
 687              		.section	.text.smtc_modem_get_time,"ax",%progbits
 688              		.align	1
ARM GAS  /tmp/ccQgeTV1.s 			page 13


 689              		.global	smtc_modem_get_time
 690              		.syntax unified
 691              		.code	16
 692              		.thumb_func
 694              	smtc_modem_get_time:
 695              		@ args = 0, pretend = 0, frame = 0
 696              		@ frame_needed = 0, uses_anonymous_args = 0
 697 0000 F8B5     		push	{r3, r4, r5, r6, r7, lr}
 698 0002 0500     		movs	r5, r0
 699 0004 0C00     		movs	r4, r1
 700 0006 FFF7FEFF 		bl	modem_get_test_mode_status
 701 000a 0600     		movs	r6, r0
 702 000c 0520     		movs	r0, #5
 703 000e 002E     		cmp	r6, #0
 704 0010 10D1     		bne	.L95
 705 0012 0138     		subs	r0, r0, #1
 706 0014 002D     		cmp	r5, #0
 707 0016 0DD0     		beq	.L95
 708 0018 002C     		cmp	r4, #0
 709 001a 0BD0     		beq	.L95
 710 001c 084F     		ldr	r7, .L100
 711 001e 3800     		movs	r0, r7
 712 0020 FFF7FEFF 		bl	clock_sync_is_time_valid
 713 0024 0028     		cmp	r0, #0
 714 0026 06D0     		beq	.L96
 715 0028 2200     		movs	r2, r4
 716 002a 2900     		movs	r1, r5
 717 002c 3800     		movs	r0, r7
 718 002e FFF7FEFF 		bl	clock_sync_get_gps_time_second
 719 0032 3000     		movs	r0, r6
 720              	.L95:
 721              		@ sp needed
 722 0034 F8BD     		pop	{r3, r4, r5, r6, r7, pc}
 723              	.L96:
 724 0036 2860     		str	r0, [r5]
 725 0038 2060     		str	r0, [r4]
 726 003a 1020     		movs	r0, #16
 727 003c FAE7     		b	.L95
 728              	.L101:
 729 003e C046     		.align	2
 730              	.L100:
 731 0040 2C000000 		.word	smtc_modem_services_ctx+44
 733              		.section	.text.smtc_modem_time_set_alcsync_fport,"ax",%progbits
 734              		.align	1
 735              		.global	smtc_modem_time_set_alcsync_fport
 736              		.syntax unified
 737              		.code	16
 738              		.thumb_func
 740              	smtc_modem_time_set_alcsync_fport:
 741              		@ args = 0, pretend = 0, frame = 0
 742              		@ frame_needed = 0, uses_anonymous_args = 0
 743 0000 10B5     		push	{r4, lr}
 744 0002 0400     		movs	r4, r0
 745 0004 FFF7FEFF 		bl	modem_get_test_mode_status
 746 0008 0523     		movs	r3, #5
 747 000a 0028     		cmp	r0, #0
 748 000c 06D1     		bne	.L103
ARM GAS  /tmp/ccQgeTV1.s 			page 14


 749 000e 2100     		movs	r1, r4
 750 0010 0348     		ldr	r0, .L105
 751 0012 FFF7FEFF 		bl	clock_sync_set_alcsync_port
 752 0016 431E     		subs	r3, r0, #1
 753 0018 9841     		sbcs	r0, r0, r3
 754 001a 8300     		lsls	r3, r0, #2
 755              	.L103:
 756 001c 1800     		movs	r0, r3
 757              		@ sp needed
 758 001e 10BD     		pop	{r4, pc}
 759              	.L106:
 760              		.align	2
 761              	.L105:
 762 0020 2C000000 		.word	smtc_modem_services_ctx+44
 764              		.section	.text.smtc_modem_time_trigger_sync_request,"ax",%progbits
 765              		.align	1
 766              		.global	smtc_modem_time_trigger_sync_request
 767              		.syntax unified
 768              		.code	16
 769              		.thumb_func
 771              	smtc_modem_time_trigger_sync_request:
 772              		@ args = 0, pretend = 0, frame = 0
 773              		@ frame_needed = 0, uses_anonymous_args = 0
 774 0000 10B5     		push	{r4, lr}
 775 0002 FFF7FEFF 		bl	modem_get_test_mode_status
 776 0006 0400     		movs	r4, r0
 777 0008 0520     		movs	r0, #5
 778 000a 002C     		cmp	r4, #0
 779 000c 04D1     		bne	.L108
 780 000e FFF7FEFF 		bl	is_modem_connected
 781 0012 0028     		cmp	r0, #0
 782 0014 01D1     		bne	.L109
 783              	.L110:
 784 0016 0620     		movs	r0, #6
 785              	.L108:
 786              		@ sp needed
 787 0018 10BD     		pop	{r4, pc}
 788              	.L109:
 789 001a 0548     		ldr	r0, .L115
 790 001c FFF7FEFF 		bl	clock_sync_is_enabled
 791 0020 0028     		cmp	r0, #0
 792 0022 F8D0     		beq	.L110
 793 0024 0120     		movs	r0, #1
 794 0026 FFF7FEFF 		bl	modem_supervisor_add_task_clock_sync_time_req
 795 002a 2000     		movs	r0, r4
 796 002c F4E7     		b	.L108
 797              	.L116:
 798 002e C046     		.align	2
 799              	.L115:
 800 0030 2C000000 		.word	smtc_modem_services_ctx+44
 802              		.section	.text.smtc_modem_time_get_alcsync_fport,"ax",%progbits
 803              		.align	1
 804              		.global	smtc_modem_time_get_alcsync_fport
 805              		.syntax unified
 806              		.code	16
 807              		.thumb_func
 809              	smtc_modem_time_get_alcsync_fport:
ARM GAS  /tmp/ccQgeTV1.s 			page 15


 810              		@ args = 0, pretend = 0, frame = 0
 811              		@ frame_needed = 0, uses_anonymous_args = 0
 812 0000 70B5     		push	{r4, r5, r6, lr}
 813 0002 0500     		movs	r5, r0
 814 0004 FFF7FEFF 		bl	modem_get_test_mode_status
 815 0008 0400     		movs	r4, r0
 816 000a 0520     		movs	r0, #5
 817 000c 002C     		cmp	r4, #0
 818 000e 07D1     		bne	.L118
 819 0010 0138     		subs	r0, r0, #1
 820 0012 002D     		cmp	r5, #0
 821 0014 04D0     		beq	.L118
 822 0016 0348     		ldr	r0, .L121
 823 0018 FFF7FEFF 		bl	clock_sync_get_alcsync_port
 824 001c 2870     		strb	r0, [r5]
 825 001e 2000     		movs	r0, r4
 826              	.L118:
 827              		@ sp needed
 828 0020 70BD     		pop	{r4, r5, r6, pc}
 829              	.L122:
 830 0022 C046     		.align	2
 831              	.L121:
 832 0024 2C000000 		.word	smtc_modem_services_ctx+44
 834              		.section	.text.smtc_modem_time_set_sync_interval_s,"ax",%progbits
 835              		.align	1
 836              		.global	smtc_modem_time_set_sync_interval_s
 837              		.syntax unified
 838              		.code	16
 839              		.thumb_func
 841              	smtc_modem_time_set_sync_interval_s:
 842              		@ args = 0, pretend = 0, frame = 0
 843              		@ frame_needed = 0, uses_anonymous_args = 0
 844 0000 10B5     		push	{r4, lr}
 845 0002 0400     		movs	r4, r0
 846 0004 FFF7FEFF 		bl	modem_get_test_mode_status
 847 0008 0523     		movs	r3, #5
 848 000a 0028     		cmp	r0, #0
 849 000c 06D1     		bne	.L124
 850 000e 2100     		movs	r1, r4
 851 0010 0348     		ldr	r0, .L126
 852 0012 FFF7FEFF 		bl	clock_sync_set_interval_second
 853 0016 431E     		subs	r3, r0, #1
 854 0018 9841     		sbcs	r0, r0, r3
 855 001a 8300     		lsls	r3, r0, #2
 856              	.L124:
 857 001c 1800     		movs	r0, r3
 858              		@ sp needed
 859 001e 10BD     		pop	{r4, pc}
 860              	.L127:
 861              		.align	2
 862              	.L126:
 863 0020 2C000000 		.word	smtc_modem_services_ctx+44
 865              		.section	.text.smtc_modem_time_get_sync_interval_s,"ax",%progbits
 866              		.align	1
 867              		.global	smtc_modem_time_get_sync_interval_s
 868              		.syntax unified
 869              		.code	16
ARM GAS  /tmp/ccQgeTV1.s 			page 16


 870              		.thumb_func
 872              	smtc_modem_time_get_sync_interval_s:
 873              		@ args = 0, pretend = 0, frame = 0
 874              		@ frame_needed = 0, uses_anonymous_args = 0
 875 0000 70B5     		push	{r4, r5, r6, lr}
 876 0002 0500     		movs	r5, r0
 877 0004 FFF7FEFF 		bl	modem_get_test_mode_status
 878 0008 0400     		movs	r4, r0
 879 000a 0520     		movs	r0, #5
 880 000c 002C     		cmp	r4, #0
 881 000e 07D1     		bne	.L129
 882 0010 0138     		subs	r0, r0, #1
 883 0012 002D     		cmp	r5, #0
 884 0014 04D0     		beq	.L129
 885 0016 0348     		ldr	r0, .L132
 886 0018 FFF7FEFF 		bl	clock_sync_get_interval_second
 887 001c 2860     		str	r0, [r5]
 888 001e 2000     		movs	r0, r4
 889              	.L129:
 890              		@ sp needed
 891 0020 70BD     		pop	{r4, r5, r6, pc}
 892              	.L133:
 893 0022 C046     		.align	2
 894              	.L132:
 895 0024 2C000000 		.word	smtc_modem_services_ctx+44
 897              		.section	.text.smtc_modem_time_set_sync_invalid_delay_s,"ax",%progbits
 898              		.align	1
 899              		.global	smtc_modem_time_set_sync_invalid_delay_s
 900              		.syntax unified
 901              		.code	16
 902              		.thumb_func
 904              	smtc_modem_time_set_sync_invalid_delay_s:
 905              		@ args = 0, pretend = 0, frame = 0
 906              		@ frame_needed = 0, uses_anonymous_args = 0
 907 0000 10B5     		push	{r4, lr}
 908 0002 0400     		movs	r4, r0
 909 0004 FFF7FEFF 		bl	modem_get_test_mode_status
 910 0008 0523     		movs	r3, #5
 911 000a 0028     		cmp	r0, #0
 912 000c 06D1     		bne	.L135
 913 000e 2100     		movs	r1, r4
 914 0010 0348     		ldr	r0, .L137
 915 0012 FFF7FEFF 		bl	clock_sync_set_invalid_time_delay_s
 916 0016 431E     		subs	r3, r0, #1
 917 0018 9841     		sbcs	r0, r0, r3
 918 001a 8300     		lsls	r3, r0, #2
 919              	.L135:
 920 001c 1800     		movs	r0, r3
 921              		@ sp needed
 922 001e 10BD     		pop	{r4, pc}
 923              	.L138:
 924              		.align	2
 925              	.L137:
 926 0020 2C000000 		.word	smtc_modem_services_ctx+44
 928              		.section	.text.smtc_modem_time_get_sync_invalid_delay_s,"ax",%progbits
 929              		.align	1
 930              		.global	smtc_modem_time_get_sync_invalid_delay_s
ARM GAS  /tmp/ccQgeTV1.s 			page 17


 931              		.syntax unified
 932              		.code	16
 933              		.thumb_func
 935              	smtc_modem_time_get_sync_invalid_delay_s:
 936              		@ args = 0, pretend = 0, frame = 0
 937              		@ frame_needed = 0, uses_anonymous_args = 0
 938 0000 70B5     		push	{r4, r5, r6, lr}
 939 0002 0500     		movs	r5, r0
 940 0004 FFF7FEFF 		bl	modem_get_test_mode_status
 941 0008 0400     		movs	r4, r0
 942 000a 0520     		movs	r0, #5
 943 000c 002C     		cmp	r4, #0
 944 000e 07D1     		bne	.L140
 945 0010 0138     		subs	r0, r0, #1
 946 0012 002D     		cmp	r5, #0
 947 0014 04D0     		beq	.L140
 948 0016 0348     		ldr	r0, .L143
 949 0018 FFF7FEFF 		bl	clock_sync_get_invalid_time_delay_s
 950 001c 2860     		str	r0, [r5]
 951 001e 2000     		movs	r0, r4
 952              	.L140:
 953              		@ sp needed
 954 0020 70BD     		pop	{r4, r5, r6, pc}
 955              	.L144:
 956 0022 C046     		.align	2
 957              	.L143:
 958 0024 2C000000 		.word	smtc_modem_services_ctx+44
 960              		.section	.text.smtc_modem_get_status,"ax",%progbits
 961              		.align	1
 962              		.global	smtc_modem_get_status
 963              		.syntax unified
 964              		.code	16
 965              		.thumb_func
 967              	smtc_modem_get_status:
 968              		@ args = 0, pretend = 0, frame = 0
 969              		@ frame_needed = 0, uses_anonymous_args = 0
 970 0000 70B5     		push	{r4, r5, r6, lr}
 971 0002 0D00     		movs	r5, r1
 972 0004 FFF7FEFF 		bl	modem_get_test_mode_status
 973 0008 0400     		movs	r4, r0
 974 000a 0520     		movs	r0, #5
 975 000c 002C     		cmp	r4, #0
 976 000e 06D1     		bne	.L146
 977 0010 0138     		subs	r0, r0, #1
 978 0012 002D     		cmp	r5, #0
 979 0014 03D0     		beq	.L146
 980 0016 FFF7FEFF 		bl	get_modem_status
 981 001a 2860     		str	r0, [r5]
 982 001c 2000     		movs	r0, r4
 983              	.L146:
 984              		@ sp needed
 985 001e 70BD     		pop	{r4, r5, r6, pc}
 987              		.section	.text.smtc_modem_alarm_start_timer,"ax",%progbits
 988              		.align	1
 989              		.global	smtc_modem_alarm_start_timer
 990              		.syntax unified
 991              		.code	16
ARM GAS  /tmp/ccQgeTV1.s 			page 18


 992              		.thumb_func
 994              	smtc_modem_alarm_start_timer:
 995              		@ args = 0, pretend = 0, frame = 0
 996              		@ frame_needed = 0, uses_anonymous_args = 0
 997 0000 10B5     		push	{r4, lr}
 998 0002 0400     		movs	r4, r0
 999 0004 FFF7FEFF 		bl	modem_get_test_mode_status
 1000 0008 0523     		movs	r3, #5
 1001 000a 0028     		cmp	r0, #0
 1002 000c 08D1     		bne	.L150
 1003 000e 002C     		cmp	r4, #0
 1004 0010 02D0     		beq	.L151
 1005 0012 FFF7FEFF 		bl	smtc_modem_hal_get_time_in_s
 1006 0016 2418     		adds	r4, r4, r0
 1007              	.L151:
 1008 0018 2000     		movs	r0, r4
 1009 001a FFF7FEFF 		bl	modem_set_user_alarm
 1010 001e 0023     		movs	r3, #0
 1011              	.L150:
 1012              		@ sp needed
 1013 0020 1800     		movs	r0, r3
 1014 0022 10BD     		pop	{r4, pc}
 1016              		.section	.rodata.smtc_modem_alarm_clear_timer.str1.1,"aMS",%progbits,1
 1017              	.LC42:
 1018 0000 1B5B303B 		.ascii	"\033[0;33mWARN: Alarm clear timer impossible: no al"
 1018      33336D57 
 1018      41524E3A 
 1018      20416C61 
 1018      726D2063 
 1019 0030 61726D20 		.ascii	"arm timer is currently running\000"
 1019      74696D65 
 1019      72206973 
 1019      20637572 
 1019      72656E74 
 1020              		.section	.text.smtc_modem_alarm_clear_timer,"ax",%progbits
 1021              		.align	1
 1022              		.global	smtc_modem_alarm_clear_timer
 1023              		.syntax unified
 1024              		.code	16
 1025              		.thumb_func
 1027              	smtc_modem_alarm_clear_timer:
 1028              		@ args = 0, pretend = 0, frame = 0
 1029              		@ frame_needed = 0, uses_anonymous_args = 0
 1030 0000 10B5     		push	{r4, lr}
 1031 0002 FFF7FEFF 		bl	modem_get_test_mode_status
 1032 0006 0400     		movs	r4, r0
 1033 0008 0520     		movs	r0, #5
 1034 000a 002C     		cmp	r4, #0
 1035 000c 0AD1     		bne	.L157
 1036 000e FFF7FEFF 		bl	modem_get_user_alarm
 1037 0012 0028     		cmp	r0, #0
 1038 0014 07D1     		bne	.L158
 1039 0016 0648     		ldr	r0, .L160
 1040 0018 FFF7FEFF 		bl	smtc_modem_hal_print_trace
 1041 001c 0548     		ldr	r0, .L160+4
 1042 001e FFF7FEFF 		bl	smtc_modem_hal_print_trace
 1043 0022 0320     		movs	r0, #3
ARM GAS  /tmp/ccQgeTV1.s 			page 19


 1044              	.L157:
 1045              		@ sp needed
 1046 0024 10BD     		pop	{r4, pc}
 1047              	.L158:
 1048 0026 2000     		movs	r0, r4
 1049 0028 FFF7FEFF 		bl	modem_set_user_alarm
 1050 002c 2000     		movs	r0, r4
 1051 002e F9E7     		b	.L157
 1052              	.L161:
 1053              		.align	2
 1054              	.L160:
 1055 0030 00000000 		.word	.LC42
 1056 0034 30000000 		.word	.LC3
 1058              		.section	.rodata.smtc_modem_alarm_get_remaining_time.str1.1,"aMS",%progbits,1
 1059              	.LC45:
 1060 0000 1B5B303B 		.ascii	"\033[0;33mWARN: Alarm get remaining impossible: no "
 1060      33336D57 
 1060      41524E3A 
 1060      20416C61 
 1060      726D2067 
 1061 0030 616C6172 		.ascii	"alarm timer is currently running\000"
 1061      6D207469 
 1061      6D657220 
 1061      69732063 
 1061      75727265 
 1062              		.section	.text.smtc_modem_alarm_get_remaining_time,"ax",%progbits
 1063              		.align	1
 1064              		.global	smtc_modem_alarm_get_remaining_time
 1065              		.syntax unified
 1066              		.code	16
 1067              		.thumb_func
 1069              	smtc_modem_alarm_get_remaining_time:
 1070              		@ args = 0, pretend = 0, frame = 0
 1071              		@ frame_needed = 0, uses_anonymous_args = 0
 1072 0000 70B5     		push	{r4, r5, r6, lr}
 1073 0002 0600     		movs	r6, r0
 1074 0004 FFF7FEFF 		bl	modem_get_test_mode_status
 1075 0008 0500     		movs	r5, r0
 1076 000a 0520     		movs	r0, #5
 1077 000c 002D     		cmp	r5, #0
 1078 000e 0DD1     		bne	.L163
 1079 0010 0138     		subs	r0, r0, #1
 1080 0012 002E     		cmp	r6, #0
 1081 0014 0AD0     		beq	.L163
 1082 0016 FFF7FEFF 		bl	modem_get_user_alarm
 1083 001a 0028     		cmp	r0, #0
 1084 001c 07D1     		bne	.L164
 1085 001e 0A48     		ldr	r0, .L168
 1086 0020 FFF7FEFF 		bl	smtc_modem_hal_print_trace
 1087 0024 0948     		ldr	r0, .L168+4
 1088 0026 FFF7FEFF 		bl	smtc_modem_hal_print_trace
 1089 002a 0320     		movs	r0, #3
 1090              	.L163:
 1091              		@ sp needed
 1092 002c 70BD     		pop	{r4, r5, r6, pc}
 1093              	.L164:
 1094 002e FFF7FEFF 		bl	modem_get_user_alarm
ARM GAS  /tmp/ccQgeTV1.s 			page 20


 1095 0032 0400     		movs	r4, r0
 1096 0034 FFF7FEFF 		bl	smtc_modem_hal_get_time_in_s
 1097 0038 201A     		subs	r0, r4, r0
 1098 003a C243     		mvns	r2, r0
 1099 003c D217     		asrs	r2, r2, #31
 1100 003e 1040     		ands	r0, r2
 1101 0040 3060     		str	r0, [r6]
 1102 0042 2800     		movs	r0, r5
 1103 0044 F2E7     		b	.L163
 1104              	.L169:
 1105 0046 C046     		.align	2
 1106              	.L168:
 1107 0048 00000000 		.word	.LC45
 1108 004c 30000000 		.word	.LC3
 1110              		.section	.text.smtc_modem_get_joineui,"ax",%progbits
 1111              		.align	1
 1112              		.global	smtc_modem_get_joineui
 1113              		.syntax unified
 1114              		.code	16
 1115              		.thumb_func
 1117              	smtc_modem_get_joineui:
 1118              		@ args = 0, pretend = 0, frame = 0
 1119              		@ frame_needed = 0, uses_anonymous_args = 0
 1120 0000 10B5     		push	{r4, lr}
 1121 0002 0C00     		movs	r4, r1
 1122 0004 FFF7FEFF 		bl	modem_get_test_mode_status
 1123 0008 0523     		movs	r3, #5
 1124 000a 0028     		cmp	r0, #0
 1125 000c 09D1     		bne	.L171
 1126 000e 013B     		subs	r3, r3, #1
 1127 0010 002C     		cmp	r4, #0
 1128 0012 06D0     		beq	.L171
 1129 0014 2000     		movs	r0, r4
 1130 0016 FFF7FEFF 		bl	lorawan_api_get_joineui
 1131 001a 0623     		movs	r3, #6
 1132 001c 0028     		cmp	r0, #0
 1133 001e 00D1     		bne	.L171
 1134 0020 0300     		movs	r3, r0
 1135              	.L171:
 1136              		@ sp needed
 1137 0022 1800     		movs	r0, r3
 1138 0024 10BD     		pop	{r4, pc}
 1140              		.section	.rodata.smtc_modem_set_joineui.str1.1,"aMS",%progbits,1
 1141              	.LC49:
 1142 0000 1B5B303B 		.ascii	"\033[0;31mERROR: %s call but the device is already "
 1142      33316D45 
 1142      52524F52 
 1142      3A202573 
 1142      2063616C 
 1143 0030 6A6F696E 		.ascii	"join\012\015\000"
 1143      0A0D00
 1144              		.section	.text.smtc_modem_set_joineui,"ax",%progbits
 1145              		.align	1
 1146              		.global	smtc_modem_set_joineui
 1147              		.syntax unified
 1148              		.code	16
 1149              		.thumb_func
ARM GAS  /tmp/ccQgeTV1.s 			page 21


 1151              	smtc_modem_set_joineui:
 1152              		@ args = 0, pretend = 0, frame = 0
 1153              		@ frame_needed = 0, uses_anonymous_args = 0
 1154 0000 70B5     		push	{r4, r5, r6, lr}
 1155 0002 0D00     		movs	r5, r1
 1156 0004 FFF7FEFF 		bl	modem_get_test_mode_status
 1157 0008 0028     		cmp	r0, #0
 1158 000a 0DD1     		bne	.L176
 1159 000c 0424     		movs	r4, #4
 1160 000e 002D     		cmp	r5, #0
 1161 0010 0BD0     		beq	.L177
 1162 0012 FFF7FEFF 		bl	get_join_state
 1163 0016 041E     		subs	r4, r0, #0
 1164 0018 09D0     		beq	.L178
 1165 001a 0848     		ldr	r0, .L181
 1166 001c 0849     		ldr	r1, .L181+4
 1167 001e FFF7FEFF 		bl	smtc_modem_hal_print_trace
 1168 0022 0848     		ldr	r0, .L181+8
 1169 0024 FFF7FEFF 		bl	smtc_modem_hal_print_trace
 1170              	.L176:
 1171 0028 0524     		movs	r4, #5
 1172              	.L177:
 1173              		@ sp needed
 1174 002a 2000     		movs	r0, r4
 1175 002c 70BD     		pop	{r4, r5, r6, pc}
 1176              	.L178:
 1177 002e 2800     		movs	r0, r5
 1178 0030 FFF7FEFF 		bl	lorawan_api_set_joineui
 1179 0034 0028     		cmp	r0, #0
 1180 0036 F8D0     		beq	.L177
 1181 0038 0624     		movs	r4, #6
 1182 003a F6E7     		b	.L177
 1183              	.L182:
 1184              		.align	2
 1185              	.L181:
 1186 003c 00000000 		.word	.LC49
 1187 0040 00000000 		.word	__func__.12
 1188 0044 30000000 		.word	.LC3
 1190              		.section	.text.smtc_modem_get_deveui,"ax",%progbits
 1191              		.align	1
 1192              		.global	smtc_modem_get_deveui
 1193              		.syntax unified
 1194              		.code	16
 1195              		.thumb_func
 1197              	smtc_modem_get_deveui:
 1198              		@ args = 0, pretend = 0, frame = 0
 1199              		@ frame_needed = 0, uses_anonymous_args = 0
 1200 0000 10B5     		push	{r4, lr}
 1201 0002 0C00     		movs	r4, r1
 1202 0004 FFF7FEFF 		bl	modem_get_test_mode_status
 1203 0008 0523     		movs	r3, #5
 1204 000a 0028     		cmp	r0, #0
 1205 000c 09D1     		bne	.L184
 1206 000e 013B     		subs	r3, r3, #1
 1207 0010 002C     		cmp	r4, #0
 1208 0012 06D0     		beq	.L184
 1209 0014 2000     		movs	r0, r4
ARM GAS  /tmp/ccQgeTV1.s 			page 22


 1210 0016 FFF7FEFF 		bl	lorawan_api_get_deveui
 1211 001a 0623     		movs	r3, #6
 1212 001c 0028     		cmp	r0, #0
 1213 001e 00D1     		bne	.L184
 1214 0020 0300     		movs	r3, r0
 1215              	.L184:
 1216              		@ sp needed
 1217 0022 1800     		movs	r0, r3
 1218 0024 10BD     		pop	{r4, pc}
 1220              		.section	.text.smtc_modem_set_deveui,"ax",%progbits
 1221              		.align	1
 1222              		.global	smtc_modem_set_deveui
 1223              		.syntax unified
 1224              		.code	16
 1225              		.thumb_func
 1227              	smtc_modem_set_deveui:
 1228              		@ args = 0, pretend = 0, frame = 0
 1229              		@ frame_needed = 0, uses_anonymous_args = 0
 1230 0000 70B5     		push	{r4, r5, r6, lr}
 1231 0002 0D00     		movs	r5, r1
 1232 0004 FFF7FEFF 		bl	modem_get_test_mode_status
 1233 0008 0028     		cmp	r0, #0
 1234 000a 0DD1     		bne	.L189
 1235 000c 0424     		movs	r4, #4
 1236 000e 002D     		cmp	r5, #0
 1237 0010 0BD0     		beq	.L190
 1238 0012 FFF7FEFF 		bl	get_join_state
 1239 0016 041E     		subs	r4, r0, #0
 1240 0018 09D0     		beq	.L191
 1241 001a 0848     		ldr	r0, .L194
 1242 001c 0849     		ldr	r1, .L194+4
 1243 001e FFF7FEFF 		bl	smtc_modem_hal_print_trace
 1244 0022 0848     		ldr	r0, .L194+8
 1245 0024 FFF7FEFF 		bl	smtc_modem_hal_print_trace
 1246              	.L189:
 1247 0028 0524     		movs	r4, #5
 1248              	.L190:
 1249              		@ sp needed
 1250 002a 2000     		movs	r0, r4
 1251 002c 70BD     		pop	{r4, r5, r6, pc}
 1252              	.L191:
 1253 002e 2800     		movs	r0, r5
 1254 0030 FFF7FEFF 		bl	lorawan_api_set_deveui
 1255 0034 0028     		cmp	r0, #0
 1256 0036 F8D0     		beq	.L190
 1257 0038 0624     		movs	r4, #6
 1258 003a F6E7     		b	.L190
 1259              	.L195:
 1260              		.align	2
 1261              	.L194:
 1262 003c 00000000 		.word	.LC49
 1263 0040 00000000 		.word	__func__.11
 1264 0044 30000000 		.word	.LC3
 1266              		.section	.text.smtc_modem_set_nwkkey,"ax",%progbits
 1267              		.align	1
 1268              		.global	smtc_modem_set_nwkkey
 1269              		.syntax unified
ARM GAS  /tmp/ccQgeTV1.s 			page 23


 1270              		.code	16
 1271              		.thumb_func
 1273              	smtc_modem_set_nwkkey:
 1274              		@ args = 0, pretend = 0, frame = 0
 1275              		@ frame_needed = 0, uses_anonymous_args = 0
 1276 0000 10B5     		push	{r4, lr}
 1277 0002 0C00     		movs	r4, r1
 1278 0004 FFF7FEFF 		bl	modem_get_test_mode_status
 1279 0008 0028     		cmp	r0, #0
 1280 000a 0DD1     		bne	.L197
 1281 000c 0430     		adds	r0, r0, #4
 1282 000e 002C     		cmp	r4, #0
 1283 0010 0BD0     		beq	.L198
 1284 0012 FFF7FEFF 		bl	get_join_state
 1285 0016 0028     		cmp	r0, #0
 1286 0018 08D0     		beq	.L199
 1287 001a 0848     		ldr	r0, .L202
 1288 001c 0849     		ldr	r1, .L202+4
 1289 001e FFF7FEFF 		bl	smtc_modem_hal_print_trace
 1290 0022 0848     		ldr	r0, .L202+8
 1291 0024 FFF7FEFF 		bl	smtc_modem_hal_print_trace
 1292              	.L197:
 1293 0028 0520     		movs	r0, #5
 1294              	.L198:
 1295              		@ sp needed
 1296 002a 10BD     		pop	{r4, pc}
 1297              	.L199:
 1298 002c 2000     		movs	r0, r4
 1299 002e FFF7FEFF 		bl	modem_context_set_appkey
 1300 0032 0028     		cmp	r0, #0
 1301 0034 F9D0     		beq	.L198
 1302 0036 0620     		movs	r0, #6
 1303 0038 F7E7     		b	.L198
 1304              	.L203:
 1305 003a C046     		.align	2
 1306              	.L202:
 1307 003c 00000000 		.word	.LC49
 1308 0040 00000000 		.word	__func__.10
 1309 0044 30000000 		.word	.LC3
 1311              		.section	.text.smtc_modem_get_class,"ax",%progbits
 1312              		.align	1
 1313              		.global	smtc_modem_get_class
 1314              		.syntax unified
 1315              		.code	16
 1316              		.thumb_func
 1318              	smtc_modem_get_class:
 1319              		@ args = 0, pretend = 0, frame = 0
 1320              		@ frame_needed = 0, uses_anonymous_args = 0
 1321 0000 70B5     		push	{r4, r5, r6, lr}
 1322 0002 0D00     		movs	r5, r1
 1323 0004 FFF7FEFF 		bl	modem_get_test_mode_status
 1324 0008 0400     		movs	r4, r0
 1325 000a 0520     		movs	r0, #5
 1326 000c 002C     		cmp	r4, #0
 1327 000e 06D1     		bne	.L205
 1328 0010 0138     		subs	r0, r0, #1
 1329 0012 002D     		cmp	r5, #0
ARM GAS  /tmp/ccQgeTV1.s 			page 24


 1330 0014 03D0     		beq	.L205
 1331 0016 FFF7FEFF 		bl	get_modem_class
 1332 001a 2870     		strb	r0, [r5]
 1333 001c 2000     		movs	r0, r4
 1334              	.L205:
 1335              		@ sp needed
 1336 001e 70BD     		pop	{r4, r5, r6, pc}
 1338              		.section	.rodata.smtc_modem_set_class.str1.1,"aMS",%progbits,1
 1339              	.LC59:
 1340 0000 1B5B303B 		.ascii	"\033[0;31mERROR: set to class b is refused : modem "
 1340      33316D45 
 1340      52524F52 
 1340      3A207365 
 1340      7420746F 
 1341 0030 6973206E 		.ascii	"is not time synced\000"
 1341      6F742074 
 1341      696D6520 
 1341      73796E63 
 1341      656400
 1342              	.LC62:
 1343 0043 1B5B303B 		.ascii	"\033[0;31mERROR: set to class b is refused : modem "
 1343      33316D45 
 1343      52524F52 
 1343      3A207365 
 1343      7420746F 
 1344 0073 6973206E 		.ascii	"is not joined\000"
 1344      6F74206A 
 1344      6F696E65 
 1344      6400
 1345              		.section	.text.smtc_modem_set_class,"ax",%progbits
 1346              		.align	1
 1347              		.global	smtc_modem_set_class
 1348              		.syntax unified
 1349              		.code	16
 1350              		.thumb_func
 1352              	smtc_modem_set_class:
 1353              		@ args = 0, pretend = 0, frame = 0
 1354              		@ frame_needed = 0, uses_anonymous_args = 0
 1355 0000 70B5     		push	{r4, r5, r6, lr}
 1356 0002 0C00     		movs	r4, r1
 1357 0004 FFF7FEFF 		bl	modem_get_test_mode_status
 1358 0008 0500     		movs	r5, r0
 1359 000a 0520     		movs	r0, #5
 1360 000c 002D     		cmp	r5, #0
 1361 000e 1DD1     		bne	.L209
 1362 0010 012C     		cmp	r4, #1
 1363 0012 0FD0     		beq	.L210
 1364 0014 022C     		cmp	r4, #2
 1365 0016 25D0     		beq	.L211
 1366 0018 0138     		subs	r0, r0, #1
 1367 001a 002C     		cmp	r4, #0
 1368 001c 16D1     		bne	.L209
 1369 001e 2000     		movs	r0, r4
 1370 0020 FFF7FEFF 		bl	lorawan_api_class_b_enabled
 1371 0024 2000     		movs	r0, r4
 1372              	.L219:
 1373 0026 FFF7FEFF 		bl	lorawan_api_class_c_enabled
ARM GAS  /tmp/ccQgeTV1.s 			page 25


 1374 002a 2000     		movs	r0, r4
 1375 002c FFF7FEFF 		bl	set_modem_class
 1376 0030 0020     		movs	r0, #0
 1377 0032 0BE0     		b	.L209
 1378              	.L210:
 1379 0034 0E48     		ldr	r0, .L220
 1380 0036 FFF7FEFF 		bl	clock_sync_is_time_valid
 1381 003a 0028     		cmp	r0, #0
 1382 003c 07D1     		bne	.L213
 1383 003e 0D48     		ldr	r0, .L220+4
 1384              	.L218:
 1385 0040 FFF7FEFF 		bl	smtc_modem_hal_print_trace
 1386 0044 0C48     		ldr	r0, .L220+8
 1387 0046 FFF7FEFF 		bl	smtc_modem_hal_print_trace
 1388 004a 0620     		movs	r0, #6
 1389              	.L209:
 1390              		@ sp needed
 1391 004c 70BD     		pop	{r4, r5, r6, pc}
 1392              	.L213:
 1393 004e FFF7FEFF 		bl	get_join_state
 1394 0052 0228     		cmp	r0, #2
 1395 0054 01D0     		beq	.L215
 1396 0056 0948     		ldr	r0, .L220+12
 1397 0058 F2E7     		b	.L218
 1398              	.L215:
 1399 005a 2000     		movs	r0, r4
 1400 005c FFF7FEFF 		bl	lorawan_api_class_b_enabled
 1401 0060 2800     		movs	r0, r5
 1402 0062 E0E7     		b	.L219
 1403              	.L211:
 1404 0064 2800     		movs	r0, r5
 1405 0066 FFF7FEFF 		bl	lorawan_api_class_b_enabled
 1406 006a 0120     		movs	r0, #1
 1407 006c DBE7     		b	.L219
 1408              	.L221:
 1409 006e C046     		.align	2
 1410              	.L220:
 1411 0070 2C000000 		.word	smtc_modem_services_ctx+44
 1412 0074 00000000 		.word	.LC59
 1413 0078 30000000 		.word	.LC3
 1414 007c 43000000 		.word	.LC62
 1416              		.section	.text.smtc_modem_multicast_set_grp_config,"ax",%progbits
 1417              		.align	1
 1418              		.global	smtc_modem_multicast_set_grp_config
 1419              		.syntax unified
 1420              		.code	16
 1421              		.thumb_func
 1423              	smtc_modem_multicast_set_grp_config:
 1424              		@ args = 4, pretend = 0, frame = 0
 1425              		@ frame_needed = 0, uses_anonymous_args = 0
 1426 0000 70B5     		push	{r4, r5, r6, lr}
 1427 0002 1D00     		movs	r5, r3
 1428 0004 0C00     		movs	r4, r1
 1429 0006 1600     		movs	r6, r2
 1430 0008 FFF7FEFF 		bl	modem_get_test_mode_status
 1431 000c 0300     		movs	r3, r0
 1432 000e 0520     		movs	r0, #5
ARM GAS  /tmp/ccQgeTV1.s 			page 26


 1433 0010 002B     		cmp	r3, #0
 1434 0012 14D1     		bne	.L223
 1435 0014 002D     		cmp	r5, #0
 1436 0016 11D0     		beq	.L224
 1437 0018 049B     		ldr	r3, [sp, #16]
 1438 001a 002B     		cmp	r3, #0
 1439 001c 0ED0     		beq	.L224
 1440 001e 3100     		movs	r1, r6
 1441 0020 2000     		movs	r0, r4
 1442 0022 FFF7FEFF 		bl	lorawan_api_multicast_set_group_address
 1443 0026 0028     		cmp	r0, #0
 1444 0028 06D1     		bne	.L225
 1445 002a 2900     		movs	r1, r5
 1446 002c 2000     		movs	r0, r4
 1447 002e 049A     		ldr	r2, [sp, #16]
 1448 0030 FFF7FEFF 		bl	lorawan_api_multicast_set_group_session_keys
 1449 0034 0028     		cmp	r0, #0
 1450 0036 02D0     		beq	.L223
 1451              	.L225:
 1452 0038 0128     		cmp	r0, #1
 1453 003a 01D1     		bne	.L227
 1454              	.L224:
 1455 003c 0420     		movs	r0, #4
 1456              	.L223:
 1457              		@ sp needed
 1458 003e 70BD     		pop	{r4, r5, r6, pc}
 1459              	.L227:
 1460 0040 0620     		movs	r0, #6
 1461 0042 FCE7     		b	.L223
 1463              		.section	.text.smtc_modem_multicast_get_grp_config,"ax",%progbits
 1464              		.align	1
 1465              		.global	smtc_modem_multicast_get_grp_config
 1466              		.syntax unified
 1467              		.code	16
 1468              		.thumb_func
 1470              	smtc_modem_multicast_get_grp_config:
 1471              		@ args = 0, pretend = 0, frame = 0
 1472              		@ frame_needed = 0, uses_anonymous_args = 0
 1473 0000 70B5     		push	{r4, r5, r6, lr}
 1474 0002 0D00     		movs	r5, r1
 1475 0004 1400     		movs	r4, r2
 1476 0006 FFF7FEFF 		bl	modem_get_test_mode_status
 1477 000a 0300     		movs	r3, r0
 1478 000c 0520     		movs	r0, #5
 1479 000e 002B     		cmp	r3, #0
 1480 0010 0BD1     		bne	.L238
 1481 0012 002C     		cmp	r4, #0
 1482 0014 08D0     		beq	.L239
 1483 0016 2100     		movs	r1, r4
 1484 0018 2800     		movs	r0, r5
 1485 001a FFF7FEFF 		bl	lorawan_api_multicast_get_group_address
 1486 001e 031E     		subs	r3, r0, #0
 1487 0020 03D0     		beq	.L238
 1488 0022 0620     		movs	r0, #6
 1489 0024 012B     		cmp	r3, #1
 1490 0026 00D1     		bne	.L238
 1491              	.L239:
ARM GAS  /tmp/ccQgeTV1.s 			page 27


 1492 0028 0420     		movs	r0, #4
 1493              	.L238:
 1494              		@ sp needed
 1495 002a 70BD     		pop	{r4, r5, r6, pc}
 1497              		.section	.text.smtc_modem_multicast_class_c_start_session,"ax",%progbits
 1498              		.align	1
 1499              		.global	smtc_modem_multicast_class_c_start_session
 1500              		.syntax unified
 1501              		.code	16
 1502              		.thumb_func
 1504              	smtc_modem_multicast_class_c_start_session:
 1505              		@ args = 0, pretend = 0, frame = 0
 1506              		@ frame_needed = 0, uses_anonymous_args = 0
 1507 0000 F8B5     		push	{r3, r4, r5, r6, r7, lr}
 1508 0002 0D00     		movs	r5, r1
 1509 0004 1600     		movs	r6, r2
 1510 0006 1F00     		movs	r7, r3
 1511 0008 FFF7FEFF 		bl	modem_get_test_mode_status
 1512 000c 0400     		movs	r4, r0
 1513 000e 0520     		movs	r0, #5
 1514 0010 002C     		cmp	r4, #0
 1515 0012 11D1     		bne	.L249
 1516 0014 3A00     		movs	r2, r7
 1517 0016 3100     		movs	r1, r6
 1518 0018 2800     		movs	r0, r5
 1519 001a FFF7FEFF 		bl	lorawan_api_multicast_c_start_session
 1520 001e 0300     		movs	r3, r0
 1521 0020 0420     		movs	r0, #4
 1522 0022 012B     		cmp	r3, #1
 1523 0024 08D0     		beq	.L249
 1524 0026 2000     		movs	r0, r4
 1525 0028 012B     		cmp	r3, #1
 1526 002a 05D9     		bls	.L249
 1527 002c 043B     		subs	r3, r3, #4
 1528 002e DBB2     		uxtb	r3, r3
 1529 0030 0430     		adds	r0, r0, #4
 1530 0032 012B     		cmp	r3, #1
 1531 0034 00D9     		bls	.L249
 1532 0036 0230     		adds	r0, r0, #2
 1533              	.L249:
 1534              		@ sp needed
 1535 0038 F8BD     		pop	{r3, r4, r5, r6, r7, pc}
 1537              		.section	.text.smtc_modem_multicast_class_c_get_session_status,"ax",%progbits
 1538              		.align	1
 1539              		.global	smtc_modem_multicast_class_c_get_session_status
 1540              		.syntax unified
 1541              		.code	16
 1542              		.thumb_func
 1544              	smtc_modem_multicast_class_c_get_session_status:
 1545              		@ args = 4, pretend = 0, frame = 0
 1546              		@ frame_needed = 0, uses_anonymous_args = 0
 1547 0000 70B5     		push	{r4, r5, r6, lr}
 1548 0002 1D00     		movs	r5, r3
 1549 0004 0E00     		movs	r6, r1
 1550 0006 1400     		movs	r4, r2
 1551 0008 FFF7FEFF 		bl	modem_get_test_mode_status
 1552 000c 0300     		movs	r3, r0
ARM GAS  /tmp/ccQgeTV1.s 			page 28


 1553 000e 0520     		movs	r0, #5
 1554 0010 002B     		cmp	r3, #0
 1555 0012 11D1     		bne	.L255
 1556 0014 002C     		cmp	r4, #0
 1557 0016 0ED0     		beq	.L256
 1558 0018 002D     		cmp	r5, #0
 1559 001a 0CD0     		beq	.L256
 1560 001c 049B     		ldr	r3, [sp, #16]
 1561 001e 002B     		cmp	r3, #0
 1562 0020 09D0     		beq	.L256
 1563 0022 2A00     		movs	r2, r5
 1564 0024 2100     		movs	r1, r4
 1565 0026 3000     		movs	r0, r6
 1566 0028 FFF7FEFF 		bl	lorawan_api_multicast_c_get_session_status
 1567 002c 031E     		subs	r3, r0, #0
 1568 002e 03D0     		beq	.L255
 1569 0030 0620     		movs	r0, #6
 1570 0032 012B     		cmp	r3, #1
 1571 0034 00D1     		bne	.L255
 1572              	.L256:
 1573 0036 0420     		movs	r0, #4
 1574              	.L255:
 1575              		@ sp needed
 1576 0038 70BD     		pop	{r4, r5, r6, pc}
 1578              		.section	.text.smtc_modem_multicast_class_c_stop_session,"ax",%progbits
 1579              		.align	1
 1580              		.global	smtc_modem_multicast_class_c_stop_session
 1581              		.syntax unified
 1582              		.code	16
 1583              		.thumb_func
 1585              	smtc_modem_multicast_class_c_stop_session:
 1586              		@ args = 0, pretend = 0, frame = 0
 1587              		@ frame_needed = 0, uses_anonymous_args = 0
 1588 0000 10B5     		push	{r4, lr}
 1589 0002 0C00     		movs	r4, r1
 1590 0004 FFF7FEFF 		bl	modem_get_test_mode_status
 1591 0008 0300     		movs	r3, r0
 1592 000a 0520     		movs	r0, #5
 1593 000c 002B     		cmp	r3, #0
 1594 000e 08D1     		bne	.L272
 1595 0010 2000     		movs	r0, r4
 1596 0012 FFF7FEFF 		bl	lorawan_api_multicast_c_stop_session
 1597 0016 031E     		subs	r3, r0, #0
 1598 0018 03D0     		beq	.L272
 1599 001a 0420     		movs	r0, #4
 1600 001c 012B     		cmp	r3, #1
 1601 001e 00D0     		beq	.L272
 1602 0020 0230     		adds	r0, r0, #2
 1603              	.L272:
 1604              		@ sp needed
 1605 0022 10BD     		pop	{r4, pc}
 1607              		.section	.text.smtc_modem_multicast_class_c_stop_all_sessions,"ax",%progbits
 1608              		.align	1
 1609              		.global	smtc_modem_multicast_class_c_stop_all_sessions
 1610              		.syntax unified
 1611              		.code	16
 1612              		.thumb_func
ARM GAS  /tmp/ccQgeTV1.s 			page 29


 1614              	smtc_modem_multicast_class_c_stop_all_sessions:
 1615              		@ args = 0, pretend = 0, frame = 0
 1616              		@ frame_needed = 0, uses_anonymous_args = 0
 1617 0000 10B5     		push	{r4, lr}
 1618 0002 FFF7FEFF 		bl	modem_get_test_mode_status
 1619 0006 0300     		movs	r3, r0
 1620 0008 0520     		movs	r0, #5
 1621 000a 002B     		cmp	r3, #0
 1622 000c 04D1     		bne	.L280
 1623 000e FFF7FEFF 		bl	lorawan_api_multicast_c_stop_all_sessions
 1624 0012 0028     		cmp	r0, #0
 1625 0014 00D0     		beq	.L280
 1626 0016 0620     		movs	r0, #6
 1627              	.L280:
 1628              		@ sp needed
 1629 0018 10BD     		pop	{r4, pc}
 1631              		.section	.text.smtc_modem_multicast_class_b_start_session,"ax",%progbits
 1632              		.align	1
 1633              		.global	smtc_modem_multicast_class_b_start_session
 1634              		.syntax unified
 1635              		.code	16
 1636              		.thumb_func
 1638              	smtc_modem_multicast_class_b_start_session:
 1639              		@ args = 4, pretend = 0, frame = 8
 1640              		@ frame_needed = 0, uses_anonymous_args = 0
 1641 0000 F7B5     		push	{r0, r1, r2, r4, r5, r6, r7, lr}
 1642 0002 1E00     		movs	r6, r3
 1643 0004 08AB     		add	r3, sp, #32
 1644 0006 0D00     		movs	r5, r1
 1645 0008 1F78     		ldrb	r7, [r3]
 1646 000a 0192     		str	r2, [sp, #4]
 1647 000c FFF7FEFF 		bl	modem_get_test_mode_status
 1648 0010 0400     		movs	r4, r0
 1649 0012 0520     		movs	r0, #5
 1650 0014 002C     		cmp	r4, #0
 1651 0016 12D1     		bne	.L284
 1652 0018 3B00     		movs	r3, r7
 1653 001a 3200     		movs	r2, r6
 1654 001c 2800     		movs	r0, r5
 1655 001e 0199     		ldr	r1, [sp, #4]
 1656 0020 FFF7FEFF 		bl	lorawan_api_multicast_b_start_session
 1657 0024 0300     		movs	r3, r0
 1658 0026 0420     		movs	r0, #4
 1659 0028 012B     		cmp	r3, #1
 1660 002a 08D0     		beq	.L284
 1661 002c 2000     		movs	r0, r4
 1662 002e 012B     		cmp	r3, #1
 1663 0030 05D9     		bls	.L284
 1664 0032 043B     		subs	r3, r3, #4
 1665 0034 DBB2     		uxtb	r3, r3
 1666 0036 0430     		adds	r0, r0, #4
 1667 0038 012B     		cmp	r3, #1
 1668 003a 00D9     		bls	.L284
 1669 003c 0230     		adds	r0, r0, #2
 1670              	.L284:
 1671              		@ sp needed
 1672 003e FEBD     		pop	{r1, r2, r3, r4, r5, r6, r7, pc}
ARM GAS  /tmp/ccQgeTV1.s 			page 30


 1674              		.section	.text.smtc_modem_multicast_class_b_get_session_status,"ax",%progbits
 1675              		.align	1
 1676              		.global	smtc_modem_multicast_class_b_get_session_status
 1677              		.syntax unified
 1678              		.code	16
 1679              		.thumb_func
 1681              	smtc_modem_multicast_class_b_get_session_status:
 1682              		@ args = 12, pretend = 0, frame = 0
 1683              		@ frame_needed = 0, uses_anonymous_args = 0
 1684 0000 F7B5     		push	{r0, r1, r2, r4, r5, r6, r7, lr}
 1685 0002 0A9F     		ldr	r7, [sp, #40]
 1686 0004 1D00     		movs	r5, r3
 1687 0006 0E00     		movs	r6, r1
 1688 0008 1400     		movs	r4, r2
 1689 000a FFF7FEFF 		bl	modem_get_test_mode_status
 1690 000e 0300     		movs	r3, r0
 1691 0010 0520     		movs	r0, #5
 1692 0012 002B     		cmp	r3, #0
 1693 0014 19D1     		bne	.L290
 1694 0016 002C     		cmp	r4, #0
 1695 0018 16D0     		beq	.L291
 1696 001a 002D     		cmp	r5, #0
 1697 001c 14D0     		beq	.L291
 1698 001e 089B     		ldr	r3, [sp, #32]
 1699 0020 002B     		cmp	r3, #0
 1700 0022 11D0     		beq	.L291
 1701 0024 099B     		ldr	r3, [sp, #36]
 1702 0026 002B     		cmp	r3, #0
 1703 0028 0ED0     		beq	.L291
 1704 002a 002F     		cmp	r7, #0
 1705 002c 0CD0     		beq	.L291
 1706 002e 0093     		str	r3, [sp]
 1707 0030 2A00     		movs	r2, r5
 1708 0032 089B     		ldr	r3, [sp, #32]
 1709 0034 2100     		movs	r1, r4
 1710 0036 3000     		movs	r0, r6
 1711 0038 0197     		str	r7, [sp, #4]
 1712 003a FFF7FEFF 		bl	lorawan_api_multicast_b_get_session_status
 1713 003e 031E     		subs	r3, r0, #0
 1714 0040 03D0     		beq	.L290
 1715 0042 0620     		movs	r0, #6
 1716 0044 012B     		cmp	r3, #1
 1717 0046 00D1     		bne	.L290
 1718              	.L291:
 1719 0048 0420     		movs	r0, #4
 1720              	.L290:
 1721              		@ sp needed
 1722 004a FEBD     		pop	{r1, r2, r3, r4, r5, r6, r7, pc}
 1724              		.section	.text.smtc_modem_multicast_class_b_stop_session,"ax",%progbits
 1725              		.align	1
 1726              		.global	smtc_modem_multicast_class_b_stop_session
 1727              		.syntax unified
 1728              		.code	16
 1729              		.thumb_func
 1731              	smtc_modem_multicast_class_b_stop_session:
 1732              		@ args = 0, pretend = 0, frame = 0
 1733              		@ frame_needed = 0, uses_anonymous_args = 0
ARM GAS  /tmp/ccQgeTV1.s 			page 31


 1734 0000 10B5     		push	{r4, lr}
 1735 0002 0C00     		movs	r4, r1
 1736 0004 FFF7FEFF 		bl	modem_get_test_mode_status
 1737 0008 0300     		movs	r3, r0
 1738 000a 0520     		movs	r0, #5
 1739 000c 002B     		cmp	r3, #0
 1740 000e 08D1     		bne	.L313
 1741 0010 2000     		movs	r0, r4
 1742 0012 FFF7FEFF 		bl	lorawan_api_multicast_b_stop_session
 1743 0016 031E     		subs	r3, r0, #0
 1744 0018 03D0     		beq	.L313
 1745 001a 0420     		movs	r0, #4
 1746 001c 012B     		cmp	r3, #1
 1747 001e 00D0     		beq	.L313
 1748 0020 0230     		adds	r0, r0, #2
 1749              	.L313:
 1750              		@ sp needed
 1751 0022 10BD     		pop	{r4, pc}
 1753              		.section	.text.smtc_modem_multicast_class_b_stop_all_sessions,"ax",%progbits
 1754              		.align	1
 1755              		.global	smtc_modem_multicast_class_b_stop_all_sessions
 1756              		.syntax unified
 1757              		.code	16
 1758              		.thumb_func
 1760              	smtc_modem_multicast_class_b_stop_all_sessions:
 1761              		@ args = 0, pretend = 0, frame = 0
 1762              		@ frame_needed = 0, uses_anonymous_args = 0
 1763 0000 10B5     		push	{r4, lr}
 1764 0002 FFF7FEFF 		bl	modem_get_test_mode_status
 1765 0006 0300     		movs	r3, r0
 1766 0008 0520     		movs	r0, #5
 1767 000a 002B     		cmp	r3, #0
 1768 000c 04D1     		bne	.L321
 1769 000e FFF7FEFF 		bl	lorawan_api_multicast_b_stop_all_sessions
 1770 0012 0028     		cmp	r0, #0
 1771 0014 00D0     		beq	.L321
 1772 0016 0620     		movs	r0, #6
 1773              	.L321:
 1774              		@ sp needed
 1775 0018 10BD     		pop	{r4, pc}
 1777              		.section	.text.smtc_modem_get_region,"ax",%progbits
 1778              		.align	1
 1779              		.global	smtc_modem_get_region
 1780              		.syntax unified
 1781              		.code	16
 1782              		.thumb_func
 1784              	smtc_modem_get_region:
 1785              		@ args = 0, pretend = 0, frame = 0
 1786              		@ frame_needed = 0, uses_anonymous_args = 0
 1787 0000 70B5     		push	{r4, r5, r6, lr}
 1788 0002 0D00     		movs	r5, r1
 1789 0004 FFF7FEFF 		bl	modem_get_test_mode_status
 1790 0008 0400     		movs	r4, r0
 1791 000a 0520     		movs	r0, #5
 1792 000c 002C     		cmp	r4, #0
 1793 000e 06D1     		bne	.L325
 1794 0010 0138     		subs	r0, r0, #1
ARM GAS  /tmp/ccQgeTV1.s 			page 32


 1795 0012 002D     		cmp	r5, #0
 1796 0014 03D0     		beq	.L325
 1797 0016 FFF7FEFF 		bl	get_modem_region
 1798 001a 2870     		strb	r0, [r5]
 1799 001c 2000     		movs	r0, r4
 1800              	.L325:
 1801              		@ sp needed
 1802 001e 70BD     		pop	{r4, r5, r6, pc}
 1804              		.section	.rodata.smtc_modem_set_region.str1.1,"aMS",%progbits,1
 1805              	.LC67:
 1806 0000 1B5B303B 		.ascii	"\033[0;31mERROR: %s call with region not valid\012\015"
 1806      33316D45 
 1806      52524F52 
 1806      3A202573 
 1806      2063616C 
 1807 002d 00       		.ascii	"\000"
 1808              		.section	.text.smtc_modem_set_region,"ax",%progbits
 1809              		.align	1
 1810              		.global	smtc_modem_set_region
 1811              		.syntax unified
 1812              		.code	16
 1813              		.thumb_func
 1815              	smtc_modem_set_region:
 1816              		@ args = 0, pretend = 0, frame = 0
 1817              		@ frame_needed = 0, uses_anonymous_args = 0
 1818 0000 70B5     		push	{r4, r5, r6, lr}
 1819 0002 0D00     		movs	r5, r1
 1820 0004 FFF7FEFF 		bl	modem_get_test_mode_status
 1821 0008 0028     		cmp	r0, #0
 1822 000a 0AD1     		bne	.L329
 1823 000c FFF7FEFF 		bl	get_join_state
 1824 0010 041E     		subs	r4, r0, #0
 1825 0012 09D0     		beq	.L330
 1826 0014 0B48     		ldr	r0, .L332
 1827 0016 0C49     		ldr	r1, .L332+4
 1828 0018 FFF7FEFF 		bl	smtc_modem_hal_print_trace
 1829 001c 0B48     		ldr	r0, .L332+8
 1830 001e FFF7FEFF 		bl	smtc_modem_hal_print_trace
 1831              	.L329:
 1832 0022 0524     		movs	r4, #5
 1833              	.L331:
 1834              		@ sp needed
 1835 0024 2000     		movs	r0, r4
 1836 0026 70BD     		pop	{r4, r5, r6, pc}
 1837              	.L330:
 1838 0028 2800     		movs	r0, r5
 1839 002a FFF7FEFF 		bl	set_modem_region
 1840 002e 0028     		cmp	r0, #0
 1841 0030 F8D1     		bne	.L331
 1842 0032 0549     		ldr	r1, .L332+4
 1843 0034 0648     		ldr	r0, .L332+12
 1844 0036 FFF7FEFF 		bl	smtc_modem_hal_print_trace
 1845 003a 0448     		ldr	r0, .L332+8
 1846 003c FFF7FEFF 		bl	smtc_modem_hal_print_trace
 1847 0040 0424     		movs	r4, #4
 1848 0042 EFE7     		b	.L331
 1849              	.L333:
ARM GAS  /tmp/ccQgeTV1.s 			page 33


 1850              		.align	2
 1851              	.L332:
 1852 0044 00000000 		.word	.LC49
 1853 0048 00000000 		.word	__func__.9
 1854 004c 30000000 		.word	.LC3
 1855 0050 00000000 		.word	.LC67
 1857              		.section	.text.smtc_modem_adr_get_profile,"ax",%progbits
 1858              		.align	1
 1859              		.global	smtc_modem_adr_get_profile
 1860              		.syntax unified
 1861              		.code	16
 1862              		.thumb_func
 1864              	smtc_modem_adr_get_profile:
 1865              		@ args = 0, pretend = 0, frame = 0
 1866              		@ frame_needed = 0, uses_anonymous_args = 0
 1867 0000 70B5     		push	{r4, r5, r6, lr}
 1868 0002 0D00     		movs	r5, r1
 1869 0004 FFF7FEFF 		bl	modem_get_test_mode_status
 1870 0008 0400     		movs	r4, r0
 1871 000a 0520     		movs	r0, #5
 1872 000c 002C     		cmp	r4, #0
 1873 000e 06D1     		bne	.L335
 1874 0010 0138     		subs	r0, r0, #1
 1875 0012 002D     		cmp	r5, #0
 1876 0014 03D0     		beq	.L335
 1877 0016 FFF7FEFF 		bl	get_modem_adr_profile
 1878 001a 2870     		strb	r0, [r5]
 1879 001c 2000     		movs	r0, r4
 1880              	.L335:
 1881              		@ sp needed
 1882 001e 70BD     		pop	{r4, r5, r6, pc}
 1884              		.section	.rodata.smtc_modem_adr_set_profile.str1.1,"aMS",%progbits,1
 1885              	.LC70:
 1886 0000 1B5B303B 		.ascii	"\033[0;31mERROR: %s call with adr profile not valid"
 1886      33316D45 
 1886      52524F52 
 1886      3A202573 
 1886      2063616C 
 1887 0030 0A0D00   		.ascii	"\012\015\000"
 1888              		.section	.text.smtc_modem_adr_set_profile,"ax",%progbits
 1889              		.align	1
 1890              		.global	smtc_modem_adr_set_profile
 1891              		.syntax unified
 1892              		.code	16
 1893              		.thumb_func
 1895              	smtc_modem_adr_set_profile:
 1896              		@ args = 0, pretend = 0, frame = 0
 1897              		@ frame_needed = 0, uses_anonymous_args = 0
 1898 0000 70B5     		push	{r4, r5, r6, lr}
 1899 0002 0D00     		movs	r5, r1
 1900 0004 1600     		movs	r6, r2
 1901 0006 FFF7FEFF 		bl	modem_get_test_mode_status
 1902 000a 0400     		movs	r4, r0
 1903 000c 0520     		movs	r0, #5
 1904 000e 002C     		cmp	r4, #0
 1905 0010 05D1     		bne	.L339
 1906 0012 032D     		cmp	r5, #3
ARM GAS  /tmp/ccQgeTV1.s 			page 34


 1907 0014 04D1     		bne	.L340
 1908 0016 1022     		movs	r2, #16
 1909 0018 002E     		cmp	r6, #0
 1910 001a 04D1     		bne	.L350
 1911              	.L341:
 1912 001c 0420     		movs	r0, #4
 1913              	.L339:
 1914              		@ sp needed
 1915 001e 70BD     		pop	{r4, r5, r6, pc}
 1916              	.L340:
 1917 0020 022D     		cmp	r5, #2
 1918 0022 05D8     		bhi	.L342
 1919 0024 2200     		movs	r2, r4
 1920              	.L350:
 1921 0026 3100     		movs	r1, r6
 1922 0028 2800     		movs	r0, r5
 1923 002a FFF7FEFF 		bl	set_modem_adr_profile
 1924 002e 0400     		movs	r4, r0
 1925              	.L342:
 1926 0030 013D     		subs	r5, r5, #1
 1927 0032 022D     		cmp	r5, #2
 1928 0034 01D8     		bhi	.L343
 1929 0036 FFF7FEFF 		bl	lorawan_api_reset_no_rx_packet_in_mobile_mode_cnt
 1930              	.L343:
 1931 003a 0020     		movs	r0, #0
 1932 003c 8442     		cmp	r4, r0
 1933 003e EED1     		bne	.L339
 1934 0040 0349     		ldr	r1, .L351
 1935 0042 0448     		ldr	r0, .L351+4
 1936 0044 FFF7FEFF 		bl	smtc_modem_hal_print_trace
 1937 0048 0348     		ldr	r0, .L351+8
 1938 004a FFF7FEFF 		bl	smtc_modem_hal_print_trace
 1939 004e E5E7     		b	.L341
 1940              	.L352:
 1941              		.align	2
 1942              	.L351:
 1943 0050 00000000 		.word	__func__.8
 1944 0054 00000000 		.word	.LC70
 1945 0058 30000000 		.word	.LC3
 1947              		.section	.text.smtc_modem_get_available_datarates,"ax",%progbits
 1948              		.align	1
 1949              		.global	smtc_modem_get_available_datarates
 1950              		.syntax unified
 1951              		.code	16
 1952              		.thumb_func
 1954              	smtc_modem_get_available_datarates:
 1955              		@ args = 0, pretend = 0, frame = 0
 1956              		@ frame_needed = 0, uses_anonymous_args = 0
 1957 0000 70B5     		push	{r4, r5, r6, lr}
 1958 0002 0D00     		movs	r5, r1
 1959 0004 FFF7FEFF 		bl	modem_get_test_mode_status
 1960 0008 0400     		movs	r4, r0
 1961 000a 0520     		movs	r0, #5
 1962 000c 002C     		cmp	r4, #0
 1963 000e 06D1     		bne	.L354
 1964 0010 0138     		subs	r0, r0, #1
 1965 0012 002D     		cmp	r5, #0
ARM GAS  /tmp/ccQgeTV1.s 			page 35


 1966 0014 03D0     		beq	.L354
 1967 0016 FFF7FEFF 		bl	lorawan_api_mask_tx_dr_channel_up_dwell_time_check
 1968 001a 2880     		strh	r0, [r5]
 1969 001c 2000     		movs	r0, r4
 1970              	.L354:
 1971              		@ sp needed
 1972 001e 70BD     		pop	{r4, r5, r6, pc}
 1974              		.section	.text.smtc_modem_dm_get_fport,"ax",%progbits
 1975              		.align	1
 1976              		.global	smtc_modem_dm_get_fport
 1977              		.syntax unified
 1978              		.code	16
 1979              		.thumb_func
 1981              	smtc_modem_dm_get_fport:
 1982              		@ args = 0, pretend = 0, frame = 0
 1983              		@ frame_needed = 0, uses_anonymous_args = 0
 1984 0000 70B5     		push	{r4, r5, r6, lr}
 1985 0002 0500     		movs	r5, r0
 1986 0004 FFF7FEFF 		bl	modem_get_test_mode_status
 1987 0008 0400     		movs	r4, r0
 1988 000a 0520     		movs	r0, #5
 1989 000c 002C     		cmp	r4, #0
 1990 000e 06D1     		bne	.L358
 1991 0010 0138     		subs	r0, r0, #1
 1992 0012 002D     		cmp	r5, #0
 1993 0014 03D0     		beq	.L358
 1994 0016 FFF7FEFF 		bl	get_modem_dm_port
 1995 001a 2870     		strb	r0, [r5]
 1996 001c 2000     		movs	r0, r4
 1997              	.L358:
 1998              		@ sp needed
 1999 001e 70BD     		pop	{r4, r5, r6, pc}
 2001              		.section	.rodata.smtc_modem_dm_set_fport.str1.1,"aMS",%progbits,1
 2002              	.LC74:
 2003 0000 1B5B303B 		.ascii	"\033[0;31mERROR: %s call with DM port not valid\012"
 2003      33316D45 
 2003      52524F52 
 2003      3A202573 
 2003      2063616C 
 2004 002d 0D00     		.ascii	"\015\000"
 2005              		.section	.text.smtc_modem_dm_set_fport,"ax",%progbits
 2006              		.align	1
 2007              		.global	smtc_modem_dm_set_fport
 2008              		.syntax unified
 2009              		.code	16
 2010              		.thumb_func
 2012              	smtc_modem_dm_set_fport:
 2013              		@ args = 0, pretend = 0, frame = 0
 2014              		@ frame_needed = 0, uses_anonymous_args = 0
 2015 0000 70B5     		push	{r4, r5, r6, lr}
 2016 0002 0500     		movs	r5, r0
 2017 0004 FFF7FEFF 		bl	modem_get_test_mode_status
 2018 0008 0523     		movs	r3, #5
 2019 000a 041E     		subs	r4, r0, #0
 2020 000c 0DD1     		bne	.L362
 2021 000e 2800     		movs	r0, r5
 2022 0010 FFF7FEFF 		bl	set_modem_dm_port
ARM GAS  /tmp/ccQgeTV1.s 			page 36


 2023 0014 2300     		movs	r3, r4
 2024 0016 0028     		cmp	r0, #0
 2025 0018 07D1     		bne	.L362
 2026 001a 0549     		ldr	r1, .L365
 2027 001c 0548     		ldr	r0, .L365+4
 2028 001e FFF7FEFF 		bl	smtc_modem_hal_print_trace
 2029 0022 0548     		ldr	r0, .L365+8
 2030 0024 FFF7FEFF 		bl	smtc_modem_hal_print_trace
 2031 0028 0423     		movs	r3, #4
 2032              	.L362:
 2033              		@ sp needed
 2034 002a 1800     		movs	r0, r3
 2035 002c 70BD     		pop	{r4, r5, r6, pc}
 2036              	.L366:
 2037 002e C046     		.align	2
 2038              	.L365:
 2039 0030 00000000 		.word	__func__.7
 2040 0034 00000000 		.word	.LC74
 2041 0038 30000000 		.word	.LC3
 2043              		.section	.text.smtc_modem_dm_get_info_interval,"ax",%progbits
 2044              		.align	1
 2045              		.global	smtc_modem_dm_get_info_interval
 2046              		.syntax unified
 2047              		.code	16
 2048              		.thumb_func
 2050              	smtc_modem_dm_get_info_interval:
 2051              		@ args = 0, pretend = 0, frame = 0
 2052              		@ frame_needed = 0, uses_anonymous_args = 0
 2053 0000 70B5     		push	{r4, r5, r6, lr}
 2054 0002 0600     		movs	r6, r0
 2055 0004 0D00     		movs	r5, r1
 2056 0006 FFF7FEFF 		bl	modem_get_test_mode_status
 2057 000a 0400     		movs	r4, r0
 2058 000c 0520     		movs	r0, #5
 2059 000e 002C     		cmp	r4, #0
 2060 0010 0CD1     		bne	.L368
 2061 0012 0138     		subs	r0, r0, #1
 2062 0014 002E     		cmp	r6, #0
 2063 0016 09D0     		beq	.L368
 2064 0018 002D     		cmp	r5, #0
 2065 001a 07D0     		beq	.L368
 2066 001c FFF7FEFF 		bl	get_modem_dm_interval
 2067 0020 8309     		lsrs	r3, r0, #6
 2068 0022 3370     		strb	r3, [r6]
 2069 0024 3F23     		movs	r3, #63
 2070 0026 1840     		ands	r0, r3
 2071 0028 2870     		strb	r0, [r5]
 2072 002a 2000     		movs	r0, r4
 2073              	.L368:
 2074              		@ sp needed
 2075 002c 70BD     		pop	{r4, r5, r6, pc}
 2077              		.section	.rodata.smtc_modem_dm_set_info_interval.str1.1,"aMS",%progbits,1
 2078              	.LC78:
 2079 0000 1B5B303B 		.ascii	"\033[0;31mERROR: %s call but interval not valid\012"
 2079      33316D45 
 2079      52524F52 
 2079      3A202573 
ARM GAS  /tmp/ccQgeTV1.s 			page 37


 2079      2063616C 
 2080 002d 0D00     		.ascii	"\015\000"
 2081              		.section	.text.smtc_modem_dm_set_info_interval,"ax",%progbits
 2082              		.align	1
 2083              		.global	smtc_modem_dm_set_info_interval
 2084              		.syntax unified
 2085              		.code	16
 2086              		.thumb_func
 2088              	smtc_modem_dm_set_info_interval:
 2089              		@ args = 0, pretend = 0, frame = 0
 2090              		@ frame_needed = 0, uses_anonymous_args = 0
 2091 0000 70B5     		push	{r4, r5, r6, lr}
 2092 0002 0600     		movs	r6, r0
 2093 0004 0C00     		movs	r4, r1
 2094 0006 FFF7FEFF 		bl	modem_get_test_mode_status
 2095 000a 0500     		movs	r5, r0
 2096 000c 0520     		movs	r0, #5
 2097 000e 002D     		cmp	r5, #0
 2098 0010 04D1     		bne	.L373
 2099 0012 032E     		cmp	r6, #3
 2100 0014 01D8     		bhi	.L374
 2101 0016 3F2C     		cmp	r4, #63
 2102 0018 01D9     		bls	.L375
 2103              	.L374:
 2104 001a 0420     		movs	r0, #4
 2105              	.L373:
 2106              		@ sp needed
 2107 001c 70BD     		pop	{r4, r5, r6, pc}
 2108              	.L375:
 2109 001e B601     		lsls	r6, r6, #6
 2110 0020 3443     		orrs	r4, r6
 2111 0022 E0B2     		uxtb	r0, r4
 2112 0024 FFF7FEFF 		bl	set_modem_dm_interval
 2113 0028 0028     		cmp	r0, #0
 2114 002a 07D1     		bne	.L376
 2115 002c 0649     		ldr	r1, .L378
 2116 002e 0748     		ldr	r0, .L378+4
 2117 0030 FFF7FEFF 		bl	smtc_modem_hal_print_trace
 2118 0034 0648     		ldr	r0, .L378+8
 2119 0036 FFF7FEFF 		bl	smtc_modem_hal_print_trace
 2120 003a EEE7     		b	.L374
 2121              	.L376:
 2122 003c FFF7FEFF 		bl	get_modem_dm_interval_second
 2123 0040 FFF7FEFF 		bl	modem_supervisor_add_task_dm_status
 2124 0044 2800     		movs	r0, r5
 2125 0046 E9E7     		b	.L373
 2126              	.L379:
 2127              		.align	2
 2128              	.L378:
 2129 0048 00000000 		.word	__func__.6
 2130 004c 00000000 		.word	.LC78
 2131 0050 30000000 		.word	.LC3
 2133              		.section	.text.smtc_modem_dm_get_info_fields,"ax",%progbits
 2134              		.align	1
 2135              		.global	smtc_modem_dm_get_info_fields
 2136              		.syntax unified
 2137              		.code	16
ARM GAS  /tmp/ccQgeTV1.s 			page 38


 2138              		.thumb_func
 2140              	smtc_modem_dm_get_info_fields:
 2141              		@ args = 0, pretend = 0, frame = 0
 2142              		@ frame_needed = 0, uses_anonymous_args = 0
 2143 0000 70B5     		push	{r4, r5, r6, lr}
 2144 0002 0600     		movs	r6, r0
 2145 0004 0D00     		movs	r5, r1
 2146 0006 FFF7FEFF 		bl	modem_get_test_mode_status
 2147 000a 0400     		movs	r4, r0
 2148 000c 0520     		movs	r0, #5
 2149 000e 002C     		cmp	r4, #0
 2150 0010 0AD1     		bne	.L381
 2151 0012 0138     		subs	r0, r0, #1
 2152 0014 002E     		cmp	r6, #0
 2153 0016 07D0     		beq	.L381
 2154 0018 002D     		cmp	r5, #0
 2155 001a 05D0     		beq	.L381
 2156 001c 2100     		movs	r1, r4
 2157 001e 3000     		movs	r0, r6
 2158 0020 FFF7FEFF 		bl	get_dm_info_tag_list
 2159 0024 2870     		strb	r0, [r5]
 2160 0026 2000     		movs	r0, r4
 2161              	.L381:
 2162              		@ sp needed
 2163 0028 70BD     		pop	{r4, r5, r6, pc}
 2165              		.section	.text.smtc_modem_dm_set_info_fields,"ax",%progbits
 2166              		.align	1
 2167              		.global	smtc_modem_dm_set_info_fields
 2168              		.syntax unified
 2169              		.code	16
 2170              		.thumb_func
 2172              	smtc_modem_dm_set_info_fields:
 2173              		@ args = 0, pretend = 0, frame = 0
 2174              		@ frame_needed = 0, uses_anonymous_args = 0
 2175 0000 70B5     		push	{r4, r5, r6, lr}
 2176 0002 0400     		movs	r4, r0
 2177 0004 0D00     		movs	r5, r1
 2178 0006 FFF7FEFF 		bl	modem_get_test_mode_status
 2179 000a 0200     		movs	r2, r0
 2180 000c 0520     		movs	r0, #5
 2181 000e 002A     		cmp	r2, #0
 2182 0010 09D1     		bne	.L386
 2183 0012 0138     		subs	r0, r0, #1
 2184 0014 002C     		cmp	r4, #0
 2185 0016 06D0     		beq	.L386
 2186 0018 2900     		movs	r1, r5
 2187 001a 2000     		movs	r0, r4
 2188 001c FFF7FEFF 		bl	set_dm_info
 2189 0020 4342     		rsbs	r3, r0, #0
 2190 0022 5841     		adcs	r0, r0, r3
 2191 0024 8000     		lsls	r0, r0, #2
 2192              	.L386:
 2193              		@ sp needed
 2194 0026 70BD     		pop	{r4, r5, r6, pc}
 2196              		.section	.text.smtc_modem_dm_request_single_uplink,"ax",%progbits
 2197              		.align	1
 2198              		.global	smtc_modem_dm_request_single_uplink
ARM GAS  /tmp/ccQgeTV1.s 			page 39


 2199              		.syntax unified
 2200              		.code	16
 2201              		.thumb_func
 2203              	smtc_modem_dm_request_single_uplink:
 2204              		@ args = 0, pretend = 0, frame = 0
 2205              		@ frame_needed = 0, uses_anonymous_args = 0
 2206 0000 70B5     		push	{r4, r5, r6, lr}
 2207 0002 0500     		movs	r5, r0
 2208 0004 0E00     		movs	r6, r1
 2209 0006 FFF7FEFF 		bl	modem_get_test_mode_status
 2210 000a 0523     		movs	r3, #5
 2211 000c 041E     		subs	r4, r0, #0
 2212 000e 02D1     		bne	.L390
 2213 0010 002D     		cmp	r5, #0
 2214 0012 02D1     		bne	.L391
 2215              	.L392:
 2216 0014 0423     		movs	r3, #4
 2217              	.L390:
 2218              		@ sp needed
 2219 0016 1800     		movs	r0, r3
 2220 0018 70BD     		pop	{r4, r5, r6, pc}
 2221              	.L391:
 2222 001a FFF7FEFF 		bl	is_modem_connected
 2223 001e 0623     		movs	r3, #6
 2224 0020 0028     		cmp	r0, #0
 2225 0022 F8D0     		beq	.L390
 2226 0024 0122     		movs	r2, #1
 2227 0026 3100     		movs	r1, r6
 2228 0028 2800     		movs	r0, r5
 2229 002a FFF7FEFF 		bl	set_dm_info
 2230 002e 0028     		cmp	r0, #0
 2231 0030 F0D0     		beq	.L392
 2232 0032 FFF7FEFF 		bl	modem_supervisor_add_task_dm_status_now
 2233 0036 2300     		movs	r3, r4
 2234 0038 EDE7     		b	.L390
 2236              		.section	.text.smtc_modem_dm_set_user_data,"ax",%progbits
 2237              		.align	1
 2238              		.global	smtc_modem_dm_set_user_data
 2239              		.syntax unified
 2240              		.code	16
 2241              		.thumb_func
 2243              	smtc_modem_dm_set_user_data:
 2244              		@ args = 0, pretend = 0, frame = 0
 2245              		@ frame_needed = 0, uses_anonymous_args = 0
 2246 0000 70B5     		push	{r4, r5, r6, lr}
 2247 0002 0500     		movs	r5, r0
 2248 0004 FFF7FEFF 		bl	modem_get_test_mode_status
 2249 0008 0400     		movs	r4, r0
 2250 000a 0520     		movs	r0, #5
 2251 000c 002C     		cmp	r4, #0
 2252 000e 06D1     		bne	.L400
 2253 0010 0138     		subs	r0, r0, #1
 2254 0012 002D     		cmp	r5, #0
 2255 0014 03D0     		beq	.L400
 2256 0016 2800     		movs	r0, r5
 2257 0018 FFF7FEFF 		bl	set_modem_appstatus
 2258 001c 2000     		movs	r0, r4
ARM GAS  /tmp/ccQgeTV1.s 			page 40


 2259              	.L400:
 2260              		@ sp needed
 2261 001e 70BD     		pop	{r4, r5, r6, pc}
 2263              		.section	.text.smtc_modem_dm_get_user_data,"ax",%progbits
 2264              		.align	1
 2265              		.global	smtc_modem_dm_get_user_data
 2266              		.syntax unified
 2267              		.code	16
 2268              		.thumb_func
 2270              	smtc_modem_dm_get_user_data:
 2271              		@ args = 0, pretend = 0, frame = 0
 2272              		@ frame_needed = 0, uses_anonymous_args = 0
 2273 0000 70B5     		push	{r4, r5, r6, lr}
 2274 0002 0500     		movs	r5, r0
 2275 0004 FFF7FEFF 		bl	modem_get_test_mode_status
 2276 0008 0400     		movs	r4, r0
 2277 000a 0520     		movs	r0, #5
 2278 000c 002C     		cmp	r4, #0
 2279 000e 06D1     		bne	.L404
 2280 0010 0138     		subs	r0, r0, #1
 2281 0012 002D     		cmp	r5, #0
 2282 0014 03D0     		beq	.L404
 2283 0016 2800     		movs	r0, r5
 2284 0018 FFF7FEFF 		bl	get_modem_appstatus
 2285 001c 2000     		movs	r0, r4
 2286              	.L404:
 2287              		@ sp needed
 2288 001e 70BD     		pop	{r4, r5, r6, pc}
 2290              		.section	.rodata.smtc_modem_join_network.str1.1,"aMS",%progbits,1
 2291              	.LC82:
 2292 0000 1B5B303B 		.ascii	"\033[0;31mERROR: %s call but the device is configur"
 2292      33316D45 
 2292      52524F52 
 2292      3A202573 
 2292      2063616C 
 2293 0030 65642069 		.ascii	"ed in ABP mode\012\015\000"
 2293      6E204142 
 2293      50206D6F 
 2293      64650A0D 
 2293      00
 2294              	.LC86:
 2295 0041 1B5B303B 		.ascii	"\033[0;31mERROR: %s Modem is muted\012\015\000"
 2295      33316D45 
 2295      52524F52 
 2295      3A202573 
 2295      204D6F64 
 2296              		.section	.text.smtc_modem_join_network,"ax",%progbits
 2297              		.align	1
 2298              		.global	smtc_modem_join_network
 2299              		.syntax unified
 2300              		.code	16
 2301              		.thumb_func
 2303              	smtc_modem_join_network:
 2304              		@ args = 0, pretend = 0, frame = 0
 2305              		@ frame_needed = 0, uses_anonymous_args = 0
 2306 0000 10B5     		push	{r4, lr}
 2307 0002 FFF7FEFF 		bl	modem_get_test_mode_status
ARM GAS  /tmp/ccQgeTV1.s 			page 41


 2308 0006 0028     		cmp	r0, #0
 2309 0008 17D1     		bne	.L408
 2310 000a FFF7FEFF 		bl	lorawan_api_get_activation_mode
 2311 000e 0128     		cmp	r0, #1
 2312 0010 08D1     		bne	.L409
 2313 0012 1449     		ldr	r1, .L416
 2314 0014 1448     		ldr	r0, .L416+4
 2315              	.L415:
 2316 0016 FFF7FEFF 		bl	smtc_modem_hal_print_trace
 2317 001a 1448     		ldr	r0, .L416+8
 2318 001c FFF7FEFF 		bl	smtc_modem_hal_print_trace
 2319 0020 0624     		movs	r4, #6
 2320 0022 0BE0     		b	.L412
 2321              	.L409:
 2322 0024 FFF7FEFF 		bl	get_join_state
 2323 0028 041E     		subs	r4, r0, #0
 2324 002a 09D0     		beq	.L411
 2325 002c 1048     		ldr	r0, .L416+12
 2326 002e 0D49     		ldr	r1, .L416
 2327 0030 FFF7FEFF 		bl	smtc_modem_hal_print_trace
 2328 0034 0D48     		ldr	r0, .L416+8
 2329 0036 FFF7FEFF 		bl	smtc_modem_hal_print_trace
 2330              	.L408:
 2331 003a 0524     		movs	r4, #5
 2332              	.L412:
 2333              		@ sp needed
 2334 003c 2000     		movs	r0, r4
 2335 003e 10BD     		pop	{r4, pc}
 2336              	.L411:
 2337 0040 FFF7FEFF 		bl	get_modem_muted
 2338 0044 FF28     		cmp	r0, #255
 2339 0046 02D1     		bne	.L413
 2340 0048 0649     		ldr	r1, .L416
 2341 004a 0A48     		ldr	r0, .L416+16
 2342 004c E3E7     		b	.L415
 2343              	.L413:
 2344 004e FFF7FEFF 		bl	get_modem_suspend
 2345 0052 0128     		cmp	r0, #1
 2346 0054 02D1     		bne	.L414
 2347 0056 0349     		ldr	r1, .L416
 2348 0058 0748     		ldr	r0, .L416+20
 2349 005a DCE7     		b	.L415
 2350              	.L414:
 2351 005c FFF7FEFF 		bl	modem_supervisor_add_task_join
 2352 0060 ECE7     		b	.L412
 2353              	.L417:
 2354 0062 C046     		.align	2
 2355              	.L416:
 2356 0064 00000000 		.word	__func__.5
 2357 0068 00000000 		.word	.LC82
 2358 006c 30000000 		.word	.LC3
 2359 0070 00000000 		.word	.LC49
 2360 0074 41000000 		.word	.LC86
 2361 0078 35000000 		.word	.LC5
 2363              		.section	.text.smtc_modem_leave_network,"ax",%progbits
 2364              		.align	1
 2365              		.global	smtc_modem_leave_network
ARM GAS  /tmp/ccQgeTV1.s 			page 42


 2366              		.syntax unified
 2367              		.code	16
 2368              		.thumb_func
 2370              	smtc_modem_leave_network:
 2371              		@ args = 0, pretend = 0, frame = 0
 2372              		@ frame_needed = 0, uses_anonymous_args = 0
 2373 0000 10B5     		push	{r4, lr}
 2374 0002 FFF7FEFF 		bl	modem_get_test_mode_status
 2375 0006 0400     		movs	r4, r0
 2376 0008 0520     		movs	r0, #5
 2377 000a 002C     		cmp	r4, #0
 2378 000c 02D1     		bne	.L419
 2379 000e FFF7FEFF 		bl	modem_leave
 2380 0012 2000     		movs	r0, r4
 2381              	.L419:
 2382              		@ sp needed
 2383 0014 10BD     		pop	{r4, pc}
 2385              		.section	.rodata.smtc_modem_suspend_radio_communications.str1.1,"aMS",%progbits,1
 2386              	.LC90:
 2387 0000 1B5B303B 		.ascii	"\033[0;31mERROR: %s call but suspend value is not v"
 2387      33316D45 
 2387      52524F52 
 2387      3A202573 
 2387      2063616C 
 2388 0030 616C6964 		.ascii	"alid\012\015\000"
 2388      0A0D00
 2389              		.section	.text.smtc_modem_suspend_radio_communications,"ax",%progbits
 2390              		.align	1
 2391              		.global	smtc_modem_suspend_radio_communications
 2392              		.syntax unified
 2393              		.code	16
 2394              		.thumb_func
 2396              	smtc_modem_suspend_radio_communications:
 2397              		@ args = 0, pretend = 0, frame = 0
 2398              		@ frame_needed = 0, uses_anonymous_args = 0
 2399 0000 70B5     		push	{r4, r5, r6, lr}
 2400 0002 0500     		movs	r5, r0
 2401 0004 FFF7FEFF 		bl	modem_get_test_mode_status
 2402 0008 0523     		movs	r3, #5
 2403 000a 041E     		subs	r4, r0, #0
 2404 000c 0DD1     		bne	.L422
 2405 000e 2800     		movs	r0, r5
 2406 0010 FFF7FEFF 		bl	set_modem_suspend
 2407 0014 2300     		movs	r3, r4
 2408 0016 0028     		cmp	r0, #0
 2409 0018 07D1     		bne	.L422
 2410 001a 0549     		ldr	r1, .L425
 2411 001c 0548     		ldr	r0, .L425+4
 2412 001e FFF7FEFF 		bl	smtc_modem_hal_print_trace
 2413 0022 0548     		ldr	r0, .L425+8
 2414 0024 FFF7FEFF 		bl	smtc_modem_hal_print_trace
 2415 0028 0423     		movs	r3, #4
 2416              	.L422:
 2417              		@ sp needed
 2418 002a 1800     		movs	r0, r3
 2419 002c 70BD     		pop	{r4, r5, r6, pc}
 2420              	.L426:
ARM GAS  /tmp/ccQgeTV1.s 			page 43


 2421 002e C046     		.align	2
 2422              	.L425:
 2423 0030 00000000 		.word	__func__.4
 2424 0034 00000000 		.word	.LC90
 2425 0038 30000000 		.word	.LC3
 2427              		.section	.rodata.smtc_modem_get_next_tx_max_payload.str1.1,"aMS",%progbits,1
 2428              	.LC94:
 2429 0000 1B5B303B 		.ascii	"\033[0;31mERROR: %s call but the device is not join"
 2429      33316D45 
 2429      52524F52 
 2429      3A202573 
 2429      2063616C 
 2430 0030 0A0D00   		.ascii	"\012\015\000"
 2431              		.section	.text.smtc_modem_get_next_tx_max_payload,"ax",%progbits
 2432              		.align	1
 2433              		.global	smtc_modem_get_next_tx_max_payload
 2434              		.syntax unified
 2435              		.code	16
 2436              		.thumb_func
 2438              	smtc_modem_get_next_tx_max_payload:
 2439              		@ args = 0, pretend = 0, frame = 0
 2440              		@ frame_needed = 0, uses_anonymous_args = 0
 2441 0000 70B5     		push	{r4, r5, r6, lr}
 2442 0002 0C00     		movs	r4, r1
 2443 0004 FFF7FEFF 		bl	modem_get_test_mode_status
 2444 0008 0500     		movs	r5, r0
 2445 000a 0520     		movs	r0, #5
 2446 000c 002D     		cmp	r5, #0
 2447 000e 0AD1     		bne	.L428
 2448 0010 0138     		subs	r0, r0, #1
 2449 0012 002C     		cmp	r4, #0
 2450 0014 07D0     		beq	.L428
 2451 0016 FFF7FEFF 		bl	get_join_state
 2452 001a 0228     		cmp	r0, #2
 2453 001c 04D1     		bne	.L429
 2454 001e FFF7FEFF 		bl	lorawan_api_next_max_payload_length_get
 2455 0022 2070     		strb	r0, [r4]
 2456 0024 2800     		movs	r0, r5
 2457              	.L428:
 2458              		@ sp needed
 2459 0026 70BD     		pop	{r4, r5, r6, pc}
 2460              	.L429:
 2461 0028 0449     		ldr	r1, .L432
 2462 002a 0548     		ldr	r0, .L432+4
 2463 002c FFF7FEFF 		bl	smtc_modem_hal_print_trace
 2464 0030 0448     		ldr	r0, .L432+8
 2465 0032 FFF7FEFF 		bl	smtc_modem_hal_print_trace
 2466 0036 0620     		movs	r0, #6
 2467 0038 2570     		strb	r5, [r4]
 2468 003a F4E7     		b	.L428
 2469              	.L433:
 2470              		.align	2
 2471              	.L432:
 2472 003c 00000000 		.word	__func__.3
 2473 0040 00000000 		.word	.LC94
 2474 0044 30000000 		.word	.LC3
 2476              		.section	.text.smtc_modem_request_uplink,"ax",%progbits
ARM GAS  /tmp/ccQgeTV1.s 			page 44


 2477              		.align	1
 2478              		.global	smtc_modem_request_uplink
 2479              		.syntax unified
 2480              		.code	16
 2481              		.thumb_func
 2483              	smtc_modem_request_uplink:
 2484              		@ args = 4, pretend = 0, frame = 0
 2485              		@ frame_needed = 0, uses_anonymous_args = 0
 2486 0000 F7B5     		push	{r0, r1, r2, r4, r5, r6, r7, lr}
 2487 0002 1C00     		movs	r4, r3
 2488 0004 08AB     		add	r3, sp, #32
 2489 0006 1F78     		ldrb	r7, [r3]
 2490 0008 0D00     		movs	r5, r1
 2491 000a 1600     		movs	r6, r2
 2492 000c FFF7FEFF 		bl	modem_get_test_mode_status
 2493 0010 0300     		movs	r3, r0
 2494 0012 0520     		movs	r0, #5
 2495 0014 002B     		cmp	r3, #0
 2496 0016 09D1     		bne	.L435
 2497 0018 0138     		subs	r0, r0, #1
 2498 001a 002C     		cmp	r4, #0
 2499 001c 06D0     		beq	.L435
 2500 001e 0093     		str	r3, [sp]
 2501 0020 2200     		movs	r2, r4
 2502 0022 3B00     		movs	r3, r7
 2503 0024 3100     		movs	r1, r6
 2504 0026 2800     		movs	r0, r5
 2505 0028 FFF7FEFF 		bl	smtc_modem_send_tx.constprop.0
 2506              	.L435:
 2507              		@ sp needed
 2508 002c FEBD     		pop	{r1, r2, r3, r4, r5, r6, r7, pc}
 2510              		.section	.text.smtc_modem_request_extended_uplink,"ax",%progbits
 2511              		.align	1
 2512              		.global	smtc_modem_request_extended_uplink
 2513              		.syntax unified
 2514              		.code	16
 2515              		.thumb_func
 2517              	smtc_modem_request_extended_uplink:
 2518              		@ args = 12, pretend = 0, frame = 0
 2519              		@ frame_needed = 0, uses_anonymous_args = 0
 2520 0000 10B5     		push	{r4, lr}
 2521 0002 FFF7FEFF 		bl	modem_get_test_mode_status
 2522              		@ sp needed
 2523 0006 0430     		adds	r0, r0, #4
 2524 0008 C0B2     		uxtb	r0, r0
 2525 000a 10BD     		pop	{r4, pc}
 2527              		.section	.text.smtc_modem_abort_extended_uplink,"ax",%progbits
 2528              		.align	1
 2529              		.global	smtc_modem_abort_extended_uplink
 2530              		.syntax unified
 2531              		.code	16
 2532              		.thumb_func
 2534              	smtc_modem_abort_extended_uplink:
 2535              		@ args = 0, pretend = 0, frame = 0
 2536              		@ frame_needed = 0, uses_anonymous_args = 0
 2537 0000 10B5     		push	{r4, lr}
 2538 0002 FFF7FEFF 		bl	modem_get_test_mode_status
ARM GAS  /tmp/ccQgeTV1.s 			page 45


 2539              		@ sp needed
 2540 0006 0430     		adds	r0, r0, #4
 2541 0008 C0B2     		uxtb	r0, r0
 2542 000a 10BD     		pop	{r4, pc}
 2544              		.section	.text.smtc_modem_request_emergency_uplink,"ax",%progbits
 2545              		.align	1
 2546              		.global	smtc_modem_request_emergency_uplink
 2547              		.syntax unified
 2548              		.code	16
 2549              		.thumb_func
 2551              	smtc_modem_request_emergency_uplink:
 2552              		@ args = 4, pretend = 0, frame = 0
 2553              		@ frame_needed = 0, uses_anonymous_args = 0
 2554 0000 F7B5     		push	{r0, r1, r2, r4, r5, r6, r7, lr}
 2555 0002 1C00     		movs	r4, r3
 2556 0004 08AB     		add	r3, sp, #32
 2557 0006 1F78     		ldrb	r7, [r3]
 2558 0008 0D00     		movs	r5, r1
 2559 000a 1600     		movs	r6, r2
 2560 000c FFF7FEFF 		bl	modem_get_test_mode_status
 2561 0010 0300     		movs	r3, r0
 2562 0012 0520     		movs	r0, #5
 2563 0014 002B     		cmp	r3, #0
 2564 0016 0AD1     		bne	.L441
 2565 0018 0138     		subs	r0, r0, #1
 2566 001a 002C     		cmp	r4, #0
 2567 001c 07D0     		beq	.L441
 2568 001e 0133     		adds	r3, r3, #1
 2569 0020 0093     		str	r3, [sp]
 2570 0022 2200     		movs	r2, r4
 2571 0024 3B00     		movs	r3, r7
 2572 0026 3100     		movs	r1, r6
 2573 0028 2800     		movs	r0, r5
 2574 002a FFF7FEFF 		bl	smtc_modem_send_tx.constprop.0
 2575              	.L441:
 2576              		@ sp needed
 2577 002e FEBD     		pop	{r1, r2, r3, r4, r5, r6, r7, pc}
 2579              		.section	.text.smtc_modem_request_empty_uplink,"ax",%progbits
 2580              		.align	1
 2581              		.global	smtc_modem_request_empty_uplink
 2582              		.syntax unified
 2583              		.code	16
 2584              		.thumb_func
 2586              	smtc_modem_request_empty_uplink:
 2587              		@ args = 0, pretend = 0, frame = 24
 2588              		@ frame_needed = 0, uses_anonymous_args = 0
 2589 0000 F0B5     		push	{r4, r5, r6, r7, lr}
 2590 0002 87B0     		sub	sp, sp, #28
 2591 0004 1F00     		movs	r7, r3
 2592 0006 0E00     		movs	r6, r1
 2593 0008 1500     		movs	r5, r2
 2594 000a FFF7FEFF 		bl	modem_get_test_mode_status
 2595 000e 0300     		movs	r3, r0
 2596 0010 0520     		movs	r0, #5
 2597 0012 002B     		cmp	r3, #0
 2598 0014 04D1     		bne	.L445
 2599 0016 FFF7FEFF 		bl	is_modem_connected
ARM GAS  /tmp/ccQgeTV1.s 			page 46


 2600 001a 0028     		cmp	r0, #0
 2601 001c 02D1     		bne	.L446
 2602              	.L452:
 2603 001e 0620     		movs	r0, #6
 2604              	.L445:
 2605 0020 07B0     		add	sp, sp, #28
 2606              		@ sp needed
 2607 0022 F0BD     		pop	{r4, r5, r6, r7, pc}
 2608              	.L446:
 2609 0024 002E     		cmp	r6, #0
 2610 0026 16D0     		beq	.L448
 2611 0028 6B1E     		subs	r3, r5, #1
 2612 002a DBB2     		uxtb	r3, r3
 2613 002c DE2B     		cmp	r3, #222
 2614 002e 0DD8     		bhi	.L449
 2615              	.L451:
 2616 0030 FFF7FEFF 		bl	get_modem_dm_port
 2617 0034 8542     		cmp	r5, r0
 2618 0036 0ED1     		bne	.L448
 2619              	.L450:
 2620 0038 2A00     		movs	r2, r5
 2621 003a 1049     		ldr	r1, .L457
 2622 003c 1048     		ldr	r0, .L457+4
 2623 003e FFF7FEFF 		bl	smtc_modem_hal_print_trace
 2624 0042 1048     		ldr	r0, .L457+8
 2625 0044 FFF7FEFF 		bl	smtc_modem_hal_print_trace
 2626 0048 0420     		movs	r0, #4
 2627 004a E9E7     		b	.L445
 2628              	.L449:
 2629 004c FFF7FEFF 		bl	lorawan_api_modem_certification_is_enabled
 2630 0050 0028     		cmp	r0, #0
 2631 0052 EDD1     		bne	.L451
 2632 0054 F0E7     		b	.L450
 2633              	.L448:
 2634 0056 0123     		movs	r3, #1
 2635 0058 01AC     		add	r4, sp, #4
 2636 005a 2372     		strb	r3, [r4, #8]
 2637 005c 0023     		movs	r3, #0
 2638 005e 6572     		strb	r5, [r4, #9]
 2639 0060 2370     		strb	r3, [r4]
 2640 0062 A672     		strb	r6, [r4, #10]
 2641 0064 6774     		strb	r7, [r4, #17]
 2642 0066 2374     		strb	r3, [r4, #16]
 2643 0068 FFF7FEFF 		bl	smtc_modem_hal_get_time_in_s
 2644 006c 0290     		str	r0, [sp, #8]
 2645 006e 2000     		movs	r0, r4
 2646 0070 FFF7FEFF 		bl	modem_supervisor_add_task
 2647 0074 0028     		cmp	r0, #0
 2648 0076 D3D0     		beq	.L445
 2649 0078 D1E7     		b	.L452
 2650              	.L458:
 2651 007a C046     		.align	2
 2652              	.L457:
 2653 007c 00000000 		.word	__func__.1
 2654 0080 00000000 		.word	.LC15
 2655 0084 30000000 		.word	.LC3
 2657              		.section	.rodata.smtc_modem_file_upload_init.str1.1,"aMS",%progbits,1
ARM GAS  /tmp/ccQgeTV1.s 			page 47


 2658              	.LC100:
 2659 0000 1B5B303B 		.ascii	"\033[0;31mERROR: Upload initialization fails: size "
 2659      33316D45 
 2659      52524F52 
 2659      3A205570 
 2659      6C6F6164 
 2660 0030 3D203020 		.ascii	"= 0 is not allowed\012\015\000"
 2660      6973206E 
 2660      6F742061 
 2660      6C6C6F77 
 2660      65640A0D 
 2661              	.LC103:
 2662 0045 1B5B303B 		.ascii	"\033[0;31mERROR: File Upload still in going\012\015"
 2662      33316D45 
 2662      52524F52 
 2662      3A204669 
 2662      6C652055 
 2663 006f 00       		.ascii	"\000"
 2664              	.LC105:
 2665 0070 1B5B303B 		.ascii	"\033[0;31mERROR: Upload file data is null\012\015\000"
 2665      33316D45 
 2665      52524F52 
 2665      3A205570 
 2665      6C6F6164 
 2666              	.LC108:
 2667 0099 1B5B303B 		.ascii	"\033[0;31mERROR: Upload initialization fails\012\015"
 2667      33316D45 
 2667      52524F52 
 2667      3A205570 
 2667      6C6F6164 
 2668 00c4 00       		.ascii	"\000"
 2669              	.LC111:
 2670 00c5 25732C20 		.ascii	"%s, cipher_mode: %d, size:%d, average_delay:%d, ses"
 2670      63697068 
 2670      65725F6D 
 2670      6F64653A 
 2670      2025642C 
 2671 00f8 73696F6E 		.ascii	"sion counter:%d\000"
 2671      20636F75 
 2671      6E746572 
 2671      3A256400 
 2672              		.section	.text.smtc_modem_file_upload_init,"ax",%progbits
 2673              		.align	1
 2674              		.global	smtc_modem_file_upload_init
 2675              		.syntax unified
 2676              		.code	16
 2677              		.thumb_func
 2679              	smtc_modem_file_upload_init:
 2680              		@ args = 8, pretend = 0, frame = 16
 2681              		@ frame_needed = 0, uses_anonymous_args = 0
 2682 0000 F0B5     		push	{r4, r5, r6, r7, lr}
 2683 0002 89B0     		sub	sp, sp, #36
 2684 0004 0593     		str	r3, [sp, #20]
 2685 0006 0EAB     		add	r3, sp, #56
 2686 0008 1400     		movs	r4, r2
 2687 000a 1E88     		ldrh	r6, [r3]
 2688 000c 0791     		str	r1, [sp, #28]
ARM GAS  /tmp/ccQgeTV1.s 			page 48


 2689 000e FFF7FEFF 		bl	modem_get_test_mode_status
 2690 0012 051E     		subs	r5, r0, #0
 2691 0014 12D1     		bne	.L460
 2692 0016 2348     		ldr	r0, .L473
 2693 0018 002E     		cmp	r6, #0
 2694 001a 19D0     		beq	.L472
 2695 001c 012C     		cmp	r4, #1
 2696 001e 03D9     		bls	.L463
 2697              	.L462:
 2698 0020 0425     		movs	r5, #4
 2699              	.L464:
 2700 0022 2800     		movs	r0, r5
 2701 0024 09B0     		add	sp, sp, #36
 2702              		@ sp needed
 2703 0026 F0BD     		pop	{r4, r5, r6, r7, pc}
 2704              	.L463:
 2705 0028 FFF7FEFF 		bl	modem_get_upload_state
 2706 002c 0128     		cmp	r0, #1
 2707 002e 07D1     		bne	.L465
 2708              	.L466:
 2709 0030 1D48     		ldr	r0, .L473+4
 2710 0032 FFF7FEFF 		bl	smtc_modem_hal_print_trace
 2711 0036 1D48     		ldr	r0, .L473+8
 2712 0038 FFF7FEFF 		bl	smtc_modem_hal_print_trace
 2713              	.L460:
 2714 003c 0525     		movs	r5, #5
 2715 003e F0E7     		b	.L464
 2716              	.L465:
 2717 0040 FFF7FEFF 		bl	modem_get_upload_state
 2718 0044 0228     		cmp	r0, #2
 2719 0046 F3D0     		beq	.L466
 2720 0048 059B     		ldr	r3, [sp, #20]
 2721 004a 002B     		cmp	r3, #0
 2722 004c 06D1     		bne	.L467
 2723 004e 1848     		ldr	r0, .L473+12
 2724              	.L472:
 2725 0050 FFF7FEFF 		bl	smtc_modem_hal_print_trace
 2726 0054 1548     		ldr	r0, .L473+8
 2727 0056 FFF7FEFF 		bl	smtc_modem_hal_print_trace
 2728 005a E1E7     		b	.L462
 2729              	.L467:
 2730 005c FFF7FEFF 		bl	modem_context_compute_and_get_next_dm_upload_sctr
 2731 0060 144A     		ldr	r2, .L473+16
 2732 0062 0F9B     		ldr	r3, [sp, #60]
 2733 0064 0692     		str	r2, [sp, #24]
 2734 0066 079A     		ldr	r2, [sp, #28]
 2735 0068 2900     		movs	r1, r5
 2736 006a 0290     		str	r0, [sp, #8]
 2737 006c 0092     		str	r2, [sp]
 2738 006e 0700     		movs	r7, r0
 2739 0070 3200     		movs	r2, r6
 2740 0072 0698     		ldr	r0, [sp, #24]
 2741 0074 9BB2     		uxth	r3, r3
 2742 0076 0194     		str	r4, [sp, #4]
 2743 0078 FFF7FEFF 		bl	file_upload_init
 2744 007c 051E     		subs	r5, r0, #0
 2745 007e 0E48     		ldr	r0, .L473+20
ARM GAS  /tmp/ccQgeTV1.s 			page 49


 2746 0080 E6D1     		bne	.L472
 2747 0082 0F9B     		ldr	r3, [sp, #60]
 2748 0084 2200     		movs	r2, r4
 2749 0086 0093     		str	r3, [sp]
 2750 0088 0C49     		ldr	r1, .L473+24
 2751 008a 3300     		movs	r3, r6
 2752 008c 0C48     		ldr	r0, .L473+28
 2753 008e 0197     		str	r7, [sp, #4]
 2754 0090 FFF7FEFF 		bl	smtc_modem_hal_print_trace
 2755 0094 0698     		ldr	r0, [sp, #24]
 2756 0096 0599     		ldr	r1, [sp, #20]
 2757 0098 FFF7FEFF 		bl	file_upload_attach_file_buffer
 2758 009c 0120     		movs	r0, #1
 2759 009e FFF7FEFF 		bl	modem_set_upload_state
 2760 00a2 BEE7     		b	.L464
 2761              	.L474:
 2762              		.align	2
 2763              	.L473:
 2764 00a4 00000000 		.word	.LC100
 2765 00a8 45000000 		.word	.LC103
 2766 00ac 30000000 		.word	.LC3
 2767 00b0 70000000 		.word	.LC105
 2768 00b4 A8040000 		.word	smtc_modem_services_ctx+1192
 2769 00b8 99000000 		.word	.LC108
 2770 00bc 00000000 		.word	__func__.0
 2771 00c0 C5000000 		.word	.LC111
 2773              		.section	.rodata.smtc_modem_file_upload_start.str1.1,"aMS",%progbits,1
 2774              	.LC113:
 2775 0000 1B5B303B 		.ascii	"\033[0;31mERROR: FileUpload still in progress..\012"
 2775      33316D45 
 2775      52524F52 
 2775      3A204669 
 2775      6C655570 
 2776 002d 0D00     		.ascii	"\015\000"
 2777              	.LC116:
 2778 002f 1B5B303B 		.ascii	"\033[0;31mERROR: File upload session not initialize"
 2778      33316D45 
 2778      52524F52 
 2778      3A204669 
 2778      6C652075 
 2779 005f 640A0D00 		.ascii	"d\012\015\000"
 2780              		.section	.text.smtc_modem_file_upload_start,"ax",%progbits
 2781              		.align	1
 2782              		.global	smtc_modem_file_upload_start
 2783              		.syntax unified
 2784              		.code	16
 2785              		.thumb_func
 2787              	smtc_modem_file_upload_start:
 2788              		@ args = 0, pretend = 0, frame = 0
 2789              		@ frame_needed = 0, uses_anonymous_args = 0
 2790 0000 70B5     		push	{r4, r5, r6, lr}
 2791 0002 FFF7FEFF 		bl	modem_get_test_mode_status
 2792 0006 041E     		subs	r4, r0, #0
 2793 0008 0ED1     		bne	.L476
 2794 000a FFF7FEFF 		bl	is_modem_connected
 2795 000e 0623     		movs	r3, #6
 2796 0010 0028     		cmp	r0, #0
ARM GAS  /tmp/ccQgeTV1.s 			page 50


 2797 0012 0AD0     		beq	.L477
 2798 0014 FFF7FEFF 		bl	modem_get_upload_state
 2799 0018 0228     		cmp	r0, #2
 2800 001a 08D1     		bne	.L478
 2801 001c 1348     		ldr	r0, .L481
 2802 001e FFF7FEFF 		bl	smtc_modem_hal_print_trace
 2803 0022 1348     		ldr	r0, .L481+4
 2804 0024 FFF7FEFF 		bl	smtc_modem_hal_print_trace
 2805              	.L476:
 2806 0028 0523     		movs	r3, #5
 2807              	.L477:
 2808              		@ sp needed
 2809 002a 1800     		movs	r0, r3
 2810 002c 70BD     		pop	{r4, r5, r6, pc}
 2811              	.L478:
 2812 002e FFF7FEFF 		bl	modem_get_upload_state
 2813 0032 0500     		movs	r5, r0
 2814 0034 0128     		cmp	r0, #1
 2815 0036 07D0     		beq	.L479
 2816 0038 0E48     		ldr	r0, .L481+8
 2817 003a FFF7FEFF 		bl	smtc_modem_hal_print_trace
 2818 003e 0C48     		ldr	r0, .L481+4
 2819 0040 FFF7FEFF 		bl	smtc_modem_hal_print_trace
 2820 0044 0323     		movs	r3, #3
 2821 0046 F0E7     		b	.L477
 2822              	.L479:
 2823 0048 0B48     		ldr	r0, .L481+12
 2824 004a FFF7FEFF 		bl	file_upload_prepare_upload
 2825 004e 0221     		movs	r1, #2
 2826 0050 2000     		movs	r0, r4
 2827 0052 FFF7FEFF 		bl	smtc_modem_hal_get_random_nb_in_range
 2828 0056 FFF7FEFF 		bl	modem_supervisor_add_task_file_upload
 2829 005a 0220     		movs	r0, #2
 2830 005c FFF7FEFF 		bl	modem_set_upload_state
 2831 0060 2800     		movs	r0, r5
 2832 0062 FFF7FEFF 		bl	set_modem_status_file_upload
 2833 0066 2300     		movs	r3, r4
 2834 0068 DFE7     		b	.L477
 2835              	.L482:
 2836 006a C046     		.align	2
 2837              	.L481:
 2838 006c 00000000 		.word	.LC113
 2839 0070 30000000 		.word	.LC3
 2840 0074 2F000000 		.word	.LC116
 2841 0078 A8040000 		.word	smtc_modem_services_ctx+1192
 2843              		.section	.rodata.smtc_modem_file_upload_reset.str1.1,"aMS",%progbits,1
 2844              	.LC119:
 2845 0000 1B5B303B 		.ascii	"\033[0;31mERROR: No file upload session is on going"
 2845      33316D45 
 2845      52524F52 
 2845      3A204E6F 
 2845      2066696C 
 2846 0030 0A0D00   		.ascii	"\012\015\000"
 2847              	.LC122:
 2848 0033 1B5B303B 		.ascii	"\033[0;33mWARN: File Upload Cancel and session rese"
 2848      33336D57 
 2848      41524E3A 
ARM GAS  /tmp/ccQgeTV1.s 			page 51


 2848      2046696C 
 2848      65205570 
 2849 0063 74210A0D 		.ascii	"t!\012\015\000"
 2849      00
 2850              		.section	.text.smtc_modem_file_upload_reset,"ax",%progbits
 2851              		.align	1
 2852              		.global	smtc_modem_file_upload_reset
 2853              		.syntax unified
 2854              		.code	16
 2855              		.thumb_func
 2857              	smtc_modem_file_upload_reset:
 2858              		@ args = 0, pretend = 0, frame = 0
 2859              		@ frame_needed = 0, uses_anonymous_args = 0
 2860 0000 70B5     		push	{r4, r5, r6, lr}
 2861 0002 FFF7FEFF 		bl	modem_get_test_mode_status
 2862 0006 0400     		movs	r4, r0
 2863 0008 0520     		movs	r0, #5
 2864 000a 002C     		cmp	r4, #0
 2865 000c 0BD1     		bne	.L484
 2866 000e FFF7FEFF 		bl	modem_get_upload_state
 2867 0012 0E4D     		ldr	r5, .L491
 2868 0014 0028     		cmp	r0, #0
 2869 0016 07D1     		bne	.L485
 2870              	.L486:
 2871 0018 0D48     		ldr	r0, .L491+4
 2872 001a FFF7FEFF 		bl	smtc_modem_hal_print_trace
 2873 001e 2800     		movs	r0, r5
 2874 0020 FFF7FEFF 		bl	smtc_modem_hal_print_trace
 2875 0024 0320     		movs	r0, #3
 2876              	.L484:
 2877              		@ sp needed
 2878 0026 70BD     		pop	{r4, r5, r6, pc}
 2879              	.L485:
 2880 0028 FFF7FEFF 		bl	modem_get_upload_state
 2881 002c 0328     		cmp	r0, #3
 2882 002e F3D0     		beq	.L486
 2883 0030 0848     		ldr	r0, .L491+8
 2884 0032 FFF7FEFF 		bl	smtc_modem_hal_print_trace
 2885 0036 2800     		movs	r0, r5
 2886 0038 FFF7FEFF 		bl	smtc_modem_hal_print_trace
 2887 003c 2000     		movs	r0, r4
 2888 003e FFF7FEFF 		bl	modem_set_upload_state
 2889 0042 2000     		movs	r0, r4
 2890 0044 FFF7FEFF 		bl	set_modem_status_file_upload
 2891 0048 2000     		movs	r0, r4
 2892 004a ECE7     		b	.L484
 2893              	.L492:
 2894              		.align	2
 2895              	.L491:
 2896 004c 30000000 		.word	.LC3
 2897 0050 00000000 		.word	.LC119
 2898 0054 33000000 		.word	.LC122
 2900              		.section	.rodata.smtc_modem_stream_init.str1.1,"aMS",%progbits,1
 2901              	.LC124:
 2902 0000 1B5B303B 		.ascii	"\033[0;31mERROR: STREAM_INIT fport invalid\012\015\000"
 2902      33316D45 
 2902      52524F52 
ARM GAS  /tmp/ccQgeTV1.s 			page 52


 2902      3A205354 
 2902      5245414D 
 2903              	.LC127:
 2904 002a 1B5B303B 		.ascii	"\033[0;31mERROR: STREAM_INIT encryption mode invali"
 2904      33316D45 
 2904      52524F52 
 2904      3A205354 
 2904      5245414D 
 2905 005a 640A0D00 		.ascii	"d\012\015\000"
 2906              	.LC129:
 2907 005e 53545245 		.ascii	"STREAM_INIT Using default DM port\012\015\000"
 2907      414D5F49 
 2907      4E495420 
 2907      5573696E 
 2907      67206465 
 2908              	.LC131:
 2909 0082 25732573 		.ascii	"%s%s\000"
 2909      00
 2910              	.LC134:
 2911 0087 1B5B303B 		.ascii	"\033[0;31mERROR: STREAM_INIT FAILED\012\015\000"
 2911      33316D45 
 2911      52524F52 
 2911      3A205354 
 2911      5245414D 
 2912              	.LC136:
 2913 00aa 1B5B303B 		.ascii	"\033[0;31mERROR: STREAM_INIT ENCRYPTION FAILED\012\015"
 2913      33316D45 
 2913      52524F52 
 2913      3A205354 
 2913      5245414D 
 2914 00d7 00       		.ascii	"\000"
 2915              		.section	.text.smtc_modem_stream_init,"ax",%progbits
 2916              		.align	1
 2917              		.global	smtc_modem_stream_init
 2918              		.syntax unified
 2919              		.code	16
 2920              		.thumb_func
 2922              	smtc_modem_stream_init:
 2923              		@ args = 0, pretend = 0, frame = 8
 2924              		@ frame_needed = 0, uses_anonymous_args = 0
 2925 0000 F7B5     		push	{r0, r1, r2, r4, r5, r6, r7, lr}
 2926 0002 0C00     		movs	r4, r1
 2927 0004 1600     		movs	r6, r2
 2928 0006 0193     		str	r3, [sp, #4]
 2929 0008 FFF7FEFF 		bl	modem_get_test_mode_status
 2930 000c 0525     		movs	r5, #5
 2931 000e 0028     		cmp	r0, #0
 2932 0010 0BD1     		bne	.L494
 2933 0012 2248     		ldr	r0, .L508
 2934 0014 DF2C     		cmp	r4, #223
 2935 0016 02D8     		bhi	.L506
 2936 0018 012E     		cmp	r6, #1
 2937 001a 08D9     		bls	.L497
 2938 001c 2048     		ldr	r0, .L508+4
 2939              	.L506:
 2940 001e FFF7FEFF 		bl	smtc_modem_hal_print_trace
 2941 0022 2048     		ldr	r0, .L508+8
ARM GAS  /tmp/ccQgeTV1.s 			page 53


 2942 0024 FFF7FEFF 		bl	smtc_modem_hal_print_trace
 2943 0028 0425     		movs	r5, #4
 2944              	.L494:
 2945              		@ sp needed
 2946 002a 2800     		movs	r0, r5
 2947 002c FEBD     		pop	{r1, r2, r3, r4, r5, r6, r7, pc}
 2948              	.L497:
 2949 002e 002C     		cmp	r4, #0
 2950 0030 07D1     		bne	.L498
 2951 0032 1D4A     		ldr	r2, .L508+12
 2952 0034 1B49     		ldr	r1, .L508+8
 2953 0036 1D48     		ldr	r0, .L508+16
 2954 0038 FFF7FEFF 		bl	smtc_modem_hal_print_trace
 2955 003c FFF7FEFF 		bl	get_modem_dm_port
 2956 0040 0400     		movs	r4, r0
 2957              	.L498:
 2958 0042 1B4F     		ldr	r7, .L508+20
 2959 0044 3800     		movs	r0, r7
 2960 0046 FFF7FEFF 		bl	stream_reset
 2961 004a 3800     		movs	r0, r7
 2962 004c FFF7FEFF 		bl	stream_init
 2963 0050 051E     		subs	r5, r0, #0
 2964 0052 1848     		ldr	r0, .L508+24
 2965 0054 07D1     		bne	.L507
 2966 0056 012E     		cmp	r6, #1
 2967 0058 0CD1     		bne	.L501
 2968 005a 3800     		movs	r0, r7
 2969 005c FFF7FEFF 		bl	stream_enable_encryption
 2970 0060 0028     		cmp	r0, #0
 2971 0062 07D0     		beq	.L501
 2972 0064 1448     		ldr	r0, .L508+28
 2973              	.L507:
 2974 0066 FFF7FEFF 		bl	smtc_modem_hal_print_trace
 2975 006a 0E48     		ldr	r0, .L508+8
 2976 006c FFF7FEFF 		bl	smtc_modem_hal_print_trace
 2977 0070 0625     		movs	r5, #6
 2978 0072 DAE7     		b	.L494
 2979              	.L501:
 2980 0074 0820     		movs	r0, #8
 2981 0076 FFF7FEFF 		bl	modem_supervisor_remove_task
 2982 007a 2000     		movs	r0, r4
 2983 007c FFF7FEFF 		bl	modem_set_stream_port
 2984 0080 3800     		movs	r0, r7
 2985 0082 0199     		ldr	r1, [sp, #4]
 2986 0084 FFF7FEFF 		bl	stream_set_rr
 2987 0088 0124     		movs	r4, #1
 2988 008a 3000     		movs	r0, r6
 2989 008c 2040     		ands	r0, r4
 2990 008e FFF7FEFF 		bl	modem_set_stream_encryption
 2991 0092 2000     		movs	r0, r4
 2992 0094 FFF7FEFF 		bl	modem_set_stream_state
 2993 0098 C7E7     		b	.L494
 2994              	.L509:
 2995 009a C046     		.align	2
 2996              	.L508:
 2997 009c 00000000 		.word	.LC124
 2998 00a0 2A000000 		.word	.LC127
ARM GAS  /tmp/ccQgeTV1.s 			page 54


 2999 00a4 30000000 		.word	.LC3
 3000 00a8 5E000000 		.word	.LC129
 3001 00ac 82000000 		.word	.LC131
 3002 00b0 54000000 		.word	smtc_modem_services_ctx+84
 3003 00b4 87000000 		.word	.LC134
 3004 00b8 AA000000 		.word	.LC136
 3006              		.section	.rodata.smtc_modem_stream_add_data.str1.1,"aMS",%progbits,1
 3007              	.LC138:
 3008 0000 1B5B303B 		.ascii	"\033[0;31mERROR: Stream implicit init failed\012\015"
 3008      33316D45 
 3008      52524F52 
 3008      3A205374 
 3008      7265616D 
 3009 002b 00       		.ascii	"\000"
 3010              	.LC142:
 3011 002c 1B5B303B 		.ascii	"\033[0;31mERROR: STREAM ADD DATA: Invalid length\012"
 3011      33316D45 
 3011      52524F52 
 3011      3A205354 
 3011      5245414D 
 3012 005a 0D00     		.ascii	"\015\000"
 3013              	.LC144:
 3014 005c 1B5B303B 		.ascii	"\033[0;31mERROR: STREAM ADD DATA: Buffer is full\012"
 3014      33316D45 
 3014      52524F52 
 3014      3A205354 
 3014      5245414D 
 3015 008a 0D00     		.ascii	"\015\000"
 3016              	.LC146:
 3017 008c 1B5B303B 		.ascii	"\033[0;31mERROR: STREAM ADD DATA: No data record pr"
 3017      33316D45 
 3017      52524F52 
 3017      3A205354 
 3017      5245414D 
 3018 00bc 6F766964 		.ascii	"ovided\012\015\000"
 3018      65640A0D 
 3018      00
 3019              	.LC148:
 3020 00c5 1B5B303B 		.ascii	"\033[0;32mINFO: STREAM_SEND [OK]\012\015\000"
 3020      33326D49 
 3020      4E464F3A 
 3020      20535452 
 3020      45414D5F 
 3021              		.section	.text.smtc_modem_stream_add_data,"ax",%progbits
 3022              		.align	1
 3023              		.global	smtc_modem_stream_add_data
 3024              		.syntax unified
 3025              		.code	16
 3026              		.thumb_func
 3028              	smtc_modem_stream_add_data:
 3029              		@ args = 0, pretend = 0, frame = 8
 3030              		@ frame_needed = 0, uses_anonymous_args = 0
 3031 0000 F7B5     		push	{r0, r1, r2, r4, r5, r6, r7, lr}
 3032 0002 0700     		movs	r7, r0
 3033 0004 0D00     		movs	r5, r1
 3034 0006 0192     		str	r2, [sp, #4]
 3035 0008 FFF7FEFF 		bl	modem_get_test_mode_status
ARM GAS  /tmp/ccQgeTV1.s 			page 55


 3036 000c 0028     		cmp	r0, #0
 3037 000e 35D1     		bne	.L511
 3038 0010 002D     		cmp	r5, #0
 3039 0012 2BD0     		beq	.L512
 3040 0014 FFF7FEFF 		bl	is_modem_connected
 3041 0018 0028     		cmp	r0, #0
 3042 001a 37D0     		beq	.L513
 3043 001c FFF7FEFF 		bl	modem_get_stream_state
 3044 0020 204C     		ldr	r4, .L528
 3045 0022 061E     		subs	r6, r0, #0
 3046 0024 11D1     		bne	.L514
 3047 0026 FFF7FEFF 		bl	get_modem_dm_port
 3048 002a 3200     		movs	r2, r6
 3049 002c 0100     		movs	r1, r0
 3050 002e 6E23     		movs	r3, #110
 3051 0030 3800     		movs	r0, r7
 3052 0032 FFF7FEFF 		bl	smtc_modem_stream_init
 3053 0036 061E     		subs	r6, r0, #0
 3054 0038 07D0     		beq	.L514
 3055 003a 1B48     		ldr	r0, .L528+4
 3056 003c FFF7FEFF 		bl	smtc_modem_hal_print_trace
 3057 0040 2000     		movs	r0, r4
 3058 0042 FFF7FEFF 		bl	smtc_modem_hal_print_trace
 3059              	.L515:
 3060              		@ sp needed
 3061 0046 3000     		movs	r0, r6
 3062 0048 FEBD     		pop	{r1, r2, r3, r4, r5, r6, r7, pc}
 3063              	.L514:
 3064 004a 2900     		movs	r1, r5
 3065 004c 1748     		ldr	r0, .L528+8
 3066 004e 019A     		ldr	r2, [sp, #4]
 3067 0050 FFF7FEFF 		bl	stream_add_data
 3068 0054 0328     		cmp	r0, #3
 3069 0056 0BD0     		beq	.L516
 3070 0058 0428     		cmp	r0, #4
 3071 005a 11D0     		beq	.L517
 3072 005c 0128     		cmp	r0, #1
 3073 005e 17D1     		bne	.L518
 3074 0060 1348     		ldr	r0, .L528+12
 3075 0062 FFF7FEFF 		bl	smtc_modem_hal_print_trace
 3076 0066 2000     		movs	r0, r4
 3077 0068 FFF7FEFF 		bl	smtc_modem_hal_print_trace
 3078              	.L512:
 3079 006c 0426     		movs	r6, #4
 3080 006e EAE7     		b	.L515
 3081              	.L516:
 3082 0070 1048     		ldr	r0, .L528+16
 3083 0072 FFF7FEFF 		bl	smtc_modem_hal_print_trace
 3084 0076 2000     		movs	r0, r4
 3085 0078 FFF7FEFF 		bl	smtc_modem_hal_print_trace
 3086              	.L511:
 3087 007c 0526     		movs	r6, #5
 3088 007e E2E7     		b	.L515
 3089              	.L517:
 3090 0080 0D48     		ldr	r0, .L528+20
 3091 0082 FFF7FEFF 		bl	smtc_modem_hal_print_trace
 3092 0086 2000     		movs	r0, r4
ARM GAS  /tmp/ccQgeTV1.s 			page 56


 3093 0088 FFF7FEFF 		bl	smtc_modem_hal_print_trace
 3094              	.L513:
 3095 008c 0626     		movs	r6, #6
 3096 008e DAE7     		b	.L515
 3097              	.L518:
 3098 0090 FFF7FEFF 		bl	modem_supervisor_add_task_stream
 3099 0094 0948     		ldr	r0, .L528+24
 3100 0096 FFF7FEFF 		bl	smtc_modem_hal_print_trace
 3101 009a 2000     		movs	r0, r4
 3102 009c FFF7FEFF 		bl	smtc_modem_hal_print_trace
 3103 00a0 0026     		movs	r6, #0
 3104 00a2 D0E7     		b	.L515
 3105              	.L529:
 3106              		.align	2
 3107              	.L528:
 3108 00a4 30000000 		.word	.LC3
 3109 00a8 00000000 		.word	.LC138
 3110 00ac 54000000 		.word	smtc_modem_services_ctx+84
 3111 00b0 2C000000 		.word	.LC142
 3112 00b4 5C000000 		.word	.LC144
 3113 00b8 8C000000 		.word	.LC146
 3114 00bc C5000000 		.word	.LC148
 3116              		.section	.text.smtc_modem_stream_status,"ax",%progbits
 3117              		.align	1
 3118              		.global	smtc_modem_stream_status
 3119              		.syntax unified
 3120              		.code	16
 3121              		.thumb_func
 3123              	smtc_modem_stream_status:
 3124              		@ args = 0, pretend = 0, frame = 0
 3125              		@ frame_needed = 0, uses_anonymous_args = 0
 3126 0000 70B5     		push	{r4, r5, r6, lr}
 3127 0002 0D00     		movs	r5, r1
 3128 0004 1600     		movs	r6, r2
 3129 0006 FFF7FEFF 		bl	modem_get_test_mode_status
 3130 000a 0523     		movs	r3, #5
 3131 000c 041E     		subs	r4, r0, #0
 3132 000e 0FD1     		bne	.L531
 3133 0010 013B     		subs	r3, r3, #1
 3134 0012 002D     		cmp	r5, #0
 3135 0014 0CD0     		beq	.L531
 3136 0016 002E     		cmp	r6, #0
 3137 0018 0AD0     		beq	.L531
 3138 001a FFF7FEFF 		bl	modem_get_stream_state
 3139 001e 0323     		movs	r3, #3
 3140 0020 0028     		cmp	r0, #0
 3141 0022 05D0     		beq	.L531
 3142 0024 3200     		movs	r2, r6
 3143 0026 2900     		movs	r1, r5
 3144 0028 0248     		ldr	r0, .L536
 3145 002a FFF7FEFF 		bl	stream_status
 3146 002e 2300     		movs	r3, r4
 3147              	.L531:
 3148              		@ sp needed
 3149 0030 1800     		movs	r0, r3
 3150 0032 70BD     		pop	{r4, r5, r6, pc}
 3151              	.L537:
ARM GAS  /tmp/ccQgeTV1.s 			page 57


 3152              		.align	2
 3153              	.L536:
 3154 0034 54000000 		.word	smtc_modem_services_ctx+84
 3156              		.section	.text.smtc_modem_set_certification_mode,"ax",%progbits
 3157              		.align	1
 3158              		.global	smtc_modem_set_certification_mode
 3159              		.syntax unified
 3160              		.code	16
 3161              		.thumb_func
 3163              	smtc_modem_set_certification_mode:
 3164              		@ args = 0, pretend = 0, frame = 0
 3165              		@ frame_needed = 0, uses_anonymous_args = 0
 3166 0000 10B5     		push	{r4, lr}
 3167 0002 0C00     		movs	r4, r1
 3168 0004 FFF7FEFF 		bl	modem_get_test_mode_status
 3169 0008 0523     		movs	r3, #5
 3170 000a 0028     		cmp	r0, #0
 3171 000c 07D1     		bne	.L539
 3172 000e 2000     		movs	r0, r4
 3173 0010 FFF7FEFF 		bl	lorawan_api_modem_certification_set
 3174 0014 FFF7FEFF 		bl	smtc_secure_element_store_context
 3175 0018 002C     		cmp	r4, #0
 3176 001a 02D0     		beq	.L540
 3177              	.L541:
 3178 001c 0023     		movs	r3, #0
 3179              	.L539:
 3180              		@ sp needed
 3181 001e 1800     		movs	r0, r3
 3182 0020 10BD     		pop	{r4, pc}
 3183              	.L540:
 3184 0022 0120     		movs	r0, #1
 3185 0024 FFF7FEFF 		bl	smtc_modem_test_duty_cycle_app_activate
 3186 0028 F8E7     		b	.L541
 3188              		.section	.text.smtc_modem_increment_event_middleware,"ax",%progbits
 3189              		.align	1
 3190              		.global	smtc_modem_increment_event_middleware
 3191              		.syntax unified
 3192              		.code	16
 3193              		.thumb_func
 3195              	smtc_modem_increment_event_middleware:
 3196              		@ args = 0, pretend = 0, frame = 0
 3197              		@ frame_needed = 0, uses_anonymous_args = 0
 3198 0000 0200     		movs	r2, r0
 3199 0002 163A     		subs	r2, r2, #22
 3200 0004 0423     		movs	r3, #4
 3201 0006 10B5     		push	{r4, lr}
 3202 0008 022A     		cmp	r2, #2
 3203 000a 02D8     		bhi	.L544
 3204 000c FFF7FEFF 		bl	increment_asynchronous_msgnumber
 3205 0010 0023     		movs	r3, #0
 3206              	.L544:
 3207              		@ sp needed
 3208 0012 1800     		movs	r0, r3
 3209 0014 10BD     		pop	{r4, pc}
 3211              		.section	.text.smtc_modem_get_certification_mode,"ax",%progbits
 3212              		.align	1
 3213              		.global	smtc_modem_get_certification_mode
ARM GAS  /tmp/ccQgeTV1.s 			page 58


 3214              		.syntax unified
 3215              		.code	16
 3216              		.thumb_func
 3218              	smtc_modem_get_certification_mode:
 3219              		@ args = 0, pretend = 0, frame = 0
 3220              		@ frame_needed = 0, uses_anonymous_args = 0
 3221 0000 70B5     		push	{r4, r5, r6, lr}
 3222 0002 0D00     		movs	r5, r1
 3223 0004 FFF7FEFF 		bl	modem_get_test_mode_status
 3224 0008 0400     		movs	r4, r0
 3225 000a 0520     		movs	r0, #5
 3226 000c 002C     		cmp	r4, #0
 3227 000e 08D1     		bne	.L547
 3228 0010 0138     		subs	r0, r0, #1
 3229 0012 002D     		cmp	r5, #0
 3230 0014 05D0     		beq	.L547
 3231 0016 FFF7FEFF 		bl	lorawan_api_modem_certification_is_enabled
 3232 001a 431E     		subs	r3, r0, #1
 3233 001c 9841     		sbcs	r0, r0, r3
 3234 001e 2870     		strb	r0, [r5]
 3235 0020 2000     		movs	r0, r4
 3236              	.L547:
 3237              		@ sp needed
 3238 0022 70BD     		pop	{r4, r5, r6, pc}
 3240              		.section	.text.smtc_modem_connection_timeout_set_thresholds,"ax",%progbits
 3241              		.align	1
 3242              		.global	smtc_modem_connection_timeout_set_thresholds
 3243              		.syntax unified
 3244              		.code	16
 3245              		.thumb_func
 3247              	smtc_modem_connection_timeout_set_thresholds:
 3248              		@ args = 0, pretend = 0, frame = 0
 3249              		@ frame_needed = 0, uses_anonymous_args = 0
 3250 0000 70B5     		push	{r4, r5, r6, lr}
 3251 0002 0E00     		movs	r6, r1
 3252 0004 1500     		movs	r5, r2
 3253 0006 FFF7FEFF 		bl	modem_get_test_mode_status
 3254 000a 0400     		movs	r4, r0
 3255 000c 0520     		movs	r0, #5
 3256 000e 002C     		cmp	r4, #0
 3257 0010 06D1     		bne	.L551
 3258 0012 3000     		movs	r0, r6
 3259 0014 FFF7FEFF 		bl	modem_set_adr_mobile_timeout_config
 3260 0018 2800     		movs	r0, r5
 3261 001a FFF7FEFF 		bl	lorawan_api_set_no_rx_packet_threshold
 3262 001e 2000     		movs	r0, r4
 3263              	.L551:
 3264              		@ sp needed
 3265 0020 70BD     		pop	{r4, r5, r6, pc}
 3267              		.section	.text.smtc_modem_connection_timeout_get_thresholds,"ax",%progbits
 3268              		.align	1
 3269              		.global	smtc_modem_connection_timeout_get_thresholds
 3270              		.syntax unified
 3271              		.code	16
 3272              		.thumb_func
 3274              	smtc_modem_connection_timeout_get_thresholds:
 3275              		@ args = 0, pretend = 0, frame = 0
ARM GAS  /tmp/ccQgeTV1.s 			page 59


 3276              		@ frame_needed = 0, uses_anonymous_args = 0
 3277 0000 70B5     		push	{r4, r5, r6, lr}
 3278 0002 0E00     		movs	r6, r1
 3279 0004 1500     		movs	r5, r2
 3280 0006 FFF7FEFF 		bl	modem_get_test_mode_status
 3281 000a 0400     		movs	r4, r0
 3282 000c 0520     		movs	r0, #5
 3283 000e 002C     		cmp	r4, #0
 3284 0010 0BD1     		bne	.L554
 3285 0012 0138     		subs	r0, r0, #1
 3286 0014 002E     		cmp	r6, #0
 3287 0016 08D0     		beq	.L554
 3288 0018 002D     		cmp	r5, #0
 3289 001a 06D0     		beq	.L554
 3290 001c FFF7FEFF 		bl	modem_get_adr_mobile_timeout_config
 3291 0020 3080     		strh	r0, [r6]
 3292 0022 FFF7FEFF 		bl	lorawan_api_get_no_rx_packet_threshold
 3293 0026 2880     		strh	r0, [r5]
 3294 0028 2000     		movs	r0, r4
 3295              	.L554:
 3296              		@ sp needed
 3297 002a 70BD     		pop	{r4, r5, r6, pc}
 3299              		.section	.text.smtc_modem_connection_timeout_get_current_values,"ax",%progbits
 3300              		.align	1
 3301              		.global	smtc_modem_connection_timeout_get_current_values
 3302              		.syntax unified
 3303              		.code	16
 3304              		.thumb_func
 3306              	smtc_modem_connection_timeout_get_current_values:
 3307              		@ args = 0, pretend = 0, frame = 0
 3308              		@ frame_needed = 0, uses_anonymous_args = 0
 3309 0000 70B5     		push	{r4, r5, r6, lr}
 3310 0002 0E00     		movs	r6, r1
 3311 0004 1500     		movs	r5, r2
 3312 0006 FFF7FEFF 		bl	modem_get_test_mode_status
 3313 000a 0400     		movs	r4, r0
 3314 000c 0520     		movs	r0, #5
 3315 000e 002C     		cmp	r4, #0
 3316 0010 0BD1     		bne	.L559
 3317 0012 0138     		subs	r0, r0, #1
 3318 0014 002E     		cmp	r6, #0
 3319 0016 08D0     		beq	.L559
 3320 0018 002D     		cmp	r5, #0
 3321 001a 06D0     		beq	.L559
 3322 001c FFF7FEFF 		bl	lorawan_api_get_current_no_rx_packet_in_mobile_mode_cnt
 3323 0020 3080     		strh	r0, [r6]
 3324 0022 FFF7FEFF 		bl	lorawan_api_get_current_adr_ack_cnt
 3325 0026 2880     		strh	r0, [r5]
 3326 0028 2000     		movs	r0, r4
 3327              	.L559:
 3328              		@ sp needed
 3329 002a 70BD     		pop	{r4, r5, r6, pc}
 3331              		.section	.text.smtc_modem_lorawan_get_lost_connection_counter,"ax",%progbits
 3332              		.align	1
 3333              		.global	smtc_modem_lorawan_get_lost_connection_counter
 3334              		.syntax unified
 3335              		.code	16
ARM GAS  /tmp/ccQgeTV1.s 			page 60


 3336              		.thumb_func
 3338              	smtc_modem_lorawan_get_lost_connection_counter:
 3339              		@ args = 0, pretend = 0, frame = 0
 3340              		@ frame_needed = 0, uses_anonymous_args = 0
 3341 0000 70B5     		push	{r4, r5, r6, lr}
 3342 0002 0D00     		movs	r5, r1
 3343 0004 FFF7FEFF 		bl	modem_get_test_mode_status
 3344 0008 0400     		movs	r4, r0
 3345 000a 0520     		movs	r0, #5
 3346 000c 002C     		cmp	r4, #0
 3347 000e 06D1     		bne	.L564
 3348 0010 0138     		subs	r0, r0, #1
 3349 0012 002D     		cmp	r5, #0
 3350 0014 03D0     		beq	.L564
 3351 0016 FFF7FEFF 		bl	lorawan_api_get_current_no_rx_packet_cnt
 3352 001a 2880     		strh	r0, [r5]
 3353 001c 2000     		movs	r0, r4
 3354              	.L564:
 3355              		@ sp needed
 3356 001e 70BD     		pop	{r4, r5, r6, pc}
 3358              		.section	.text.smtc_modem_get_duty_cycle_status,"ax",%progbits
 3359              		.align	1
 3360              		.global	smtc_modem_get_duty_cycle_status
 3361              		.syntax unified
 3362              		.code	16
 3363              		.thumb_func
 3365              	smtc_modem_get_duty_cycle_status:
 3366              		@ args = 0, pretend = 0, frame = 0
 3367              		@ frame_needed = 0, uses_anonymous_args = 0
 3368 0000 70B5     		push	{r4, r5, r6, lr}
 3369 0002 0500     		movs	r5, r0
 3370 0004 FFF7FEFF 		bl	modem_get_test_mode_status
 3371 0008 0400     		movs	r4, r0
 3372 000a 0520     		movs	r0, #5
 3373 000c 002C     		cmp	r4, #0
 3374 000e 07D1     		bne	.L568
 3375 0010 0138     		subs	r0, r0, #1
 3376 0012 002D     		cmp	r5, #0
 3377 0014 04D0     		beq	.L568
 3378 0016 FFF7FEFF 		bl	lorawan_api_next_free_duty_cycle_ms_get
 3379 001a 4042     		rsbs	r0, r0, #0
 3380 001c 2860     		str	r0, [r5]
 3381 001e 2000     		movs	r0, r4
 3382              	.L568:
 3383              		@ sp needed
 3384 0020 70BD     		pop	{r4, r5, r6, pc}
 3386              		.section	.text.smtc_modem_rp_abort_user_radio_access_task,"ax",%progbits
 3387              		.align	1
 3388              		.global	smtc_modem_rp_abort_user_radio_access_task
 3389              		.syntax unified
 3390              		.code	16
 3391              		.thumb_func
 3393              	smtc_modem_rp_abort_user_radio_access_task:
 3394              		@ args = 0, pretend = 0, frame = 0
 3395              		@ frame_needed = 0, uses_anonymous_args = 0
 3396 0000 0300     		movs	r3, r0
 3397 0002 10B5     		push	{r4, lr}
ARM GAS  /tmp/ccQgeTV1.s 			page 61


 3398 0004 0128     		cmp	r0, #1
 3399 0006 0CD0     		beq	.L572
 3400 0008 0228     		cmp	r0, #2
 3401 000a 0DD0     		beq	.L573
 3402 000c 0420     		movs	r0, #4
 3403 000e 002B     		cmp	r3, #0
 3404 0010 06D1     		bne	.L574
 3405 0012 0121     		movs	r1, #1
 3406 0014 0648     		ldr	r0, .L579
 3407              	.L578:
 3408 0016 FFF7FEFF 		bl	rp_task_abort
 3409 001a 0028     		cmp	r0, #0
 3410 001c 00D0     		beq	.L574
 3411 001e 0620     		movs	r0, #6
 3412              	.L574:
 3413              		@ sp needed
 3414 0020 10BD     		pop	{r4, pc}
 3415              	.L572:
 3416 0022 0821     		movs	r1, #8
 3417 0024 0248     		ldr	r0, .L579
 3418 0026 F6E7     		b	.L578
 3419              	.L573:
 3420 0028 0921     		movs	r1, #9
 3421 002a 0148     		ldr	r0, .L579
 3422 002c F3E7     		b	.L578
 3423              	.L580:
 3424 002e C046     		.align	2
 3425              	.L579:
 3426 0030 00000000 		.word	modem_radio_planner
 3428              		.section	.text.smtc_modem_rp_add_user_radio_access_task,"ax",%progbits
 3429              		.align	1
 3430              		.global	smtc_modem_rp_add_user_radio_access_task
 3431              		.syntax unified
 3432              		.code	16
 3433              		.thumb_func
 3435              	smtc_modem_rp_add_user_radio_access_task:
 3436              		@ args = 0, pretend = 0, frame = 160
 3437              		@ frame_needed = 0, uses_anonymous_args = 0
 3438 0000 70B5     		push	{r4, r5, r6, lr}
 3439 0002 AAB0     		sub	sp, sp, #168
 3440 0004 0400     		movs	r4, r0
 3441 0006 FFF7FEFF 		bl	modem_get_test_mode_status
 3442 000a 0100     		movs	r1, r0
 3443 000c 0520     		movs	r0, #5
 3444 000e 0029     		cmp	r1, #0
 3445 0010 2CD1     		bne	.L582
 3446 0012 09AD     		add	r5, sp, #36
 3447 0014 8422     		movs	r2, #132
 3448 0016 2800     		movs	r0, r5
 3449 0018 FFF7FEFF 		bl	memset
 3450 001c 237B     		ldrb	r3, [r4, #12]
 3451 001e 012B     		cmp	r3, #1
 3452 0020 26D0     		beq	.L583
 3453 0022 022B     		cmp	r3, #2
 3454 0024 29D0     		beq	.L584
 3455 0026 0420     		movs	r0, #4
 3456 0028 002B     		cmp	r3, #0
ARM GAS  /tmp/ccQgeTV1.s 			page 62


 3457 002a 1FD1     		bne	.L582
 3458 002c 0126     		movs	r6, #1
 3459 002e 154B     		ldr	r3, .L589
 3460 0030 6269     		ldr	r2, [r4, #20]
 3461 0032 1A60     		str	r2, [r3]
 3462              	.L585:
 3463 0034 1822     		movs	r2, #24
 3464 0036 0021     		movs	r1, #0
 3465 0038 02A8     		add	r0, sp, #8
 3466 003a FFF7FEFF 		bl	memset
 3467 003e 6B46     		mov	r3, sp
 3468 0040 1E72     		strb	r6, [r3, #8]
 3469 0042 2369     		ldr	r3, [r4, #16]
 3470 0044 1048     		ldr	r0, .L589+4
 3471 0046 0393     		str	r3, [sp, #12]
 3472 0048 2378     		ldrb	r3, [r4]
 3473 004a 02A9     		add	r1, sp, #8
 3474 004c 5A1E     		subs	r2, r3, #1
 3475 004e 9341     		sbcs	r3, r3, r2
 3476 0050 6A46     		mov	r2, sp
 3477 0052 9374     		strb	r3, [r2, #18]
 3478 0054 6368     		ldr	r3, [r4, #4]
 3479 0056 0593     		str	r3, [sp, #20]
 3480 0058 A368     		ldr	r3, [r4, #8]
 3481 005a 0095     		str	r5, [sp]
 3482 005c 0893     		str	r3, [sp, #32]
 3483 005e 0023     		movs	r3, #0
 3484 0060 1A00     		movs	r2, r3
 3485 0062 FFF7FEFF 		bl	rp_task_enqueue
 3486 0066 0028     		cmp	r0, #0
 3487 0068 00D0     		beq	.L582
 3488 006a 0620     		movs	r0, #6
 3489              	.L582:
 3490 006c 2AB0     		add	sp, sp, #168
 3491              		@ sp needed
 3492 006e 70BD     		pop	{r4, r5, r6, pc}
 3493              	.L583:
 3494 0070 064B     		ldr	r3, .L589+8
 3495 0072 6269     		ldr	r2, [r4, #20]
 3496 0074 0826     		movs	r6, #8
 3497 0076 1A60     		str	r2, [r3]
 3498 0078 DCE7     		b	.L585
 3499              	.L584:
 3500 007a 054B     		ldr	r3, .L589+12
 3501 007c 6269     		ldr	r2, [r4, #20]
 3502 007e 0926     		movs	r6, #9
 3503 0080 1A60     		str	r2, [r3]
 3504 0082 D7E7     		b	.L585
 3505              	.L590:
 3506              		.align	2
 3507              	.L589:
 3508 0084 00000000 		.word	user_end_task_callback_0
 3509 0088 00000000 		.word	modem_radio_planner
 3510 008c 00000000 		.word	user_end_task_callback_1
 3511 0090 00000000 		.word	user_end_task_callback_2
 3513              		.section	.rodata.smtc_modem_suspend_before_user_radio_access.str1.1,"aMS",%progbits,1
 3514              	.LC156:
ARM GAS  /tmp/ccQgeTV1.s 			page 63


 3515 0000 53757370 		.ascii	"Suspend modem user radio access\012\015\000"
 3515      656E6420 
 3515      6D6F6465 
 3515      6D207573 
 3515      65722072 
 3516              		.section	.text.smtc_modem_suspend_before_user_radio_access,"ax",%progbits
 3517              		.align	1
 3518              		.global	smtc_modem_suspend_before_user_radio_access
 3519              		.syntax unified
 3520              		.code	16
 3521              		.thumb_func
 3523              	smtc_modem_suspend_before_user_radio_access:
 3524              		@ args = 0, pretend = 0, frame = 0
 3525              		@ frame_needed = 0, uses_anonymous_args = 0
 3526 0000 10B5     		push	{r4, lr}
 3527 0002 FFF7FEFF 		bl	modem_get_test_mode_status
 3528 0006 0523     		movs	r3, #5
 3529 0008 041E     		subs	r4, r0, #0
 3530 000a 0CD1     		bne	.L592
 3531 000c 0120     		movs	r0, #1
 3532 000e FFF7FEFF 		bl	smtc_modem_suspend_radio_communications
 3533 0012 0648     		ldr	r0, .L595
 3534 0014 FFF7FEFF 		bl	smtc_modem_hal_print_trace
 3535 0018 0E20     		movs	r0, #14
 3536 001a FFF7FEFF 		bl	modem_context_suspend_user_radio_access
 3537 001e 0623     		movs	r3, #6
 3538 0020 0028     		cmp	r0, #0
 3539 0022 00D0     		beq	.L592
 3540 0024 2300     		movs	r3, r4
 3541              	.L592:
 3542              		@ sp needed
 3543 0026 1800     		movs	r0, r3
 3544 0028 10BD     		pop	{r4, pc}
 3545              	.L596:
 3546 002a C046     		.align	2
 3547              	.L595:
 3548 002c 00000000 		.word	.LC156
 3550              		.section	.rodata.smtc_modem_resume_after_user_radio_access.str1.1,"aMS",%progbits,1
 3551              	.LC158:
 3552 0000 52657375 		.ascii	"Resume modem user radio access\012\015\000"
 3552      6D65206D 
 3552      6F64656D 
 3552      20757365 
 3552      72207261 
 3553              		.section	.text.smtc_modem_resume_after_user_radio_access,"ax",%progbits
 3554              		.align	1
 3555              		.global	smtc_modem_resume_after_user_radio_access
 3556              		.syntax unified
 3557              		.code	16
 3558              		.thumb_func
 3560              	smtc_modem_resume_after_user_radio_access:
 3561              		@ args = 0, pretend = 0, frame = 0
 3562              		@ frame_needed = 0, uses_anonymous_args = 0
 3563 0000 10B5     		push	{r4, lr}
 3564 0002 FFF7FEFF 		bl	modem_get_test_mode_status
 3565 0006 0400     		movs	r4, r0
 3566 0008 0520     		movs	r0, #5
ARM GAS  /tmp/ccQgeTV1.s 			page 64


 3567 000a 002C     		cmp	r4, #0
 3568 000c 08D1     		bne	.L598
 3569 000e 0548     		ldr	r0, .L600
 3570 0010 FFF7FEFF 		bl	smtc_modem_hal_print_trace
 3571 0014 FFF7FEFF 		bl	modem_context_resume_user_radio_access
 3572 0018 2000     		movs	r0, r4
 3573 001a FFF7FEFF 		bl	smtc_modem_suspend_radio_communications
 3574 001e 2000     		movs	r0, r4
 3575              	.L598:
 3576              		@ sp needed
 3577 0020 10BD     		pop	{r4, pc}
 3578              	.L601:
 3579 0022 C046     		.align	2
 3580              	.L600:
 3581 0024 00000000 		.word	.LC158
 3583              		.section	.text.smtc_modem_get_stack_state,"ax",%progbits
 3584              		.align	1
 3585              		.global	smtc_modem_get_stack_state
 3586              		.syntax unified
 3587              		.code	16
 3588              		.thumb_func
 3590              	smtc_modem_get_stack_state:
 3591              		@ args = 0, pretend = 0, frame = 0
 3592              		@ frame_needed = 0, uses_anonymous_args = 0
 3593 0000 10B5     		push	{r4, lr}
 3594 0002 0C00     		movs	r4, r1
 3595 0004 FFF7FEFF 		bl	modem_get_test_mode_status
 3596 0008 0523     		movs	r3, #5
 3597 000a 0028     		cmp	r0, #0
 3598 000c 08D1     		bne	.L603
 3599 000e 013B     		subs	r3, r3, #1
 3600 0010 002C     		cmp	r4, #0
 3601 0012 05D0     		beq	.L603
 3602 0014 FFF7FEFF 		bl	lorawan_api_state_get
 3603 0018 0028     		cmp	r0, #0
 3604 001a 03D1     		bne	.L604
 3605 001c 2070     		strb	r0, [r4]
 3606              	.L606:
 3607 001e 0023     		movs	r3, #0
 3608              	.L603:
 3609              		@ sp needed
 3610 0020 1800     		movs	r0, r3
 3611 0022 10BD     		pop	{r4, pc}
 3612              	.L604:
 3613 0024 0223     		movs	r3, #2
 3614 0026 0428     		cmp	r0, #4
 3615 0028 00D0     		beq	.L609
 3616 002a 0123     		movs	r3, #1
 3617              	.L609:
 3618 002c 2370     		strb	r3, [r4]
 3619 002e F6E7     		b	.L606
 3621              		.section	.text.smtc_modem_set_network_type,"ax",%progbits
 3622              		.align	1
 3623              		.global	smtc_modem_set_network_type
 3624              		.syntax unified
 3625              		.code	16
 3626              		.thumb_func
ARM GAS  /tmp/ccQgeTV1.s 			page 65


 3628              	smtc_modem_set_network_type:
 3629              		@ args = 0, pretend = 0, frame = 0
 3630              		@ frame_needed = 0, uses_anonymous_args = 0
 3631 0000 70B5     		push	{r4, r5, r6, lr}
 3632 0002 0D00     		movs	r5, r1
 3633 0004 FFF7FEFF 		bl	modem_get_test_mode_status
 3634 0008 0400     		movs	r4, r0
 3635 000a 0520     		movs	r0, #5
 3636 000c 002C     		cmp	r4, #0
 3637 000e 03D1     		bne	.L611
 3638 0010 2800     		movs	r0, r5
 3639 0012 FFF7FEFF 		bl	modem_context_set_network_type
 3640 0016 2000     		movs	r0, r4
 3641              	.L611:
 3642              		@ sp needed
 3643 0018 70BD     		pop	{r4, r5, r6, pc}
 3645              		.section	.text.smtc_modem_get_network_type,"ax",%progbits
 3646              		.align	1
 3647              		.global	smtc_modem_get_network_type
 3648              		.syntax unified
 3649              		.code	16
 3650              		.thumb_func
 3652              	smtc_modem_get_network_type:
 3653              		@ args = 0, pretend = 0, frame = 0
 3654              		@ frame_needed = 0, uses_anonymous_args = 0
 3655 0000 70B5     		push	{r4, r5, r6, lr}
 3656 0002 0D00     		movs	r5, r1
 3657 0004 FFF7FEFF 		bl	modem_get_test_mode_status
 3658 0008 0400     		movs	r4, r0
 3659 000a 0520     		movs	r0, #5
 3660 000c 002C     		cmp	r4, #0
 3661 000e 06D1     		bne	.L614
 3662 0010 0138     		subs	r0, r0, #1
 3663 0012 002D     		cmp	r5, #0
 3664 0014 03D0     		beq	.L614
 3665 0016 FFF7FEFF 		bl	modem_context_get_network_type
 3666 001a 2870     		strb	r0, [r5]
 3667 001c 2000     		movs	r0, r4
 3668              	.L614:
 3669              		@ sp needed
 3670 001e 70BD     		pop	{r4, r5, r6, pc}
 3672              		.section	.rodata.smtc_modem_lbt_set_parameters.str1.1,"aMS",%progbits,1
 3673              	.LC160:
 3674 0000 4C42542C 		.ascii	"LBT, duration:%d, threshold:%d, bw:%d\012\015\000"
 3674      20647572 
 3674      6174696F 
 3674      6E3A2564 
 3674      2C207468 
 3675              		.section	.text.smtc_modem_lbt_set_parameters,"ax",%progbits
 3676              		.align	1
 3677              		.global	smtc_modem_lbt_set_parameters
 3678              		.syntax unified
 3679              		.code	16
 3680              		.thumb_func
 3682              	smtc_modem_lbt_set_parameters:
 3683              		@ args = 0, pretend = 0, frame = 0
 3684              		@ frame_needed = 0, uses_anonymous_args = 0
ARM GAS  /tmp/ccQgeTV1.s 			page 66


 3685 0000 F8B5     		push	{r3, r4, r5, r6, r7, lr}
 3686 0002 0D00     		movs	r5, r1
 3687 0004 1600     		movs	r6, r2
 3688 0006 1F00     		movs	r7, r3
 3689 0008 FFF7FEFF 		bl	modem_get_test_mode_status
 3690 000c 0400     		movs	r4, r0
 3691 000e 0520     		movs	r0, #5
 3692 0010 002C     		cmp	r4, #0
 3693 0012 0ED1     		bne	.L618
 3694 0014 3B00     		movs	r3, r7
 3695 0016 3200     		movs	r2, r6
 3696 0018 2900     		movs	r1, r5
 3697 001a 0648     		ldr	r0, .L620
 3698 001c FFF7FEFF 		bl	smtc_modem_hal_print_trace
 3699 0020 3A00     		movs	r2, r7
 3700 0022 2800     		movs	r0, r5
 3701 0024 3100     		movs	r1, r6
 3702 0026 FFF7FEFF 		bl	lorawan_api_lbt_set_parameters
 3703 002a 0122     		movs	r2, #1
 3704 002c 2000     		movs	r0, r4
 3705 002e 024B     		ldr	r3, .L620+4
 3706 0030 1A70     		strb	r2, [r3]
 3707              	.L618:
 3708              		@ sp needed
 3709 0032 F8BD     		pop	{r3, r4, r5, r6, r7, pc}
 3710              	.L621:
 3711              		.align	2
 3712              	.L620:
 3713 0034 00000000 		.word	.LC160
 3714 0038 00000000 		.word	lbt_config_available
 3716              		.section	.text.smtc_modem_lbt_get_parameters,"ax",%progbits
 3717              		.align	1
 3718              		.global	smtc_modem_lbt_get_parameters
 3719              		.syntax unified
 3720              		.code	16
 3721              		.thumb_func
 3723              	smtc_modem_lbt_get_parameters:
 3724              		@ args = 0, pretend = 0, frame = 0
 3725              		@ frame_needed = 0, uses_anonymous_args = 0
 3726 0000 F8B5     		push	{r3, r4, r5, r6, r7, lr}
 3727 0002 0D00     		movs	r5, r1
 3728 0004 1600     		movs	r6, r2
 3729 0006 1F00     		movs	r7, r3
 3730 0008 FFF7FEFF 		bl	modem_get_test_mode_status
 3731 000c 0400     		movs	r4, r0
 3732 000e 0520     		movs	r0, #5
 3733 0010 002C     		cmp	r4, #0
 3734 0012 0CD1     		bne	.L623
 3735 0014 0138     		subs	r0, r0, #1
 3736 0016 002D     		cmp	r5, #0
 3737 0018 09D0     		beq	.L623
 3738 001a 002E     		cmp	r6, #0
 3739 001c 07D0     		beq	.L623
 3740 001e 002F     		cmp	r7, #0
 3741 0020 05D0     		beq	.L623
 3742 0022 2800     		movs	r0, r5
 3743 0024 3A00     		movs	r2, r7
ARM GAS  /tmp/ccQgeTV1.s 			page 67


 3744 0026 3100     		movs	r1, r6
 3745 0028 FFF7FEFF 		bl	lorawan_api_lbt_get_parameters
 3746 002c 2000     		movs	r0, r4
 3747              	.L623:
 3748              		@ sp needed
 3749 002e F8BD     		pop	{r3, r4, r5, r6, r7, pc}
 3751              		.section	.rodata.smtc_modem_lbt_set_state.str1.1,"aMS",%progbits,1
 3752              	.LC164:
 3753 0000 1B5B303B 		.ascii	"\033[0;31mERROR: A configuration shall be set befor"
 3753      33316D45 
 3753      52524F52 
 3753      3A204120 
 3753      636F6E66 
 3754 0030 65207374 		.ascii	"e starting LBT \012\015\000"
 3754      61727469 
 3754      6E67204C 
 3754      4254200A 
 3754      0D00
 3755              		.section	.text.smtc_modem_lbt_set_state,"ax",%progbits
 3756              		.align	1
 3757              		.global	smtc_modem_lbt_set_state
 3758              		.syntax unified
 3759              		.code	16
 3760              		.thumb_func
 3762              	smtc_modem_lbt_set_state:
 3763              		@ args = 0, pretend = 0, frame = 0
 3764              		@ frame_needed = 0, uses_anonymous_args = 0
 3765 0000 10B5     		push	{r4, lr}
 3766 0002 0C00     		movs	r4, r1
 3767 0004 FFF7FEFF 		bl	modem_get_test_mode_status
 3768 0008 0523     		movs	r3, #5
 3769 000a 0028     		cmp	r0, #0
 3770 000c 0DD1     		bne	.L629
 3771 000e 002C     		cmp	r4, #0
 3772 0010 0DD0     		beq	.L630
 3773 0012 094B     		ldr	r3, .L635
 3774 0014 0130     		adds	r0, r0, #1
 3775 0016 1B78     		ldrb	r3, [r3]
 3776 0018 002B     		cmp	r3, #0
 3777 001a 09D1     		bne	.L634
 3778 001c 0748     		ldr	r0, .L635+4
 3779 001e FFF7FEFF 		bl	smtc_modem_hal_print_trace
 3780 0022 0748     		ldr	r0, .L635+8
 3781 0024 FFF7FEFF 		bl	smtc_modem_hal_print_trace
 3782 0028 0623     		movs	r3, #6
 3783              	.L629:
 3784              		@ sp needed
 3785 002a 1800     		movs	r0, r3
 3786 002c 10BD     		pop	{r4, pc}
 3787              	.L630:
 3788 002e 2000     		movs	r0, r4
 3789              	.L634:
 3790 0030 FFF7FEFF 		bl	lorawan_api_lbt_set_state
 3791 0034 0023     		movs	r3, #0
 3792 0036 F8E7     		b	.L629
 3793              	.L636:
 3794              		.align	2
ARM GAS  /tmp/ccQgeTV1.s 			page 68


 3795              	.L635:
 3796 0038 00000000 		.word	lbt_config_available
 3797 003c 00000000 		.word	.LC164
 3798 0040 30000000 		.word	.LC3
 3800              		.section	.text.smtc_modem_lbt_get_state,"ax",%progbits
 3801              		.align	1
 3802              		.global	smtc_modem_lbt_get_state
 3803              		.syntax unified
 3804              		.code	16
 3805              		.thumb_func
 3807              	smtc_modem_lbt_get_state:
 3808              		@ args = 0, pretend = 0, frame = 0
 3809              		@ frame_needed = 0, uses_anonymous_args = 0
 3810 0000 70B5     		push	{r4, r5, r6, lr}
 3811 0002 0D00     		movs	r5, r1
 3812 0004 FFF7FEFF 		bl	modem_get_test_mode_status
 3813 0008 0400     		movs	r4, r0
 3814 000a 0520     		movs	r0, #5
 3815 000c 002C     		cmp	r4, #0
 3816 000e 06D1     		bne	.L638
 3817 0010 0138     		subs	r0, r0, #1
 3818 0012 002D     		cmp	r5, #0
 3819 0014 03D0     		beq	.L638
 3820 0016 FFF7FEFF 		bl	lorawan_api_lbt_get_state
 3821 001a 2870     		strb	r0, [r5]
 3822 001c 2000     		movs	r0, r4
 3823              	.L638:
 3824              		@ sp needed
 3825 001e 70BD     		pop	{r4, r5, r6, pc}
 3827              		.section	.text.smtc_modem_set_nb_trans,"ax",%progbits
 3828              		.align	1
 3829              		.global	smtc_modem_set_nb_trans
 3830              		.syntax unified
 3831              		.code	16
 3832              		.thumb_func
 3834              	smtc_modem_set_nb_trans:
 3835              		@ args = 0, pretend = 0, frame = 0
 3836              		@ frame_needed = 0, uses_anonymous_args = 0
 3837 0000 10B5     		push	{r4, lr}
 3838 0002 0C00     		movs	r4, r1
 3839 0004 FFF7FEFF 		bl	modem_get_test_mode_status
 3840 0008 0300     		movs	r3, r0
 3841 000a 0520     		movs	r0, #5
 3842 000c 002B     		cmp	r3, #0
 3843 000e 05D1     		bne	.L642
 3844 0010 2000     		movs	r0, r4
 3845 0012 FFF7FEFF 		bl	lorawan_api_nb_trans_set
 3846 0016 431E     		subs	r3, r0, #1
 3847 0018 9841     		sbcs	r0, r0, r3
 3848 001a 8000     		lsls	r0, r0, #2
 3849              	.L642:
 3850              		@ sp needed
 3851 001c 10BD     		pop	{r4, pc}
 3853              		.section	.text.smtc_modem_get_nb_trans,"ax",%progbits
 3854              		.align	1
 3855              		.global	smtc_modem_get_nb_trans
 3856              		.syntax unified
ARM GAS  /tmp/ccQgeTV1.s 			page 69


 3857              		.code	16
 3858              		.thumb_func
 3860              	smtc_modem_get_nb_trans:
 3861              		@ args = 0, pretend = 0, frame = 0
 3862              		@ frame_needed = 0, uses_anonymous_args = 0
 3863 0000 70B5     		push	{r4, r5, r6, lr}
 3864 0002 0D00     		movs	r5, r1
 3865 0004 FFF7FEFF 		bl	modem_get_test_mode_status
 3866 0008 0400     		movs	r4, r0
 3867 000a 0520     		movs	r0, #5
 3868 000c 002C     		cmp	r4, #0
 3869 000e 06D1     		bne	.L645
 3870 0010 0138     		subs	r0, r0, #1
 3871 0012 002D     		cmp	r5, #0
 3872 0014 03D0     		beq	.L645
 3873 0016 FFF7FEFF 		bl	lorawan_api_nb_trans_get
 3874 001a 2870     		strb	r0, [r5]
 3875 001c 2000     		movs	r0, r4
 3876              	.L645:
 3877              		@ sp needed
 3878 001e 70BD     		pop	{r4, r5, r6, pc}
 3880              		.section	.text.smtc_modem_set_crystal_error_ppm,"ax",%progbits
 3881              		.align	1
 3882              		.global	smtc_modem_set_crystal_error_ppm
 3883              		.syntax unified
 3884              		.code	16
 3885              		.thumb_func
 3887              	smtc_modem_set_crystal_error_ppm:
 3888              		@ args = 0, pretend = 0, frame = 0
 3889              		@ frame_needed = 0, uses_anonymous_args = 0
 3890 0000 70B5     		push	{r4, r5, r6, lr}
 3891 0002 0500     		movs	r5, r0
 3892 0004 FFF7FEFF 		bl	modem_get_test_mode_status
 3893 0008 0400     		movs	r4, r0
 3894 000a 0520     		movs	r0, #5
 3895 000c 002C     		cmp	r4, #0
 3896 000e 03D1     		bne	.L649
 3897 0010 2800     		movs	r0, r5
 3898 0012 FFF7FEFF 		bl	lorawan_api_set_crystal_error
 3899 0016 2000     		movs	r0, r4
 3900              	.L649:
 3901              		@ sp needed
 3902 0018 70BD     		pop	{r4, r5, r6, pc}
 3904              		.section	.text.smtc_modem_get_crystal_error_ppm,"ax",%progbits
 3905              		.align	1
 3906              		.global	smtc_modem_get_crystal_error_ppm
 3907              		.syntax unified
 3908              		.code	16
 3909              		.thumb_func
 3911              	smtc_modem_get_crystal_error_ppm:
 3912              		@ args = 0, pretend = 0, frame = 0
 3913              		@ frame_needed = 0, uses_anonymous_args = 0
 3914 0000 70B5     		push	{r4, r5, r6, lr}
 3915 0002 0500     		movs	r5, r0
 3916 0004 FFF7FEFF 		bl	modem_get_test_mode_status
 3917 0008 0400     		movs	r4, r0
 3918 000a 0520     		movs	r0, #5
ARM GAS  /tmp/ccQgeTV1.s 			page 70


 3919 000c 002C     		cmp	r4, #0
 3920 000e 06D1     		bne	.L652
 3921 0010 0138     		subs	r0, r0, #1
 3922 0012 002D     		cmp	r5, #0
 3923 0014 03D0     		beq	.L652
 3924 0016 FFF7FEFF 		bl	lorawan_api_get_crystal_error
 3925 001a 2860     		str	r0, [r5]
 3926 001c 2000     		movs	r0, r4
 3927              	.L652:
 3928              		@ sp needed
 3929 001e 70BD     		pop	{r4, r5, r6, pc}
 3931              		.section	.text.smtc_modem_lorawan_request_link_check,"ax",%progbits
 3932              		.align	1
 3933              		.global	smtc_modem_lorawan_request_link_check
 3934              		.syntax unified
 3935              		.code	16
 3936              		.thumb_func
 3938              	smtc_modem_lorawan_request_link_check:
 3939              		@ args = 0, pretend = 0, frame = 0
 3940              		@ frame_needed = 0, uses_anonymous_args = 0
 3941 0000 10B5     		push	{r4, lr}
 3942 0002 FFF7FEFF 		bl	modem_get_test_mode_status
 3943 0006 0523     		movs	r3, #5
 3944 0008 041E     		subs	r4, r0, #0
 3945 000a 08D1     		bne	.L656
 3946 000c FFF7FEFF 		bl	is_modem_connected
 3947 0010 0623     		movs	r3, #6
 3948 0012 0028     		cmp	r0, #0
 3949 0014 03D0     		beq	.L656
 3950 0016 2000     		movs	r0, r4
 3951 0018 FFF7FEFF 		bl	modem_supervisor_add_task_link_check_req
 3952 001c 2300     		movs	r3, r4
 3953              	.L656:
 3954              		@ sp needed
 3955 001e 1800     		movs	r0, r3
 3956 0020 10BD     		pop	{r4, pc}
 3958              		.section	.text.smtc_modem_lorawan_class_b_request_ping_slot_info,"ax",%progbits
 3959              		.align	1
 3960              		.global	smtc_modem_lorawan_class_b_request_ping_slot_info
 3961              		.syntax unified
 3962              		.code	16
 3963              		.thumb_func
 3965              	smtc_modem_lorawan_class_b_request_ping_slot_info:
 3966              		@ args = 0, pretend = 0, frame = 0
 3967              		@ frame_needed = 0, uses_anonymous_args = 0
 3968 0000 10B5     		push	{r4, lr}
 3969 0002 FFF7FEFF 		bl	modem_get_test_mode_status
 3970 0006 0523     		movs	r3, #5
 3971 0008 041E     		subs	r4, r0, #0
 3972 000a 08D1     		bne	.L661
 3973 000c FFF7FEFF 		bl	is_modem_connected
 3974 0010 0623     		movs	r3, #6
 3975 0012 0028     		cmp	r0, #0
 3976 0014 03D0     		beq	.L661
 3977 0016 2000     		movs	r0, r4
 3978 0018 FFF7FEFF 		bl	modem_supervisor_add_task_ping_slot_info_req
 3979 001c 2300     		movs	r3, r4
ARM GAS  /tmp/ccQgeTV1.s 			page 71


 3980              	.L661:
 3981              		@ sp needed
 3982 001e 1800     		movs	r0, r3
 3983 0020 10BD     		pop	{r4, pc}
 3985              		.section	.text.smtc_modem_class_b_set_ping_slot_periodicity,"ax",%progbits
 3986              		.align	1
 3987              		.global	smtc_modem_class_b_set_ping_slot_periodicity
 3988              		.syntax unified
 3989              		.code	16
 3990              		.thumb_func
 3992              	smtc_modem_class_b_set_ping_slot_periodicity:
 3993              		@ args = 0, pretend = 0, frame = 0
 3994              		@ frame_needed = 0, uses_anonymous_args = 0
 3995 0000 10B5     		push	{r4, lr}
 3996 0002 0C00     		movs	r4, r1
 3997 0004 FFF7FEFF 		bl	modem_get_test_mode_status
 3998 0008 0300     		movs	r3, r0
 3999 000a 0520     		movs	r0, #5
 4000 000c 002B     		cmp	r3, #0
 4001 000e 05D1     		bne	.L666
 4002 0010 2000     		movs	r0, r4
 4003 0012 FFF7FEFF 		bl	lorawan_api_set_ping_slot_periodicity
 4004 0016 431E     		subs	r3, r0, #1
 4005 0018 9841     		sbcs	r0, r0, r3
 4006 001a 8000     		lsls	r0, r0, #2
 4007              	.L666:
 4008              		@ sp needed
 4009 001c 10BD     		pop	{r4, pc}
 4011              		.section	.text.smtc_modem_class_b_get_ping_slot_periodicity,"ax",%progbits
 4012              		.align	1
 4013              		.global	smtc_modem_class_b_get_ping_slot_periodicity
 4014              		.syntax unified
 4015              		.code	16
 4016              		.thumb_func
 4018              	smtc_modem_class_b_get_ping_slot_periodicity:
 4019              		@ args = 0, pretend = 0, frame = 0
 4020              		@ frame_needed = 0, uses_anonymous_args = 0
 4021 0000 70B5     		push	{r4, r5, r6, lr}
 4022 0002 0D00     		movs	r5, r1
 4023 0004 FFF7FEFF 		bl	modem_get_test_mode_status
 4024 0008 0400     		movs	r4, r0
 4025 000a 0520     		movs	r0, #5
 4026 000c 002C     		cmp	r4, #0
 4027 000e 06D1     		bne	.L669
 4028 0010 0138     		subs	r0, r0, #1
 4029 0012 002D     		cmp	r5, #0
 4030 0014 03D0     		beq	.L669
 4031 0016 FFF7FEFF 		bl	lorawan_api_get_ping_slot_periodicity
 4032 001a 2870     		strb	r0, [r5]
 4033 001c 2000     		movs	r0, r4
 4034              	.L669:
 4035              		@ sp needed
 4036 001e 70BD     		pop	{r4, r5, r6, pc}
 4038              		.section	.text.smtc_modem_d2d_class_b_request_uplink,"ax",%progbits
 4039              		.align	1
 4040              		.global	smtc_modem_d2d_class_b_request_uplink
 4041              		.syntax unified
ARM GAS  /tmp/ccQgeTV1.s 			page 72


 4042              		.code	16
 4043              		.thumb_func
 4045              	smtc_modem_d2d_class_b_request_uplink:
 4046              		@ args = 8, pretend = 0, frame = 0
 4047              		@ frame_needed = 0, uses_anonymous_args = 0
 4048              		@ link register save eliminated.
 4049 0000 0620     		movs	r0, #6
 4050              		@ sp needed
 4051 0002 7047     		bx	lr
 4053              		.section	.text.smtc_modem_d2d_class_b_get_tx_max_payload,"ax",%progbits
 4054              		.align	1
 4055              		.global	smtc_modem_d2d_class_b_get_tx_max_payload
 4056              		.syntax unified
 4057              		.code	16
 4058              		.thumb_func
 4060              	smtc_modem_d2d_class_b_get_tx_max_payload:
 4061              		@ args = 0, pretend = 0, frame = 0
 4062              		@ frame_needed = 0, uses_anonymous_args = 0
 4063              		@ link register save eliminated.
 4064 0000 0620     		movs	r0, #6
 4065              		@ sp needed
 4066 0002 7047     		bx	lr
 4068              		.section	.text.smtc_modem_get_network_frame_pending_status,"ax",%progbits
 4069              		.align	1
 4070              		.global	smtc_modem_get_network_frame_pending_status
 4071              		.syntax unified
 4072              		.code	16
 4073              		.thumb_func
 4075              	smtc_modem_get_network_frame_pending_status:
 4076              		@ args = 0, pretend = 0, frame = 0
 4077              		@ frame_needed = 0, uses_anonymous_args = 0
 4078 0000 70B5     		push	{r4, r5, r6, lr}
 4079 0002 0D00     		movs	r5, r1
 4080 0004 FFF7FEFF 		bl	modem_get_test_mode_status
 4081 0008 0400     		movs	r4, r0
 4082 000a 0520     		movs	r0, #5
 4083 000c 002C     		cmp	r4, #0
 4084 000e 06D1     		bne	.L675
 4085 0010 0138     		subs	r0, r0, #1
 4086 0012 002D     		cmp	r5, #0
 4087 0014 03D0     		beq	.L675
 4088 0016 FFF7FEFF 		bl	lorawan_api_rx_fpending_bit_get
 4089 001a 2870     		strb	r0, [r5]
 4090 001c 2000     		movs	r0, r4
 4091              	.L675:
 4092              		@ sp needed
 4093 001e 70BD     		pop	{r4, r5, r6, pc}
 4095              		.section	.text.smtc_modem_set_adr_ack_limit_delay,"ax",%progbits
 4096              		.align	1
 4097              		.global	smtc_modem_set_adr_ack_limit_delay
 4098              		.syntax unified
 4099              		.code	16
 4100              		.thumb_func
 4102              	smtc_modem_set_adr_ack_limit_delay:
 4103              		@ args = 0, pretend = 0, frame = 0
 4104              		@ frame_needed = 0, uses_anonymous_args = 0
 4105 0000 70B5     		push	{r4, r5, r6, lr}
ARM GAS  /tmp/ccQgeTV1.s 			page 73


 4106 0002 0C00     		movs	r4, r1
 4107 0004 1500     		movs	r5, r2
 4108 0006 FFF7FEFF 		bl	modem_get_test_mode_status
 4109 000a 0300     		movs	r3, r0
 4110 000c 0520     		movs	r0, #5
 4111 000e 002B     		cmp	r3, #0
 4112 0010 06D1     		bne	.L679
 4113 0012 2900     		movs	r1, r5
 4114 0014 2000     		movs	r0, r4
 4115 0016 FFF7FEFF 		bl	lorawan_api_set_adr_ack_limit_delay
 4116 001a 431E     		subs	r3, r0, #1
 4117 001c 9841     		sbcs	r0, r0, r3
 4118 001e 8000     		lsls	r0, r0, #2
 4119              	.L679:
 4120              		@ sp needed
 4121 0020 70BD     		pop	{r4, r5, r6, pc}
 4123              		.section	.text.smtc_modem_get_adr_ack_limit_delay,"ax",%progbits
 4124              		.align	1
 4125              		.global	smtc_modem_get_adr_ack_limit_delay
 4126              		.syntax unified
 4127              		.code	16
 4128              		.thumb_func
 4130              	smtc_modem_get_adr_ack_limit_delay:
 4131              		@ args = 0, pretend = 0, frame = 0
 4132              		@ frame_needed = 0, uses_anonymous_args = 0
 4133 0000 70B5     		push	{r4, r5, r6, lr}
 4134 0002 0D00     		movs	r5, r1
 4135 0004 1600     		movs	r6, r2
 4136 0006 FFF7FEFF 		bl	modem_get_test_mode_status
 4137 000a 0400     		movs	r4, r0
 4138 000c 0520     		movs	r0, #5
 4139 000e 002C     		cmp	r4, #0
 4140 0010 09D1     		bne	.L682
 4141 0012 0138     		subs	r0, r0, #1
 4142 0014 002D     		cmp	r5, #0
 4143 0016 06D0     		beq	.L682
 4144 0018 002E     		cmp	r6, #0
 4145 001a 04D0     		beq	.L682
 4146 001c 2800     		movs	r0, r5
 4147 001e 3100     		movs	r1, r6
 4148 0020 FFF7FEFF 		bl	lorawan_api_get_adr_ack_limit_delay
 4149 0024 2000     		movs	r0, r4
 4150              	.L682:
 4151              		@ sp needed
 4152 0026 70BD     		pop	{r4, r5, r6, pc}
 4154              		.section	.text.smtc_modem_get_pin,"ax",%progbits
 4155              		.align	1
 4156              		.global	smtc_modem_get_pin
 4157              		.syntax unified
 4158              		.code	16
 4159              		.thumb_func
 4161              	smtc_modem_get_pin:
 4162              		@ args = 0, pretend = 0, frame = 0
 4163              		@ frame_needed = 0, uses_anonymous_args = 0
 4164 0000 10B5     		push	{r4, lr}
 4165 0002 FFF7FEFF 		bl	modem_get_test_mode_status
 4166              		@ sp needed
ARM GAS  /tmp/ccQgeTV1.s 			page 74


 4167 0006 0623     		movs	r3, #6
 4168 0008 181A     		subs	r0, r3, r0
 4169 000a C0B2     		uxtb	r0, r0
 4170 000c 10BD     		pop	{r4, pc}
 4172              		.section	.text.smtc_modem_get_chip_eui,"ax",%progbits
 4173              		.align	1
 4174              		.global	smtc_modem_get_chip_eui
 4175              		.syntax unified
 4176              		.code	16
 4177              		.thumb_func
 4179              	smtc_modem_get_chip_eui:
 4180              		@ args = 0, pretend = 0, frame = 0
 4181              		@ frame_needed = 0, uses_anonymous_args = 0
 4182 0000 10B5     		push	{r4, lr}
 4183 0002 FFF7FEFF 		bl	modem_get_test_mode_status
 4184              		@ sp needed
 4185 0006 0623     		movs	r3, #6
 4186 0008 181A     		subs	r0, r3, r0
 4187 000a C0B2     		uxtb	r0, r0
 4188 000c 10BD     		pop	{r4, pc}
 4190              		.section	.text.smtc_modem_derive_keys,"ax",%progbits
 4191              		.align	1
 4192              		.global	smtc_modem_derive_keys
 4193              		.syntax unified
 4194              		.code	16
 4195              		.thumb_func
 4197              	smtc_modem_derive_keys:
 4198              		@ args = 0, pretend = 0, frame = 0
 4199              		@ frame_needed = 0, uses_anonymous_args = 0
 4200 0000 10B5     		push	{r4, lr}
 4201 0002 FFF7FEFF 		bl	modem_get_test_mode_status
 4202 0006 0028     		cmp	r0, #0
 4203 0008 01D0     		beq	.L689
 4204              	.L691:
 4205 000a 0520     		movs	r0, #5
 4206              	.L690:
 4207              		@ sp needed
 4208 000c 10BD     		pop	{r4, pc}
 4209              	.L689:
 4210 000e FFF7FEFF 		bl	get_join_state
 4211 0012 0028     		cmp	r0, #0
 4212 0014 F9D1     		bne	.L691
 4213 0016 0630     		adds	r0, r0, #6
 4214 0018 F8E7     		b	.L690
 4216              		.section	.text.convert_rp_to_user_radio_access_status,"ax",%progbits
 4217              		.align	1
 4218              		.global	convert_rp_to_user_radio_access_status
 4219              		.syntax unified
 4220              		.code	16
 4221              		.thumb_func
 4223              	convert_rp_to_user_radio_access_status:
 4224              		@ args = 0, pretend = 0, frame = 0
 4225              		@ frame_needed = 0, uses_anonymous_args = 0
 4226              		@ link register save eliminated.
 4227 0000 0300     		movs	r3, r0
 4228 0002 0920     		movs	r0, #9
 4229 0004 0A2B     		cmp	r3, #10
ARM GAS  /tmp/ccQgeTV1.s 			page 75


 4230 0006 01D8     		bhi	.L693
 4231 0008 014A     		ldr	r2, .L695
 4232 000a D05C     		ldrb	r0, [r2, r3]
 4233              	.L693:
 4234              		@ sp needed
 4235 000c 7047     		bx	lr
 4236              	.L696:
 4237 000e C046     		.align	2
 4238              	.L695:
 4239 0010 00000000 		.word	CSWTCH.144
 4241              		.section	.rodata.smtc_modem_get_event.str1.1,"aMS",%progbits,1
 4242              	.LC169:
 4243 0000 1B5B303B 		.ascii	"\033[0;31mERROR: crash log :%s\012\000"
 4243      33316D45 
 4243      52524F52 
 4243      3A206372 
 4243      61736820 
 4244              	.LC172:
 4245 001d 1B5B303B 		.ascii	"\033[0;31mERROR: -> asynchronous_msgnumber overlap\000"
 4245      33316D45 
 4245      52524F52 
 4245      3A202D3E 
 4245      20617379 
 4246              		.section	.text.smtc_modem_get_event,"ax",%progbits
 4247              		.align	1
 4248              		.global	smtc_modem_get_event
 4249              		.syntax unified
 4250              		.code	16
 4251              		.thumb_func
 4253              	smtc_modem_get_event:
 4254              		@ args = 0, pretend = 0, frame = 24
 4255              		@ frame_needed = 0, uses_anonymous_args = 0
 4256 0000 70B5     		push	{r4, r5, r6, lr}
 4257 0002 8AB0     		sub	sp, sp, #40
 4258 0004 0400     		movs	r4, r0
 4259 0006 0E00     		movs	r6, r1
 4260 0008 FFF7FEFF 		bl	modem_get_test_mode_status
 4261 000c 0523     		movs	r3, #5
 4262 000e 0028     		cmp	r0, #0
 4263 0010 21D1     		bne	.L698
 4264 0012 013B     		subs	r3, r3, #1
 4265 0014 002C     		cmp	r4, #0
 4266 0016 1ED0     		beq	.L698
 4267 0018 002E     		cmp	r6, #0
 4268 001a 1CD0     		beq	.L698
 4269 001c FFF7FEFF 		bl	get_asynchronous_msgnumber
 4270 0020 0500     		movs	r5, r0
 4271 0022 1928     		cmp	r0, #25
 4272 0024 1AD9     		bls	.L699
 4273 0026 4C4C     		ldr	r4, .L724
 4274 0028 2000     		movs	r0, r4
 4275 002a FFF7FEFF 		bl	smtc_modem_hal_store_crashlog
 4276 002e 0120     		movs	r0, #1
 4277 0030 FFF7FEFF 		bl	smtc_modem_hal_set_crashlog_status
 4278 0034 2100     		movs	r1, r4
 4279 0036 4948     		ldr	r0, .L724+4
 4280 0038 FFF7FEFF 		bl	smtc_modem_hal_print_trace
ARM GAS  /tmp/ccQgeTV1.s 			page 76


 4281 003c 484C     		ldr	r4, .L724+8
 4282 003e 2000     		movs	r0, r4
 4283 0040 FFF7FEFF 		bl	smtc_modem_hal_print_trace
 4284 0044 4748     		ldr	r0, .L724+12
 4285 0046 FFF7FEFF 		bl	smtc_modem_hal_print_trace
 4286 004a 2000     		movs	r0, r4
 4287 004c FFF7FEFF 		bl	smtc_modem_hal_print_trace
 4288 0050 FFF7FEFF 		bl	smtc_modem_hal_reset_mcu
 4289              	.L700:
 4290 0054 0023     		movs	r3, #0
 4291              	.L698:
 4292 0056 1800     		movs	r0, r3
 4293 0058 0AB0     		add	sp, sp, #40
 4294              		@ sp needed
 4295 005a 70BD     		pop	{r4, r5, r6, pc}
 4296              	.L699:
 4297 005c 0028     		cmp	r0, #0
 4298 005e 77D0     		beq	.L701
 4299 0060 FFF7FEFF 		bl	get_last_msg_event
 4300 0064 6070     		strb	r0, [r4, #1]
 4301 0066 FFF7FEFF 		bl	get_modem_event_count
 4302 006a 013D     		subs	r5, r5, #1
 4303 006c 0138     		subs	r0, r0, #1
 4304 006e A070     		strb	r0, [r4, #2]
 4305 0070 3570     		strb	r5, [r6]
 4306 0072 6078     		ldrb	r0, [r4, #1]
 4307 0074 1828     		cmp	r0, #24
 4308 0076 11D8     		bhi	.L702
 4309 0078 FFF7FEFF 		bl	__gnu_thumb1_case_uqi
 4310              	.L704:
 4311 007c 0D       		.byte	(.L716-.L704)/2
 4312 007d 10       		.byte	(.L702-.L704)/2
 4313 007e 10       		.byte	(.L702-.L704)/2
 4314 007f 4A       		.byte	(.L715-.L704)/2
 4315 0080 18       		.byte	(.L714-.L704)/2
 4316 0081 46       		.byte	(.L713-.L704)/2
 4317 0082 4C       		.byte	(.L712-.L704)/2
 4318 0083 4E       		.byte	(.L711-.L704)/2
 4319 0084 10       		.byte	(.L702-.L704)/2
 4320 0085 10       		.byte	(.L702-.L704)/2
 4321 0086 10       		.byte	(.L702-.L704)/2
 4322 0087 10       		.byte	(.L702-.L704)/2
 4323 0088 10       		.byte	(.L702-.L704)/2
 4324 0089 54       		.byte	(.L710-.L704)/2
 4325 008a 10       		.byte	(.L702-.L704)/2
 4326 008b 10       		.byte	(.L702-.L704)/2
 4327 008c 56       		.byte	(.L709-.L704)/2
 4328 008d 64       		.byte	(.L708-.L704)/2
 4329 008e 5C       		.byte	(.L707-.L704)/2
 4330 008f 66       		.byte	(.L706-.L704)/2
 4331 0090 68       		.byte	(.L705-.L704)/2
 4332 0091 10       		.byte	(.L702-.L704)/2
 4333 0092 47       		.byte	(.L703-.L704)/2
 4334 0093 47       		.byte	(.L703-.L704)/2
 4335 0094 47       		.byte	(.L703-.L704)/2
 4336 0095 00       		.p2align 1
 4337              	.L716:
ARM GAS  /tmp/ccQgeTV1.s 			page 77


 4338 0096 FFF7FEFF 		bl	lorawan_api_nb_reset_get
 4339 009a A080     		strh	r0, [r4, #4]
 4340              	.L702:
 4341 009c 0022     		movs	r2, #0
 4342 009e 6078     		ldrb	r0, [r4, #1]
 4343 00a0 1100     		movs	r1, r2
 4344 00a2 FFF7FEFF 		bl	set_modem_event_count_and_status
 4345 00a6 FFF7FEFF 		bl	decrement_asynchronous_msgnumber
 4346 00aa D3E7     		b	.L700
 4347              	.L714:
 4348 00ac FFF7FEFF 		bl	lorawan_api_get_fifo_obj
 4349 00b0 1423     		movs	r3, #20
 4350 00b2 2200     		movs	r2, r4
 4351 00b4 2100     		movs	r1, r4
 4352 00b6 0293     		str	r3, [sp, #8]
 4353 00b8 013B     		subs	r3, r3, #1
 4354 00ba 6B44     		add	r3, r3, sp
 4355 00bc 05AD     		add	r5, sp, #20
 4356 00be FA32     		adds	r2, r2, #250
 4357 00c0 0193     		str	r3, [sp, #4]
 4358 00c2 0095     		str	r5, [sp]
 4359 00c4 F223     		movs	r3, #242
 4360 00c6 0831     		adds	r1, r1, #8
 4361 00c8 FFF7FEFF 		bl	fifo_ctrl_get
 4362 00cc 0622     		movs	r2, #6
 4363 00ce AB5E     		ldrsh	r3, [r5, r2]
 4364 00d0 1A00     		movs	r2, r3
 4365 00d2 8032     		adds	r2, r2, #128
 4366 00d4 92B2     		uxth	r2, r2
 4367 00d6 BF2A     		cmp	r2, #191
 4368 00d8 11D8     		bhi	.L717
 4369 00da 4033     		adds	r3, r3, #64
 4370 00dc 5AB2     		sxtb	r2, r3
 4371              	.L718:
 4372 00de 2271     		strb	r2, [r4, #4]
 4373 00e0 AB88     		ldrh	r3, [r5, #4]
 4374 00e2 9B00     		lsls	r3, r3, #2
 4375 00e4 6371     		strb	r3, [r4, #5]
 4376 00e6 2B89     		ldrh	r3, [r5, #8]
 4377 00e8 5BBA     		rev16	r3, r3
 4378 00ea E380     		strh	r3, [r4, #6]
 4379 00ec 2300     		movs	r3, r4
 4380 00ee AA7A     		ldrb	r2, [r5, #10]
 4381 00f0 FC33     		adds	r3, r3, #252
 4382 00f2 1A70     		strb	r2, [r3]
 4383 00f4 EA68     		ldr	r2, [r5, #12]
 4384 00f6 5A60     		str	r2, [r3, #4]
 4385 00f8 2A7C     		ldrb	r2, [r5, #16]
 4386 00fa 1A72     		strb	r2, [r3, #8]
 4387 00fc CEE7     		b	.L702
 4388              	.L717:
 4389 00fe 7F22     		movs	r2, #127
 4390 0100 3F2B     		cmp	r3, #63
 4391 0102 ECDC     		bgt	.L718
 4392 0104 FF3A     		subs	r2, r2, #255
 4393 0106 EAE7     		b	.L718
 4394              	.L713:
ARM GAS  /tmp/ccQgeTV1.s 			page 78


 4395 0108 0520     		movs	r0, #5
 4396              	.L703:
 4397 010a FFF7FEFF 		bl	get_modem_event_status
 4398 010e 07E0     		b	.L723
 4399              	.L715:
 4400 0110 0320     		movs	r0, #3
 4401 0112 FAE7     		b	.L703
 4402              	.L712:
 4403 0114 0620     		movs	r0, #6
 4404 0116 F8E7     		b	.L703
 4405              	.L711:
 4406 0118 FFF7FEFF 		bl	get_modem_muted
 4407 011c 431E     		subs	r3, r0, #1
 4408 011e 9841     		sbcs	r0, r0, r3
 4409              	.L723:
 4410 0120 2071     		strb	r0, [r4, #4]
 4411 0122 BBE7     		b	.L702
 4412              	.L710:
 4413 0124 0D20     		movs	r0, #13
 4414 0126 F0E7     		b	.L703
 4415              	.L709:
 4416 0128 A11D     		adds	r1, r4, #6
 4417 012a 601D     		adds	r0, r4, #5
 4418 012c FFF7FEFF 		bl	lorawan_api_get_link_check_ans
 4419 0130 6078     		ldrb	r0, [r4, #1]
 4420 0132 EAE7     		b	.L703
 4421              	.L707:
 4422 0134 0C4B     		ldr	r3, .L724+16
 4423 0136 1B68     		ldr	r3, [r3]
 4424 0138 A360     		str	r3, [r4, #8]
 4425 013a 0C4B     		ldr	r3, .L724+20
 4426 013c 1878     		ldrb	r0, [r3]
 4427 013e FFF7FEFF 		bl	convert_rp_to_user_radio_access_status
 4428 0142 EDE7     		b	.L723
 4429              	.L708:
 4430 0144 1120     		movs	r0, #17
 4431 0146 E0E7     		b	.L703
 4432              	.L706:
 4433 0148 1320     		movs	r0, #19
 4434 014a DEE7     		b	.L703
 4435              	.L705:
 4436 014c 1420     		movs	r0, #20
 4437 014e DCE7     		b	.L703
 4438              	.L701:
 4439 0150 FF23     		movs	r3, #255
 4440 0152 6370     		strb	r3, [r4, #1]
 4441 0154 7EE7     		b	.L700
 4442              	.L725:
 4443 0156 C046     		.align	2
 4444              	.L724:
 4445 0158 00000000 		.word	__func__.14
 4446 015c 00000000 		.word	.LC169
 4447 0160 30000000 		.word	.LC3
 4448 0164 1D000000 		.word	.LC172
 4449 0168 00000000 		.word	user_radio_irq_timestamp
 4450 016c 00000000 		.word	user_radio_irq_status
 4452              		.section	.text.convert_rp_to_user_radio_access_rp_status,"ax",%progbits
ARM GAS  /tmp/ccQgeTV1.s 			page 79


 4453              		.align	1
 4454              		.global	convert_rp_to_user_radio_access_rp_status
 4455              		.syntax unified
 4456              		.code	16
 4457              		.thumb_func
 4459              	convert_rp_to_user_radio_access_rp_status:
 4460              		@ args = 0, pretend = 0, frame = 0
 4461              		@ frame_needed = 0, uses_anonymous_args = 0
 4462              		@ link register save eliminated.
 4463 0000 0300     		movs	r3, r0
 4464 0002 0920     		movs	r0, #9
 4465 0004 0A2B     		cmp	r3, #10
 4466 0006 01D8     		bhi	.L727
 4467 0008 014A     		ldr	r2, .L729
 4468 000a D05C     		ldrb	r0, [r2, r3]
 4469              	.L727:
 4470              		@ sp needed
 4471 000c 7047     		bx	lr
 4472              	.L730:
 4473 000e C046     		.align	2
 4474              	.L729:
 4475 0010 00000000 		.word	CSWTCH.147
 4477              		.section	.text.callback_rp_user_radio_access_0,"ax",%progbits
 4478              		.align	1
 4479              		.global	callback_rp_user_radio_access_0
 4480              		.syntax unified
 4481              		.code	16
 4482              		.thumb_func
 4484              	callback_rp_user_radio_access_0:
 4485              		@ args = 0, pretend = 0, frame = 16
 4486              		@ frame_needed = 0, uses_anonymous_args = 0
 4487 0000 F0B5     		push	{r4, r5, r6, r7, lr}
 4488 0002 85B0     		sub	sp, sp, #20
 4489 0004 02AC     		add	r4, sp, #8
 4490 0006 0500     		movs	r5, r0
 4491 0008 0822     		movs	r2, #8
 4492 000a 0021     		movs	r1, #0
 4493 000c 2000     		movs	r0, r4
 4494 000e FFF7FEFF 		bl	memset
 4495 0012 6B46     		mov	r3, sp
 4496 0014 0026     		movs	r6, #0
 4497 0016 5F1C     		adds	r7, r3, #1
 4498 0018 0121     		movs	r1, #1
 4499 001a 2800     		movs	r0, r5
 4500 001c 5E80     		strh	r6, [r3, #2]
 4501 001e 01AA     		add	r2, sp, #4
 4502 0020 3B00     		movs	r3, r7
 4503 0022 0196     		str	r6, [sp, #4]
 4504 0024 FFF7FEFF 		bl	rp_get_status
 4505 0028 6B46     		mov	r3, sp
 4506 002a 0121     		movs	r1, #1
 4507 002c 9A1C     		adds	r2, r3, #2
 4508 002e 2800     		movs	r0, r5
 4509 0030 FFF7FEFF 		bl	rp_get_and_clear_raw_radio_irq
 4510 0034 019B     		ldr	r3, [sp, #4]
 4511 0036 3878     		ldrb	r0, [r7]
 4512 0038 0393     		str	r3, [sp, #12]
ARM GAS  /tmp/ccQgeTV1.s 			page 80


 4513 003a 2670     		strb	r6, [r4]
 4514 003c FFF7FEFF 		bl	convert_rp_to_user_radio_access_rp_status
 4515 0040 6B46     		mov	r3, sp
 4516 0042 5B88     		ldrh	r3, [r3, #2]
 4517 0044 6070     		strb	r0, [r4, #1]
 4518 0046 6380     		strh	r3, [r4, #2]
 4519 0048 034B     		ldr	r3, .L736
 4520 004a 1B68     		ldr	r3, [r3]
 4521 004c B342     		cmp	r3, r6
 4522 004e 01D0     		beq	.L731
 4523 0050 2000     		movs	r0, r4
 4524 0052 9847     		blx	r3
 4525              	.L731:
 4526 0054 05B0     		add	sp, sp, #20
 4527              		@ sp needed
 4528 0056 F0BD     		pop	{r4, r5, r6, r7, pc}
 4529              	.L737:
 4530              		.align	2
 4531              	.L736:
 4532 0058 00000000 		.word	user_end_task_callback_0
 4534              		.section	.text.callback_rp_user_radio_access_1,"ax",%progbits
 4535              		.align	1
 4536              		.global	callback_rp_user_radio_access_1
 4537              		.syntax unified
 4538              		.code	16
 4539              		.thumb_func
 4541              	callback_rp_user_radio_access_1:
 4542              		@ args = 0, pretend = 0, frame = 16
 4543              		@ frame_needed = 0, uses_anonymous_args = 0
 4544 0000 7FB5     		push	{r0, r1, r2, r3, r4, r5, r6, lr}
 4545 0002 02AC     		add	r4, sp, #8
 4546 0004 0500     		movs	r5, r0
 4547 0006 0822     		movs	r2, #8
 4548 0008 0021     		movs	r1, #0
 4549 000a 2000     		movs	r0, r4
 4550 000c FFF7FEFF 		bl	memset
 4551 0010 6A46     		mov	r2, sp
 4552 0012 0023     		movs	r3, #0
 4553 0014 561C     		adds	r6, r2, #1
 4554 0016 5380     		strh	r3, [r2, #2]
 4555 0018 0821     		movs	r1, #8
 4556 001a 2800     		movs	r0, r5
 4557 001c 0193     		str	r3, [sp, #4]
 4558 001e 01AA     		add	r2, sp, #4
 4559 0020 3300     		movs	r3, r6
 4560 0022 FFF7FEFF 		bl	rp_get_status
 4561 0026 6B46     		mov	r3, sp
 4562 0028 0821     		movs	r1, #8
 4563 002a 9A1C     		adds	r2, r3, #2
 4564 002c 2800     		movs	r0, r5
 4565 002e FFF7FEFF 		bl	rp_get_and_clear_raw_radio_irq
 4566 0032 0123     		movs	r3, #1
 4567 0034 2370     		strb	r3, [r4]
 4568 0036 019B     		ldr	r3, [sp, #4]
 4569 0038 3078     		ldrb	r0, [r6]
 4570 003a 0393     		str	r3, [sp, #12]
 4571 003c FFF7FEFF 		bl	convert_rp_to_user_radio_access_rp_status
ARM GAS  /tmp/ccQgeTV1.s 			page 81


 4572 0040 6B46     		mov	r3, sp
 4573 0042 5B88     		ldrh	r3, [r3, #2]
 4574 0044 6070     		strb	r0, [r4, #1]
 4575 0046 6380     		strh	r3, [r4, #2]
 4576 0048 034B     		ldr	r3, .L743
 4577 004a 1B68     		ldr	r3, [r3]
 4578 004c 002B     		cmp	r3, #0
 4579 004e 01D0     		beq	.L738
 4580 0050 2000     		movs	r0, r4
 4581 0052 9847     		blx	r3
 4582              	.L738:
 4583              		@ sp needed
 4584 0054 7FBD     		pop	{r0, r1, r2, r3, r4, r5, r6, pc}
 4585              	.L744:
 4586 0056 C046     		.align	2
 4587              	.L743:
 4588 0058 00000000 		.word	user_end_task_callback_1
 4590              		.section	.text.callback_rp_user_radio_access_2,"ax",%progbits
 4591              		.align	1
 4592              		.global	callback_rp_user_radio_access_2
 4593              		.syntax unified
 4594              		.code	16
 4595              		.thumb_func
 4597              	callback_rp_user_radio_access_2:
 4598              		@ args = 0, pretend = 0, frame = 16
 4599              		@ frame_needed = 0, uses_anonymous_args = 0
 4600 0000 7FB5     		push	{r0, r1, r2, r3, r4, r5, r6, lr}
 4601 0002 02AC     		add	r4, sp, #8
 4602 0004 0500     		movs	r5, r0
 4603 0006 0822     		movs	r2, #8
 4604 0008 0021     		movs	r1, #0
 4605 000a 2000     		movs	r0, r4
 4606 000c FFF7FEFF 		bl	memset
 4607 0010 6A46     		mov	r2, sp
 4608 0012 0023     		movs	r3, #0
 4609 0014 561C     		adds	r6, r2, #1
 4610 0016 5380     		strh	r3, [r2, #2]
 4611 0018 0921     		movs	r1, #9
 4612 001a 2800     		movs	r0, r5
 4613 001c 0193     		str	r3, [sp, #4]
 4614 001e 01AA     		add	r2, sp, #4
 4615 0020 3300     		movs	r3, r6
 4616 0022 FFF7FEFF 		bl	rp_get_status
 4617 0026 6B46     		mov	r3, sp
 4618 0028 0921     		movs	r1, #9
 4619 002a 9A1C     		adds	r2, r3, #2
 4620 002c 2800     		movs	r0, r5
 4621 002e FFF7FEFF 		bl	rp_get_and_clear_raw_radio_irq
 4622 0032 0223     		movs	r3, #2
 4623 0034 2370     		strb	r3, [r4]
 4624 0036 019B     		ldr	r3, [sp, #4]
 4625 0038 3078     		ldrb	r0, [r6]
 4626 003a 0393     		str	r3, [sp, #12]
 4627 003c FFF7FEFF 		bl	convert_rp_to_user_radio_access_rp_status
 4628 0040 6B46     		mov	r3, sp
 4629 0042 5B88     		ldrh	r3, [r3, #2]
 4630 0044 6070     		strb	r0, [r4, #1]
ARM GAS  /tmp/ccQgeTV1.s 			page 82


 4631 0046 6380     		strh	r3, [r4, #2]
 4632 0048 034B     		ldr	r3, .L750
 4633 004a 1B68     		ldr	r3, [r3]
 4634 004c 002B     		cmp	r3, #0
 4635 004e 01D0     		beq	.L745
 4636 0050 2000     		movs	r0, r4
 4637 0052 9847     		blx	r3
 4638              	.L745:
 4639              		@ sp needed
 4640 0054 7FBD     		pop	{r0, r1, r2, r3, r4, r5, r6, pc}
 4641              	.L751:
 4642 0056 C046     		.align	2
 4643              	.L750:
 4644 0058 00000000 		.word	user_end_task_callback_2
 4646              		.section	.rodata.CSWTCH.144,"a"
 4649              	CSWTCH.144:
 4650 0000 00       		.byte	0
 4651 0001 01       		.byte	1
 4652 0002 02       		.byte	2
 4653 0003 03       		.byte	3
 4654 0004 04       		.byte	4
 4655 0005 05       		.byte	5
 4656 0006 09       		.byte	9
 4657 0007 09       		.byte	9
 4658 0008 06       		.byte	6
 4659 0009 07       		.byte	7
 4660 000a 08       		.byte	8
 4661              		.set	CSWTCH.147,CSWTCH.144
 4662              		.section	.rodata.__func__.0,"a"
 4665              	__func__.0:
 4666 0000 736D7463 		.ascii	"smtc_modem_file_upload_init\000"
 4666      5F6D6F64 
 4666      656D5F66 
 4666      696C655F 
 4666      75706C6F 
 4667              		.section	.rodata.__func__.1,"a"
 4670              	__func__.1:
 4671 0000 736D7463 		.ascii	"smtc_modem_send_empty_tx\000"
 4671      5F6D6F64 
 4671      656D5F73 
 4671      656E645F 
 4671      656D7074 
 4672              		.section	.rodata.__func__.2,"a"
 4675              	__func__.2:
 4676 0000 736D7463 		.ascii	"smtc_modem_send_tx\000"
 4676      5F6D6F64 
 4676      656D5F73 
 4676      656E645F 
 4676      747800
 4677              		.section	.rodata.__func__.3,"a"
 4680              	__func__.3:
 4681 0000 736D7463 		.ascii	"smtc_modem_get_next_tx_max_payload\000"
 4681      5F6D6F64 
 4681      656D5F67 
 4681      65745F6E 
 4681      6578745F 
 4682              		.section	.rodata.__func__.4,"a"
ARM GAS  /tmp/ccQgeTV1.s 			page 83


 4685              	__func__.4:
 4686 0000 736D7463 		.ascii	"smtc_modem_suspend_radio_communications\000"
 4686      5F6D6F64 
 4686      656D5F73 
 4686      75737065 
 4686      6E645F72 
 4687              		.section	.rodata.__func__.5,"a"
 4690              	__func__.5:
 4691 0000 736D7463 		.ascii	"smtc_modem_join_network\000"
 4691      5F6D6F64 
 4691      656D5F6A 
 4691      6F696E5F 
 4691      6E657477 
 4692              		.section	.rodata.__func__.6,"a"
 4695              	__func__.6:
 4696 0000 736D7463 		.ascii	"smtc_modem_dm_set_info_interval\000"
 4696      5F6D6F64 
 4696      656D5F64 
 4696      6D5F7365 
 4696      745F696E 
 4697              		.section	.rodata.__func__.7,"a"
 4700              	__func__.7:
 4701 0000 736D7463 		.ascii	"smtc_modem_dm_set_fport\000"
 4701      5F6D6F64 
 4701      656D5F64 
 4701      6D5F7365 
 4701      745F6670 
 4702              		.section	.rodata.__func__.8,"a"
 4705              	__func__.8:
 4706 0000 736D7463 		.ascii	"smtc_modem_adr_set_profile\000"
 4706      5F6D6F64 
 4706      656D5F61 
 4706      64725F73 
 4706      65745F70 
 4707              		.section	.rodata.__func__.9,"a"
 4710              	__func__.9:
 4711 0000 736D7463 		.ascii	"smtc_modem_set_region\000"
 4711      5F6D6F64 
 4711      656D5F73 
 4711      65745F72 
 4711      6567696F 
 4712              		.section	.rodata.__func__.10,"a"
 4715              	__func__.10:
 4716 0000 736D7463 		.ascii	"smtc_modem_set_nwkkey\000"
 4716      5F6D6F64 
 4716      656D5F73 
 4716      65745F6E 
 4716      776B6B65 
 4717              		.section	.rodata.__func__.11,"a"
 4720              	__func__.11:
 4721 0000 736D7463 		.ascii	"smtc_modem_set_deveui\000"
 4721      5F6D6F64 
 4721      656D5F73 
 4721      65745F64 
 4721      65766575 
 4722              		.section	.rodata.__func__.12,"a"
 4725              	__func__.12:
ARM GAS  /tmp/ccQgeTV1.s 			page 84


 4726 0000 736D7463 		.ascii	"smtc_modem_set_joineui\000"
 4726      5F6D6F64 
 4726      656D5F73 
 4726      65745F6A 
 4726      6F696E65 
 4727              		.section	.rodata.__func__.13,"a"
 4730              	__func__.13:
 4731 0000 69735F6D 		.ascii	"is_modem_connected\000"
 4731      6F64656D 
 4731      5F636F6E 
 4731      6E656374 
 4731      656400
 4732              		.section	.rodata.__func__.14,"a"
 4735              	__func__.14:
 4736 0000 736D7463 		.ascii	"smtc_modem_get_event\000"
 4736      5F6D6F64 
 4736      656D5F67 
 4736      65745F65 
 4736      76656E74 
 4737              		.section	.bss.user_end_task_callback_2,"aw",%nobits
 4738              		.align	2
 4741              	user_end_task_callback_2:
 4742 0000 00000000 		.space	4
 4743              		.section	.bss.user_end_task_callback_1,"aw",%nobits
 4744              		.align	2
 4747              	user_end_task_callback_1:
 4748 0000 00000000 		.space	4
 4749              		.section	.bss.user_end_task_callback_0,"aw",%nobits
 4750              		.align	2
 4753              	user_end_task_callback_0:
 4754 0000 00000000 		.space	4
 4755              		.section	.bss.user_radio_irq_timestamp,"aw",%nobits
 4756              		.align	2
 4759              	user_radio_irq_timestamp:
 4760 0000 00000000 		.space	4
 4761              		.section	.bss.user_radio_irq_status,"aw",%nobits
 4764              	user_radio_irq_status:
 4765 0000 00       		.space	1
 4766              		.section	.bss.lbt_config_available,"aw",%nobits
 4769              	lbt_config_available:
 4770 0000 00       		.space	1
 4771              		.global	smtc_modem_services_ctx
 4772              		.section	.bss.smtc_modem_services_ctx,"aw",%nobits
 4773              		.align	2
 4776              	smtc_modem_services_ctx:
 4777 0000 00000000 		.space	1228
 4777      00000000 
 4777      00000000 
 4777      00000000 
 4777      00000000 
 4778              		.section	.bss.modem_radio_planner,"aw",%nobits
 4779              		.align	2
 4782              	modem_radio_planner:
 4783 0000 00000000 		.space	2504
 4783      00000000 
 4783      00000000 
 4783      00000000 
ARM GAS  /tmp/ccQgeTV1.s 			page 85


 4783      00000000 
 4784              		.section	.bss.modem_buffer,"aw",%nobits
 4785              		.align	2
 4788              	modem_buffer:
 4789 0000 00000000 		.space	242
 4789      00000000 
 4789      00000000 
 4789      00000000 
 4789      00000000 
 4790              		.ident	"GCC: (Arch Repository) 13.2.0"
ARM GAS  /tmp/ccQgeTV1.s 			page 86


DEFINED SYMBOLS
                            *ABS*:00000000 smtc_modem.c
     /tmp/ccQgeTV1.s:14     .text.empty_callback:00000000 $t
     /tmp/ccQgeTV1.s:20     .text.empty_callback:00000000 empty_callback
     /tmp/ccQgeTV1.s:39     .text.is_modem_connected:00000000 $t
     /tmp/ccQgeTV1.s:44     .text.is_modem_connected:00000000 is_modem_connected
     /tmp/ccQgeTV1.s:92     .text.is_modem_connected:00000058 $d
     /tmp/ccQgeTV1.s:4730   .rodata.__func__.13:00000000 __func__.13
     /tmp/ccQgeTV1.s:103    .text.user_radio_access_callback:00000000 $t
     /tmp/ccQgeTV1.s:109    .text.user_radio_access_callback:00000000 user_radio_access_callback
     /tmp/ccQgeTV1.s:137    .text.user_radio_access_callback:00000030 $d
     /tmp/ccQgeTV1.s:4764   .bss.user_radio_irq_status:00000000 user_radio_irq_status
     /tmp/ccQgeTV1.s:4759   .bss.user_radio_irq_timestamp:00000000 user_radio_irq_timestamp
     /tmp/ccQgeTV1.s:147    .text.smtc_modem_send_tx.constprop.0:00000000 $t
     /tmp/ccQgeTV1.s:152    .text.smtc_modem_send_tx.constprop.0:00000000 smtc_modem_send_tx.constprop.0
     /tmp/ccQgeTV1.s:229    .text.smtc_modem_send_tx.constprop.0:00000090 $d
     /tmp/ccQgeTV1.s:4675   .rodata.__func__.2:00000000 __func__.2
     /tmp/ccQgeTV1.s:4788   .bss.modem_buffer:00000000 modem_buffer
     /tmp/ccQgeTV1.s:238    .text.smtc_modem_init:00000000 $t
     /tmp/ccQgeTV1.s:244    .text.smtc_modem_init:00000000 smtc_modem_init
     /tmp/ccQgeTV1.s:308    .text.smtc_modem_init:0000008c $d
     /tmp/ccQgeTV1.s:4782   .bss.modem_radio_planner:00000000 modem_radio_planner
     /tmp/ccQgeTV1.s:4484   .text.callback_rp_user_radio_access_0:00000000 callback_rp_user_radio_access_0
     /tmp/ccQgeTV1.s:4541   .text.callback_rp_user_radio_access_1:00000000 callback_rp_user_radio_access_1
     /tmp/ccQgeTV1.s:4597   .text.callback_rp_user_radio_access_2:00000000 callback_rp_user_radio_access_2
     /tmp/ccQgeTV1.s:4776   .bss.smtc_modem_services_ctx:00000000 smtc_modem_services_ctx
     /tmp/ccQgeTV1.s:320    .text.smtc_modem_run_engine:00000000 $t
     /tmp/ccQgeTV1.s:326    .text.smtc_modem_run_engine:00000000 smtc_modem_run_engine
     /tmp/ccQgeTV1.s:348    .text.smtc_modem_get_modem_version:00000000 $t
     /tmp/ccQgeTV1.s:354    .text.smtc_modem_get_modem_version:00000000 smtc_modem_get_modem_version
     /tmp/ccQgeTV1.s:378    .text.smtc_modem_get_lorawan_version:00000000 $t
     /tmp/ccQgeTV1.s:384    .text.smtc_modem_get_lorawan_version:00000000 smtc_modem_get_lorawan_version
     /tmp/ccQgeTV1.s:411    .text.smtc_modem_get_regional_params_version:00000000 $t
     /tmp/ccQgeTV1.s:417    .text.smtc_modem_get_regional_params_version:00000000 smtc_modem_get_regional_params_version
     /tmp/ccQgeTV1.s:444    .text.smtc_modem_reset:00000000 $t
     /tmp/ccQgeTV1.s:450    .text.smtc_modem_reset:00000000 smtc_modem_reset
     /tmp/ccQgeTV1.s:467    .text.smtc_modem_factory_reset:00000000 $t
     /tmp/ccQgeTV1.s:473    .text.smtc_modem_factory_reset:00000000 smtc_modem_factory_reset
     /tmp/ccQgeTV1.s:492    .text.smtc_modem_get_charge:00000000 $t
     /tmp/ccQgeTV1.s:498    .text.smtc_modem_get_charge:00000000 smtc_modem_get_charge
     /tmp/ccQgeTV1.s:519    .text.smtc_modem_reset_charge:00000000 $t
     /tmp/ccQgeTV1.s:525    .text.smtc_modem_reset_charge:00000000 smtc_modem_reset_charge
     /tmp/ccQgeTV1.s:541    .text.smtc_modem_get_tx_power_offset_db:00000000 $t
     /tmp/ccQgeTV1.s:547    .text.smtc_modem_get_tx_power_offset_db:00000000 smtc_modem_get_tx_power_offset_db
     /tmp/ccQgeTV1.s:568    .text.smtc_modem_set_tx_power_offset_db:00000000 $t
     /tmp/ccQgeTV1.s:574    .text.smtc_modem_set_tx_power_offset_db:00000000 smtc_modem_set_tx_power_offset_db
     /tmp/ccQgeTV1.s:598    .text.smtc_modem_time_start_sync_service:00000000 $t
     /tmp/ccQgeTV1.s:604    .text.smtc_modem_time_start_sync_service:00000000 smtc_modem_time_start_sync_service
     /tmp/ccQgeTV1.s:645    .text.smtc_modem_time_start_sync_service:00000050 $d
     /tmp/ccQgeTV1.s:648    .text.smtc_modem_time_stop_sync_service:00000000 $t
     /tmp/ccQgeTV1.s:654    .text.smtc_modem_time_stop_sync_service:00000000 smtc_modem_time_stop_sync_service
     /tmp/ccQgeTV1.s:684    .text.smtc_modem_time_stop_sync_service:00000038 $d
     /tmp/ccQgeTV1.s:688    .text.smtc_modem_get_time:00000000 $t
     /tmp/ccQgeTV1.s:694    .text.smtc_modem_get_time:00000000 smtc_modem_get_time
     /tmp/ccQgeTV1.s:731    .text.smtc_modem_get_time:00000040 $d
     /tmp/ccQgeTV1.s:734    .text.smtc_modem_time_set_alcsync_fport:00000000 $t
     /tmp/ccQgeTV1.s:740    .text.smtc_modem_time_set_alcsync_fport:00000000 smtc_modem_time_set_alcsync_fport
ARM GAS  /tmp/ccQgeTV1.s 			page 87


     /tmp/ccQgeTV1.s:762    .text.smtc_modem_time_set_alcsync_fport:00000020 $d
     /tmp/ccQgeTV1.s:765    .text.smtc_modem_time_trigger_sync_request:00000000 $t
     /tmp/ccQgeTV1.s:771    .text.smtc_modem_time_trigger_sync_request:00000000 smtc_modem_time_trigger_sync_request
     /tmp/ccQgeTV1.s:800    .text.smtc_modem_time_trigger_sync_request:00000030 $d
     /tmp/ccQgeTV1.s:803    .text.smtc_modem_time_get_alcsync_fport:00000000 $t
     /tmp/ccQgeTV1.s:809    .text.smtc_modem_time_get_alcsync_fport:00000000 smtc_modem_time_get_alcsync_fport
     /tmp/ccQgeTV1.s:832    .text.smtc_modem_time_get_alcsync_fport:00000024 $d
     /tmp/ccQgeTV1.s:835    .text.smtc_modem_time_set_sync_interval_s:00000000 $t
     /tmp/ccQgeTV1.s:841    .text.smtc_modem_time_set_sync_interval_s:00000000 smtc_modem_time_set_sync_interval_s
     /tmp/ccQgeTV1.s:863    .text.smtc_modem_time_set_sync_interval_s:00000020 $d
     /tmp/ccQgeTV1.s:866    .text.smtc_modem_time_get_sync_interval_s:00000000 $t
     /tmp/ccQgeTV1.s:872    .text.smtc_modem_time_get_sync_interval_s:00000000 smtc_modem_time_get_sync_interval_s
     /tmp/ccQgeTV1.s:895    .text.smtc_modem_time_get_sync_interval_s:00000024 $d
     /tmp/ccQgeTV1.s:898    .text.smtc_modem_time_set_sync_invalid_delay_s:00000000 $t
     /tmp/ccQgeTV1.s:904    .text.smtc_modem_time_set_sync_invalid_delay_s:00000000 smtc_modem_time_set_sync_invalid_delay_s
     /tmp/ccQgeTV1.s:926    .text.smtc_modem_time_set_sync_invalid_delay_s:00000020 $d
     /tmp/ccQgeTV1.s:929    .text.smtc_modem_time_get_sync_invalid_delay_s:00000000 $t
     /tmp/ccQgeTV1.s:935    .text.smtc_modem_time_get_sync_invalid_delay_s:00000000 smtc_modem_time_get_sync_invalid_delay_s
     /tmp/ccQgeTV1.s:958    .text.smtc_modem_time_get_sync_invalid_delay_s:00000024 $d
     /tmp/ccQgeTV1.s:961    .text.smtc_modem_get_status:00000000 $t
     /tmp/ccQgeTV1.s:967    .text.smtc_modem_get_status:00000000 smtc_modem_get_status
     /tmp/ccQgeTV1.s:988    .text.smtc_modem_alarm_start_timer:00000000 $t
     /tmp/ccQgeTV1.s:994    .text.smtc_modem_alarm_start_timer:00000000 smtc_modem_alarm_start_timer
     /tmp/ccQgeTV1.s:1021   .text.smtc_modem_alarm_clear_timer:00000000 $t
     /tmp/ccQgeTV1.s:1027   .text.smtc_modem_alarm_clear_timer:00000000 smtc_modem_alarm_clear_timer
     /tmp/ccQgeTV1.s:1055   .text.smtc_modem_alarm_clear_timer:00000030 $d
     /tmp/ccQgeTV1.s:1063   .text.smtc_modem_alarm_get_remaining_time:00000000 $t
     /tmp/ccQgeTV1.s:1069   .text.smtc_modem_alarm_get_remaining_time:00000000 smtc_modem_alarm_get_remaining_time
     /tmp/ccQgeTV1.s:1107   .text.smtc_modem_alarm_get_remaining_time:00000048 $d
     /tmp/ccQgeTV1.s:1111   .text.smtc_modem_get_joineui:00000000 $t
     /tmp/ccQgeTV1.s:1117   .text.smtc_modem_get_joineui:00000000 smtc_modem_get_joineui
     /tmp/ccQgeTV1.s:1145   .text.smtc_modem_set_joineui:00000000 $t
     /tmp/ccQgeTV1.s:1151   .text.smtc_modem_set_joineui:00000000 smtc_modem_set_joineui
     /tmp/ccQgeTV1.s:1186   .text.smtc_modem_set_joineui:0000003c $d
     /tmp/ccQgeTV1.s:4725   .rodata.__func__.12:00000000 __func__.12
     /tmp/ccQgeTV1.s:1191   .text.smtc_modem_get_deveui:00000000 $t
     /tmp/ccQgeTV1.s:1197   .text.smtc_modem_get_deveui:00000000 smtc_modem_get_deveui
     /tmp/ccQgeTV1.s:1221   .text.smtc_modem_set_deveui:00000000 $t
     /tmp/ccQgeTV1.s:1227   .text.smtc_modem_set_deveui:00000000 smtc_modem_set_deveui
     /tmp/ccQgeTV1.s:1262   .text.smtc_modem_set_deveui:0000003c $d
     /tmp/ccQgeTV1.s:4720   .rodata.__func__.11:00000000 __func__.11
     /tmp/ccQgeTV1.s:1267   .text.smtc_modem_set_nwkkey:00000000 $t
     /tmp/ccQgeTV1.s:1273   .text.smtc_modem_set_nwkkey:00000000 smtc_modem_set_nwkkey
     /tmp/ccQgeTV1.s:1307   .text.smtc_modem_set_nwkkey:0000003c $d
     /tmp/ccQgeTV1.s:4715   .rodata.__func__.10:00000000 __func__.10
     /tmp/ccQgeTV1.s:1312   .text.smtc_modem_get_class:00000000 $t
     /tmp/ccQgeTV1.s:1318   .text.smtc_modem_get_class:00000000 smtc_modem_get_class
     /tmp/ccQgeTV1.s:1346   .text.smtc_modem_set_class:00000000 $t
     /tmp/ccQgeTV1.s:1352   .text.smtc_modem_set_class:00000000 smtc_modem_set_class
     /tmp/ccQgeTV1.s:1411   .text.smtc_modem_set_class:00000070 $d
     /tmp/ccQgeTV1.s:1417   .text.smtc_modem_multicast_set_grp_config:00000000 $t
     /tmp/ccQgeTV1.s:1423   .text.smtc_modem_multicast_set_grp_config:00000000 smtc_modem_multicast_set_grp_config
     /tmp/ccQgeTV1.s:1464   .text.smtc_modem_multicast_get_grp_config:00000000 $t
     /tmp/ccQgeTV1.s:1470   .text.smtc_modem_multicast_get_grp_config:00000000 smtc_modem_multicast_get_grp_config
     /tmp/ccQgeTV1.s:1498   .text.smtc_modem_multicast_class_c_start_session:00000000 $t
     /tmp/ccQgeTV1.s:1504   .text.smtc_modem_multicast_class_c_start_session:00000000 smtc_modem_multicast_class_c_start_session
     /tmp/ccQgeTV1.s:1538   .text.smtc_modem_multicast_class_c_get_session_status:00000000 $t
ARM GAS  /tmp/ccQgeTV1.s 			page 88


     /tmp/ccQgeTV1.s:1544   .text.smtc_modem_multicast_class_c_get_session_status:00000000 smtc_modem_multicast_class_c_get_session_status
     /tmp/ccQgeTV1.s:1579   .text.smtc_modem_multicast_class_c_stop_session:00000000 $t
     /tmp/ccQgeTV1.s:1585   .text.smtc_modem_multicast_class_c_stop_session:00000000 smtc_modem_multicast_class_c_stop_session
     /tmp/ccQgeTV1.s:1608   .text.smtc_modem_multicast_class_c_stop_all_sessions:00000000 $t
     /tmp/ccQgeTV1.s:1614   .text.smtc_modem_multicast_class_c_stop_all_sessions:00000000 smtc_modem_multicast_class_c_stop_all_sessions
     /tmp/ccQgeTV1.s:1632   .text.smtc_modem_multicast_class_b_start_session:00000000 $t
     /tmp/ccQgeTV1.s:1638   .text.smtc_modem_multicast_class_b_start_session:00000000 smtc_modem_multicast_class_b_start_session
     /tmp/ccQgeTV1.s:1675   .text.smtc_modem_multicast_class_b_get_session_status:00000000 $t
     /tmp/ccQgeTV1.s:1681   .text.smtc_modem_multicast_class_b_get_session_status:00000000 smtc_modem_multicast_class_b_get_session_status
     /tmp/ccQgeTV1.s:1725   .text.smtc_modem_multicast_class_b_stop_session:00000000 $t
     /tmp/ccQgeTV1.s:1731   .text.smtc_modem_multicast_class_b_stop_session:00000000 smtc_modem_multicast_class_b_stop_session
     /tmp/ccQgeTV1.s:1754   .text.smtc_modem_multicast_class_b_stop_all_sessions:00000000 $t
     /tmp/ccQgeTV1.s:1760   .text.smtc_modem_multicast_class_b_stop_all_sessions:00000000 smtc_modem_multicast_class_b_stop_all_sessions
     /tmp/ccQgeTV1.s:1778   .text.smtc_modem_get_region:00000000 $t
     /tmp/ccQgeTV1.s:1784   .text.smtc_modem_get_region:00000000 smtc_modem_get_region
     /tmp/ccQgeTV1.s:1809   .text.smtc_modem_set_region:00000000 $t
     /tmp/ccQgeTV1.s:1815   .text.smtc_modem_set_region:00000000 smtc_modem_set_region
     /tmp/ccQgeTV1.s:1852   .text.smtc_modem_set_region:00000044 $d
     /tmp/ccQgeTV1.s:4710   .rodata.__func__.9:00000000 __func__.9
     /tmp/ccQgeTV1.s:1858   .text.smtc_modem_adr_get_profile:00000000 $t
     /tmp/ccQgeTV1.s:1864   .text.smtc_modem_adr_get_profile:00000000 smtc_modem_adr_get_profile
     /tmp/ccQgeTV1.s:1889   .text.smtc_modem_adr_set_profile:00000000 $t
     /tmp/ccQgeTV1.s:1895   .text.smtc_modem_adr_set_profile:00000000 smtc_modem_adr_set_profile
     /tmp/ccQgeTV1.s:1943   .text.smtc_modem_adr_set_profile:00000050 $d
     /tmp/ccQgeTV1.s:4705   .rodata.__func__.8:00000000 __func__.8
     /tmp/ccQgeTV1.s:1948   .text.smtc_modem_get_available_datarates:00000000 $t
     /tmp/ccQgeTV1.s:1954   .text.smtc_modem_get_available_datarates:00000000 smtc_modem_get_available_datarates
     /tmp/ccQgeTV1.s:1975   .text.smtc_modem_dm_get_fport:00000000 $t
     /tmp/ccQgeTV1.s:1981   .text.smtc_modem_dm_get_fport:00000000 smtc_modem_dm_get_fport
     /tmp/ccQgeTV1.s:2006   .text.smtc_modem_dm_set_fport:00000000 $t
     /tmp/ccQgeTV1.s:2012   .text.smtc_modem_dm_set_fport:00000000 smtc_modem_dm_set_fport
     /tmp/ccQgeTV1.s:2039   .text.smtc_modem_dm_set_fport:00000030 $d
     /tmp/ccQgeTV1.s:4700   .rodata.__func__.7:00000000 __func__.7
     /tmp/ccQgeTV1.s:2044   .text.smtc_modem_dm_get_info_interval:00000000 $t
     /tmp/ccQgeTV1.s:2050   .text.smtc_modem_dm_get_info_interval:00000000 smtc_modem_dm_get_info_interval
     /tmp/ccQgeTV1.s:2082   .text.smtc_modem_dm_set_info_interval:00000000 $t
     /tmp/ccQgeTV1.s:2088   .text.smtc_modem_dm_set_info_interval:00000000 smtc_modem_dm_set_info_interval
     /tmp/ccQgeTV1.s:2129   .text.smtc_modem_dm_set_info_interval:00000048 $d
     /tmp/ccQgeTV1.s:4695   .rodata.__func__.6:00000000 __func__.6
     /tmp/ccQgeTV1.s:2134   .text.smtc_modem_dm_get_info_fields:00000000 $t
     /tmp/ccQgeTV1.s:2140   .text.smtc_modem_dm_get_info_fields:00000000 smtc_modem_dm_get_info_fields
     /tmp/ccQgeTV1.s:2166   .text.smtc_modem_dm_set_info_fields:00000000 $t
     /tmp/ccQgeTV1.s:2172   .text.smtc_modem_dm_set_info_fields:00000000 smtc_modem_dm_set_info_fields
     /tmp/ccQgeTV1.s:2197   .text.smtc_modem_dm_request_single_uplink:00000000 $t
     /tmp/ccQgeTV1.s:2203   .text.smtc_modem_dm_request_single_uplink:00000000 smtc_modem_dm_request_single_uplink
     /tmp/ccQgeTV1.s:2237   .text.smtc_modem_dm_set_user_data:00000000 $t
     /tmp/ccQgeTV1.s:2243   .text.smtc_modem_dm_set_user_data:00000000 smtc_modem_dm_set_user_data
     /tmp/ccQgeTV1.s:2264   .text.smtc_modem_dm_get_user_data:00000000 $t
     /tmp/ccQgeTV1.s:2270   .text.smtc_modem_dm_get_user_data:00000000 smtc_modem_dm_get_user_data
     /tmp/ccQgeTV1.s:2297   .text.smtc_modem_join_network:00000000 $t
     /tmp/ccQgeTV1.s:2303   .text.smtc_modem_join_network:00000000 smtc_modem_join_network
     /tmp/ccQgeTV1.s:2356   .text.smtc_modem_join_network:00000064 $d
     /tmp/ccQgeTV1.s:4690   .rodata.__func__.5:00000000 __func__.5
     /tmp/ccQgeTV1.s:2364   .text.smtc_modem_leave_network:00000000 $t
     /tmp/ccQgeTV1.s:2370   .text.smtc_modem_leave_network:00000000 smtc_modem_leave_network
     /tmp/ccQgeTV1.s:2390   .text.smtc_modem_suspend_radio_communications:00000000 $t
     /tmp/ccQgeTV1.s:2396   .text.smtc_modem_suspend_radio_communications:00000000 smtc_modem_suspend_radio_communications
ARM GAS  /tmp/ccQgeTV1.s 			page 89


     /tmp/ccQgeTV1.s:2423   .text.smtc_modem_suspend_radio_communications:00000030 $d
     /tmp/ccQgeTV1.s:4685   .rodata.__func__.4:00000000 __func__.4
     /tmp/ccQgeTV1.s:2432   .text.smtc_modem_get_next_tx_max_payload:00000000 $t
     /tmp/ccQgeTV1.s:2438   .text.smtc_modem_get_next_tx_max_payload:00000000 smtc_modem_get_next_tx_max_payload
     /tmp/ccQgeTV1.s:2472   .text.smtc_modem_get_next_tx_max_payload:0000003c $d
     /tmp/ccQgeTV1.s:4680   .rodata.__func__.3:00000000 __func__.3
     /tmp/ccQgeTV1.s:2477   .text.smtc_modem_request_uplink:00000000 $t
     /tmp/ccQgeTV1.s:2483   .text.smtc_modem_request_uplink:00000000 smtc_modem_request_uplink
     /tmp/ccQgeTV1.s:2511   .text.smtc_modem_request_extended_uplink:00000000 $t
     /tmp/ccQgeTV1.s:2517   .text.smtc_modem_request_extended_uplink:00000000 smtc_modem_request_extended_uplink
     /tmp/ccQgeTV1.s:2528   .text.smtc_modem_abort_extended_uplink:00000000 $t
     /tmp/ccQgeTV1.s:2534   .text.smtc_modem_abort_extended_uplink:00000000 smtc_modem_abort_extended_uplink
     /tmp/ccQgeTV1.s:2545   .text.smtc_modem_request_emergency_uplink:00000000 $t
     /tmp/ccQgeTV1.s:2551   .text.smtc_modem_request_emergency_uplink:00000000 smtc_modem_request_emergency_uplink
     /tmp/ccQgeTV1.s:2580   .text.smtc_modem_request_empty_uplink:00000000 $t
     /tmp/ccQgeTV1.s:2586   .text.smtc_modem_request_empty_uplink:00000000 smtc_modem_request_empty_uplink
     /tmp/ccQgeTV1.s:2653   .text.smtc_modem_request_empty_uplink:0000007c $d
     /tmp/ccQgeTV1.s:4670   .rodata.__func__.1:00000000 __func__.1
     /tmp/ccQgeTV1.s:2673   .text.smtc_modem_file_upload_init:00000000 $t
     /tmp/ccQgeTV1.s:2679   .text.smtc_modem_file_upload_init:00000000 smtc_modem_file_upload_init
     /tmp/ccQgeTV1.s:2764   .text.smtc_modem_file_upload_init:000000a4 $d
     /tmp/ccQgeTV1.s:4665   .rodata.__func__.0:00000000 __func__.0
     /tmp/ccQgeTV1.s:2781   .text.smtc_modem_file_upload_start:00000000 $t
     /tmp/ccQgeTV1.s:2787   .text.smtc_modem_file_upload_start:00000000 smtc_modem_file_upload_start
     /tmp/ccQgeTV1.s:2838   .text.smtc_modem_file_upload_start:0000006c $d
     /tmp/ccQgeTV1.s:2851   .text.smtc_modem_file_upload_reset:00000000 $t
     /tmp/ccQgeTV1.s:2857   .text.smtc_modem_file_upload_reset:00000000 smtc_modem_file_upload_reset
     /tmp/ccQgeTV1.s:2896   .text.smtc_modem_file_upload_reset:0000004c $d
     /tmp/ccQgeTV1.s:2916   .text.smtc_modem_stream_init:00000000 $t
     /tmp/ccQgeTV1.s:2922   .text.smtc_modem_stream_init:00000000 smtc_modem_stream_init
     /tmp/ccQgeTV1.s:2997   .text.smtc_modem_stream_init:0000009c $d
     /tmp/ccQgeTV1.s:3022   .text.smtc_modem_stream_add_data:00000000 $t
     /tmp/ccQgeTV1.s:3028   .text.smtc_modem_stream_add_data:00000000 smtc_modem_stream_add_data
     /tmp/ccQgeTV1.s:3108   .text.smtc_modem_stream_add_data:000000a4 $d
     /tmp/ccQgeTV1.s:3117   .text.smtc_modem_stream_status:00000000 $t
     /tmp/ccQgeTV1.s:3123   .text.smtc_modem_stream_status:00000000 smtc_modem_stream_status
     /tmp/ccQgeTV1.s:3154   .text.smtc_modem_stream_status:00000034 $d
     /tmp/ccQgeTV1.s:3157   .text.smtc_modem_set_certification_mode:00000000 $t
     /tmp/ccQgeTV1.s:3163   .text.smtc_modem_set_certification_mode:00000000 smtc_modem_set_certification_mode
     /tmp/ccQgeTV1.s:3189   .text.smtc_modem_increment_event_middleware:00000000 $t
     /tmp/ccQgeTV1.s:3195   .text.smtc_modem_increment_event_middleware:00000000 smtc_modem_increment_event_middleware
     /tmp/ccQgeTV1.s:3212   .text.smtc_modem_get_certification_mode:00000000 $t
     /tmp/ccQgeTV1.s:3218   .text.smtc_modem_get_certification_mode:00000000 smtc_modem_get_certification_mode
     /tmp/ccQgeTV1.s:3241   .text.smtc_modem_connection_timeout_set_thresholds:00000000 $t
     /tmp/ccQgeTV1.s:3247   .text.smtc_modem_connection_timeout_set_thresholds:00000000 smtc_modem_connection_timeout_set_thresholds
     /tmp/ccQgeTV1.s:3268   .text.smtc_modem_connection_timeout_get_thresholds:00000000 $t
     /tmp/ccQgeTV1.s:3274   .text.smtc_modem_connection_timeout_get_thresholds:00000000 smtc_modem_connection_timeout_get_thresholds
     /tmp/ccQgeTV1.s:3300   .text.smtc_modem_connection_timeout_get_current_values:00000000 $t
     /tmp/ccQgeTV1.s:3306   .text.smtc_modem_connection_timeout_get_current_values:00000000 smtc_modem_connection_timeout_get_current_values
     /tmp/ccQgeTV1.s:3332   .text.smtc_modem_lorawan_get_lost_connection_counter:00000000 $t
     /tmp/ccQgeTV1.s:3338   .text.smtc_modem_lorawan_get_lost_connection_counter:00000000 smtc_modem_lorawan_get_lost_connection_counter
     /tmp/ccQgeTV1.s:3359   .text.smtc_modem_get_duty_cycle_status:00000000 $t
     /tmp/ccQgeTV1.s:3365   .text.smtc_modem_get_duty_cycle_status:00000000 smtc_modem_get_duty_cycle_status
     /tmp/ccQgeTV1.s:3387   .text.smtc_modem_rp_abort_user_radio_access_task:00000000 $t
     /tmp/ccQgeTV1.s:3393   .text.smtc_modem_rp_abort_user_radio_access_task:00000000 smtc_modem_rp_abort_user_radio_access_task
     /tmp/ccQgeTV1.s:3426   .text.smtc_modem_rp_abort_user_radio_access_task:00000030 $d
     /tmp/ccQgeTV1.s:3429   .text.smtc_modem_rp_add_user_radio_access_task:00000000 $t
ARM GAS  /tmp/ccQgeTV1.s 			page 90


     /tmp/ccQgeTV1.s:3435   .text.smtc_modem_rp_add_user_radio_access_task:00000000 smtc_modem_rp_add_user_radio_access_task
     /tmp/ccQgeTV1.s:3508   .text.smtc_modem_rp_add_user_radio_access_task:00000084 $d
     /tmp/ccQgeTV1.s:4753   .bss.user_end_task_callback_0:00000000 user_end_task_callback_0
     /tmp/ccQgeTV1.s:4747   .bss.user_end_task_callback_1:00000000 user_end_task_callback_1
     /tmp/ccQgeTV1.s:4741   .bss.user_end_task_callback_2:00000000 user_end_task_callback_2
     /tmp/ccQgeTV1.s:3517   .text.smtc_modem_suspend_before_user_radio_access:00000000 $t
     /tmp/ccQgeTV1.s:3523   .text.smtc_modem_suspend_before_user_radio_access:00000000 smtc_modem_suspend_before_user_radio_access
     /tmp/ccQgeTV1.s:3548   .text.smtc_modem_suspend_before_user_radio_access:0000002c $d
     /tmp/ccQgeTV1.s:3554   .text.smtc_modem_resume_after_user_radio_access:00000000 $t
     /tmp/ccQgeTV1.s:3560   .text.smtc_modem_resume_after_user_radio_access:00000000 smtc_modem_resume_after_user_radio_access
     /tmp/ccQgeTV1.s:3581   .text.smtc_modem_resume_after_user_radio_access:00000024 $d
     /tmp/ccQgeTV1.s:3584   .text.smtc_modem_get_stack_state:00000000 $t
     /tmp/ccQgeTV1.s:3590   .text.smtc_modem_get_stack_state:00000000 smtc_modem_get_stack_state
     /tmp/ccQgeTV1.s:3622   .text.smtc_modem_set_network_type:00000000 $t
     /tmp/ccQgeTV1.s:3628   .text.smtc_modem_set_network_type:00000000 smtc_modem_set_network_type
     /tmp/ccQgeTV1.s:3646   .text.smtc_modem_get_network_type:00000000 $t
     /tmp/ccQgeTV1.s:3652   .text.smtc_modem_get_network_type:00000000 smtc_modem_get_network_type
     /tmp/ccQgeTV1.s:3676   .text.smtc_modem_lbt_set_parameters:00000000 $t
     /tmp/ccQgeTV1.s:3682   .text.smtc_modem_lbt_set_parameters:00000000 smtc_modem_lbt_set_parameters
     /tmp/ccQgeTV1.s:3713   .text.smtc_modem_lbt_set_parameters:00000034 $d
     /tmp/ccQgeTV1.s:4769   .bss.lbt_config_available:00000000 lbt_config_available
     /tmp/ccQgeTV1.s:3717   .text.smtc_modem_lbt_get_parameters:00000000 $t
     /tmp/ccQgeTV1.s:3723   .text.smtc_modem_lbt_get_parameters:00000000 smtc_modem_lbt_get_parameters
     /tmp/ccQgeTV1.s:3756   .text.smtc_modem_lbt_set_state:00000000 $t
     /tmp/ccQgeTV1.s:3762   .text.smtc_modem_lbt_set_state:00000000 smtc_modem_lbt_set_state
     /tmp/ccQgeTV1.s:3796   .text.smtc_modem_lbt_set_state:00000038 $d
     /tmp/ccQgeTV1.s:3801   .text.smtc_modem_lbt_get_state:00000000 $t
     /tmp/ccQgeTV1.s:3807   .text.smtc_modem_lbt_get_state:00000000 smtc_modem_lbt_get_state
     /tmp/ccQgeTV1.s:3828   .text.smtc_modem_set_nb_trans:00000000 $t
     /tmp/ccQgeTV1.s:3834   .text.smtc_modem_set_nb_trans:00000000 smtc_modem_set_nb_trans
     /tmp/ccQgeTV1.s:3854   .text.smtc_modem_get_nb_trans:00000000 $t
     /tmp/ccQgeTV1.s:3860   .text.smtc_modem_get_nb_trans:00000000 smtc_modem_get_nb_trans
     /tmp/ccQgeTV1.s:3881   .text.smtc_modem_set_crystal_error_ppm:00000000 $t
     /tmp/ccQgeTV1.s:3887   .text.smtc_modem_set_crystal_error_ppm:00000000 smtc_modem_set_crystal_error_ppm
     /tmp/ccQgeTV1.s:3905   .text.smtc_modem_get_crystal_error_ppm:00000000 $t
     /tmp/ccQgeTV1.s:3911   .text.smtc_modem_get_crystal_error_ppm:00000000 smtc_modem_get_crystal_error_ppm
     /tmp/ccQgeTV1.s:3932   .text.smtc_modem_lorawan_request_link_check:00000000 $t
     /tmp/ccQgeTV1.s:3938   .text.smtc_modem_lorawan_request_link_check:00000000 smtc_modem_lorawan_request_link_check
     /tmp/ccQgeTV1.s:3959   .text.smtc_modem_lorawan_class_b_request_ping_slot_info:00000000 $t
     /tmp/ccQgeTV1.s:3965   .text.smtc_modem_lorawan_class_b_request_ping_slot_info:00000000 smtc_modem_lorawan_class_b_request_ping_slot_info
     /tmp/ccQgeTV1.s:3986   .text.smtc_modem_class_b_set_ping_slot_periodicity:00000000 $t
     /tmp/ccQgeTV1.s:3992   .text.smtc_modem_class_b_set_ping_slot_periodicity:00000000 smtc_modem_class_b_set_ping_slot_periodicity
     /tmp/ccQgeTV1.s:4012   .text.smtc_modem_class_b_get_ping_slot_periodicity:00000000 $t
     /tmp/ccQgeTV1.s:4018   .text.smtc_modem_class_b_get_ping_slot_periodicity:00000000 smtc_modem_class_b_get_ping_slot_periodicity
     /tmp/ccQgeTV1.s:4039   .text.smtc_modem_d2d_class_b_request_uplink:00000000 $t
     /tmp/ccQgeTV1.s:4045   .text.smtc_modem_d2d_class_b_request_uplink:00000000 smtc_modem_d2d_class_b_request_uplink
     /tmp/ccQgeTV1.s:4054   .text.smtc_modem_d2d_class_b_get_tx_max_payload:00000000 $t
     /tmp/ccQgeTV1.s:4060   .text.smtc_modem_d2d_class_b_get_tx_max_payload:00000000 smtc_modem_d2d_class_b_get_tx_max_payload
     /tmp/ccQgeTV1.s:4069   .text.smtc_modem_get_network_frame_pending_status:00000000 $t
     /tmp/ccQgeTV1.s:4075   .text.smtc_modem_get_network_frame_pending_status:00000000 smtc_modem_get_network_frame_pending_status
     /tmp/ccQgeTV1.s:4096   .text.smtc_modem_set_adr_ack_limit_delay:00000000 $t
     /tmp/ccQgeTV1.s:4102   .text.smtc_modem_set_adr_ack_limit_delay:00000000 smtc_modem_set_adr_ack_limit_delay
     /tmp/ccQgeTV1.s:4124   .text.smtc_modem_get_adr_ack_limit_delay:00000000 $t
     /tmp/ccQgeTV1.s:4130   .text.smtc_modem_get_adr_ack_limit_delay:00000000 smtc_modem_get_adr_ack_limit_delay
     /tmp/ccQgeTV1.s:4155   .text.smtc_modem_get_pin:00000000 $t
     /tmp/ccQgeTV1.s:4161   .text.smtc_modem_get_pin:00000000 smtc_modem_get_pin
     /tmp/ccQgeTV1.s:4173   .text.smtc_modem_get_chip_eui:00000000 $t
ARM GAS  /tmp/ccQgeTV1.s 			page 91


     /tmp/ccQgeTV1.s:4179   .text.smtc_modem_get_chip_eui:00000000 smtc_modem_get_chip_eui
     /tmp/ccQgeTV1.s:4191   .text.smtc_modem_derive_keys:00000000 $t
     /tmp/ccQgeTV1.s:4197   .text.smtc_modem_derive_keys:00000000 smtc_modem_derive_keys
     /tmp/ccQgeTV1.s:4217   .text.convert_rp_to_user_radio_access_status:00000000 $t
     /tmp/ccQgeTV1.s:4223   .text.convert_rp_to_user_radio_access_status:00000000 convert_rp_to_user_radio_access_status
     /tmp/ccQgeTV1.s:4239   .text.convert_rp_to_user_radio_access_status:00000010 $d
     /tmp/ccQgeTV1.s:4649   .rodata.CSWTCH.144:00000000 CSWTCH.144
     /tmp/ccQgeTV1.s:4247   .text.smtc_modem_get_event:00000000 $t
     /tmp/ccQgeTV1.s:4253   .text.smtc_modem_get_event:00000000 smtc_modem_get_event
     /tmp/ccQgeTV1.s:4311   .text.smtc_modem_get_event:0000007c $d
     /tmp/ccQgeTV1.s:4445   .text.smtc_modem_get_event:00000158 $d
     /tmp/ccQgeTV1.s:4735   .rodata.__func__.14:00000000 __func__.14
     /tmp/ccQgeTV1.s:4453   .text.convert_rp_to_user_radio_access_rp_status:00000000 $t
     /tmp/ccQgeTV1.s:4459   .text.convert_rp_to_user_radio_access_rp_status:00000000 convert_rp_to_user_radio_access_rp_status
     /tmp/ccQgeTV1.s:4475   .text.convert_rp_to_user_radio_access_rp_status:00000010 $d
     /tmp/ccQgeTV1.s:4649   .rodata.CSWTCH.144:00000000 CSWTCH.147
     /tmp/ccQgeTV1.s:4478   .text.callback_rp_user_radio_access_0:00000000 $t
     /tmp/ccQgeTV1.s:4532   .text.callback_rp_user_radio_access_0:00000058 $d
     /tmp/ccQgeTV1.s:4535   .text.callback_rp_user_radio_access_1:00000000 $t
     /tmp/ccQgeTV1.s:4588   .text.callback_rp_user_radio_access_1:00000058 $d
     /tmp/ccQgeTV1.s:4591   .text.callback_rp_user_radio_access_2:00000000 $t
     /tmp/ccQgeTV1.s:4644   .text.callback_rp_user_radio_access_2:00000058 $d
     /tmp/ccQgeTV1.s:4738   .bss.user_end_task_callback_2:00000000 $d
     /tmp/ccQgeTV1.s:4744   .bss.user_end_task_callback_1:00000000 $d
     /tmp/ccQgeTV1.s:4750   .bss.user_end_task_callback_0:00000000 $d
     /tmp/ccQgeTV1.s:4756   .bss.user_radio_irq_timestamp:00000000 $d
     /tmp/ccQgeTV1.s:4765   .bss.user_radio_irq_status:00000000 $d
     /tmp/ccQgeTV1.s:4770   .bss.lbt_config_available:00000000 $d
     /tmp/ccQgeTV1.s:4773   .bss.smtc_modem_services_ctx:00000000 $d
     /tmp/ccQgeTV1.s:4779   .bss.modem_radio_planner:00000000 $d
     /tmp/ccQgeTV1.s:4785   .bss.modem_buffer:00000000 $d
     /tmp/ccQgeTV1.s:4336   .text.smtc_modem_get_event:00000095 $d
     /tmp/ccQgeTV1.s:4336   .text.smtc_modem_get_event:00000096 $t

UNDEFINED SYMBOLS
get_modem_muted
dm_get_number_of_days_mute
smtc_modem_hal_print_trace
get_modem_suspend
get_join_state
lorawan_api_get_activation_mode
rp_get_status
increment_asynchronous_msgnumber
get_modem_dm_port
lorawan_api_modem_certification_is_enabled
lorawan_api_duty_cycle_enable_set
memcpy
smtc_modem_hal_get_time_in_s
modem_supervisor_add_task
modem_context_set_modem_radio_ctx
rp_init
smtc_modem_hal_irq_config_radio_irq
rp_hook_init
modem_supervisor_init
smtc_secure_element_init
rp_radio_irq_callback
lorawan_api_get_fifo_obj
ARM GAS  /tmp/ccQgeTV1.s 			page 92


fifo_ctrl_get_nb_elt
set_modem_event_count_and_status
modem_supervisor_engine
modem_get_test_mode_status
lorawan_api_get_spec_version
lorawan_api_get_regional_parameters_version
set_modem_reset_requested
lorawan_api_factory_reset
modem_context_factory_reset
get_modem_charge_ma_h
reset_modem_charge
modem_context_get_tx_power_offset_db
modem_context_set_tx_power_offset_db
clock_sync_is_enabled
clock_sync_set_enabled
modem_supervisor_is_clock_sync_running
modem_supervisor_add_task_clock_sync_time_req
clock_sync_set_sync_lost
modem_supervisor_remove_task_clock_sync
clock_sync_is_time_valid
clock_sync_get_gps_time_second
clock_sync_set_alcsync_port
clock_sync_get_alcsync_port
clock_sync_set_interval_second
clock_sync_get_interval_second
clock_sync_set_invalid_time_delay_s
clock_sync_get_invalid_time_delay_s
get_modem_status
modem_set_user_alarm
modem_get_user_alarm
lorawan_api_get_joineui
lorawan_api_set_joineui
lorawan_api_get_deveui
lorawan_api_set_deveui
modem_context_set_appkey
get_modem_class
lorawan_api_class_b_enabled
lorawan_api_class_c_enabled
set_modem_class
lorawan_api_multicast_set_group_address
lorawan_api_multicast_set_group_session_keys
lorawan_api_multicast_get_group_address
lorawan_api_multicast_c_start_session
lorawan_api_multicast_c_get_session_status
lorawan_api_multicast_c_stop_session
lorawan_api_multicast_c_stop_all_sessions
lorawan_api_multicast_b_start_session
lorawan_api_multicast_b_get_session_status
lorawan_api_multicast_b_stop_session
lorawan_api_multicast_b_stop_all_sessions
get_modem_region
set_modem_region
get_modem_adr_profile
set_modem_adr_profile
lorawan_api_reset_no_rx_packet_in_mobile_mode_cnt
lorawan_api_mask_tx_dr_channel_up_dwell_time_check
set_modem_dm_port
ARM GAS  /tmp/ccQgeTV1.s 			page 93


get_modem_dm_interval
set_modem_dm_interval
get_modem_dm_interval_second
modem_supervisor_add_task_dm_status
get_dm_info_tag_list
set_dm_info
modem_supervisor_add_task_dm_status_now
set_modem_appstatus
get_modem_appstatus
modem_supervisor_add_task_join
modem_leave
set_modem_suspend
lorawan_api_next_max_payload_length_get
modem_get_upload_state
modem_context_compute_and_get_next_dm_upload_sctr
file_upload_init
file_upload_attach_file_buffer
modem_set_upload_state
file_upload_prepare_upload
smtc_modem_hal_get_random_nb_in_range
modem_supervisor_add_task_file_upload
set_modem_status_file_upload
stream_reset
stream_init
stream_enable_encryption
modem_supervisor_remove_task
modem_set_stream_port
stream_set_rr
modem_set_stream_encryption
modem_set_stream_state
modem_get_stream_state
stream_add_data
modem_supervisor_add_task_stream
stream_status
lorawan_api_modem_certification_set
smtc_secure_element_store_context
smtc_modem_test_duty_cycle_app_activate
modem_set_adr_mobile_timeout_config
lorawan_api_set_no_rx_packet_threshold
modem_get_adr_mobile_timeout_config
lorawan_api_get_no_rx_packet_threshold
lorawan_api_get_current_no_rx_packet_in_mobile_mode_cnt
lorawan_api_get_current_adr_ack_cnt
lorawan_api_get_current_no_rx_packet_cnt
lorawan_api_next_free_duty_cycle_ms_get
rp_task_abort
memset
rp_task_enqueue
modem_context_suspend_user_radio_access
modem_context_resume_user_radio_access
lorawan_api_state_get
modem_context_set_network_type
modem_context_get_network_type
lorawan_api_lbt_set_parameters
lorawan_api_lbt_get_parameters
lorawan_api_lbt_set_state
lorawan_api_lbt_get_state
ARM GAS  /tmp/ccQgeTV1.s 			page 94


lorawan_api_nb_trans_set
lorawan_api_nb_trans_get
lorawan_api_set_crystal_error
lorawan_api_get_crystal_error
modem_supervisor_add_task_link_check_req
modem_supervisor_add_task_ping_slot_info_req
lorawan_api_set_ping_slot_periodicity
lorawan_api_get_ping_slot_periodicity
lorawan_api_rx_fpending_bit_get
lorawan_api_set_adr_ack_limit_delay
lorawan_api_get_adr_ack_limit_delay
get_asynchronous_msgnumber
smtc_modem_hal_store_crashlog
smtc_modem_hal_set_crashlog_status
smtc_modem_hal_reset_mcu
get_last_msg_event
get_modem_event_count
__gnu_thumb1_case_uqi
lorawan_api_nb_reset_get
decrement_asynchronous_msgnumber
fifo_ctrl_get
get_modem_event_status
lorawan_api_get_link_check_ans
rp_get_and_clear_raw_radio_irq
