ARM GAS  /tmp/cc3hQV0n.s 			page 1


   1              		.cpu cortex-m0
   2              		.arch armv6s-m
   3              		.fpu softvfp
   4              		.eabi_attribute 23, 1
   5              		.eabi_attribute 24, 1
   6              		.eabi_attribute 25, 1
   7              		.eabi_attribute 26, 1
   8              		.eabi_attribute 30, 4
   9              		.eabi_attribute 34, 0
  10              		.eabi_attribute 18, 4
  11              		.file	"smtc_modem.c"
  12              		.text
  13              		.section	.text.empty_callback,"ax",%progbits
  14              		.align	1
  15              		.global	empty_callback
  16              		.syntax unified
  17              		.code	16
  18              		.thumb_func
  20              	empty_callback:
  21              		@ args = 0, pretend = 0, frame = 0
  22              		@ frame_needed = 0, uses_anonymous_args = 0
  23              		@ link register save eliminated.
  24              		@ sp needed
  25 0000 7047     		bx	lr
  27              		.section	.rodata.is_modem_connected.str1.1,"aMS",%progbits,1
  28              	.LC1:
  29 0000 1B5B303B 		.ascii	"\033[0;31mERROR: %s Modem is muted for %d day(s)\012"
  29      33316D45 
  29      52524F52 
  29      3A202573 
  29      204D6F64 
  30 002e 0D0D00   		.ascii	"\015\015\000"
  31              	.LC3:
  32 0031 1B5B306D 		.ascii	"\033[0m\000"
  32      00
  33              	.LC5:
  34 0036 1B5B303B 		.ascii	"\033[0;31mERROR: %s Modem is suspend\012\015\015\000"
  34      33316D45 
  34      52524F52 
  34      3A202573 
  34      204D6F64 
  35              	.LC7:
  36 005b 1B5B303B 		.ascii	"\033[0;31mERROR: %s Stack not joined or OTA device "
  36      33316D45 
  36      52524F52 
  36      3A202573 
  36      20537461 
  37 008b 2564200A 		.ascii	"%d \012\015\015\000"
  37      0D0D00
  38              		.section	.text.is_modem_connected,"ax",%progbits
  39              		.align	1
  40              		.syntax unified
  41              		.code	16
  42              		.thumb_func
  44              	is_modem_connected:
  45              		@ args = 0, pretend = 0, frame = 0
  46              		@ frame_needed = 0, uses_anonymous_args = 0
ARM GAS  /tmp/cc3hQV0n.s 			page 2


  47 0000 10B5     		push	{r4, lr}
  48 0002 FFF7FEFF 		bl	get_modem_muted
  49 0006 0028     		cmp	r0, #0
  50 0008 08D0     		beq	.L3
  51 000a FFF7FEFF 		bl	dm_get_number_of_days_mute
  52 000e 0200     		movs	r2, r0
  53 0010 1149     		ldr	r1, .L11
  54 0012 124B     		ldr	r3, .L11+4
  55              	.L10:
  56 0014 1800     		movs	r0, r3
  57 0016 FFF7FEFF 		bl	smtc_modem_hal_print_trace
  58 001a 07E0     		b	.L9
  59              	.L3:
  60 001c FFF7FEFF 		bl	get_modem_suspend
  61 0020 0128     		cmp	r0, #1
  62 0022 08D1     		bne	.L5
  63 0024 0C49     		ldr	r1, .L11
  64 0026 0E48     		ldr	r0, .L11+8
  65 0028 FFF7FEFF 		bl	smtc_modem_hal_print_trace
  66              	.L9:
  67 002c 0D48     		ldr	r0, .L11+12
  68 002e FFF7FEFF 		bl	smtc_modem_hal_print_trace
  69 0032 0020     		movs	r0, #0
  70              	.L6:
  71              		@ sp needed
  72 0034 10BD     		pop	{r4, pc}
  73              	.L5:
  74 0036 FFF7FEFF 		bl	get_join_state
  75 003a 0228     		cmp	r0, #2
  76 003c 01D1     		bne	.L7
  77              	.L8:
  78 003e 0120     		movs	r0, #1
  79 0040 F8E7     		b	.L6
  80              	.L7:
  81 0042 FFF7FEFF 		bl	lorawan_api_get_activation_mode
  82 0046 0028     		cmp	r0, #0
  83 0048 F9D1     		bne	.L8
  84 004a FFF7FEFF 		bl	get_join_state
  85 004e 0249     		ldr	r1, .L11
  86 0050 0200     		movs	r2, r0
  87 0052 054B     		ldr	r3, .L11+16
  88 0054 DEE7     		b	.L10
  89              	.L12:
  90 0056 C046     		.align	2
  91              	.L11:
  92 0058 00000000 		.word	__func__.13
  93 005c 00000000 		.word	.LC1
  94 0060 36000000 		.word	.LC5
  95 0064 31000000 		.word	.LC3
  96 0068 5B000000 		.word	.LC7
  98              		.section	.rodata.user_radio_access_callback.str1.1,"aMS",%progbits,1
  99              	.LC11:
 100 0000 1B5B303B 		.ascii	"\033[0;32mINFO: User radio access callback: ignored"
 100      33326D49 
 100      4E464F3A 
 100      20557365 
 100      72207261 
ARM GAS  /tmp/cc3hQV0n.s 			page 3


 101 0030 2041424F 		.ascii	" ABORTED status \012\015\015\000"
 101      52544544 
 101      20737461 
 101      74757320 
 101      0A0D0D00 
 102              		.section	.text.user_radio_access_callback,"ax",%progbits
 103              		.align	1
 104              		.global	user_radio_access_callback
 105              		.syntax unified
 106              		.code	16
 107              		.thumb_func
 109              	user_radio_access_callback:
 110              		@ args = 0, pretend = 0, frame = 0
 111              		@ frame_needed = 0, uses_anonymous_args = 0
 112 0000 10B5     		push	{r4, lr}
 113 0002 0B4B     		ldr	r3, .L16
 114 0004 0B4C     		ldr	r4, .L16+4
 115 0006 C15C     		ldrb	r1, [r0, r3]
 116 0008 0B4A     		ldr	r2, .L16+8
 117 000a 2300     		movs	r3, r4
 118 000c FFF7FEFF 		bl	rp_get_status
 119 0010 2378     		ldrb	r3, [r4]
 120 0012 0A2B     		cmp	r3, #10
 121 0014 06D1     		bne	.L14
 122 0016 0948     		ldr	r0, .L16+12
 123 0018 FFF7FEFF 		bl	smtc_modem_hal_print_trace
 124 001c 0848     		ldr	r0, .L16+16
 125 001e FFF7FEFF 		bl	smtc_modem_hal_print_trace
 126              	.L13:
 127              		@ sp needed
 128 0022 10BD     		pop	{r4, pc}
 129              	.L14:
 130 0024 0021     		movs	r1, #0
 131 0026 1220     		movs	r0, #18
 132 0028 FFF7FEFF 		bl	increment_asynchronous_msgnumber
 133 002c F9E7     		b	.L13
 134              	.L17:
 135 002e C046     		.align	2
 136              	.L16:
 137 0030 84090000 		.word	2436
 138 0034 00000000 		.word	user_radio_irq_status
 139 0038 00000000 		.word	user_radio_irq_timestamp
 140 003c 00000000 		.word	.LC11
 141 0040 31000000 		.word	.LC3
 143              		.section	.rodata.smtc_modem_send_tx.constprop.0.str1.1,"aMS",%progbits,1
 144              	.LC15:
 145 0000 1B5B303B 		.ascii	"\033[0;31mERROR: %s port %d is forbidden \012\015\015"
 145      33316D45 
 145      52524F52 
 145      3A202573 
 145      20706F72 
 146 0029 00       		.ascii	"\000"
 147              		.section	.text.smtc_modem_send_tx.constprop.0,"ax",%progbits
 148              		.align	1
 149              		.syntax unified
 150              		.code	16
 151              		.thumb_func
ARM GAS  /tmp/cc3hQV0n.s 			page 4


 153              	smtc_modem_send_tx.constprop.0:
 154              		@ args = 4, pretend = 0, frame = 32
 155              		@ frame_needed = 0, uses_anonymous_args = 0
 156 0000 F0B5     		push	{r4, r5, r6, r7, lr}
 157 0002 89B0     		sub	sp, sp, #36
 158 0004 1E00     		movs	r6, r3
 159 0006 0EAB     		add	r3, sp, #56
 160 0008 0500     		movs	r5, r0
 161 000a 1F78     		ldrb	r7, [r3]
 162 000c 0091     		str	r1, [sp]
 163 000e 0192     		str	r2, [sp, #4]
 164 0010 FFF7FEFF 		bl	is_modem_connected
 165 0014 0028     		cmp	r0, #0
 166 0016 35D0     		beq	.L19
 167 0018 6B1E     		subs	r3, r5, #1
 168 001a DBB2     		uxtb	r3, r3
 169 001c DE2B     		cmp	r3, #222
 170 001e 0ED8     		bhi	.L20
 171              	.L23:
 172 0020 FFF7FEFF 		bl	get_modem_dm_port
 173 0024 8542     		cmp	r5, r0
 174 0026 0FD1     		bne	.L33
 175              	.L21:
 176 0028 2A00     		movs	r2, r5
 177 002a 1949     		ldr	r1, .L34
 178 002c 1948     		ldr	r0, .L34+4
 179 002e FFF7FEFF 		bl	smtc_modem_hal_print_trace
 180 0032 1948     		ldr	r0, .L34+8
 181 0034 FFF7FEFF 		bl	smtc_modem_hal_print_trace
 182 0038 0420     		movs	r0, #4
 183              	.L24:
 184 003a 09B0     		add	sp, sp, #36
 185              		@ sp needed
 186 003c F0BD     		pop	{r4, r5, r6, r7, pc}
 187              	.L20:
 188 003e FFF7FEFF 		bl	lorawan_api_modem_certification_is_enabled
 189 0042 0028     		cmp	r0, #0
 190 0044 ECD1     		bne	.L23
 191 0046 EFE7     		b	.L21
 192              	.L33:
 193 0048 03AC     		add	r4, sp, #12
 194 004a 002F     		cmp	r7, #0
 195 004c 1CD0     		beq	.L25
 196 004e 0020     		movs	r0, #0
 197 0050 2072     		strb	r0, [r4, #8]
 198 0052 FFF7FEFF 		bl	lorawan_api_duty_cycle_enable_set
 199              	.L26:
 200 0056 114F     		ldr	r7, .L34+12
 201 0058 3200     		movs	r2, r6
 202 005a 0199     		ldr	r1, [sp, #4]
 203 005c 3800     		movs	r0, r7
 204 005e FFF7FEFF 		bl	memcpy
 205 0062 0023     		movs	r3, #0
 206 0064 2370     		strb	r3, [r4]
 207 0066 0133     		adds	r3, r3, #1
 208 0068 A372     		strb	r3, [r4, #10]
 209 006a 009B     		ldr	r3, [sp]
ARM GAS  /tmp/cc3hQV0n.s 			page 5


 210 006c E760     		str	r7, [r4, #12]
 211 006e 6572     		strb	r5, [r4, #9]
 212 0070 6374     		strb	r3, [r4, #17]
 213 0072 2674     		strb	r6, [r4, #16]
 214 0074 FFF7FEFF 		bl	smtc_modem_hal_get_time_in_s
 215 0078 6060     		str	r0, [r4, #4]
 216 007a 2000     		movs	r0, r4
 217 007c FFF7FEFF 		bl	modem_supervisor_add_task
 218 0080 0028     		cmp	r0, #0
 219 0082 DAD0     		beq	.L24
 220              	.L19:
 221 0084 0620     		movs	r0, #6
 222 0086 D8E7     		b	.L24
 223              	.L25:
 224 0088 0123     		movs	r3, #1
 225 008a 2372     		strb	r3, [r4, #8]
 226 008c E3E7     		b	.L26
 227              	.L35:
 228 008e C046     		.align	2
 229              	.L34:
 230 0090 00000000 		.word	__func__.2
 231 0094 00000000 		.word	.LC15
 232 0098 31000000 		.word	.LC3
 233 009c 00000000 		.word	modem_buffer
 235              		.section	.rodata.smtc_modem_init.str1.1,"aMS",%progbits,1
 236              	.LC19:
 237 0000 1B5B303B 		.ascii	"\033[0;32mINFO: Modem Initialization\012\015\015\000"
 237      33326D49 
 237      4E464F3A 
 237      204D6F64 
 237      656D2049 
 238              		.section	.text.smtc_modem_init,"ax",%progbits
 239              		.align	1
 240              		.global	smtc_modem_init
 241              		.syntax unified
 242              		.code	16
 243              		.thumb_func
 245              	smtc_modem_init:
 246              		@ args = 0, pretend = 0, frame = 0
 247              		@ frame_needed = 0, uses_anonymous_args = 0
 248 0000 70B5     		push	{r4, r5, r6, lr}
 249 0002 0500     		movs	r5, r0
 250              		@ sp needed
 251 0004 0E00     		movs	r6, r1
 252 0006 2148     		ldr	r0, .L37
 253 0008 FFF7FEFF 		bl	smtc_modem_hal_print_trace
 254 000c 2048     		ldr	r0, .L37+4
 255 000e FFF7FEFF 		bl	smtc_modem_hal_print_trace
 256 0012 AB68     		ldr	r3, [r5, #8]
 257 0014 2868     		ldr	r0, [r5]
 258 0016 9847     		blx	r3
 259 0018 EB68     		ldr	r3, [r5, #12]
 260 001a 2868     		ldr	r0, [r5]
 261 001c 9847     		blx	r3
 262 001e 6B69     		ldr	r3, [r5, #20]
 263 0020 0121     		movs	r1, #1
 264 0022 2868     		ldr	r0, [r5]
ARM GAS  /tmp/cc3hQV0n.s 			page 6


 265 0024 9847     		blx	r3
 266 0026 2868     		ldr	r0, [r5]
 267 0028 FFF7FEFF 		bl	modem_context_set_modem_radio_ctx
 268 002c 194C     		ldr	r4, .L37+8
 269 002e 2900     		movs	r1, r5
 270 0030 2000     		movs	r0, r4
 271 0032 FFF7FEFF 		bl	rp_init
 272 0036 2100     		movs	r1, r4
 273 0038 1748     		ldr	r0, .L37+12
 274 003a FFF7FEFF 		bl	smtc_modem_hal_irq_config_radio_irq
 275 003e 2300     		movs	r3, r4
 276 0040 0221     		movs	r1, #2
 277 0042 2000     		movs	r0, r4
 278 0044 154A     		ldr	r2, .L37+16
 279 0046 FFF7FEFF 		bl	rp_hook_init
 280 004a 2300     		movs	r3, r4
 281 004c 0021     		movs	r1, #0
 282 004e 2000     		movs	r0, r4
 283 0050 134A     		ldr	r2, .L37+20
 284 0052 FFF7FEFF 		bl	rp_hook_init
 285 0056 2300     		movs	r3, r4
 286 0058 0121     		movs	r1, #1
 287 005a 2000     		movs	r0, r4
 288 005c 114A     		ldr	r2, .L37+24
 289 005e FFF7FEFF 		bl	rp_hook_init
 290 0062 2300     		movs	r3, r4
 291 0064 0821     		movs	r1, #8
 292 0066 2000     		movs	r0, r4
 293 0068 0F4A     		ldr	r2, .L37+28
 294 006a FFF7FEFF 		bl	rp_hook_init
 295 006e 2300     		movs	r3, r4
 296 0070 0921     		movs	r1, #9
 297 0072 2000     		movs	r0, r4
 298 0074 0D4A     		ldr	r2, .L37+32
 299 0076 FFF7FEFF 		bl	rp_hook_init
 300 007a 3000     		movs	r0, r6
 301 007c 2100     		movs	r1, r4
 302 007e 0C4A     		ldr	r2, .L37+36
 303 0080 FFF7FEFF 		bl	modem_supervisor_init
 304 0084 FFF7FEFF 		bl	smtc_secure_element_init
 305 0088 70BD     		pop	{r4, r5, r6, pc}
 306              	.L38:
 307 008a C046     		.align	2
 308              	.L37:
 309 008c 00000000 		.word	.LC19
 310 0090 31000000 		.word	.LC3
 311 0094 00000000 		.word	modem_radio_planner
 312 0098 00000000 		.word	rp_radio_irq_callback
 313 009c 00000000 		.word	empty_callback
 314 00a0 00000000 		.word	user_radio_access_callback
 315 00a4 00000000 		.word	callback_rp_user_radio_access_0
 316 00a8 00000000 		.word	callback_rp_user_radio_access_1
 317 00ac 00000000 		.word	callback_rp_user_radio_access_2
 318 00b0 00000000 		.word	smtc_modem_services_ctx
 320              		.section	.text.smtc_modem_run_engine,"ax",%progbits
 321              		.align	1
 322              		.global	smtc_modem_run_engine
ARM GAS  /tmp/cc3hQV0n.s 			page 7


 323              		.syntax unified
 324              		.code	16
 325              		.thumb_func
 327              	smtc_modem_run_engine:
 328              		@ args = 0, pretend = 0, frame = 0
 329              		@ frame_needed = 0, uses_anonymous_args = 0
 330 0000 10B5     		push	{r4, lr}
 331 0002 FFF7FEFF 		bl	lorawan_api_get_fifo_obj
 332 0006 FFF7FEFF 		bl	fifo_ctrl_get_nb_elt
 333 000a C4B2     		uxtb	r4, r0
 334 000c 002C     		cmp	r4, #0
 335 000e 08D0     		beq	.L40
 336 0010 0021     		movs	r1, #0
 337 0012 0420     		movs	r0, #4
 338 0014 FFF7FEFF 		bl	increment_asynchronous_msgnumber
 339 0018 0022     		movs	r2, #0
 340 001a 2100     		movs	r1, r4
 341 001c 0420     		movs	r0, #4
 342 001e FFF7FEFF 		bl	set_modem_event_count_and_status
 343              	.L40:
 344              		@ sp needed
 345 0022 FFF7FEFF 		bl	modem_supervisor_engine
 346 0026 10BD     		pop	{r4, pc}
 348              		.section	.text.smtc_modem_get_modem_version,"ax",%progbits
 349              		.align	1
 350              		.global	smtc_modem_get_modem_version
 351              		.syntax unified
 352              		.code	16
 353              		.thumb_func
 355              	smtc_modem_get_modem_version:
 356              		@ args = 0, pretend = 0, frame = 0
 357              		@ frame_needed = 0, uses_anonymous_args = 0
 358 0000 10B5     		push	{r4, lr}
 359 0002 0400     		movs	r4, r0
 360 0004 FFF7FEFF 		bl	modem_get_test_mode_status
 361 0008 0300     		movs	r3, r0
 362 000a 0520     		movs	r0, #5
 363 000c 002B     		cmp	r3, #0
 364 000e 08D1     		bne	.L45
 365 0010 0138     		subs	r0, r0, #1
 366 0012 002C     		cmp	r4, #0
 367 0014 05D0     		beq	.L45
 368 0016 0322     		movs	r2, #3
 369 0018 A070     		strb	r0, [r4, #2]
 370 001a 1800     		movs	r0, r3
 371 001c 2270     		strb	r2, [r4]
 372 001e 013A     		subs	r2, r2, #1
 373 0020 6270     		strb	r2, [r4, #1]
 374              	.L45:
 375              		@ sp needed
 376 0022 10BD     		pop	{r4, pc}
 378              		.section	.text.smtc_modem_get_lorawan_version,"ax",%progbits
 379              		.align	1
 380              		.global	smtc_modem_get_lorawan_version
 381              		.syntax unified
 382              		.code	16
 383              		.thumb_func
ARM GAS  /tmp/cc3hQV0n.s 			page 8


 385              	smtc_modem_get_lorawan_version:
 386              		@ args = 0, pretend = 0, frame = 8
 387              		@ frame_needed = 0, uses_anonymous_args = 0
 388 0000 37B5     		push	{r0, r1, r2, r4, r5, lr}
 389 0002 0400     		movs	r4, r0
 390 0004 FFF7FEFF 		bl	modem_get_test_mode_status
 391 0008 0500     		movs	r5, r0
 392 000a 0520     		movs	r0, #5
 393 000c 002D     		cmp	r5, #0
 394 000e 0CD1     		bne	.L49
 395 0010 0138     		subs	r0, r0, #1
 396 0012 002C     		cmp	r4, #0
 397 0014 09D0     		beq	.L49
 398 0016 FFF7FEFF 		bl	lorawan_api_get_spec_version
 399 001a 020A     		lsrs	r2, r0, #8
 400 001c 030C     		lsrs	r3, r0, #16
 401 001e 2070     		strb	r0, [r4]
 402 0020 000E     		lsrs	r0, r0, #24
 403 0022 E070     		strb	r0, [r4, #3]
 404 0024 2800     		movs	r0, r5
 405 0026 6270     		strb	r2, [r4, #1]
 406 0028 A370     		strb	r3, [r4, #2]
 407              	.L49:
 408              		@ sp needed
 409 002a 3EBD     		pop	{r1, r2, r3, r4, r5, pc}
 411              		.section	.text.smtc_modem_get_regional_params_version,"ax",%progbits
 412              		.align	1
 413              		.global	smtc_modem_get_regional_params_version
 414              		.syntax unified
 415              		.code	16
 416              		.thumb_func
 418              	smtc_modem_get_regional_params_version:
 419              		@ args = 0, pretend = 0, frame = 8
 420              		@ frame_needed = 0, uses_anonymous_args = 0
 421 0000 37B5     		push	{r0, r1, r2, r4, r5, lr}
 422 0002 0400     		movs	r4, r0
 423 0004 FFF7FEFF 		bl	modem_get_test_mode_status
 424 0008 0500     		movs	r5, r0
 425 000a 0520     		movs	r0, #5
 426 000c 002D     		cmp	r5, #0
 427 000e 0CD1     		bne	.L53
 428 0010 0138     		subs	r0, r0, #1
 429 0012 002C     		cmp	r4, #0
 430 0014 09D0     		beq	.L53
 431 0016 FFF7FEFF 		bl	lorawan_api_get_regional_parameters_version
 432 001a 020A     		lsrs	r2, r0, #8
 433 001c 030C     		lsrs	r3, r0, #16
 434 001e 2070     		strb	r0, [r4]
 435 0020 000E     		lsrs	r0, r0, #24
 436 0022 E070     		strb	r0, [r4, #3]
 437 0024 2800     		movs	r0, r5
 438 0026 6270     		strb	r2, [r4, #1]
 439 0028 A370     		strb	r3, [r4, #2]
 440              	.L53:
 441              		@ sp needed
 442 002a 3EBD     		pop	{r1, r2, r3, r4, r5, pc}
 444              		.section	.text.smtc_modem_reset,"ax",%progbits
ARM GAS  /tmp/cc3hQV0n.s 			page 9


 445              		.align	1
 446              		.global	smtc_modem_reset
 447              		.syntax unified
 448              		.code	16
 449              		.thumb_func
 451              	smtc_modem_reset:
 452              		@ args = 0, pretend = 0, frame = 0
 453              		@ frame_needed = 0, uses_anonymous_args = 0
 454 0000 10B5     		push	{r4, lr}
 455 0002 FFF7FEFF 		bl	modem_get_test_mode_status
 456 0006 0400     		movs	r4, r0
 457 0008 0520     		movs	r0, #5
 458 000a 002C     		cmp	r4, #0
 459 000c 03D1     		bne	.L57
 460 000e 0438     		subs	r0, r0, #4
 461 0010 FFF7FEFF 		bl	set_modem_reset_requested
 462 0014 2000     		movs	r0, r4
 463              	.L57:
 464              		@ sp needed
 465 0016 10BD     		pop	{r4, pc}
 467              		.section	.text.smtc_modem_factory_reset,"ax",%progbits
 468              		.align	1
 469              		.global	smtc_modem_factory_reset
 470              		.syntax unified
 471              		.code	16
 472              		.thumb_func
 474              	smtc_modem_factory_reset:
 475              		@ args = 0, pretend = 0, frame = 0
 476              		@ frame_needed = 0, uses_anonymous_args = 0
 477 0000 10B5     		push	{r4, lr}
 478 0002 FFF7FEFF 		bl	modem_get_test_mode_status
 479 0006 0400     		movs	r4, r0
 480 0008 0520     		movs	r0, #5
 481 000a 002C     		cmp	r4, #0
 482 000c 07D1     		bne	.L60
 483 000e FFF7FEFF 		bl	lorawan_api_factory_reset
 484 0012 FFF7FEFF 		bl	modem_context_factory_reset
 485 0016 0120     		movs	r0, #1
 486 0018 FFF7FEFF 		bl	set_modem_reset_requested
 487 001c 2000     		movs	r0, r4
 488              	.L60:
 489              		@ sp needed
 490 001e 10BD     		pop	{r4, pc}
 492              		.section	.text.smtc_modem_get_charge,"ax",%progbits
 493              		.align	1
 494              		.global	smtc_modem_get_charge
 495              		.syntax unified
 496              		.code	16
 497              		.thumb_func
 499              	smtc_modem_get_charge:
 500              		@ args = 0, pretend = 0, frame = 0
 501              		@ frame_needed = 0, uses_anonymous_args = 0
 502 0000 70B5     		push	{r4, r5, r6, lr}
 503 0002 0500     		movs	r5, r0
 504 0004 FFF7FEFF 		bl	modem_get_test_mode_status
 505 0008 0400     		movs	r4, r0
 506 000a 0520     		movs	r0, #5
ARM GAS  /tmp/cc3hQV0n.s 			page 10


 507 000c 002C     		cmp	r4, #0
 508 000e 06D1     		bne	.L63
 509 0010 0138     		subs	r0, r0, #1
 510 0012 002D     		cmp	r5, #0
 511 0014 03D0     		beq	.L63
 512 0016 FFF7FEFF 		bl	get_modem_charge_ma_h
 513 001a 2860     		str	r0, [r5]
 514 001c 2000     		movs	r0, r4
 515              	.L63:
 516              		@ sp needed
 517 001e 70BD     		pop	{r4, r5, r6, pc}
 519              		.section	.text.smtc_modem_reset_charge,"ax",%progbits
 520              		.align	1
 521              		.global	smtc_modem_reset_charge
 522              		.syntax unified
 523              		.code	16
 524              		.thumb_func
 526              	smtc_modem_reset_charge:
 527              		@ args = 0, pretend = 0, frame = 0
 528              		@ frame_needed = 0, uses_anonymous_args = 0
 529 0000 10B5     		push	{r4, lr}
 530 0002 FFF7FEFF 		bl	modem_get_test_mode_status
 531 0006 0400     		movs	r4, r0
 532 0008 0520     		movs	r0, #5
 533 000a 002C     		cmp	r4, #0
 534 000c 02D1     		bne	.L67
 535 000e FFF7FEFF 		bl	reset_modem_charge
 536 0012 2000     		movs	r0, r4
 537              	.L67:
 538              		@ sp needed
 539 0014 10BD     		pop	{r4, pc}
 541              		.section	.text.smtc_modem_get_tx_power_offset_db,"ax",%progbits
 542              		.align	1
 543              		.global	smtc_modem_get_tx_power_offset_db
 544              		.syntax unified
 545              		.code	16
 546              		.thumb_func
 548              	smtc_modem_get_tx_power_offset_db:
 549              		@ args = 0, pretend = 0, frame = 0
 550              		@ frame_needed = 0, uses_anonymous_args = 0
 551 0000 70B5     		push	{r4, r5, r6, lr}
 552 0002 0D00     		movs	r5, r1
 553 0004 FFF7FEFF 		bl	modem_get_test_mode_status
 554 0008 0400     		movs	r4, r0
 555 000a 0520     		movs	r0, #5
 556 000c 002C     		cmp	r4, #0
 557 000e 06D1     		bne	.L70
 558 0010 0138     		subs	r0, r0, #1
 559 0012 002D     		cmp	r5, #0
 560 0014 03D0     		beq	.L70
 561 0016 FFF7FEFF 		bl	modem_context_get_tx_power_offset_db
 562 001a 2870     		strb	r0, [r5]
 563 001c 2000     		movs	r0, r4
 564              	.L70:
 565              		@ sp needed
 566 001e 70BD     		pop	{r4, r5, r6, pc}
 568              		.section	.text.smtc_modem_set_tx_power_offset_db,"ax",%progbits
ARM GAS  /tmp/cc3hQV0n.s 			page 11


 569              		.align	1
 570              		.global	smtc_modem_set_tx_power_offset_db
 571              		.syntax unified
 572              		.code	16
 573              		.thumb_func
 575              	smtc_modem_set_tx_power_offset_db:
 576              		@ args = 0, pretend = 0, frame = 0
 577              		@ frame_needed = 0, uses_anonymous_args = 0
 578 0000 70B5     		push	{r4, r5, r6, lr}
 579 0002 0D00     		movs	r5, r1
 580 0004 FFF7FEFF 		bl	modem_get_test_mode_status
 581 0008 0400     		movs	r4, r0
 582 000a 0520     		movs	r0, #5
 583 000c 002C     		cmp	r4, #0
 584 000e 09D1     		bne	.L74
 585 0010 2B00     		movs	r3, r5
 586 0012 1E33     		adds	r3, r3, #30
 587 0014 DBB2     		uxtb	r3, r3
 588 0016 0138     		subs	r0, r0, #1
 589 0018 3C2B     		cmp	r3, #60
 590 001a 03D8     		bhi	.L74
 591 001c 2800     		movs	r0, r5
 592 001e FFF7FEFF 		bl	modem_context_set_tx_power_offset_db
 593 0022 2000     		movs	r0, r4
 594              	.L74:
 595              		@ sp needed
 596 0024 70BD     		pop	{r4, r5, r6, pc}
 598              		.section	.text.smtc_modem_time_start_sync_service,"ax",%progbits
 599              		.align	1
 600              		.global	smtc_modem_time_start_sync_service
 601              		.syntax unified
 602              		.code	16
 603              		.thumb_func
 605              	smtc_modem_time_start_sync_service:
 606              		@ args = 0, pretend = 0, frame = 0
 607              		@ frame_needed = 0, uses_anonymous_args = 0
 608 0000 70B5     		push	{r4, r5, r6, lr}
 609 0002 0C00     		movs	r4, r1
 610 0004 FFF7FEFF 		bl	modem_get_test_mode_status
 611 0008 0523     		movs	r3, #5
 612 000a 0028     		cmp	r0, #0
 613 000c 1DD1     		bne	.L78
 614 000e 013B     		subs	r3, r3, #1
 615 0010 012C     		cmp	r4, #1
 616 0012 1AD8     		bhi	.L78
 617 0014 0E4D     		ldr	r5, .L85
 618 0016 2800     		movs	r0, r5
 619 0018 FFF7FEFF 		bl	clock_sync_is_enabled
 620 001c 0623     		movs	r3, #6
 621 001e 0028     		cmp	r0, #0
 622 0020 13D1     		bne	.L78
 623 0022 2200     		movs	r2, r4
 624 0024 0121     		movs	r1, #1
 625 0026 2800     		movs	r0, r5
 626 0028 FFF7FEFF 		bl	clock_sync_set_enabled
 627 002c FFF7FEFF 		bl	get_join_state
 628 0030 0228     		cmp	r0, #2
ARM GAS  /tmp/cc3hQV0n.s 			page 12


 629 0032 09D1     		bne	.L80
 630 0034 FFF7FEFF 		bl	modem_supervisor_is_clock_sync_running
 631 0038 0028     		cmp	r0, #0
 632 003a 05D1     		bne	.L80
 633 003c 0130     		adds	r0, r0, #1
 634 003e FFF7FEFF 		bl	modem_supervisor_add_task_clock_sync_time_req
 635 0042 2800     		movs	r0, r5
 636 0044 FFF7FEFF 		bl	clock_sync_set_sync_lost
 637              	.L80:
 638 0048 0023     		movs	r3, #0
 639              	.L78:
 640              		@ sp needed
 641 004a 1800     		movs	r0, r3
 642 004c 70BD     		pop	{r4, r5, r6, pc}
 643              	.L86:
 644 004e C046     		.align	2
 645              	.L85:
 646 0050 2C000000 		.word	smtc_modem_services_ctx+44
 648              		.section	.text.smtc_modem_time_stop_sync_service,"ax",%progbits
 649              		.align	1
 650              		.global	smtc_modem_time_stop_sync_service
 651              		.syntax unified
 652              		.code	16
 653              		.thumb_func
 655              	smtc_modem_time_stop_sync_service:
 656              		@ args = 0, pretend = 0, frame = 0
 657              		@ frame_needed = 0, uses_anonymous_args = 0
 658 0000 70B5     		push	{r4, r5, r6, lr}
 659 0002 FFF7FEFF 		bl	modem_get_test_mode_status
 660 0006 0523     		movs	r3, #5
 661 0008 041E     		subs	r4, r0, #0
 662 000a 12D1     		bne	.L88
 663 000c 0A4D     		ldr	r5, .L92
 664 000e 2800     		movs	r0, r5
 665 0010 FFF7FEFF 		bl	clock_sync_is_enabled
 666 0014 0623     		movs	r3, #6
 667 0016 0028     		cmp	r0, #0
 668 0018 0BD0     		beq	.L88
 669 001a 084B     		ldr	r3, .L92+4
 670 001c 2100     		movs	r1, r4
 671 001e 1A78     		ldrb	r2, [r3]
 672 0020 2800     		movs	r0, r5
 673 0022 FFF7FEFF 		bl	clock_sync_set_enabled
 674 0026 FFF7FEFF 		bl	modem_supervisor_remove_task_clock_sync
 675 002a 2800     		movs	r0, r5
 676 002c FFF7FEFF 		bl	clock_sync_set_sync_lost
 677 0030 2300     		movs	r3, r4
 678              	.L88:
 679              		@ sp needed
 680 0032 1800     		movs	r0, r3
 681 0034 70BD     		pop	{r4, r5, r6, pc}
 682              	.L93:
 683 0036 C046     		.align	2
 684              	.L92:
 685 0038 2C000000 		.word	smtc_modem_services_ctx+44
 686 003c 3C000000 		.word	smtc_modem_services_ctx+60
 688              		.section	.text.smtc_modem_get_time,"ax",%progbits
ARM GAS  /tmp/cc3hQV0n.s 			page 13


 689              		.align	1
 690              		.global	smtc_modem_get_time
 691              		.syntax unified
 692              		.code	16
 693              		.thumb_func
 695              	smtc_modem_get_time:
 696              		@ args = 0, pretend = 0, frame = 0
 697              		@ frame_needed = 0, uses_anonymous_args = 0
 698 0000 F8B5     		push	{r3, r4, r5, r6, r7, lr}
 699 0002 0500     		movs	r5, r0
 700 0004 0C00     		movs	r4, r1
 701 0006 FFF7FEFF 		bl	modem_get_test_mode_status
 702 000a 0600     		movs	r6, r0
 703 000c 0520     		movs	r0, #5
 704 000e 002E     		cmp	r6, #0
 705 0010 10D1     		bne	.L95
 706 0012 0138     		subs	r0, r0, #1
 707 0014 002D     		cmp	r5, #0
 708 0016 0DD0     		beq	.L95
 709 0018 002C     		cmp	r4, #0
 710 001a 0BD0     		beq	.L95
 711 001c 084F     		ldr	r7, .L100
 712 001e 3800     		movs	r0, r7
 713 0020 FFF7FEFF 		bl	clock_sync_is_time_valid
 714 0024 0028     		cmp	r0, #0
 715 0026 06D0     		beq	.L96
 716 0028 2200     		movs	r2, r4
 717 002a 2900     		movs	r1, r5
 718 002c 3800     		movs	r0, r7
 719 002e FFF7FEFF 		bl	clock_sync_get_gps_time_second
 720 0032 3000     		movs	r0, r6
 721              	.L95:
 722              		@ sp needed
 723 0034 F8BD     		pop	{r3, r4, r5, r6, r7, pc}
 724              	.L96:
 725 0036 2860     		str	r0, [r5]
 726 0038 2060     		str	r0, [r4]
 727 003a 1020     		movs	r0, #16
 728 003c FAE7     		b	.L95
 729              	.L101:
 730 003e C046     		.align	2
 731              	.L100:
 732 0040 2C000000 		.word	smtc_modem_services_ctx+44
 734              		.section	.text.smtc_modem_time_set_alcsync_fport,"ax",%progbits
 735              		.align	1
 736              		.global	smtc_modem_time_set_alcsync_fport
 737              		.syntax unified
 738              		.code	16
 739              		.thumb_func
 741              	smtc_modem_time_set_alcsync_fport:
 742              		@ args = 0, pretend = 0, frame = 0
 743              		@ frame_needed = 0, uses_anonymous_args = 0
 744 0000 10B5     		push	{r4, lr}
 745 0002 0400     		movs	r4, r0
 746 0004 FFF7FEFF 		bl	modem_get_test_mode_status
 747 0008 0523     		movs	r3, #5
 748 000a 0028     		cmp	r0, #0
ARM GAS  /tmp/cc3hQV0n.s 			page 14


 749 000c 06D1     		bne	.L103
 750 000e 2100     		movs	r1, r4
 751 0010 0348     		ldr	r0, .L105
 752 0012 FFF7FEFF 		bl	clock_sync_set_alcsync_port
 753 0016 431E     		subs	r3, r0, #1
 754 0018 9841     		sbcs	r0, r0, r3
 755 001a 8300     		lsls	r3, r0, #2
 756              	.L103:
 757 001c 1800     		movs	r0, r3
 758              		@ sp needed
 759 001e 10BD     		pop	{r4, pc}
 760              	.L106:
 761              		.align	2
 762              	.L105:
 763 0020 2C000000 		.word	smtc_modem_services_ctx+44
 765              		.section	.text.smtc_modem_time_trigger_sync_request,"ax",%progbits
 766              		.align	1
 767              		.global	smtc_modem_time_trigger_sync_request
 768              		.syntax unified
 769              		.code	16
 770              		.thumb_func
 772              	smtc_modem_time_trigger_sync_request:
 773              		@ args = 0, pretend = 0, frame = 0
 774              		@ frame_needed = 0, uses_anonymous_args = 0
 775 0000 10B5     		push	{r4, lr}
 776 0002 FFF7FEFF 		bl	modem_get_test_mode_status
 777 0006 0400     		movs	r4, r0
 778 0008 0520     		movs	r0, #5
 779 000a 002C     		cmp	r4, #0
 780 000c 04D1     		bne	.L108
 781 000e FFF7FEFF 		bl	is_modem_connected
 782 0012 0028     		cmp	r0, #0
 783 0014 01D1     		bne	.L109
 784              	.L110:
 785 0016 0620     		movs	r0, #6
 786              	.L108:
 787              		@ sp needed
 788 0018 10BD     		pop	{r4, pc}
 789              	.L109:
 790 001a 0548     		ldr	r0, .L115
 791 001c FFF7FEFF 		bl	clock_sync_is_enabled
 792 0020 0028     		cmp	r0, #0
 793 0022 F8D0     		beq	.L110
 794 0024 0120     		movs	r0, #1
 795 0026 FFF7FEFF 		bl	modem_supervisor_add_task_clock_sync_time_req
 796 002a 2000     		movs	r0, r4
 797 002c F4E7     		b	.L108
 798              	.L116:
 799 002e C046     		.align	2
 800              	.L115:
 801 0030 2C000000 		.word	smtc_modem_services_ctx+44
 803              		.section	.text.smtc_modem_time_get_alcsync_fport,"ax",%progbits
 804              		.align	1
 805              		.global	smtc_modem_time_get_alcsync_fport
 806              		.syntax unified
 807              		.code	16
 808              		.thumb_func
ARM GAS  /tmp/cc3hQV0n.s 			page 15


 810              	smtc_modem_time_get_alcsync_fport:
 811              		@ args = 0, pretend = 0, frame = 0
 812              		@ frame_needed = 0, uses_anonymous_args = 0
 813 0000 70B5     		push	{r4, r5, r6, lr}
 814 0002 0500     		movs	r5, r0
 815 0004 FFF7FEFF 		bl	modem_get_test_mode_status
 816 0008 0400     		movs	r4, r0
 817 000a 0520     		movs	r0, #5
 818 000c 002C     		cmp	r4, #0
 819 000e 07D1     		bne	.L118
 820 0010 0138     		subs	r0, r0, #1
 821 0012 002D     		cmp	r5, #0
 822 0014 04D0     		beq	.L118
 823 0016 0348     		ldr	r0, .L121
 824 0018 FFF7FEFF 		bl	clock_sync_get_alcsync_port
 825 001c 2870     		strb	r0, [r5]
 826 001e 2000     		movs	r0, r4
 827              	.L118:
 828              		@ sp needed
 829 0020 70BD     		pop	{r4, r5, r6, pc}
 830              	.L122:
 831 0022 C046     		.align	2
 832              	.L121:
 833 0024 2C000000 		.word	smtc_modem_services_ctx+44
 835              		.section	.text.smtc_modem_time_set_sync_interval_s,"ax",%progbits
 836              		.align	1
 837              		.global	smtc_modem_time_set_sync_interval_s
 838              		.syntax unified
 839              		.code	16
 840              		.thumb_func
 842              	smtc_modem_time_set_sync_interval_s:
 843              		@ args = 0, pretend = 0, frame = 0
 844              		@ frame_needed = 0, uses_anonymous_args = 0
 845 0000 10B5     		push	{r4, lr}
 846 0002 0400     		movs	r4, r0
 847 0004 FFF7FEFF 		bl	modem_get_test_mode_status
 848 0008 0523     		movs	r3, #5
 849 000a 0028     		cmp	r0, #0
 850 000c 06D1     		bne	.L124
 851 000e 2100     		movs	r1, r4
 852 0010 0348     		ldr	r0, .L126
 853 0012 FFF7FEFF 		bl	clock_sync_set_interval_second
 854 0016 431E     		subs	r3, r0, #1
 855 0018 9841     		sbcs	r0, r0, r3
 856 001a 8300     		lsls	r3, r0, #2
 857              	.L124:
 858 001c 1800     		movs	r0, r3
 859              		@ sp needed
 860 001e 10BD     		pop	{r4, pc}
 861              	.L127:
 862              		.align	2
 863              	.L126:
 864 0020 2C000000 		.word	smtc_modem_services_ctx+44
 866              		.section	.text.smtc_modem_time_get_sync_interval_s,"ax",%progbits
 867              		.align	1
 868              		.global	smtc_modem_time_get_sync_interval_s
 869              		.syntax unified
ARM GAS  /tmp/cc3hQV0n.s 			page 16


 870              		.code	16
 871              		.thumb_func
 873              	smtc_modem_time_get_sync_interval_s:
 874              		@ args = 0, pretend = 0, frame = 0
 875              		@ frame_needed = 0, uses_anonymous_args = 0
 876 0000 70B5     		push	{r4, r5, r6, lr}
 877 0002 0500     		movs	r5, r0
 878 0004 FFF7FEFF 		bl	modem_get_test_mode_status
 879 0008 0400     		movs	r4, r0
 880 000a 0520     		movs	r0, #5
 881 000c 002C     		cmp	r4, #0
 882 000e 07D1     		bne	.L129
 883 0010 0138     		subs	r0, r0, #1
 884 0012 002D     		cmp	r5, #0
 885 0014 04D0     		beq	.L129
 886 0016 0348     		ldr	r0, .L132
 887 0018 FFF7FEFF 		bl	clock_sync_get_interval_second
 888 001c 2860     		str	r0, [r5]
 889 001e 2000     		movs	r0, r4
 890              	.L129:
 891              		@ sp needed
 892 0020 70BD     		pop	{r4, r5, r6, pc}
 893              	.L133:
 894 0022 C046     		.align	2
 895              	.L132:
 896 0024 2C000000 		.word	smtc_modem_services_ctx+44
 898              		.section	.text.smtc_modem_time_set_sync_invalid_delay_s,"ax",%progbits
 899              		.align	1
 900              		.global	smtc_modem_time_set_sync_invalid_delay_s
 901              		.syntax unified
 902              		.code	16
 903              		.thumb_func
 905              	smtc_modem_time_set_sync_invalid_delay_s:
 906              		@ args = 0, pretend = 0, frame = 0
 907              		@ frame_needed = 0, uses_anonymous_args = 0
 908 0000 10B5     		push	{r4, lr}
 909 0002 0400     		movs	r4, r0
 910 0004 FFF7FEFF 		bl	modem_get_test_mode_status
 911 0008 0523     		movs	r3, #5
 912 000a 0028     		cmp	r0, #0
 913 000c 06D1     		bne	.L135
 914 000e 2100     		movs	r1, r4
 915 0010 0348     		ldr	r0, .L137
 916 0012 FFF7FEFF 		bl	clock_sync_set_invalid_time_delay_s
 917 0016 431E     		subs	r3, r0, #1
 918 0018 9841     		sbcs	r0, r0, r3
 919 001a 8300     		lsls	r3, r0, #2
 920              	.L135:
 921 001c 1800     		movs	r0, r3
 922              		@ sp needed
 923 001e 10BD     		pop	{r4, pc}
 924              	.L138:
 925              		.align	2
 926              	.L137:
 927 0020 2C000000 		.word	smtc_modem_services_ctx+44
 929              		.section	.text.smtc_modem_time_get_sync_invalid_delay_s,"ax",%progbits
 930              		.align	1
ARM GAS  /tmp/cc3hQV0n.s 			page 17


 931              		.global	smtc_modem_time_get_sync_invalid_delay_s
 932              		.syntax unified
 933              		.code	16
 934              		.thumb_func
 936              	smtc_modem_time_get_sync_invalid_delay_s:
 937              		@ args = 0, pretend = 0, frame = 0
 938              		@ frame_needed = 0, uses_anonymous_args = 0
 939 0000 70B5     		push	{r4, r5, r6, lr}
 940 0002 0500     		movs	r5, r0
 941 0004 FFF7FEFF 		bl	modem_get_test_mode_status
 942 0008 0400     		movs	r4, r0
 943 000a 0520     		movs	r0, #5
 944 000c 002C     		cmp	r4, #0
 945 000e 07D1     		bne	.L140
 946 0010 0138     		subs	r0, r0, #1
 947 0012 002D     		cmp	r5, #0
 948 0014 04D0     		beq	.L140
 949 0016 0348     		ldr	r0, .L143
 950 0018 FFF7FEFF 		bl	clock_sync_get_invalid_time_delay_s
 951 001c 2860     		str	r0, [r5]
 952 001e 2000     		movs	r0, r4
 953              	.L140:
 954              		@ sp needed
 955 0020 70BD     		pop	{r4, r5, r6, pc}
 956              	.L144:
 957 0022 C046     		.align	2
 958              	.L143:
 959 0024 2C000000 		.word	smtc_modem_services_ctx+44
 961              		.section	.text.smtc_modem_get_status,"ax",%progbits
 962              		.align	1
 963              		.global	smtc_modem_get_status
 964              		.syntax unified
 965              		.code	16
 966              		.thumb_func
 968              	smtc_modem_get_status:
 969              		@ args = 0, pretend = 0, frame = 0
 970              		@ frame_needed = 0, uses_anonymous_args = 0
 971 0000 70B5     		push	{r4, r5, r6, lr}
 972 0002 0D00     		movs	r5, r1
 973 0004 FFF7FEFF 		bl	modem_get_test_mode_status
 974 0008 0400     		movs	r4, r0
 975 000a 0520     		movs	r0, #5
 976 000c 002C     		cmp	r4, #0
 977 000e 06D1     		bne	.L146
 978 0010 0138     		subs	r0, r0, #1
 979 0012 002D     		cmp	r5, #0
 980 0014 03D0     		beq	.L146
 981 0016 FFF7FEFF 		bl	get_modem_status
 982 001a 2860     		str	r0, [r5]
 983 001c 2000     		movs	r0, r4
 984              	.L146:
 985              		@ sp needed
 986 001e 70BD     		pop	{r4, r5, r6, pc}
 988              		.section	.text.smtc_modem_alarm_start_timer,"ax",%progbits
 989              		.align	1
 990              		.global	smtc_modem_alarm_start_timer
 991              		.syntax unified
ARM GAS  /tmp/cc3hQV0n.s 			page 18


 992              		.code	16
 993              		.thumb_func
 995              	smtc_modem_alarm_start_timer:
 996              		@ args = 0, pretend = 0, frame = 0
 997              		@ frame_needed = 0, uses_anonymous_args = 0
 998 0000 10B5     		push	{r4, lr}
 999 0002 0400     		movs	r4, r0
 1000 0004 FFF7FEFF 		bl	modem_get_test_mode_status
 1001 0008 0523     		movs	r3, #5
 1002 000a 0028     		cmp	r0, #0
 1003 000c 08D1     		bne	.L150
 1004 000e 002C     		cmp	r4, #0
 1005 0010 02D0     		beq	.L151
 1006 0012 FFF7FEFF 		bl	smtc_modem_hal_get_time_in_s
 1007 0016 2418     		adds	r4, r4, r0
 1008              	.L151:
 1009 0018 2000     		movs	r0, r4
 1010 001a FFF7FEFF 		bl	modem_set_user_alarm
 1011 001e 0023     		movs	r3, #0
 1012              	.L150:
 1013              		@ sp needed
 1014 0020 1800     		movs	r0, r3
 1015 0022 10BD     		pop	{r4, pc}
 1017              		.section	.rodata.smtc_modem_alarm_clear_timer.str1.1,"aMS",%progbits,1
 1018              	.LC42:
 1019 0000 1B5B303B 		.ascii	"\033[0;33mWARN: Alarm clear timer impossible: no al"
 1019      33336D57 
 1019      41524E3A 
 1019      20416C61 
 1019      726D2063 
 1020 0030 61726D20 		.ascii	"arm timer is currently running\000"
 1020      74696D65 
 1020      72206973 
 1020      20637572 
 1020      72656E74 
 1021              		.section	.text.smtc_modem_alarm_clear_timer,"ax",%progbits
 1022              		.align	1
 1023              		.global	smtc_modem_alarm_clear_timer
 1024              		.syntax unified
 1025              		.code	16
 1026              		.thumb_func
 1028              	smtc_modem_alarm_clear_timer:
 1029              		@ args = 0, pretend = 0, frame = 0
 1030              		@ frame_needed = 0, uses_anonymous_args = 0
 1031 0000 10B5     		push	{r4, lr}
 1032 0002 FFF7FEFF 		bl	modem_get_test_mode_status
 1033 0006 0400     		movs	r4, r0
 1034 0008 0520     		movs	r0, #5
 1035 000a 002C     		cmp	r4, #0
 1036 000c 0AD1     		bne	.L157
 1037 000e FFF7FEFF 		bl	modem_get_user_alarm
 1038 0012 0028     		cmp	r0, #0
 1039 0014 07D1     		bne	.L158
 1040 0016 0648     		ldr	r0, .L160
 1041 0018 FFF7FEFF 		bl	smtc_modem_hal_print_trace
 1042 001c 0548     		ldr	r0, .L160+4
 1043 001e FFF7FEFF 		bl	smtc_modem_hal_print_trace
ARM GAS  /tmp/cc3hQV0n.s 			page 19


 1044 0022 0320     		movs	r0, #3
 1045              	.L157:
 1046              		@ sp needed
 1047 0024 10BD     		pop	{r4, pc}
 1048              	.L158:
 1049 0026 2000     		movs	r0, r4
 1050 0028 FFF7FEFF 		bl	modem_set_user_alarm
 1051 002c 2000     		movs	r0, r4
 1052 002e F9E7     		b	.L157
 1053              	.L161:
 1054              		.align	2
 1055              	.L160:
 1056 0030 00000000 		.word	.LC42
 1057 0034 31000000 		.word	.LC3
 1059              		.section	.rodata.smtc_modem_alarm_get_remaining_time.str1.1,"aMS",%progbits,1
 1060              	.LC45:
 1061 0000 1B5B303B 		.ascii	"\033[0;33mWARN: Alarm get remaining impossible: no "
 1061      33336D57 
 1061      41524E3A 
 1061      20416C61 
 1061      726D2067 
 1062 0030 616C6172 		.ascii	"alarm timer is currently running\000"
 1062      6D207469 
 1062      6D657220 
 1062      69732063 
 1062      75727265 
 1063              		.section	.text.smtc_modem_alarm_get_remaining_time,"ax",%progbits
 1064              		.align	1
 1065              		.global	smtc_modem_alarm_get_remaining_time
 1066              		.syntax unified
 1067              		.code	16
 1068              		.thumb_func
 1070              	smtc_modem_alarm_get_remaining_time:
 1071              		@ args = 0, pretend = 0, frame = 0
 1072              		@ frame_needed = 0, uses_anonymous_args = 0
 1073 0000 70B5     		push	{r4, r5, r6, lr}
 1074 0002 0600     		movs	r6, r0
 1075 0004 FFF7FEFF 		bl	modem_get_test_mode_status
 1076 0008 0500     		movs	r5, r0
 1077 000a 0520     		movs	r0, #5
 1078 000c 002D     		cmp	r5, #0
 1079 000e 0DD1     		bne	.L163
 1080 0010 0138     		subs	r0, r0, #1
 1081 0012 002E     		cmp	r6, #0
 1082 0014 0AD0     		beq	.L163
 1083 0016 FFF7FEFF 		bl	modem_get_user_alarm
 1084 001a 0028     		cmp	r0, #0
 1085 001c 07D1     		bne	.L164
 1086 001e 0A48     		ldr	r0, .L168
 1087 0020 FFF7FEFF 		bl	smtc_modem_hal_print_trace
 1088 0024 0948     		ldr	r0, .L168+4
 1089 0026 FFF7FEFF 		bl	smtc_modem_hal_print_trace
 1090 002a 0320     		movs	r0, #3
 1091              	.L163:
 1092              		@ sp needed
 1093 002c 70BD     		pop	{r4, r5, r6, pc}
 1094              	.L164:
ARM GAS  /tmp/cc3hQV0n.s 			page 20


 1095 002e FFF7FEFF 		bl	modem_get_user_alarm
 1096 0032 0400     		movs	r4, r0
 1097 0034 FFF7FEFF 		bl	smtc_modem_hal_get_time_in_s
 1098 0038 201A     		subs	r0, r4, r0
 1099 003a C243     		mvns	r2, r0
 1100 003c D217     		asrs	r2, r2, #31
 1101 003e 1040     		ands	r0, r2
 1102 0040 3060     		str	r0, [r6]
 1103 0042 2800     		movs	r0, r5
 1104 0044 F2E7     		b	.L163
 1105              	.L169:
 1106 0046 C046     		.align	2
 1107              	.L168:
 1108 0048 00000000 		.word	.LC45
 1109 004c 31000000 		.word	.LC3
 1111              		.section	.text.smtc_modem_get_joineui,"ax",%progbits
 1112              		.align	1
 1113              		.global	smtc_modem_get_joineui
 1114              		.syntax unified
 1115              		.code	16
 1116              		.thumb_func
 1118              	smtc_modem_get_joineui:
 1119              		@ args = 0, pretend = 0, frame = 0
 1120              		@ frame_needed = 0, uses_anonymous_args = 0
 1121 0000 10B5     		push	{r4, lr}
 1122 0002 0C00     		movs	r4, r1
 1123 0004 FFF7FEFF 		bl	modem_get_test_mode_status
 1124 0008 0523     		movs	r3, #5
 1125 000a 0028     		cmp	r0, #0
 1126 000c 09D1     		bne	.L171
 1127 000e 013B     		subs	r3, r3, #1
 1128 0010 002C     		cmp	r4, #0
 1129 0012 06D0     		beq	.L171
 1130 0014 2000     		movs	r0, r4
 1131 0016 FFF7FEFF 		bl	lorawan_api_get_joineui
 1132 001a 0623     		movs	r3, #6
 1133 001c 0028     		cmp	r0, #0
 1134 001e 00D1     		bne	.L171
 1135 0020 0300     		movs	r3, r0
 1136              	.L171:
 1137              		@ sp needed
 1138 0022 1800     		movs	r0, r3
 1139 0024 10BD     		pop	{r4, pc}
 1141              		.section	.rodata.smtc_modem_set_joineui.str1.1,"aMS",%progbits,1
 1142              	.LC49:
 1143 0000 1B5B303B 		.ascii	"\033[0;31mERROR: %s call but the device is already "
 1143      33316D45 
 1143      52524F52 
 1143      3A202573 
 1143      2063616C 
 1144 0030 6A6F696E 		.ascii	"join\012\015\015\000"
 1144      0A0D0D00 
 1145              		.section	.text.smtc_modem_set_joineui,"ax",%progbits
 1146              		.align	1
 1147              		.global	smtc_modem_set_joineui
 1148              		.syntax unified
 1149              		.code	16
ARM GAS  /tmp/cc3hQV0n.s 			page 21


 1150              		.thumb_func
 1152              	smtc_modem_set_joineui:
 1153              		@ args = 0, pretend = 0, frame = 0
 1154              		@ frame_needed = 0, uses_anonymous_args = 0
 1155 0000 70B5     		push	{r4, r5, r6, lr}
 1156 0002 0D00     		movs	r5, r1
 1157 0004 FFF7FEFF 		bl	modem_get_test_mode_status
 1158 0008 0028     		cmp	r0, #0
 1159 000a 0DD1     		bne	.L176
 1160 000c 0424     		movs	r4, #4
 1161 000e 002D     		cmp	r5, #0
 1162 0010 0BD0     		beq	.L177
 1163 0012 FFF7FEFF 		bl	get_join_state
 1164 0016 041E     		subs	r4, r0, #0
 1165 0018 09D0     		beq	.L178
 1166 001a 0848     		ldr	r0, .L181
 1167 001c 0849     		ldr	r1, .L181+4
 1168 001e FFF7FEFF 		bl	smtc_modem_hal_print_trace
 1169 0022 0848     		ldr	r0, .L181+8
 1170 0024 FFF7FEFF 		bl	smtc_modem_hal_print_trace
 1171              	.L176:
 1172 0028 0524     		movs	r4, #5
 1173              	.L177:
 1174              		@ sp needed
 1175 002a 2000     		movs	r0, r4
 1176 002c 70BD     		pop	{r4, r5, r6, pc}
 1177              	.L178:
 1178 002e 2800     		movs	r0, r5
 1179 0030 FFF7FEFF 		bl	lorawan_api_set_joineui
 1180 0034 0028     		cmp	r0, #0
 1181 0036 F8D0     		beq	.L177
 1182 0038 0624     		movs	r4, #6
 1183 003a F6E7     		b	.L177
 1184              	.L182:
 1185              		.align	2
 1186              	.L181:
 1187 003c 00000000 		.word	.LC49
 1188 0040 00000000 		.word	__func__.12
 1189 0044 31000000 		.word	.LC3
 1191              		.section	.text.smtc_modem_get_deveui,"ax",%progbits
 1192              		.align	1
 1193              		.global	smtc_modem_get_deveui
 1194              		.syntax unified
 1195              		.code	16
 1196              		.thumb_func
 1198              	smtc_modem_get_deveui:
 1199              		@ args = 0, pretend = 0, frame = 0
 1200              		@ frame_needed = 0, uses_anonymous_args = 0
 1201 0000 10B5     		push	{r4, lr}
 1202 0002 0C00     		movs	r4, r1
 1203 0004 FFF7FEFF 		bl	modem_get_test_mode_status
 1204 0008 0523     		movs	r3, #5
 1205 000a 0028     		cmp	r0, #0
 1206 000c 09D1     		bne	.L184
 1207 000e 013B     		subs	r3, r3, #1
 1208 0010 002C     		cmp	r4, #0
 1209 0012 06D0     		beq	.L184
ARM GAS  /tmp/cc3hQV0n.s 			page 22


 1210 0014 2000     		movs	r0, r4
 1211 0016 FFF7FEFF 		bl	lorawan_api_get_deveui
 1212 001a 0623     		movs	r3, #6
 1213 001c 0028     		cmp	r0, #0
 1214 001e 00D1     		bne	.L184
 1215 0020 0300     		movs	r3, r0
 1216              	.L184:
 1217              		@ sp needed
 1218 0022 1800     		movs	r0, r3
 1219 0024 10BD     		pop	{r4, pc}
 1221              		.section	.text.smtc_modem_set_deveui,"ax",%progbits
 1222              		.align	1
 1223              		.global	smtc_modem_set_deveui
 1224              		.syntax unified
 1225              		.code	16
 1226              		.thumb_func
 1228              	smtc_modem_set_deveui:
 1229              		@ args = 0, pretend = 0, frame = 0
 1230              		@ frame_needed = 0, uses_anonymous_args = 0
 1231 0000 70B5     		push	{r4, r5, r6, lr}
 1232 0002 0D00     		movs	r5, r1
 1233 0004 FFF7FEFF 		bl	modem_get_test_mode_status
 1234 0008 0028     		cmp	r0, #0
 1235 000a 0DD1     		bne	.L189
 1236 000c 0424     		movs	r4, #4
 1237 000e 002D     		cmp	r5, #0
 1238 0010 0BD0     		beq	.L190
 1239 0012 FFF7FEFF 		bl	get_join_state
 1240 0016 041E     		subs	r4, r0, #0
 1241 0018 09D0     		beq	.L191
 1242 001a 0848     		ldr	r0, .L194
 1243 001c 0849     		ldr	r1, .L194+4
 1244 001e FFF7FEFF 		bl	smtc_modem_hal_print_trace
 1245 0022 0848     		ldr	r0, .L194+8
 1246 0024 FFF7FEFF 		bl	smtc_modem_hal_print_trace
 1247              	.L189:
 1248 0028 0524     		movs	r4, #5
 1249              	.L190:
 1250              		@ sp needed
 1251 002a 2000     		movs	r0, r4
 1252 002c 70BD     		pop	{r4, r5, r6, pc}
 1253              	.L191:
 1254 002e 2800     		movs	r0, r5
 1255 0030 FFF7FEFF 		bl	lorawan_api_set_deveui
 1256 0034 0028     		cmp	r0, #0
 1257 0036 F8D0     		beq	.L190
 1258 0038 0624     		movs	r4, #6
 1259 003a F6E7     		b	.L190
 1260              	.L195:
 1261              		.align	2
 1262              	.L194:
 1263 003c 00000000 		.word	.LC49
 1264 0040 00000000 		.word	__func__.11
 1265 0044 31000000 		.word	.LC3
 1267              		.section	.text.smtc_modem_set_nwkkey,"ax",%progbits
 1268              		.align	1
 1269              		.global	smtc_modem_set_nwkkey
ARM GAS  /tmp/cc3hQV0n.s 			page 23


 1270              		.syntax unified
 1271              		.code	16
 1272              		.thumb_func
 1274              	smtc_modem_set_nwkkey:
 1275              		@ args = 0, pretend = 0, frame = 0
 1276              		@ frame_needed = 0, uses_anonymous_args = 0
 1277 0000 10B5     		push	{r4, lr}
 1278 0002 0C00     		movs	r4, r1
 1279 0004 FFF7FEFF 		bl	modem_get_test_mode_status
 1280 0008 0028     		cmp	r0, #0
 1281 000a 0DD1     		bne	.L197
 1282 000c 0430     		adds	r0, r0, #4
 1283 000e 002C     		cmp	r4, #0
 1284 0010 0BD0     		beq	.L198
 1285 0012 FFF7FEFF 		bl	get_join_state
 1286 0016 0028     		cmp	r0, #0
 1287 0018 08D0     		beq	.L199
 1288 001a 0848     		ldr	r0, .L202
 1289 001c 0849     		ldr	r1, .L202+4
 1290 001e FFF7FEFF 		bl	smtc_modem_hal_print_trace
 1291 0022 0848     		ldr	r0, .L202+8
 1292 0024 FFF7FEFF 		bl	smtc_modem_hal_print_trace
 1293              	.L197:
 1294 0028 0520     		movs	r0, #5
 1295              	.L198:
 1296              		@ sp needed
 1297 002a 10BD     		pop	{r4, pc}
 1298              	.L199:
 1299 002c 2000     		movs	r0, r4
 1300 002e FFF7FEFF 		bl	modem_context_set_appkey
 1301 0032 0028     		cmp	r0, #0
 1302 0034 F9D0     		beq	.L198
 1303 0036 0620     		movs	r0, #6
 1304 0038 F7E7     		b	.L198
 1305              	.L203:
 1306 003a C046     		.align	2
 1307              	.L202:
 1308 003c 00000000 		.word	.LC49
 1309 0040 00000000 		.word	__func__.10
 1310 0044 31000000 		.word	.LC3
 1312              		.section	.text.smtc_modem_get_class,"ax",%progbits
 1313              		.align	1
 1314              		.global	smtc_modem_get_class
 1315              		.syntax unified
 1316              		.code	16
 1317              		.thumb_func
 1319              	smtc_modem_get_class:
 1320              		@ args = 0, pretend = 0, frame = 0
 1321              		@ frame_needed = 0, uses_anonymous_args = 0
 1322 0000 70B5     		push	{r4, r5, r6, lr}
 1323 0002 0D00     		movs	r5, r1
 1324 0004 FFF7FEFF 		bl	modem_get_test_mode_status
 1325 0008 0400     		movs	r4, r0
 1326 000a 0520     		movs	r0, #5
 1327 000c 002C     		cmp	r4, #0
 1328 000e 06D1     		bne	.L205
 1329 0010 0138     		subs	r0, r0, #1
ARM GAS  /tmp/cc3hQV0n.s 			page 24


 1330 0012 002D     		cmp	r5, #0
 1331 0014 03D0     		beq	.L205
 1332 0016 FFF7FEFF 		bl	get_modem_class
 1333 001a 2870     		strb	r0, [r5]
 1334 001c 2000     		movs	r0, r4
 1335              	.L205:
 1336              		@ sp needed
 1337 001e 70BD     		pop	{r4, r5, r6, pc}
 1339              		.section	.rodata.smtc_modem_set_class.str1.1,"aMS",%progbits,1
 1340              	.LC59:
 1341 0000 1B5B303B 		.ascii	"\033[0;31mERROR: set to class b is refused : modem "
 1341      33316D45 
 1341      52524F52 
 1341      3A207365 
 1341      7420746F 
 1342 0030 6973206E 		.ascii	"is not time synced\000"
 1342      6F742074 
 1342      696D6520 
 1342      73796E63 
 1342      656400
 1343              	.LC62:
 1344 0043 1B5B303B 		.ascii	"\033[0;31mERROR: set to class b is refused : modem "
 1344      33316D45 
 1344      52524F52 
 1344      3A207365 
 1344      7420746F 
 1345 0073 6973206E 		.ascii	"is not joined\000"
 1345      6F74206A 
 1345      6F696E65 
 1345      6400
 1346              		.section	.text.smtc_modem_set_class,"ax",%progbits
 1347              		.align	1
 1348              		.global	smtc_modem_set_class
 1349              		.syntax unified
 1350              		.code	16
 1351              		.thumb_func
 1353              	smtc_modem_set_class:
 1354              		@ args = 0, pretend = 0, frame = 0
 1355              		@ frame_needed = 0, uses_anonymous_args = 0
 1356 0000 70B5     		push	{r4, r5, r6, lr}
 1357 0002 0C00     		movs	r4, r1
 1358 0004 FFF7FEFF 		bl	modem_get_test_mode_status
 1359 0008 0500     		movs	r5, r0
 1360 000a 0520     		movs	r0, #5
 1361 000c 002D     		cmp	r5, #0
 1362 000e 1DD1     		bne	.L209
 1363 0010 012C     		cmp	r4, #1
 1364 0012 0FD0     		beq	.L210
 1365 0014 022C     		cmp	r4, #2
 1366 0016 25D0     		beq	.L211
 1367 0018 0138     		subs	r0, r0, #1
 1368 001a 002C     		cmp	r4, #0
 1369 001c 16D1     		bne	.L209
 1370 001e 2000     		movs	r0, r4
 1371 0020 FFF7FEFF 		bl	lorawan_api_class_b_enabled
 1372 0024 2000     		movs	r0, r4
 1373              	.L219:
ARM GAS  /tmp/cc3hQV0n.s 			page 25


 1374 0026 FFF7FEFF 		bl	lorawan_api_class_c_enabled
 1375 002a 2000     		movs	r0, r4
 1376 002c FFF7FEFF 		bl	set_modem_class
 1377 0030 0020     		movs	r0, #0
 1378 0032 0BE0     		b	.L209
 1379              	.L210:
 1380 0034 0E48     		ldr	r0, .L220
 1381 0036 FFF7FEFF 		bl	clock_sync_is_time_valid
 1382 003a 0028     		cmp	r0, #0
 1383 003c 07D1     		bne	.L213
 1384 003e 0D48     		ldr	r0, .L220+4
 1385              	.L218:
 1386 0040 FFF7FEFF 		bl	smtc_modem_hal_print_trace
 1387 0044 0C48     		ldr	r0, .L220+8
 1388 0046 FFF7FEFF 		bl	smtc_modem_hal_print_trace
 1389 004a 0620     		movs	r0, #6
 1390              	.L209:
 1391              		@ sp needed
 1392 004c 70BD     		pop	{r4, r5, r6, pc}
 1393              	.L213:
 1394 004e FFF7FEFF 		bl	get_join_state
 1395 0052 0228     		cmp	r0, #2
 1396 0054 01D0     		beq	.L215
 1397 0056 0948     		ldr	r0, .L220+12
 1398 0058 F2E7     		b	.L218
 1399              	.L215:
 1400 005a 2000     		movs	r0, r4
 1401 005c FFF7FEFF 		bl	lorawan_api_class_b_enabled
 1402 0060 2800     		movs	r0, r5
 1403 0062 E0E7     		b	.L219
 1404              	.L211:
 1405 0064 2800     		movs	r0, r5
 1406 0066 FFF7FEFF 		bl	lorawan_api_class_b_enabled
 1407 006a 0120     		movs	r0, #1
 1408 006c DBE7     		b	.L219
 1409              	.L221:
 1410 006e C046     		.align	2
 1411              	.L220:
 1412 0070 2C000000 		.word	smtc_modem_services_ctx+44
 1413 0074 00000000 		.word	.LC59
 1414 0078 31000000 		.word	.LC3
 1415 007c 43000000 		.word	.LC62
 1417              		.section	.text.smtc_modem_multicast_set_grp_config,"ax",%progbits
 1418              		.align	1
 1419              		.global	smtc_modem_multicast_set_grp_config
 1420              		.syntax unified
 1421              		.code	16
 1422              		.thumb_func
 1424              	smtc_modem_multicast_set_grp_config:
 1425              		@ args = 4, pretend = 0, frame = 0
 1426              		@ frame_needed = 0, uses_anonymous_args = 0
 1427 0000 70B5     		push	{r4, r5, r6, lr}
 1428 0002 1D00     		movs	r5, r3
 1429 0004 0C00     		movs	r4, r1
 1430 0006 1600     		movs	r6, r2
 1431 0008 FFF7FEFF 		bl	modem_get_test_mode_status
 1432 000c 0300     		movs	r3, r0
ARM GAS  /tmp/cc3hQV0n.s 			page 26


 1433 000e 0520     		movs	r0, #5
 1434 0010 002B     		cmp	r3, #0
 1435 0012 14D1     		bne	.L223
 1436 0014 002D     		cmp	r5, #0
 1437 0016 11D0     		beq	.L224
 1438 0018 049B     		ldr	r3, [sp, #16]
 1439 001a 002B     		cmp	r3, #0
 1440 001c 0ED0     		beq	.L224
 1441 001e 3100     		movs	r1, r6
 1442 0020 2000     		movs	r0, r4
 1443 0022 FFF7FEFF 		bl	lorawan_api_multicast_set_group_address
 1444 0026 0028     		cmp	r0, #0
 1445 0028 06D1     		bne	.L225
 1446 002a 2900     		movs	r1, r5
 1447 002c 2000     		movs	r0, r4
 1448 002e 049A     		ldr	r2, [sp, #16]
 1449 0030 FFF7FEFF 		bl	lorawan_api_multicast_set_group_session_keys
 1450 0034 0028     		cmp	r0, #0
 1451 0036 02D0     		beq	.L223
 1452              	.L225:
 1453 0038 0128     		cmp	r0, #1
 1454 003a 01D1     		bne	.L227
 1455              	.L224:
 1456 003c 0420     		movs	r0, #4
 1457              	.L223:
 1458              		@ sp needed
 1459 003e 70BD     		pop	{r4, r5, r6, pc}
 1460              	.L227:
 1461 0040 0620     		movs	r0, #6
 1462 0042 FCE7     		b	.L223
 1464              		.section	.text.smtc_modem_multicast_get_grp_config,"ax",%progbits
 1465              		.align	1
 1466              		.global	smtc_modem_multicast_get_grp_config
 1467              		.syntax unified
 1468              		.code	16
 1469              		.thumb_func
 1471              	smtc_modem_multicast_get_grp_config:
 1472              		@ args = 0, pretend = 0, frame = 0
 1473              		@ frame_needed = 0, uses_anonymous_args = 0
 1474 0000 70B5     		push	{r4, r5, r6, lr}
 1475 0002 0D00     		movs	r5, r1
 1476 0004 1400     		movs	r4, r2
 1477 0006 FFF7FEFF 		bl	modem_get_test_mode_status
 1478 000a 0300     		movs	r3, r0
 1479 000c 0520     		movs	r0, #5
 1480 000e 002B     		cmp	r3, #0
 1481 0010 0BD1     		bne	.L238
 1482 0012 002C     		cmp	r4, #0
 1483 0014 08D0     		beq	.L239
 1484 0016 2100     		movs	r1, r4
 1485 0018 2800     		movs	r0, r5
 1486 001a FFF7FEFF 		bl	lorawan_api_multicast_get_group_address
 1487 001e 031E     		subs	r3, r0, #0
 1488 0020 03D0     		beq	.L238
 1489 0022 0620     		movs	r0, #6
 1490 0024 012B     		cmp	r3, #1
 1491 0026 00D1     		bne	.L238
ARM GAS  /tmp/cc3hQV0n.s 			page 27


 1492              	.L239:
 1493 0028 0420     		movs	r0, #4
 1494              	.L238:
 1495              		@ sp needed
 1496 002a 70BD     		pop	{r4, r5, r6, pc}
 1498              		.section	.text.smtc_modem_multicast_class_c_start_session,"ax",%progbits
 1499              		.align	1
 1500              		.global	smtc_modem_multicast_class_c_start_session
 1501              		.syntax unified
 1502              		.code	16
 1503              		.thumb_func
 1505              	smtc_modem_multicast_class_c_start_session:
 1506              		@ args = 0, pretend = 0, frame = 0
 1507              		@ frame_needed = 0, uses_anonymous_args = 0
 1508 0000 F8B5     		push	{r3, r4, r5, r6, r7, lr}
 1509 0002 0D00     		movs	r5, r1
 1510 0004 1600     		movs	r6, r2
 1511 0006 1F00     		movs	r7, r3
 1512 0008 FFF7FEFF 		bl	modem_get_test_mode_status
 1513 000c 0400     		movs	r4, r0
 1514 000e 0520     		movs	r0, #5
 1515 0010 002C     		cmp	r4, #0
 1516 0012 11D1     		bne	.L249
 1517 0014 3A00     		movs	r2, r7
 1518 0016 3100     		movs	r1, r6
 1519 0018 2800     		movs	r0, r5
 1520 001a FFF7FEFF 		bl	lorawan_api_multicast_c_start_session
 1521 001e 0300     		movs	r3, r0
 1522 0020 0420     		movs	r0, #4
 1523 0022 012B     		cmp	r3, #1
 1524 0024 08D0     		beq	.L249
 1525 0026 2000     		movs	r0, r4
 1526 0028 012B     		cmp	r3, #1
 1527 002a 05D9     		bls	.L249
 1528 002c 043B     		subs	r3, r3, #4
 1529 002e DBB2     		uxtb	r3, r3
 1530 0030 0430     		adds	r0, r0, #4
 1531 0032 012B     		cmp	r3, #1
 1532 0034 00D9     		bls	.L249
 1533 0036 0230     		adds	r0, r0, #2
 1534              	.L249:
 1535              		@ sp needed
 1536 0038 F8BD     		pop	{r3, r4, r5, r6, r7, pc}
 1538              		.section	.text.smtc_modem_multicast_class_c_get_session_status,"ax",%progbits
 1539              		.align	1
 1540              		.global	smtc_modem_multicast_class_c_get_session_status
 1541              		.syntax unified
 1542              		.code	16
 1543              		.thumb_func
 1545              	smtc_modem_multicast_class_c_get_session_status:
 1546              		@ args = 4, pretend = 0, frame = 0
 1547              		@ frame_needed = 0, uses_anonymous_args = 0
 1548 0000 70B5     		push	{r4, r5, r6, lr}
 1549 0002 1D00     		movs	r5, r3
 1550 0004 0E00     		movs	r6, r1
 1551 0006 1400     		movs	r4, r2
 1552 0008 FFF7FEFF 		bl	modem_get_test_mode_status
ARM GAS  /tmp/cc3hQV0n.s 			page 28


 1553 000c 0300     		movs	r3, r0
 1554 000e 0520     		movs	r0, #5
 1555 0010 002B     		cmp	r3, #0
 1556 0012 11D1     		bne	.L255
 1557 0014 002C     		cmp	r4, #0
 1558 0016 0ED0     		beq	.L256
 1559 0018 002D     		cmp	r5, #0
 1560 001a 0CD0     		beq	.L256
 1561 001c 049B     		ldr	r3, [sp, #16]
 1562 001e 002B     		cmp	r3, #0
 1563 0020 09D0     		beq	.L256
 1564 0022 2A00     		movs	r2, r5
 1565 0024 2100     		movs	r1, r4
 1566 0026 3000     		movs	r0, r6
 1567 0028 FFF7FEFF 		bl	lorawan_api_multicast_c_get_session_status
 1568 002c 031E     		subs	r3, r0, #0
 1569 002e 03D0     		beq	.L255
 1570 0030 0620     		movs	r0, #6
 1571 0032 012B     		cmp	r3, #1
 1572 0034 00D1     		bne	.L255
 1573              	.L256:
 1574 0036 0420     		movs	r0, #4
 1575              	.L255:
 1576              		@ sp needed
 1577 0038 70BD     		pop	{r4, r5, r6, pc}
 1579              		.section	.text.smtc_modem_multicast_class_c_stop_session,"ax",%progbits
 1580              		.align	1
 1581              		.global	smtc_modem_multicast_class_c_stop_session
 1582              		.syntax unified
 1583              		.code	16
 1584              		.thumb_func
 1586              	smtc_modem_multicast_class_c_stop_session:
 1587              		@ args = 0, pretend = 0, frame = 0
 1588              		@ frame_needed = 0, uses_anonymous_args = 0
 1589 0000 10B5     		push	{r4, lr}
 1590 0002 0C00     		movs	r4, r1
 1591 0004 FFF7FEFF 		bl	modem_get_test_mode_status
 1592 0008 0300     		movs	r3, r0
 1593 000a 0520     		movs	r0, #5
 1594 000c 002B     		cmp	r3, #0
 1595 000e 08D1     		bne	.L272
 1596 0010 2000     		movs	r0, r4
 1597 0012 FFF7FEFF 		bl	lorawan_api_multicast_c_stop_session
 1598 0016 031E     		subs	r3, r0, #0
 1599 0018 03D0     		beq	.L272
 1600 001a 0420     		movs	r0, #4
 1601 001c 012B     		cmp	r3, #1
 1602 001e 00D0     		beq	.L272
 1603 0020 0230     		adds	r0, r0, #2
 1604              	.L272:
 1605              		@ sp needed
 1606 0022 10BD     		pop	{r4, pc}
 1608              		.section	.text.smtc_modem_multicast_class_c_stop_all_sessions,"ax",%progbits
 1609              		.align	1
 1610              		.global	smtc_modem_multicast_class_c_stop_all_sessions
 1611              		.syntax unified
 1612              		.code	16
ARM GAS  /tmp/cc3hQV0n.s 			page 29


 1613              		.thumb_func
 1615              	smtc_modem_multicast_class_c_stop_all_sessions:
 1616              		@ args = 0, pretend = 0, frame = 0
 1617              		@ frame_needed = 0, uses_anonymous_args = 0
 1618 0000 10B5     		push	{r4, lr}
 1619 0002 FFF7FEFF 		bl	modem_get_test_mode_status
 1620 0006 0300     		movs	r3, r0
 1621 0008 0520     		movs	r0, #5
 1622 000a 002B     		cmp	r3, #0
 1623 000c 04D1     		bne	.L280
 1624 000e FFF7FEFF 		bl	lorawan_api_multicast_c_stop_all_sessions
 1625 0012 0028     		cmp	r0, #0
 1626 0014 00D0     		beq	.L280
 1627 0016 0620     		movs	r0, #6
 1628              	.L280:
 1629              		@ sp needed
 1630 0018 10BD     		pop	{r4, pc}
 1632              		.section	.text.smtc_modem_multicast_class_b_start_session,"ax",%progbits
 1633              		.align	1
 1634              		.global	smtc_modem_multicast_class_b_start_session
 1635              		.syntax unified
 1636              		.code	16
 1637              		.thumb_func
 1639              	smtc_modem_multicast_class_b_start_session:
 1640              		@ args = 4, pretend = 0, frame = 8
 1641              		@ frame_needed = 0, uses_anonymous_args = 0
 1642 0000 F7B5     		push	{r0, r1, r2, r4, r5, r6, r7, lr}
 1643 0002 1E00     		movs	r6, r3
 1644 0004 08AB     		add	r3, sp, #32
 1645 0006 0D00     		movs	r5, r1
 1646 0008 1F78     		ldrb	r7, [r3]
 1647 000a 0192     		str	r2, [sp, #4]
 1648 000c FFF7FEFF 		bl	modem_get_test_mode_status
 1649 0010 0400     		movs	r4, r0
 1650 0012 0520     		movs	r0, #5
 1651 0014 002C     		cmp	r4, #0
 1652 0016 12D1     		bne	.L284
 1653 0018 3B00     		movs	r3, r7
 1654 001a 3200     		movs	r2, r6
 1655 001c 2800     		movs	r0, r5
 1656 001e 0199     		ldr	r1, [sp, #4]
 1657 0020 FFF7FEFF 		bl	lorawan_api_multicast_b_start_session
 1658 0024 0300     		movs	r3, r0
 1659 0026 0420     		movs	r0, #4
 1660 0028 012B     		cmp	r3, #1
 1661 002a 08D0     		beq	.L284
 1662 002c 2000     		movs	r0, r4
 1663 002e 012B     		cmp	r3, #1
 1664 0030 05D9     		bls	.L284
 1665 0032 043B     		subs	r3, r3, #4
 1666 0034 DBB2     		uxtb	r3, r3
 1667 0036 0430     		adds	r0, r0, #4
 1668 0038 012B     		cmp	r3, #1
 1669 003a 00D9     		bls	.L284
 1670 003c 0230     		adds	r0, r0, #2
 1671              	.L284:
 1672              		@ sp needed
ARM GAS  /tmp/cc3hQV0n.s 			page 30


 1673 003e FEBD     		pop	{r1, r2, r3, r4, r5, r6, r7, pc}
 1675              		.section	.text.smtc_modem_multicast_class_b_get_session_status,"ax",%progbits
 1676              		.align	1
 1677              		.global	smtc_modem_multicast_class_b_get_session_status
 1678              		.syntax unified
 1679              		.code	16
 1680              		.thumb_func
 1682              	smtc_modem_multicast_class_b_get_session_status:
 1683              		@ args = 12, pretend = 0, frame = 0
 1684              		@ frame_needed = 0, uses_anonymous_args = 0
 1685 0000 F7B5     		push	{r0, r1, r2, r4, r5, r6, r7, lr}
 1686 0002 0A9F     		ldr	r7, [sp, #40]
 1687 0004 1D00     		movs	r5, r3
 1688 0006 0E00     		movs	r6, r1
 1689 0008 1400     		movs	r4, r2
 1690 000a FFF7FEFF 		bl	modem_get_test_mode_status
 1691 000e 0300     		movs	r3, r0
 1692 0010 0520     		movs	r0, #5
 1693 0012 002B     		cmp	r3, #0
 1694 0014 19D1     		bne	.L290
 1695 0016 002C     		cmp	r4, #0
 1696 0018 16D0     		beq	.L291
 1697 001a 002D     		cmp	r5, #0
 1698 001c 14D0     		beq	.L291
 1699 001e 089B     		ldr	r3, [sp, #32]
 1700 0020 002B     		cmp	r3, #0
 1701 0022 11D0     		beq	.L291
 1702 0024 099B     		ldr	r3, [sp, #36]
 1703 0026 002B     		cmp	r3, #0
 1704 0028 0ED0     		beq	.L291
 1705 002a 002F     		cmp	r7, #0
 1706 002c 0CD0     		beq	.L291
 1707 002e 0093     		str	r3, [sp]
 1708 0030 2A00     		movs	r2, r5
 1709 0032 089B     		ldr	r3, [sp, #32]
 1710 0034 2100     		movs	r1, r4
 1711 0036 3000     		movs	r0, r6
 1712 0038 0197     		str	r7, [sp, #4]
 1713 003a FFF7FEFF 		bl	lorawan_api_multicast_b_get_session_status
 1714 003e 031E     		subs	r3, r0, #0
 1715 0040 03D0     		beq	.L290
 1716 0042 0620     		movs	r0, #6
 1717 0044 012B     		cmp	r3, #1
 1718 0046 00D1     		bne	.L290
 1719              	.L291:
 1720 0048 0420     		movs	r0, #4
 1721              	.L290:
 1722              		@ sp needed
 1723 004a FEBD     		pop	{r1, r2, r3, r4, r5, r6, r7, pc}
 1725              		.section	.text.smtc_modem_multicast_class_b_stop_session,"ax",%progbits
 1726              		.align	1
 1727              		.global	smtc_modem_multicast_class_b_stop_session
 1728              		.syntax unified
 1729              		.code	16
 1730              		.thumb_func
 1732              	smtc_modem_multicast_class_b_stop_session:
 1733              		@ args = 0, pretend = 0, frame = 0
ARM GAS  /tmp/cc3hQV0n.s 			page 31


 1734              		@ frame_needed = 0, uses_anonymous_args = 0
 1735 0000 10B5     		push	{r4, lr}
 1736 0002 0C00     		movs	r4, r1
 1737 0004 FFF7FEFF 		bl	modem_get_test_mode_status
 1738 0008 0300     		movs	r3, r0
 1739 000a 0520     		movs	r0, #5
 1740 000c 002B     		cmp	r3, #0
 1741 000e 08D1     		bne	.L313
 1742 0010 2000     		movs	r0, r4
 1743 0012 FFF7FEFF 		bl	lorawan_api_multicast_b_stop_session
 1744 0016 031E     		subs	r3, r0, #0
 1745 0018 03D0     		beq	.L313
 1746 001a 0420     		movs	r0, #4
 1747 001c 012B     		cmp	r3, #1
 1748 001e 00D0     		beq	.L313
 1749 0020 0230     		adds	r0, r0, #2
 1750              	.L313:
 1751              		@ sp needed
 1752 0022 10BD     		pop	{r4, pc}
 1754              		.section	.text.smtc_modem_multicast_class_b_stop_all_sessions,"ax",%progbits
 1755              		.align	1
 1756              		.global	smtc_modem_multicast_class_b_stop_all_sessions
 1757              		.syntax unified
 1758              		.code	16
 1759              		.thumb_func
 1761              	smtc_modem_multicast_class_b_stop_all_sessions:
 1762              		@ args = 0, pretend = 0, frame = 0
 1763              		@ frame_needed = 0, uses_anonymous_args = 0
 1764 0000 10B5     		push	{r4, lr}
 1765 0002 FFF7FEFF 		bl	modem_get_test_mode_status
 1766 0006 0300     		movs	r3, r0
 1767 0008 0520     		movs	r0, #5
 1768 000a 002B     		cmp	r3, #0
 1769 000c 04D1     		bne	.L321
 1770 000e FFF7FEFF 		bl	lorawan_api_multicast_b_stop_all_sessions
 1771 0012 0028     		cmp	r0, #0
 1772 0014 00D0     		beq	.L321
 1773 0016 0620     		movs	r0, #6
 1774              	.L321:
 1775              		@ sp needed
 1776 0018 10BD     		pop	{r4, pc}
 1778              		.section	.text.smtc_modem_get_region,"ax",%progbits
 1779              		.align	1
 1780              		.global	smtc_modem_get_region
 1781              		.syntax unified
 1782              		.code	16
 1783              		.thumb_func
 1785              	smtc_modem_get_region:
 1786              		@ args = 0, pretend = 0, frame = 0
 1787              		@ frame_needed = 0, uses_anonymous_args = 0
 1788 0000 70B5     		push	{r4, r5, r6, lr}
 1789 0002 0D00     		movs	r5, r1
 1790 0004 FFF7FEFF 		bl	modem_get_test_mode_status
 1791 0008 0400     		movs	r4, r0
 1792 000a 0520     		movs	r0, #5
 1793 000c 002C     		cmp	r4, #0
 1794 000e 06D1     		bne	.L325
ARM GAS  /tmp/cc3hQV0n.s 			page 32


 1795 0010 0138     		subs	r0, r0, #1
 1796 0012 002D     		cmp	r5, #0
 1797 0014 03D0     		beq	.L325
 1798 0016 FFF7FEFF 		bl	get_modem_region
 1799 001a 2870     		strb	r0, [r5]
 1800 001c 2000     		movs	r0, r4
 1801              	.L325:
 1802              		@ sp needed
 1803 001e 70BD     		pop	{r4, r5, r6, pc}
 1805              		.section	.rodata.smtc_modem_set_region.str1.1,"aMS",%progbits,1
 1806              	.LC67:
 1807 0000 1B5B303B 		.ascii	"\033[0;31mERROR: %s call with region not valid\012\015"
 1807      33316D45 
 1807      52524F52 
 1807      3A202573 
 1807      2063616C 
 1808 002d 0D00     		.ascii	"\015\000"
 1809              		.section	.text.smtc_modem_set_region,"ax",%progbits
 1810              		.align	1
 1811              		.global	smtc_modem_set_region
 1812              		.syntax unified
 1813              		.code	16
 1814              		.thumb_func
 1816              	smtc_modem_set_region:
 1817              		@ args = 0, pretend = 0, frame = 0
 1818              		@ frame_needed = 0, uses_anonymous_args = 0
 1819 0000 70B5     		push	{r4, r5, r6, lr}
 1820 0002 0D00     		movs	r5, r1
 1821 0004 FFF7FEFF 		bl	modem_get_test_mode_status
 1822 0008 0028     		cmp	r0, #0
 1823 000a 0AD1     		bne	.L329
 1824 000c FFF7FEFF 		bl	get_join_state
 1825 0010 041E     		subs	r4, r0, #0
 1826 0012 09D0     		beq	.L330
 1827 0014 0B48     		ldr	r0, .L332
 1828 0016 0C49     		ldr	r1, .L332+4
 1829 0018 FFF7FEFF 		bl	smtc_modem_hal_print_trace
 1830 001c 0B48     		ldr	r0, .L332+8
 1831 001e FFF7FEFF 		bl	smtc_modem_hal_print_trace
 1832              	.L329:
 1833 0022 0524     		movs	r4, #5
 1834              	.L331:
 1835              		@ sp needed
 1836 0024 2000     		movs	r0, r4
 1837 0026 70BD     		pop	{r4, r5, r6, pc}
 1838              	.L330:
 1839 0028 2800     		movs	r0, r5
 1840 002a FFF7FEFF 		bl	set_modem_region
 1841 002e 0028     		cmp	r0, #0
 1842 0030 F8D1     		bne	.L331
 1843 0032 0549     		ldr	r1, .L332+4
 1844 0034 0648     		ldr	r0, .L332+12
 1845 0036 FFF7FEFF 		bl	smtc_modem_hal_print_trace
 1846 003a 0448     		ldr	r0, .L332+8
 1847 003c FFF7FEFF 		bl	smtc_modem_hal_print_trace
 1848 0040 0424     		movs	r4, #4
 1849 0042 EFE7     		b	.L331
ARM GAS  /tmp/cc3hQV0n.s 			page 33


 1850              	.L333:
 1851              		.align	2
 1852              	.L332:
 1853 0044 00000000 		.word	.LC49
 1854 0048 00000000 		.word	__func__.9
 1855 004c 31000000 		.word	.LC3
 1856 0050 00000000 		.word	.LC67
 1858              		.section	.text.smtc_modem_adr_get_profile,"ax",%progbits
 1859              		.align	1
 1860              		.global	smtc_modem_adr_get_profile
 1861              		.syntax unified
 1862              		.code	16
 1863              		.thumb_func
 1865              	smtc_modem_adr_get_profile:
 1866              		@ args = 0, pretend = 0, frame = 0
 1867              		@ frame_needed = 0, uses_anonymous_args = 0
 1868 0000 70B5     		push	{r4, r5, r6, lr}
 1869 0002 0D00     		movs	r5, r1
 1870 0004 FFF7FEFF 		bl	modem_get_test_mode_status
 1871 0008 0400     		movs	r4, r0
 1872 000a 0520     		movs	r0, #5
 1873 000c 002C     		cmp	r4, #0
 1874 000e 06D1     		bne	.L335
 1875 0010 0138     		subs	r0, r0, #1
 1876 0012 002D     		cmp	r5, #0
 1877 0014 03D0     		beq	.L335
 1878 0016 FFF7FEFF 		bl	get_modem_adr_profile
 1879 001a 2870     		strb	r0, [r5]
 1880 001c 2000     		movs	r0, r4
 1881              	.L335:
 1882              		@ sp needed
 1883 001e 70BD     		pop	{r4, r5, r6, pc}
 1885              		.section	.rodata.smtc_modem_adr_set_profile.str1.1,"aMS",%progbits,1
 1886              	.LC70:
 1887 0000 1B5B303B 		.ascii	"\033[0;31mERROR: %s call with adr profile not valid"
 1887      33316D45 
 1887      52524F52 
 1887      3A202573 
 1887      2063616C 
 1888 0030 0A0D0D00 		.ascii	"\012\015\015\000"
 1889              		.section	.text.smtc_modem_adr_set_profile,"ax",%progbits
 1890              		.align	1
 1891              		.global	smtc_modem_adr_set_profile
 1892              		.syntax unified
 1893              		.code	16
 1894              		.thumb_func
 1896              	smtc_modem_adr_set_profile:
 1897              		@ args = 0, pretend = 0, frame = 0
 1898              		@ frame_needed = 0, uses_anonymous_args = 0
 1899 0000 70B5     		push	{r4, r5, r6, lr}
 1900 0002 0D00     		movs	r5, r1
 1901 0004 1600     		movs	r6, r2
 1902 0006 FFF7FEFF 		bl	modem_get_test_mode_status
 1903 000a 0400     		movs	r4, r0
 1904 000c 0520     		movs	r0, #5
 1905 000e 002C     		cmp	r4, #0
 1906 0010 05D1     		bne	.L339
ARM GAS  /tmp/cc3hQV0n.s 			page 34


 1907 0012 032D     		cmp	r5, #3
 1908 0014 04D1     		bne	.L340
 1909 0016 1022     		movs	r2, #16
 1910 0018 002E     		cmp	r6, #0
 1911 001a 04D1     		bne	.L350
 1912              	.L341:
 1913 001c 0420     		movs	r0, #4
 1914              	.L339:
 1915              		@ sp needed
 1916 001e 70BD     		pop	{r4, r5, r6, pc}
 1917              	.L340:
 1918 0020 022D     		cmp	r5, #2
 1919 0022 05D8     		bhi	.L342
 1920 0024 2200     		movs	r2, r4
 1921              	.L350:
 1922 0026 3100     		movs	r1, r6
 1923 0028 2800     		movs	r0, r5
 1924 002a FFF7FEFF 		bl	set_modem_adr_profile
 1925 002e 0400     		movs	r4, r0
 1926              	.L342:
 1927 0030 013D     		subs	r5, r5, #1
 1928 0032 022D     		cmp	r5, #2
 1929 0034 01D8     		bhi	.L343
 1930 0036 FFF7FEFF 		bl	lorawan_api_reset_no_rx_packet_in_mobile_mode_cnt
 1931              	.L343:
 1932 003a 0020     		movs	r0, #0
 1933 003c 8442     		cmp	r4, r0
 1934 003e EED1     		bne	.L339
 1935 0040 0349     		ldr	r1, .L351
 1936 0042 0448     		ldr	r0, .L351+4
 1937 0044 FFF7FEFF 		bl	smtc_modem_hal_print_trace
 1938 0048 0348     		ldr	r0, .L351+8
 1939 004a FFF7FEFF 		bl	smtc_modem_hal_print_trace
 1940 004e E5E7     		b	.L341
 1941              	.L352:
 1942              		.align	2
 1943              	.L351:
 1944 0050 00000000 		.word	__func__.8
 1945 0054 00000000 		.word	.LC70
 1946 0058 31000000 		.word	.LC3
 1948              		.section	.text.smtc_modem_get_available_datarates,"ax",%progbits
 1949              		.align	1
 1950              		.global	smtc_modem_get_available_datarates
 1951              		.syntax unified
 1952              		.code	16
 1953              		.thumb_func
 1955              	smtc_modem_get_available_datarates:
 1956              		@ args = 0, pretend = 0, frame = 0
 1957              		@ frame_needed = 0, uses_anonymous_args = 0
 1958 0000 70B5     		push	{r4, r5, r6, lr}
 1959 0002 0D00     		movs	r5, r1
 1960 0004 FFF7FEFF 		bl	modem_get_test_mode_status
 1961 0008 0400     		movs	r4, r0
 1962 000a 0520     		movs	r0, #5
 1963 000c 002C     		cmp	r4, #0
 1964 000e 06D1     		bne	.L354
 1965 0010 0138     		subs	r0, r0, #1
ARM GAS  /tmp/cc3hQV0n.s 			page 35


 1966 0012 002D     		cmp	r5, #0
 1967 0014 03D0     		beq	.L354
 1968 0016 FFF7FEFF 		bl	lorawan_api_mask_tx_dr_channel_up_dwell_time_check
 1969 001a 2880     		strh	r0, [r5]
 1970 001c 2000     		movs	r0, r4
 1971              	.L354:
 1972              		@ sp needed
 1973 001e 70BD     		pop	{r4, r5, r6, pc}
 1975              		.section	.text.smtc_modem_dm_get_fport,"ax",%progbits
 1976              		.align	1
 1977              		.global	smtc_modem_dm_get_fport
 1978              		.syntax unified
 1979              		.code	16
 1980              		.thumb_func
 1982              	smtc_modem_dm_get_fport:
 1983              		@ args = 0, pretend = 0, frame = 0
 1984              		@ frame_needed = 0, uses_anonymous_args = 0
 1985 0000 70B5     		push	{r4, r5, r6, lr}
 1986 0002 0500     		movs	r5, r0
 1987 0004 FFF7FEFF 		bl	modem_get_test_mode_status
 1988 0008 0400     		movs	r4, r0
 1989 000a 0520     		movs	r0, #5
 1990 000c 002C     		cmp	r4, #0
 1991 000e 06D1     		bne	.L358
 1992 0010 0138     		subs	r0, r0, #1
 1993 0012 002D     		cmp	r5, #0
 1994 0014 03D0     		beq	.L358
 1995 0016 FFF7FEFF 		bl	get_modem_dm_port
 1996 001a 2870     		strb	r0, [r5]
 1997 001c 2000     		movs	r0, r4
 1998              	.L358:
 1999              		@ sp needed
 2000 001e 70BD     		pop	{r4, r5, r6, pc}
 2002              		.section	.rodata.smtc_modem_dm_set_fport.str1.1,"aMS",%progbits,1
 2003              	.LC74:
 2004 0000 1B5B303B 		.ascii	"\033[0;31mERROR: %s call with DM port not valid\012"
 2004      33316D45 
 2004      52524F52 
 2004      3A202573 
 2004      2063616C 
 2005 002d 0D0D00   		.ascii	"\015\015\000"
 2006              		.section	.text.smtc_modem_dm_set_fport,"ax",%progbits
 2007              		.align	1
 2008              		.global	smtc_modem_dm_set_fport
 2009              		.syntax unified
 2010              		.code	16
 2011              		.thumb_func
 2013              	smtc_modem_dm_set_fport:
 2014              		@ args = 0, pretend = 0, frame = 0
 2015              		@ frame_needed = 0, uses_anonymous_args = 0
 2016 0000 70B5     		push	{r4, r5, r6, lr}
 2017 0002 0500     		movs	r5, r0
 2018 0004 FFF7FEFF 		bl	modem_get_test_mode_status
 2019 0008 0523     		movs	r3, #5
 2020 000a 041E     		subs	r4, r0, #0
 2021 000c 0DD1     		bne	.L362
 2022 000e 2800     		movs	r0, r5
ARM GAS  /tmp/cc3hQV0n.s 			page 36


 2023 0010 FFF7FEFF 		bl	set_modem_dm_port
 2024 0014 2300     		movs	r3, r4
 2025 0016 0028     		cmp	r0, #0
 2026 0018 07D1     		bne	.L362
 2027 001a 0549     		ldr	r1, .L365
 2028 001c 0548     		ldr	r0, .L365+4
 2029 001e FFF7FEFF 		bl	smtc_modem_hal_print_trace
 2030 0022 0548     		ldr	r0, .L365+8
 2031 0024 FFF7FEFF 		bl	smtc_modem_hal_print_trace
 2032 0028 0423     		movs	r3, #4
 2033              	.L362:
 2034              		@ sp needed
 2035 002a 1800     		movs	r0, r3
 2036 002c 70BD     		pop	{r4, r5, r6, pc}
 2037              	.L366:
 2038 002e C046     		.align	2
 2039              	.L365:
 2040 0030 00000000 		.word	__func__.7
 2041 0034 00000000 		.word	.LC74
 2042 0038 31000000 		.word	.LC3
 2044              		.section	.text.smtc_modem_dm_get_info_interval,"ax",%progbits
 2045              		.align	1
 2046              		.global	smtc_modem_dm_get_info_interval
 2047              		.syntax unified
 2048              		.code	16
 2049              		.thumb_func
 2051              	smtc_modem_dm_get_info_interval:
 2052              		@ args = 0, pretend = 0, frame = 0
 2053              		@ frame_needed = 0, uses_anonymous_args = 0
 2054 0000 70B5     		push	{r4, r5, r6, lr}
 2055 0002 0600     		movs	r6, r0
 2056 0004 0D00     		movs	r5, r1
 2057 0006 FFF7FEFF 		bl	modem_get_test_mode_status
 2058 000a 0400     		movs	r4, r0
 2059 000c 0520     		movs	r0, #5
 2060 000e 002C     		cmp	r4, #0
 2061 0010 0CD1     		bne	.L368
 2062 0012 0138     		subs	r0, r0, #1
 2063 0014 002E     		cmp	r6, #0
 2064 0016 09D0     		beq	.L368
 2065 0018 002D     		cmp	r5, #0
 2066 001a 07D0     		beq	.L368
 2067 001c FFF7FEFF 		bl	get_modem_dm_interval
 2068 0020 8309     		lsrs	r3, r0, #6
 2069 0022 3370     		strb	r3, [r6]
 2070 0024 3F23     		movs	r3, #63
 2071 0026 1840     		ands	r0, r3
 2072 0028 2870     		strb	r0, [r5]
 2073 002a 2000     		movs	r0, r4
 2074              	.L368:
 2075              		@ sp needed
 2076 002c 70BD     		pop	{r4, r5, r6, pc}
 2078              		.section	.rodata.smtc_modem_dm_set_info_interval.str1.1,"aMS",%progbits,1
 2079              	.LC78:
 2080 0000 1B5B303B 		.ascii	"\033[0;31mERROR: %s call but interval not valid\012"
 2080      33316D45 
 2080      52524F52 
ARM GAS  /tmp/cc3hQV0n.s 			page 37


 2080      3A202573 
 2080      2063616C 
 2081 002d 0D0D00   		.ascii	"\015\015\000"
 2082              		.section	.text.smtc_modem_dm_set_info_interval,"ax",%progbits
 2083              		.align	1
 2084              		.global	smtc_modem_dm_set_info_interval
 2085              		.syntax unified
 2086              		.code	16
 2087              		.thumb_func
 2089              	smtc_modem_dm_set_info_interval:
 2090              		@ args = 0, pretend = 0, frame = 0
 2091              		@ frame_needed = 0, uses_anonymous_args = 0
 2092 0000 70B5     		push	{r4, r5, r6, lr}
 2093 0002 0600     		movs	r6, r0
 2094 0004 0C00     		movs	r4, r1
 2095 0006 FFF7FEFF 		bl	modem_get_test_mode_status
 2096 000a 0500     		movs	r5, r0
 2097 000c 0520     		movs	r0, #5
 2098 000e 002D     		cmp	r5, #0
 2099 0010 04D1     		bne	.L373
 2100 0012 032E     		cmp	r6, #3
 2101 0014 01D8     		bhi	.L374
 2102 0016 3F2C     		cmp	r4, #63
 2103 0018 01D9     		bls	.L375
 2104              	.L374:
 2105 001a 0420     		movs	r0, #4
 2106              	.L373:
 2107              		@ sp needed
 2108 001c 70BD     		pop	{r4, r5, r6, pc}
 2109              	.L375:
 2110 001e B601     		lsls	r6, r6, #6
 2111 0020 3443     		orrs	r4, r6
 2112 0022 E0B2     		uxtb	r0, r4
 2113 0024 FFF7FEFF 		bl	set_modem_dm_interval
 2114 0028 0028     		cmp	r0, #0
 2115 002a 07D1     		bne	.L376
 2116 002c 0649     		ldr	r1, .L378
 2117 002e 0748     		ldr	r0, .L378+4
 2118 0030 FFF7FEFF 		bl	smtc_modem_hal_print_trace
 2119 0034 0648     		ldr	r0, .L378+8
 2120 0036 FFF7FEFF 		bl	smtc_modem_hal_print_trace
 2121 003a EEE7     		b	.L374
 2122              	.L376:
 2123 003c FFF7FEFF 		bl	get_modem_dm_interval_second
 2124 0040 FFF7FEFF 		bl	modem_supervisor_add_task_dm_status
 2125 0044 2800     		movs	r0, r5
 2126 0046 E9E7     		b	.L373
 2127              	.L379:
 2128              		.align	2
 2129              	.L378:
 2130 0048 00000000 		.word	__func__.6
 2131 004c 00000000 		.word	.LC78
 2132 0050 31000000 		.word	.LC3
 2134              		.section	.text.smtc_modem_dm_get_info_fields,"ax",%progbits
 2135              		.align	1
 2136              		.global	smtc_modem_dm_get_info_fields
 2137              		.syntax unified
ARM GAS  /tmp/cc3hQV0n.s 			page 38


 2138              		.code	16
 2139              		.thumb_func
 2141              	smtc_modem_dm_get_info_fields:
 2142              		@ args = 0, pretend = 0, frame = 0
 2143              		@ frame_needed = 0, uses_anonymous_args = 0
 2144 0000 70B5     		push	{r4, r5, r6, lr}
 2145 0002 0600     		movs	r6, r0
 2146 0004 0D00     		movs	r5, r1
 2147 0006 FFF7FEFF 		bl	modem_get_test_mode_status
 2148 000a 0400     		movs	r4, r0
 2149 000c 0520     		movs	r0, #5
 2150 000e 002C     		cmp	r4, #0
 2151 0010 0AD1     		bne	.L381
 2152 0012 0138     		subs	r0, r0, #1
 2153 0014 002E     		cmp	r6, #0
 2154 0016 07D0     		beq	.L381
 2155 0018 002D     		cmp	r5, #0
 2156 001a 05D0     		beq	.L381
 2157 001c 2100     		movs	r1, r4
 2158 001e 3000     		movs	r0, r6
 2159 0020 FFF7FEFF 		bl	get_dm_info_tag_list
 2160 0024 2870     		strb	r0, [r5]
 2161 0026 2000     		movs	r0, r4
 2162              	.L381:
 2163              		@ sp needed
 2164 0028 70BD     		pop	{r4, r5, r6, pc}
 2166              		.section	.text.smtc_modem_dm_set_info_fields,"ax",%progbits
 2167              		.align	1
 2168              		.global	smtc_modem_dm_set_info_fields
 2169              		.syntax unified
 2170              		.code	16
 2171              		.thumb_func
 2173              	smtc_modem_dm_set_info_fields:
 2174              		@ args = 0, pretend = 0, frame = 0
 2175              		@ frame_needed = 0, uses_anonymous_args = 0
 2176 0000 70B5     		push	{r4, r5, r6, lr}
 2177 0002 0400     		movs	r4, r0
 2178 0004 0D00     		movs	r5, r1
 2179 0006 FFF7FEFF 		bl	modem_get_test_mode_status
 2180 000a 0200     		movs	r2, r0
 2181 000c 0520     		movs	r0, #5
 2182 000e 002A     		cmp	r2, #0
 2183 0010 09D1     		bne	.L386
 2184 0012 0138     		subs	r0, r0, #1
 2185 0014 002C     		cmp	r4, #0
 2186 0016 06D0     		beq	.L386
 2187 0018 2900     		movs	r1, r5
 2188 001a 2000     		movs	r0, r4
 2189 001c FFF7FEFF 		bl	set_dm_info
 2190 0020 4342     		rsbs	r3, r0, #0
 2191 0022 5841     		adcs	r0, r0, r3
 2192 0024 8000     		lsls	r0, r0, #2
 2193              	.L386:
 2194              		@ sp needed
 2195 0026 70BD     		pop	{r4, r5, r6, pc}
 2197              		.section	.text.smtc_modem_dm_request_single_uplink,"ax",%progbits
 2198              		.align	1
ARM GAS  /tmp/cc3hQV0n.s 			page 39


 2199              		.global	smtc_modem_dm_request_single_uplink
 2200              		.syntax unified
 2201              		.code	16
 2202              		.thumb_func
 2204              	smtc_modem_dm_request_single_uplink:
 2205              		@ args = 0, pretend = 0, frame = 0
 2206              		@ frame_needed = 0, uses_anonymous_args = 0
 2207 0000 70B5     		push	{r4, r5, r6, lr}
 2208 0002 0500     		movs	r5, r0
 2209 0004 0E00     		movs	r6, r1
 2210 0006 FFF7FEFF 		bl	modem_get_test_mode_status
 2211 000a 0523     		movs	r3, #5
 2212 000c 041E     		subs	r4, r0, #0
 2213 000e 02D1     		bne	.L390
 2214 0010 002D     		cmp	r5, #0
 2215 0012 02D1     		bne	.L391
 2216              	.L392:
 2217 0014 0423     		movs	r3, #4
 2218              	.L390:
 2219              		@ sp needed
 2220 0016 1800     		movs	r0, r3
 2221 0018 70BD     		pop	{r4, r5, r6, pc}
 2222              	.L391:
 2223 001a FFF7FEFF 		bl	is_modem_connected
 2224 001e 0623     		movs	r3, #6
 2225 0020 0028     		cmp	r0, #0
 2226 0022 F8D0     		beq	.L390
 2227 0024 0122     		movs	r2, #1
 2228 0026 3100     		movs	r1, r6
 2229 0028 2800     		movs	r0, r5
 2230 002a FFF7FEFF 		bl	set_dm_info
 2231 002e 0028     		cmp	r0, #0
 2232 0030 F0D0     		beq	.L392
 2233 0032 FFF7FEFF 		bl	modem_supervisor_add_task_dm_status_now
 2234 0036 2300     		movs	r3, r4
 2235 0038 EDE7     		b	.L390
 2237              		.section	.text.smtc_modem_dm_set_user_data,"ax",%progbits
 2238              		.align	1
 2239              		.global	smtc_modem_dm_set_user_data
 2240              		.syntax unified
 2241              		.code	16
 2242              		.thumb_func
 2244              	smtc_modem_dm_set_user_data:
 2245              		@ args = 0, pretend = 0, frame = 0
 2246              		@ frame_needed = 0, uses_anonymous_args = 0
 2247 0000 70B5     		push	{r4, r5, r6, lr}
 2248 0002 0500     		movs	r5, r0
 2249 0004 FFF7FEFF 		bl	modem_get_test_mode_status
 2250 0008 0400     		movs	r4, r0
 2251 000a 0520     		movs	r0, #5
 2252 000c 002C     		cmp	r4, #0
 2253 000e 06D1     		bne	.L400
 2254 0010 0138     		subs	r0, r0, #1
 2255 0012 002D     		cmp	r5, #0
 2256 0014 03D0     		beq	.L400
 2257 0016 2800     		movs	r0, r5
 2258 0018 FFF7FEFF 		bl	set_modem_appstatus
ARM GAS  /tmp/cc3hQV0n.s 			page 40


 2259 001c 2000     		movs	r0, r4
 2260              	.L400:
 2261              		@ sp needed
 2262 001e 70BD     		pop	{r4, r5, r6, pc}
 2264              		.section	.text.smtc_modem_dm_get_user_data,"ax",%progbits
 2265              		.align	1
 2266              		.global	smtc_modem_dm_get_user_data
 2267              		.syntax unified
 2268              		.code	16
 2269              		.thumb_func
 2271              	smtc_modem_dm_get_user_data:
 2272              		@ args = 0, pretend = 0, frame = 0
 2273              		@ frame_needed = 0, uses_anonymous_args = 0
 2274 0000 70B5     		push	{r4, r5, r6, lr}
 2275 0002 0500     		movs	r5, r0
 2276 0004 FFF7FEFF 		bl	modem_get_test_mode_status
 2277 0008 0400     		movs	r4, r0
 2278 000a 0520     		movs	r0, #5
 2279 000c 002C     		cmp	r4, #0
 2280 000e 06D1     		bne	.L404
 2281 0010 0138     		subs	r0, r0, #1
 2282 0012 002D     		cmp	r5, #0
 2283 0014 03D0     		beq	.L404
 2284 0016 2800     		movs	r0, r5
 2285 0018 FFF7FEFF 		bl	get_modem_appstatus
 2286 001c 2000     		movs	r0, r4
 2287              	.L404:
 2288              		@ sp needed
 2289 001e 70BD     		pop	{r4, r5, r6, pc}
 2291              		.section	.rodata.smtc_modem_join_network.str1.1,"aMS",%progbits,1
 2292              	.LC82:
 2293 0000 1B5B303B 		.ascii	"\033[0;31mERROR: %s call but the device is configur"
 2293      33316D45 
 2293      52524F52 
 2293      3A202573 
 2293      2063616C 
 2294 0030 65642069 		.ascii	"ed in ABP mode\012\015\015\000"
 2294      6E204142 
 2294      50206D6F 
 2294      64650A0D 
 2294      0D00
 2295              	.LC86:
 2296 0042 1B5B303B 		.ascii	"\033[0;31mERROR: %s Modem is muted\012\015\015\000"
 2296      33316D45 
 2296      52524F52 
 2296      3A202573 
 2296      204D6F64 
 2297              		.section	.text.smtc_modem_join_network,"ax",%progbits
 2298              		.align	1
 2299              		.global	smtc_modem_join_network
 2300              		.syntax unified
 2301              		.code	16
 2302              		.thumb_func
 2304              	smtc_modem_join_network:
 2305              		@ args = 0, pretend = 0, frame = 0
 2306              		@ frame_needed = 0, uses_anonymous_args = 0
 2307 0000 10B5     		push	{r4, lr}
ARM GAS  /tmp/cc3hQV0n.s 			page 41


 2308 0002 FFF7FEFF 		bl	modem_get_test_mode_status
 2309 0006 0028     		cmp	r0, #0
 2310 0008 17D1     		bne	.L408
 2311 000a FFF7FEFF 		bl	lorawan_api_get_activation_mode
 2312 000e 0128     		cmp	r0, #1
 2313 0010 08D1     		bne	.L409
 2314 0012 1449     		ldr	r1, .L416
 2315 0014 1448     		ldr	r0, .L416+4
 2316              	.L415:
 2317 0016 FFF7FEFF 		bl	smtc_modem_hal_print_trace
 2318 001a 1448     		ldr	r0, .L416+8
 2319 001c FFF7FEFF 		bl	smtc_modem_hal_print_trace
 2320 0020 0624     		movs	r4, #6
 2321 0022 0BE0     		b	.L412
 2322              	.L409:
 2323 0024 FFF7FEFF 		bl	get_join_state
 2324 0028 041E     		subs	r4, r0, #0
 2325 002a 09D0     		beq	.L411
 2326 002c 1048     		ldr	r0, .L416+12
 2327 002e 0D49     		ldr	r1, .L416
 2328 0030 FFF7FEFF 		bl	smtc_modem_hal_print_trace
 2329 0034 0D48     		ldr	r0, .L416+8
 2330 0036 FFF7FEFF 		bl	smtc_modem_hal_print_trace
 2331              	.L408:
 2332 003a 0524     		movs	r4, #5
 2333              	.L412:
 2334              		@ sp needed
 2335 003c 2000     		movs	r0, r4
 2336 003e 10BD     		pop	{r4, pc}
 2337              	.L411:
 2338 0040 FFF7FEFF 		bl	get_modem_muted
 2339 0044 FF28     		cmp	r0, #255
 2340 0046 02D1     		bne	.L413
 2341 0048 0649     		ldr	r1, .L416
 2342 004a 0A48     		ldr	r0, .L416+16
 2343 004c E3E7     		b	.L415
 2344              	.L413:
 2345 004e FFF7FEFF 		bl	get_modem_suspend
 2346 0052 0128     		cmp	r0, #1
 2347 0054 02D1     		bne	.L414
 2348 0056 0349     		ldr	r1, .L416
 2349 0058 0748     		ldr	r0, .L416+20
 2350 005a DCE7     		b	.L415
 2351              	.L414:
 2352 005c FFF7FEFF 		bl	modem_supervisor_add_task_join
 2353 0060 ECE7     		b	.L412
 2354              	.L417:
 2355 0062 C046     		.align	2
 2356              	.L416:
 2357 0064 00000000 		.word	__func__.5
 2358 0068 00000000 		.word	.LC82
 2359 006c 31000000 		.word	.LC3
 2360 0070 00000000 		.word	.LC49
 2361 0074 42000000 		.word	.LC86
 2362 0078 36000000 		.word	.LC5
 2364              		.section	.text.smtc_modem_leave_network,"ax",%progbits
 2365              		.align	1
ARM GAS  /tmp/cc3hQV0n.s 			page 42


 2366              		.global	smtc_modem_leave_network
 2367              		.syntax unified
 2368              		.code	16
 2369              		.thumb_func
 2371              	smtc_modem_leave_network:
 2372              		@ args = 0, pretend = 0, frame = 0
 2373              		@ frame_needed = 0, uses_anonymous_args = 0
 2374 0000 10B5     		push	{r4, lr}
 2375 0002 FFF7FEFF 		bl	modem_get_test_mode_status
 2376 0006 0400     		movs	r4, r0
 2377 0008 0520     		movs	r0, #5
 2378 000a 002C     		cmp	r4, #0
 2379 000c 02D1     		bne	.L419
 2380 000e FFF7FEFF 		bl	modem_leave
 2381 0012 2000     		movs	r0, r4
 2382              	.L419:
 2383              		@ sp needed
 2384 0014 10BD     		pop	{r4, pc}
 2386              		.section	.rodata.smtc_modem_suspend_radio_communications.str1.1,"aMS",%progbits,1
 2387              	.LC90:
 2388 0000 1B5B303B 		.ascii	"\033[0;31mERROR: %s call but suspend value is not v"
 2388      33316D45 
 2388      52524F52 
 2388      3A202573 
 2388      2063616C 
 2389 0030 616C6964 		.ascii	"alid\012\015\015\000"
 2389      0A0D0D00 
 2390              		.section	.text.smtc_modem_suspend_radio_communications,"ax",%progbits
 2391              		.align	1
 2392              		.global	smtc_modem_suspend_radio_communications
 2393              		.syntax unified
 2394              		.code	16
 2395              		.thumb_func
 2397              	smtc_modem_suspend_radio_communications:
 2398              		@ args = 0, pretend = 0, frame = 0
 2399              		@ frame_needed = 0, uses_anonymous_args = 0
 2400 0000 70B5     		push	{r4, r5, r6, lr}
 2401 0002 0500     		movs	r5, r0
 2402 0004 FFF7FEFF 		bl	modem_get_test_mode_status
 2403 0008 0523     		movs	r3, #5
 2404 000a 041E     		subs	r4, r0, #0
 2405 000c 0DD1     		bne	.L422
 2406 000e 2800     		movs	r0, r5
 2407 0010 FFF7FEFF 		bl	set_modem_suspend
 2408 0014 2300     		movs	r3, r4
 2409 0016 0028     		cmp	r0, #0
 2410 0018 07D1     		bne	.L422
 2411 001a 0549     		ldr	r1, .L425
 2412 001c 0548     		ldr	r0, .L425+4
 2413 001e FFF7FEFF 		bl	smtc_modem_hal_print_trace
 2414 0022 0548     		ldr	r0, .L425+8
 2415 0024 FFF7FEFF 		bl	smtc_modem_hal_print_trace
 2416 0028 0423     		movs	r3, #4
 2417              	.L422:
 2418              		@ sp needed
 2419 002a 1800     		movs	r0, r3
 2420 002c 70BD     		pop	{r4, r5, r6, pc}
ARM GAS  /tmp/cc3hQV0n.s 			page 43


 2421              	.L426:
 2422 002e C046     		.align	2
 2423              	.L425:
 2424 0030 00000000 		.word	__func__.4
 2425 0034 00000000 		.word	.LC90
 2426 0038 31000000 		.word	.LC3
 2428              		.section	.rodata.smtc_modem_get_next_tx_max_payload.str1.1,"aMS",%progbits,1
 2429              	.LC94:
 2430 0000 1B5B303B 		.ascii	"\033[0;31mERROR: %s call but the device is not join"
 2430      33316D45 
 2430      52524F52 
 2430      3A202573 
 2430      2063616C 
 2431 0030 0A0D0D00 		.ascii	"\012\015\015\000"
 2432              		.section	.text.smtc_modem_get_next_tx_max_payload,"ax",%progbits
 2433              		.align	1
 2434              		.global	smtc_modem_get_next_tx_max_payload
 2435              		.syntax unified
 2436              		.code	16
 2437              		.thumb_func
 2439              	smtc_modem_get_next_tx_max_payload:
 2440              		@ args = 0, pretend = 0, frame = 0
 2441              		@ frame_needed = 0, uses_anonymous_args = 0
 2442 0000 70B5     		push	{r4, r5, r6, lr}
 2443 0002 0C00     		movs	r4, r1
 2444 0004 FFF7FEFF 		bl	modem_get_test_mode_status
 2445 0008 0500     		movs	r5, r0
 2446 000a 0520     		movs	r0, #5
 2447 000c 002D     		cmp	r5, #0
 2448 000e 0AD1     		bne	.L428
 2449 0010 0138     		subs	r0, r0, #1
 2450 0012 002C     		cmp	r4, #0
 2451 0014 07D0     		beq	.L428
 2452 0016 FFF7FEFF 		bl	get_join_state
 2453 001a 0228     		cmp	r0, #2
 2454 001c 04D1     		bne	.L429
 2455 001e FFF7FEFF 		bl	lorawan_api_next_max_payload_length_get
 2456 0022 2070     		strb	r0, [r4]
 2457 0024 2800     		movs	r0, r5
 2458              	.L428:
 2459              		@ sp needed
 2460 0026 70BD     		pop	{r4, r5, r6, pc}
 2461              	.L429:
 2462 0028 0449     		ldr	r1, .L432
 2463 002a 0548     		ldr	r0, .L432+4
 2464 002c FFF7FEFF 		bl	smtc_modem_hal_print_trace
 2465 0030 0448     		ldr	r0, .L432+8
 2466 0032 FFF7FEFF 		bl	smtc_modem_hal_print_trace
 2467 0036 0620     		movs	r0, #6
 2468 0038 2570     		strb	r5, [r4]
 2469 003a F4E7     		b	.L428
 2470              	.L433:
 2471              		.align	2
 2472              	.L432:
 2473 003c 00000000 		.word	__func__.3
 2474 0040 00000000 		.word	.LC94
 2475 0044 31000000 		.word	.LC3
ARM GAS  /tmp/cc3hQV0n.s 			page 44


 2477              		.section	.text.smtc_modem_request_uplink,"ax",%progbits
 2478              		.align	1
 2479              		.global	smtc_modem_request_uplink
 2480              		.syntax unified
 2481              		.code	16
 2482              		.thumb_func
 2484              	smtc_modem_request_uplink:
 2485              		@ args = 4, pretend = 0, frame = 0
 2486              		@ frame_needed = 0, uses_anonymous_args = 0
 2487 0000 F7B5     		push	{r0, r1, r2, r4, r5, r6, r7, lr}
 2488 0002 1C00     		movs	r4, r3
 2489 0004 08AB     		add	r3, sp, #32
 2490 0006 1F78     		ldrb	r7, [r3]
 2491 0008 0D00     		movs	r5, r1
 2492 000a 1600     		movs	r6, r2
 2493 000c FFF7FEFF 		bl	modem_get_test_mode_status
 2494 0010 0300     		movs	r3, r0
 2495 0012 0520     		movs	r0, #5
 2496 0014 002B     		cmp	r3, #0
 2497 0016 09D1     		bne	.L435
 2498 0018 0138     		subs	r0, r0, #1
 2499 001a 002C     		cmp	r4, #0
 2500 001c 06D0     		beq	.L435
 2501 001e 0093     		str	r3, [sp]
 2502 0020 2200     		movs	r2, r4
 2503 0022 3B00     		movs	r3, r7
 2504 0024 3100     		movs	r1, r6
 2505 0026 2800     		movs	r0, r5
 2506 0028 FFF7FEFF 		bl	smtc_modem_send_tx.constprop.0
 2507              	.L435:
 2508              		@ sp needed
 2509 002c FEBD     		pop	{r1, r2, r3, r4, r5, r6, r7, pc}
 2511              		.section	.text.smtc_modem_request_extended_uplink,"ax",%progbits
 2512              		.align	1
 2513              		.global	smtc_modem_request_extended_uplink
 2514              		.syntax unified
 2515              		.code	16
 2516              		.thumb_func
 2518              	smtc_modem_request_extended_uplink:
 2519              		@ args = 12, pretend = 0, frame = 0
 2520              		@ frame_needed = 0, uses_anonymous_args = 0
 2521 0000 10B5     		push	{r4, lr}
 2522 0002 FFF7FEFF 		bl	modem_get_test_mode_status
 2523              		@ sp needed
 2524 0006 0430     		adds	r0, r0, #4
 2525 0008 C0B2     		uxtb	r0, r0
 2526 000a 10BD     		pop	{r4, pc}
 2528              		.section	.text.smtc_modem_abort_extended_uplink,"ax",%progbits
 2529              		.align	1
 2530              		.global	smtc_modem_abort_extended_uplink
 2531              		.syntax unified
 2532              		.code	16
 2533              		.thumb_func
 2535              	smtc_modem_abort_extended_uplink:
 2536              		@ args = 0, pretend = 0, frame = 0
 2537              		@ frame_needed = 0, uses_anonymous_args = 0
 2538 0000 10B5     		push	{r4, lr}
ARM GAS  /tmp/cc3hQV0n.s 			page 45


 2539 0002 FFF7FEFF 		bl	modem_get_test_mode_status
 2540              		@ sp needed
 2541 0006 0430     		adds	r0, r0, #4
 2542 0008 C0B2     		uxtb	r0, r0
 2543 000a 10BD     		pop	{r4, pc}
 2545              		.section	.text.smtc_modem_request_emergency_uplink,"ax",%progbits
 2546              		.align	1
 2547              		.global	smtc_modem_request_emergency_uplink
 2548              		.syntax unified
 2549              		.code	16
 2550              		.thumb_func
 2552              	smtc_modem_request_emergency_uplink:
 2553              		@ args = 4, pretend = 0, frame = 0
 2554              		@ frame_needed = 0, uses_anonymous_args = 0
 2555 0000 F7B5     		push	{r0, r1, r2, r4, r5, r6, r7, lr}
 2556 0002 1C00     		movs	r4, r3
 2557 0004 08AB     		add	r3, sp, #32
 2558 0006 1F78     		ldrb	r7, [r3]
 2559 0008 0D00     		movs	r5, r1
 2560 000a 1600     		movs	r6, r2
 2561 000c FFF7FEFF 		bl	modem_get_test_mode_status
 2562 0010 0300     		movs	r3, r0
 2563 0012 0520     		movs	r0, #5
 2564 0014 002B     		cmp	r3, #0
 2565 0016 0AD1     		bne	.L441
 2566 0018 0138     		subs	r0, r0, #1
 2567 001a 002C     		cmp	r4, #0
 2568 001c 07D0     		beq	.L441
 2569 001e 0133     		adds	r3, r3, #1
 2570 0020 0093     		str	r3, [sp]
 2571 0022 2200     		movs	r2, r4
 2572 0024 3B00     		movs	r3, r7
 2573 0026 3100     		movs	r1, r6
 2574 0028 2800     		movs	r0, r5
 2575 002a FFF7FEFF 		bl	smtc_modem_send_tx.constprop.0
 2576              	.L441:
 2577              		@ sp needed
 2578 002e FEBD     		pop	{r1, r2, r3, r4, r5, r6, r7, pc}
 2580              		.section	.text.smtc_modem_request_empty_uplink,"ax",%progbits
 2581              		.align	1
 2582              		.global	smtc_modem_request_empty_uplink
 2583              		.syntax unified
 2584              		.code	16
 2585              		.thumb_func
 2587              	smtc_modem_request_empty_uplink:
 2588              		@ args = 0, pretend = 0, frame = 24
 2589              		@ frame_needed = 0, uses_anonymous_args = 0
 2590 0000 F0B5     		push	{r4, r5, r6, r7, lr}
 2591 0002 87B0     		sub	sp, sp, #28
 2592 0004 1F00     		movs	r7, r3
 2593 0006 0E00     		movs	r6, r1
 2594 0008 1500     		movs	r5, r2
 2595 000a FFF7FEFF 		bl	modem_get_test_mode_status
 2596 000e 0300     		movs	r3, r0
 2597 0010 0520     		movs	r0, #5
 2598 0012 002B     		cmp	r3, #0
 2599 0014 04D1     		bne	.L445
ARM GAS  /tmp/cc3hQV0n.s 			page 46


 2600 0016 FFF7FEFF 		bl	is_modem_connected
 2601 001a 0028     		cmp	r0, #0
 2602 001c 02D1     		bne	.L446
 2603              	.L452:
 2604 001e 0620     		movs	r0, #6
 2605              	.L445:
 2606 0020 07B0     		add	sp, sp, #28
 2607              		@ sp needed
 2608 0022 F0BD     		pop	{r4, r5, r6, r7, pc}
 2609              	.L446:
 2610 0024 002E     		cmp	r6, #0
 2611 0026 16D0     		beq	.L448
 2612 0028 6B1E     		subs	r3, r5, #1
 2613 002a DBB2     		uxtb	r3, r3
 2614 002c DE2B     		cmp	r3, #222
 2615 002e 0DD8     		bhi	.L449
 2616              	.L451:
 2617 0030 FFF7FEFF 		bl	get_modem_dm_port
 2618 0034 8542     		cmp	r5, r0
 2619 0036 0ED1     		bne	.L448
 2620              	.L450:
 2621 0038 2A00     		movs	r2, r5
 2622 003a 1049     		ldr	r1, .L457
 2623 003c 1048     		ldr	r0, .L457+4
 2624 003e FFF7FEFF 		bl	smtc_modem_hal_print_trace
 2625 0042 1048     		ldr	r0, .L457+8
 2626 0044 FFF7FEFF 		bl	smtc_modem_hal_print_trace
 2627 0048 0420     		movs	r0, #4
 2628 004a E9E7     		b	.L445
 2629              	.L449:
 2630 004c FFF7FEFF 		bl	lorawan_api_modem_certification_is_enabled
 2631 0050 0028     		cmp	r0, #0
 2632 0052 EDD1     		bne	.L451
 2633 0054 F0E7     		b	.L450
 2634              	.L448:
 2635 0056 0123     		movs	r3, #1
 2636 0058 01AC     		add	r4, sp, #4
 2637 005a 2372     		strb	r3, [r4, #8]
 2638 005c 0023     		movs	r3, #0
 2639 005e 6572     		strb	r5, [r4, #9]
 2640 0060 2370     		strb	r3, [r4]
 2641 0062 A672     		strb	r6, [r4, #10]
 2642 0064 6774     		strb	r7, [r4, #17]
 2643 0066 2374     		strb	r3, [r4, #16]
 2644 0068 FFF7FEFF 		bl	smtc_modem_hal_get_time_in_s
 2645 006c 0290     		str	r0, [sp, #8]
 2646 006e 2000     		movs	r0, r4
 2647 0070 FFF7FEFF 		bl	modem_supervisor_add_task
 2648 0074 0028     		cmp	r0, #0
 2649 0076 D3D0     		beq	.L445
 2650 0078 D1E7     		b	.L452
 2651              	.L458:
 2652 007a C046     		.align	2
 2653              	.L457:
 2654 007c 00000000 		.word	__func__.1
 2655 0080 00000000 		.word	.LC15
 2656 0084 31000000 		.word	.LC3
ARM GAS  /tmp/cc3hQV0n.s 			page 47


 2658              		.section	.rodata.smtc_modem_file_upload_init.str1.1,"aMS",%progbits,1
 2659              	.LC100:
 2660 0000 1B5B303B 		.ascii	"\033[0;31mERROR: Upload initialization fails: size "
 2660      33316D45 
 2660      52524F52 
 2660      3A205570 
 2660      6C6F6164 
 2661 0030 3D203020 		.ascii	"= 0 is not allowed\012\015\015\000"
 2661      6973206E 
 2661      6F742061 
 2661      6C6C6F77 
 2661      65640A0D 
 2662              	.LC103:
 2663 0046 1B5B303B 		.ascii	"\033[0;31mERROR: File Upload still in going\012\015"
 2663      33316D45 
 2663      52524F52 
 2663      3A204669 
 2663      6C652055 
 2664 0070 0D00     		.ascii	"\015\000"
 2665              	.LC105:
 2666 0072 1B5B303B 		.ascii	"\033[0;31mERROR: Upload file data is null\012\015\015"
 2666      33316D45 
 2666      52524F52 
 2666      3A205570 
 2666      6C6F6164 
 2667 009b 00       		.ascii	"\000"
 2668              	.LC108:
 2669 009c 1B5B303B 		.ascii	"\033[0;31mERROR: Upload initialization fails\012\015"
 2669      33316D45 
 2669      52524F52 
 2669      3A205570 
 2669      6C6F6164 
 2670 00c7 0D00     		.ascii	"\015\000"
 2671              	.LC111:
 2672 00c9 25732C20 		.ascii	"%s, cipher_mode: %d, size:%d, average_delay:%d, ses"
 2672      63697068 
 2672      65725F6D 
 2672      6F64653A 
 2672      2025642C 
 2673 00fc 73696F6E 		.ascii	"sion counter:%d\000"
 2673      20636F75 
 2673      6E746572 
 2673      3A256400 
 2674              		.section	.text.smtc_modem_file_upload_init,"ax",%progbits
 2675              		.align	1
 2676              		.global	smtc_modem_file_upload_init
 2677              		.syntax unified
 2678              		.code	16
 2679              		.thumb_func
 2681              	smtc_modem_file_upload_init:
 2682              		@ args = 8, pretend = 0, frame = 16
 2683              		@ frame_needed = 0, uses_anonymous_args = 0
 2684 0000 F0B5     		push	{r4, r5, r6, r7, lr}
 2685 0002 89B0     		sub	sp, sp, #36
 2686 0004 0593     		str	r3, [sp, #20]
 2687 0006 0EAB     		add	r3, sp, #56
 2688 0008 1400     		movs	r4, r2
ARM GAS  /tmp/cc3hQV0n.s 			page 48


 2689 000a 1E88     		ldrh	r6, [r3]
 2690 000c 0791     		str	r1, [sp, #28]
 2691 000e FFF7FEFF 		bl	modem_get_test_mode_status
 2692 0012 051E     		subs	r5, r0, #0
 2693 0014 12D1     		bne	.L460
 2694 0016 2348     		ldr	r0, .L473
 2695 0018 002E     		cmp	r6, #0
 2696 001a 19D0     		beq	.L472
 2697 001c 012C     		cmp	r4, #1
 2698 001e 03D9     		bls	.L463
 2699              	.L462:
 2700 0020 0425     		movs	r5, #4
 2701              	.L464:
 2702 0022 2800     		movs	r0, r5
 2703 0024 09B0     		add	sp, sp, #36
 2704              		@ sp needed
 2705 0026 F0BD     		pop	{r4, r5, r6, r7, pc}
 2706              	.L463:
 2707 0028 FFF7FEFF 		bl	modem_get_upload_state
 2708 002c 0128     		cmp	r0, #1
 2709 002e 07D1     		bne	.L465
 2710              	.L466:
 2711 0030 1D48     		ldr	r0, .L473+4
 2712 0032 FFF7FEFF 		bl	smtc_modem_hal_print_trace
 2713 0036 1D48     		ldr	r0, .L473+8
 2714 0038 FFF7FEFF 		bl	smtc_modem_hal_print_trace
 2715              	.L460:
 2716 003c 0525     		movs	r5, #5
 2717 003e F0E7     		b	.L464
 2718              	.L465:
 2719 0040 FFF7FEFF 		bl	modem_get_upload_state
 2720 0044 0228     		cmp	r0, #2
 2721 0046 F3D0     		beq	.L466
 2722 0048 059B     		ldr	r3, [sp, #20]
 2723 004a 002B     		cmp	r3, #0
 2724 004c 06D1     		bne	.L467
 2725 004e 1848     		ldr	r0, .L473+12
 2726              	.L472:
 2727 0050 FFF7FEFF 		bl	smtc_modem_hal_print_trace
 2728 0054 1548     		ldr	r0, .L473+8
 2729 0056 FFF7FEFF 		bl	smtc_modem_hal_print_trace
 2730 005a E1E7     		b	.L462
 2731              	.L467:
 2732 005c FFF7FEFF 		bl	modem_context_compute_and_get_next_dm_upload_sctr
 2733 0060 144A     		ldr	r2, .L473+16
 2734 0062 0F9B     		ldr	r3, [sp, #60]
 2735 0064 0692     		str	r2, [sp, #24]
 2736 0066 079A     		ldr	r2, [sp, #28]
 2737 0068 2900     		movs	r1, r5
 2738 006a 0290     		str	r0, [sp, #8]
 2739 006c 0092     		str	r2, [sp]
 2740 006e 0700     		movs	r7, r0
 2741 0070 3200     		movs	r2, r6
 2742 0072 0698     		ldr	r0, [sp, #24]
 2743 0074 9BB2     		uxth	r3, r3
 2744 0076 0194     		str	r4, [sp, #4]
 2745 0078 FFF7FEFF 		bl	file_upload_init
ARM GAS  /tmp/cc3hQV0n.s 			page 49


 2746 007c 051E     		subs	r5, r0, #0
 2747 007e 0E48     		ldr	r0, .L473+20
 2748 0080 E6D1     		bne	.L472
 2749 0082 0F9B     		ldr	r3, [sp, #60]
 2750 0084 2200     		movs	r2, r4
 2751 0086 0093     		str	r3, [sp]
 2752 0088 0C49     		ldr	r1, .L473+24
 2753 008a 3300     		movs	r3, r6
 2754 008c 0C48     		ldr	r0, .L473+28
 2755 008e 0197     		str	r7, [sp, #4]
 2756 0090 FFF7FEFF 		bl	smtc_modem_hal_print_trace
 2757 0094 0698     		ldr	r0, [sp, #24]
 2758 0096 0599     		ldr	r1, [sp, #20]
 2759 0098 FFF7FEFF 		bl	file_upload_attach_file_buffer
 2760 009c 0120     		movs	r0, #1
 2761 009e FFF7FEFF 		bl	modem_set_upload_state
 2762 00a2 BEE7     		b	.L464
 2763              	.L474:
 2764              		.align	2
 2765              	.L473:
 2766 00a4 00000000 		.word	.LC100
 2767 00a8 46000000 		.word	.LC103
 2768 00ac 31000000 		.word	.LC3
 2769 00b0 72000000 		.word	.LC105
 2770 00b4 A8040000 		.word	smtc_modem_services_ctx+1192
 2771 00b8 9C000000 		.word	.LC108
 2772 00bc 00000000 		.word	__func__.0
 2773 00c0 C9000000 		.word	.LC111
 2775              		.section	.rodata.smtc_modem_file_upload_start.str1.1,"aMS",%progbits,1
 2776              	.LC113:
 2777 0000 1B5B303B 		.ascii	"\033[0;31mERROR: FileUpload still in progress..\012"
 2777      33316D45 
 2777      52524F52 
 2777      3A204669 
 2777      6C655570 
 2778 002d 0D0D00   		.ascii	"\015\015\000"
 2779              	.LC116:
 2780 0030 1B5B303B 		.ascii	"\033[0;31mERROR: File upload session not initialize"
 2780      33316D45 
 2780      52524F52 
 2780      3A204669 
 2780      6C652075 
 2781 0060 640A0D0D 		.ascii	"d\012\015\015\000"
 2781      00
 2782              		.section	.text.smtc_modem_file_upload_start,"ax",%progbits
 2783              		.align	1
 2784              		.global	smtc_modem_file_upload_start
 2785              		.syntax unified
 2786              		.code	16
 2787              		.thumb_func
 2789              	smtc_modem_file_upload_start:
 2790              		@ args = 0, pretend = 0, frame = 0
 2791              		@ frame_needed = 0, uses_anonymous_args = 0
 2792 0000 70B5     		push	{r4, r5, r6, lr}
 2793 0002 FFF7FEFF 		bl	modem_get_test_mode_status
 2794 0006 041E     		subs	r4, r0, #0
 2795 0008 0ED1     		bne	.L476
ARM GAS  /tmp/cc3hQV0n.s 			page 50


 2796 000a FFF7FEFF 		bl	is_modem_connected
 2797 000e 0623     		movs	r3, #6
 2798 0010 0028     		cmp	r0, #0
 2799 0012 0AD0     		beq	.L477
 2800 0014 FFF7FEFF 		bl	modem_get_upload_state
 2801 0018 0228     		cmp	r0, #2
 2802 001a 08D1     		bne	.L478
 2803 001c 1348     		ldr	r0, .L481
 2804 001e FFF7FEFF 		bl	smtc_modem_hal_print_trace
 2805 0022 1348     		ldr	r0, .L481+4
 2806 0024 FFF7FEFF 		bl	smtc_modem_hal_print_trace
 2807              	.L476:
 2808 0028 0523     		movs	r3, #5
 2809              	.L477:
 2810              		@ sp needed
 2811 002a 1800     		movs	r0, r3
 2812 002c 70BD     		pop	{r4, r5, r6, pc}
 2813              	.L478:
 2814 002e FFF7FEFF 		bl	modem_get_upload_state
 2815 0032 0500     		movs	r5, r0
 2816 0034 0128     		cmp	r0, #1
 2817 0036 07D0     		beq	.L479
 2818 0038 0E48     		ldr	r0, .L481+8
 2819 003a FFF7FEFF 		bl	smtc_modem_hal_print_trace
 2820 003e 0C48     		ldr	r0, .L481+4
 2821 0040 FFF7FEFF 		bl	smtc_modem_hal_print_trace
 2822 0044 0323     		movs	r3, #3
 2823 0046 F0E7     		b	.L477
 2824              	.L479:
 2825 0048 0B48     		ldr	r0, .L481+12
 2826 004a FFF7FEFF 		bl	file_upload_prepare_upload
 2827 004e 0221     		movs	r1, #2
 2828 0050 2000     		movs	r0, r4
 2829 0052 FFF7FEFF 		bl	smtc_modem_hal_get_random_nb_in_range
 2830 0056 FFF7FEFF 		bl	modem_supervisor_add_task_file_upload
 2831 005a 0220     		movs	r0, #2
 2832 005c FFF7FEFF 		bl	modem_set_upload_state
 2833 0060 2800     		movs	r0, r5
 2834 0062 FFF7FEFF 		bl	set_modem_status_file_upload
 2835 0066 2300     		movs	r3, r4
 2836 0068 DFE7     		b	.L477
 2837              	.L482:
 2838 006a C046     		.align	2
 2839              	.L481:
 2840 006c 00000000 		.word	.LC113
 2841 0070 31000000 		.word	.LC3
 2842 0074 30000000 		.word	.LC116
 2843 0078 A8040000 		.word	smtc_modem_services_ctx+1192
 2845              		.section	.rodata.smtc_modem_file_upload_reset.str1.1,"aMS",%progbits,1
 2846              	.LC119:
 2847 0000 1B5B303B 		.ascii	"\033[0;31mERROR: No file upload session is on going"
 2847      33316D45 
 2847      52524F52 
 2847      3A204E6F 
 2847      2066696C 
 2848 0030 0A0D0D00 		.ascii	"\012\015\015\000"
 2849              	.LC122:
ARM GAS  /tmp/cc3hQV0n.s 			page 51


 2850 0034 1B5B303B 		.ascii	"\033[0;33mWARN: File Upload Cancel and session rese"
 2850      33336D57 
 2850      41524E3A 
 2850      2046696C 
 2850      65205570 
 2851 0064 74210A0D 		.ascii	"t!\012\015\015\000"
 2851      0D00
 2852              		.section	.text.smtc_modem_file_upload_reset,"ax",%progbits
 2853              		.align	1
 2854              		.global	smtc_modem_file_upload_reset
 2855              		.syntax unified
 2856              		.code	16
 2857              		.thumb_func
 2859              	smtc_modem_file_upload_reset:
 2860              		@ args = 0, pretend = 0, frame = 0
 2861              		@ frame_needed = 0, uses_anonymous_args = 0
 2862 0000 70B5     		push	{r4, r5, r6, lr}
 2863 0002 FFF7FEFF 		bl	modem_get_test_mode_status
 2864 0006 0400     		movs	r4, r0
 2865 0008 0520     		movs	r0, #5
 2866 000a 002C     		cmp	r4, #0
 2867 000c 0BD1     		bne	.L484
 2868 000e FFF7FEFF 		bl	modem_get_upload_state
 2869 0012 0E4D     		ldr	r5, .L491
 2870 0014 0028     		cmp	r0, #0
 2871 0016 07D1     		bne	.L485
 2872              	.L486:
 2873 0018 0D48     		ldr	r0, .L491+4
 2874 001a FFF7FEFF 		bl	smtc_modem_hal_print_trace
 2875 001e 2800     		movs	r0, r5
 2876 0020 FFF7FEFF 		bl	smtc_modem_hal_print_trace
 2877 0024 0320     		movs	r0, #3
 2878              	.L484:
 2879              		@ sp needed
 2880 0026 70BD     		pop	{r4, r5, r6, pc}
 2881              	.L485:
 2882 0028 FFF7FEFF 		bl	modem_get_upload_state
 2883 002c 0328     		cmp	r0, #3
 2884 002e F3D0     		beq	.L486
 2885 0030 0848     		ldr	r0, .L491+8
 2886 0032 FFF7FEFF 		bl	smtc_modem_hal_print_trace
 2887 0036 2800     		movs	r0, r5
 2888 0038 FFF7FEFF 		bl	smtc_modem_hal_print_trace
 2889 003c 2000     		movs	r0, r4
 2890 003e FFF7FEFF 		bl	modem_set_upload_state
 2891 0042 2000     		movs	r0, r4
 2892 0044 FFF7FEFF 		bl	set_modem_status_file_upload
 2893 0048 2000     		movs	r0, r4
 2894 004a ECE7     		b	.L484
 2895              	.L492:
 2896              		.align	2
 2897              	.L491:
 2898 004c 31000000 		.word	.LC3
 2899 0050 00000000 		.word	.LC119
 2900 0054 34000000 		.word	.LC122
 2902              		.section	.rodata.smtc_modem_stream_init.str1.1,"aMS",%progbits,1
 2903              	.LC124:
ARM GAS  /tmp/cc3hQV0n.s 			page 52


 2904 0000 1B5B303B 		.ascii	"\033[0;31mERROR: STREAM_INIT fport invalid\012\015\015"
 2904      33316D45 
 2904      52524F52 
 2904      3A205354 
 2904      5245414D 
 2905 002a 00       		.ascii	"\000"
 2906              	.LC127:
 2907 002b 1B5B303B 		.ascii	"\033[0;31mERROR: STREAM_INIT encryption mode invali"
 2907      33316D45 
 2907      52524F52 
 2907      3A205354 
 2907      5245414D 
 2908 005b 640A0D0D 		.ascii	"d\012\015\015\000"
 2908      00
 2909              	.LC129:
 2910 0060 53545245 		.ascii	"STREAM_INIT Using default DM port\012\015\015\000"
 2910      414D5F49 
 2910      4E495420 
 2910      5573696E 
 2910      67206465 
 2911              	.LC131:
 2912 0085 25732573 		.ascii	"%s%s\000"
 2912      00
 2913              	.LC134:
 2914 008a 1B5B303B 		.ascii	"\033[0;31mERROR: STREAM_INIT FAILED\012\015\015\000"
 2914      33316D45 
 2914      52524F52 
 2914      3A205354 
 2914      5245414D 
 2915              	.LC136:
 2916 00ae 1B5B303B 		.ascii	"\033[0;31mERROR: STREAM_INIT ENCRYPTION FAILED\012\015"
 2916      33316D45 
 2916      52524F52 
 2916      3A205354 
 2916      5245414D 
 2917 00db 0D00     		.ascii	"\015\000"
 2918              		.section	.text.smtc_modem_stream_init,"ax",%progbits
 2919              		.align	1
 2920              		.global	smtc_modem_stream_init
 2921              		.syntax unified
 2922              		.code	16
 2923              		.thumb_func
 2925              	smtc_modem_stream_init:
 2926              		@ args = 0, pretend = 0, frame = 8
 2927              		@ frame_needed = 0, uses_anonymous_args = 0
 2928 0000 F7B5     		push	{r0, r1, r2, r4, r5, r6, r7, lr}
 2929 0002 0C00     		movs	r4, r1
 2930 0004 1600     		movs	r6, r2
 2931 0006 0193     		str	r3, [sp, #4]
 2932 0008 FFF7FEFF 		bl	modem_get_test_mode_status
 2933 000c 0525     		movs	r5, #5
 2934 000e 0028     		cmp	r0, #0
 2935 0010 0BD1     		bne	.L494
 2936 0012 2248     		ldr	r0, .L508
 2937 0014 DF2C     		cmp	r4, #223
 2938 0016 02D8     		bhi	.L506
 2939 0018 012E     		cmp	r6, #1
ARM GAS  /tmp/cc3hQV0n.s 			page 53


 2940 001a 08D9     		bls	.L497
 2941 001c 2048     		ldr	r0, .L508+4
 2942              	.L506:
 2943 001e FFF7FEFF 		bl	smtc_modem_hal_print_trace
 2944 0022 2048     		ldr	r0, .L508+8
 2945 0024 FFF7FEFF 		bl	smtc_modem_hal_print_trace
 2946 0028 0425     		movs	r5, #4
 2947              	.L494:
 2948              		@ sp needed
 2949 002a 2800     		movs	r0, r5
 2950 002c FEBD     		pop	{r1, r2, r3, r4, r5, r6, r7, pc}
 2951              	.L497:
 2952 002e 002C     		cmp	r4, #0
 2953 0030 07D1     		bne	.L498
 2954 0032 1D4A     		ldr	r2, .L508+12
 2955 0034 1B49     		ldr	r1, .L508+8
 2956 0036 1D48     		ldr	r0, .L508+16
 2957 0038 FFF7FEFF 		bl	smtc_modem_hal_print_trace
 2958 003c FFF7FEFF 		bl	get_modem_dm_port
 2959 0040 0400     		movs	r4, r0
 2960              	.L498:
 2961 0042 1B4F     		ldr	r7, .L508+20
 2962 0044 3800     		movs	r0, r7
 2963 0046 FFF7FEFF 		bl	stream_reset
 2964 004a 3800     		movs	r0, r7
 2965 004c FFF7FEFF 		bl	stream_init
 2966 0050 051E     		subs	r5, r0, #0
 2967 0052 1848     		ldr	r0, .L508+24
 2968 0054 07D1     		bne	.L507
 2969 0056 012E     		cmp	r6, #1
 2970 0058 0CD1     		bne	.L501
 2971 005a 3800     		movs	r0, r7
 2972 005c FFF7FEFF 		bl	stream_enable_encryption
 2973 0060 0028     		cmp	r0, #0
 2974 0062 07D0     		beq	.L501
 2975 0064 1448     		ldr	r0, .L508+28
 2976              	.L507:
 2977 0066 FFF7FEFF 		bl	smtc_modem_hal_print_trace
 2978 006a 0E48     		ldr	r0, .L508+8
 2979 006c FFF7FEFF 		bl	smtc_modem_hal_print_trace
 2980 0070 0625     		movs	r5, #6
 2981 0072 DAE7     		b	.L494
 2982              	.L501:
 2983 0074 0820     		movs	r0, #8
 2984 0076 FFF7FEFF 		bl	modem_supervisor_remove_task
 2985 007a 2000     		movs	r0, r4
 2986 007c FFF7FEFF 		bl	modem_set_stream_port
 2987 0080 3800     		movs	r0, r7
 2988 0082 0199     		ldr	r1, [sp, #4]
 2989 0084 FFF7FEFF 		bl	stream_set_rr
 2990 0088 0124     		movs	r4, #1
 2991 008a 3000     		movs	r0, r6
 2992 008c 2040     		ands	r0, r4
 2993 008e FFF7FEFF 		bl	modem_set_stream_encryption
 2994 0092 2000     		movs	r0, r4
 2995 0094 FFF7FEFF 		bl	modem_set_stream_state
 2996 0098 C7E7     		b	.L494
ARM GAS  /tmp/cc3hQV0n.s 			page 54


 2997              	.L509:
 2998 009a C046     		.align	2
 2999              	.L508:
 3000 009c 00000000 		.word	.LC124
 3001 00a0 2B000000 		.word	.LC127
 3002 00a4 31000000 		.word	.LC3
 3003 00a8 60000000 		.word	.LC129
 3004 00ac 85000000 		.word	.LC131
 3005 00b0 54000000 		.word	smtc_modem_services_ctx+84
 3006 00b4 8A000000 		.word	.LC134
 3007 00b8 AE000000 		.word	.LC136
 3009              		.section	.rodata.smtc_modem_stream_add_data.str1.1,"aMS",%progbits,1
 3010              	.LC138:
 3011 0000 1B5B303B 		.ascii	"\033[0;31mERROR: Stream implicit init failed\012\015"
 3011      33316D45 
 3011      52524F52 
 3011      3A205374 
 3011      7265616D 
 3012 002b 0D00     		.ascii	"\015\000"
 3013              	.LC142:
 3014 002d 1B5B303B 		.ascii	"\033[0;31mERROR: STREAM ADD DATA: Invalid length\012"
 3014      33316D45 
 3014      52524F52 
 3014      3A205354 
 3014      5245414D 
 3015 005b 0D0D00   		.ascii	"\015\015\000"
 3016              	.LC144:
 3017 005e 1B5B303B 		.ascii	"\033[0;31mERROR: STREAM ADD DATA: Buffer is full\012"
 3017      33316D45 
 3017      52524F52 
 3017      3A205354 
 3017      5245414D 
 3018 008c 0D0D00   		.ascii	"\015\015\000"
 3019              	.LC146:
 3020 008f 1B5B303B 		.ascii	"\033[0;31mERROR: STREAM ADD DATA: No data record pr"
 3020      33316D45 
 3020      52524F52 
 3020      3A205354 
 3020      5245414D 
 3021 00bf 6F766964 		.ascii	"ovided\012\015\015\000"
 3021      65640A0D 
 3021      0D00
 3022              	.LC148:
 3023 00c9 1B5B303B 		.ascii	"\033[0;32mINFO: STREAM_SEND [OK]\012\015\015\000"
 3023      33326D49 
 3023      4E464F3A 
 3023      20535452 
 3023      45414D5F 
 3024              		.section	.text.smtc_modem_stream_add_data,"ax",%progbits
 3025              		.align	1
 3026              		.global	smtc_modem_stream_add_data
 3027              		.syntax unified
 3028              		.code	16
 3029              		.thumb_func
 3031              	smtc_modem_stream_add_data:
 3032              		@ args = 0, pretend = 0, frame = 8
 3033              		@ frame_needed = 0, uses_anonymous_args = 0
ARM GAS  /tmp/cc3hQV0n.s 			page 55


 3034 0000 F7B5     		push	{r0, r1, r2, r4, r5, r6, r7, lr}
 3035 0002 0700     		movs	r7, r0
 3036 0004 0D00     		movs	r5, r1
 3037 0006 0192     		str	r2, [sp, #4]
 3038 0008 FFF7FEFF 		bl	modem_get_test_mode_status
 3039 000c 0028     		cmp	r0, #0
 3040 000e 35D1     		bne	.L511
 3041 0010 002D     		cmp	r5, #0
 3042 0012 2BD0     		beq	.L512
 3043 0014 FFF7FEFF 		bl	is_modem_connected
 3044 0018 0028     		cmp	r0, #0
 3045 001a 37D0     		beq	.L513
 3046 001c FFF7FEFF 		bl	modem_get_stream_state
 3047 0020 204C     		ldr	r4, .L528
 3048 0022 061E     		subs	r6, r0, #0
 3049 0024 11D1     		bne	.L514
 3050 0026 FFF7FEFF 		bl	get_modem_dm_port
 3051 002a 3200     		movs	r2, r6
 3052 002c 0100     		movs	r1, r0
 3053 002e 6E23     		movs	r3, #110
 3054 0030 3800     		movs	r0, r7
 3055 0032 FFF7FEFF 		bl	smtc_modem_stream_init
 3056 0036 061E     		subs	r6, r0, #0
 3057 0038 07D0     		beq	.L514
 3058 003a 1B48     		ldr	r0, .L528+4
 3059 003c FFF7FEFF 		bl	smtc_modem_hal_print_trace
 3060 0040 2000     		movs	r0, r4
 3061 0042 FFF7FEFF 		bl	smtc_modem_hal_print_trace
 3062              	.L515:
 3063              		@ sp needed
 3064 0046 3000     		movs	r0, r6
 3065 0048 FEBD     		pop	{r1, r2, r3, r4, r5, r6, r7, pc}
 3066              	.L514:
 3067 004a 2900     		movs	r1, r5
 3068 004c 1748     		ldr	r0, .L528+8
 3069 004e 019A     		ldr	r2, [sp, #4]
 3070 0050 FFF7FEFF 		bl	stream_add_data
 3071 0054 0328     		cmp	r0, #3
 3072 0056 0BD0     		beq	.L516
 3073 0058 0428     		cmp	r0, #4
 3074 005a 11D0     		beq	.L517
 3075 005c 0128     		cmp	r0, #1
 3076 005e 17D1     		bne	.L518
 3077 0060 1348     		ldr	r0, .L528+12
 3078 0062 FFF7FEFF 		bl	smtc_modem_hal_print_trace
 3079 0066 2000     		movs	r0, r4
 3080 0068 FFF7FEFF 		bl	smtc_modem_hal_print_trace
 3081              	.L512:
 3082 006c 0426     		movs	r6, #4
 3083 006e EAE7     		b	.L515
 3084              	.L516:
 3085 0070 1048     		ldr	r0, .L528+16
 3086 0072 FFF7FEFF 		bl	smtc_modem_hal_print_trace
 3087 0076 2000     		movs	r0, r4
 3088 0078 FFF7FEFF 		bl	smtc_modem_hal_print_trace
 3089              	.L511:
 3090 007c 0526     		movs	r6, #5
ARM GAS  /tmp/cc3hQV0n.s 			page 56


 3091 007e E2E7     		b	.L515
 3092              	.L517:
 3093 0080 0D48     		ldr	r0, .L528+20
 3094 0082 FFF7FEFF 		bl	smtc_modem_hal_print_trace
 3095 0086 2000     		movs	r0, r4
 3096 0088 FFF7FEFF 		bl	smtc_modem_hal_print_trace
 3097              	.L513:
 3098 008c 0626     		movs	r6, #6
 3099 008e DAE7     		b	.L515
 3100              	.L518:
 3101 0090 FFF7FEFF 		bl	modem_supervisor_add_task_stream
 3102 0094 0948     		ldr	r0, .L528+24
 3103 0096 FFF7FEFF 		bl	smtc_modem_hal_print_trace
 3104 009a 2000     		movs	r0, r4
 3105 009c FFF7FEFF 		bl	smtc_modem_hal_print_trace
 3106 00a0 0026     		movs	r6, #0
 3107 00a2 D0E7     		b	.L515
 3108              	.L529:
 3109              		.align	2
 3110              	.L528:
 3111 00a4 31000000 		.word	.LC3
 3112 00a8 00000000 		.word	.LC138
 3113 00ac 54000000 		.word	smtc_modem_services_ctx+84
 3114 00b0 2D000000 		.word	.LC142
 3115 00b4 5E000000 		.word	.LC144
 3116 00b8 8F000000 		.word	.LC146
 3117 00bc C9000000 		.word	.LC148
 3119              		.section	.text.smtc_modem_stream_status,"ax",%progbits
 3120              		.align	1
 3121              		.global	smtc_modem_stream_status
 3122              		.syntax unified
 3123              		.code	16
 3124              		.thumb_func
 3126              	smtc_modem_stream_status:
 3127              		@ args = 0, pretend = 0, frame = 0
 3128              		@ frame_needed = 0, uses_anonymous_args = 0
 3129 0000 70B5     		push	{r4, r5, r6, lr}
 3130 0002 0D00     		movs	r5, r1
 3131 0004 1600     		movs	r6, r2
 3132 0006 FFF7FEFF 		bl	modem_get_test_mode_status
 3133 000a 0523     		movs	r3, #5
 3134 000c 041E     		subs	r4, r0, #0
 3135 000e 0FD1     		bne	.L531
 3136 0010 013B     		subs	r3, r3, #1
 3137 0012 002D     		cmp	r5, #0
 3138 0014 0CD0     		beq	.L531
 3139 0016 002E     		cmp	r6, #0
 3140 0018 0AD0     		beq	.L531
 3141 001a FFF7FEFF 		bl	modem_get_stream_state
 3142 001e 0323     		movs	r3, #3
 3143 0020 0028     		cmp	r0, #0
 3144 0022 05D0     		beq	.L531
 3145 0024 3200     		movs	r2, r6
 3146 0026 2900     		movs	r1, r5
 3147 0028 0248     		ldr	r0, .L536
 3148 002a FFF7FEFF 		bl	stream_status
 3149 002e 2300     		movs	r3, r4
ARM GAS  /tmp/cc3hQV0n.s 			page 57


 3150              	.L531:
 3151              		@ sp needed
 3152 0030 1800     		movs	r0, r3
 3153 0032 70BD     		pop	{r4, r5, r6, pc}
 3154              	.L537:
 3155              		.align	2
 3156              	.L536:
 3157 0034 54000000 		.word	smtc_modem_services_ctx+84
 3159              		.section	.text.smtc_modem_set_certification_mode,"ax",%progbits
 3160              		.align	1
 3161              		.global	smtc_modem_set_certification_mode
 3162              		.syntax unified
 3163              		.code	16
 3164              		.thumb_func
 3166              	smtc_modem_set_certification_mode:
 3167              		@ args = 0, pretend = 0, frame = 0
 3168              		@ frame_needed = 0, uses_anonymous_args = 0
 3169 0000 10B5     		push	{r4, lr}
 3170 0002 0C00     		movs	r4, r1
 3171 0004 FFF7FEFF 		bl	modem_get_test_mode_status
 3172 0008 0523     		movs	r3, #5
 3173 000a 0028     		cmp	r0, #0
 3174 000c 07D1     		bne	.L539
 3175 000e 2000     		movs	r0, r4
 3176 0010 FFF7FEFF 		bl	lorawan_api_modem_certification_set
 3177 0014 FFF7FEFF 		bl	smtc_secure_element_store_context
 3178 0018 002C     		cmp	r4, #0
 3179 001a 02D0     		beq	.L540
 3180              	.L541:
 3181 001c 0023     		movs	r3, #0
 3182              	.L539:
 3183              		@ sp needed
 3184 001e 1800     		movs	r0, r3
 3185 0020 10BD     		pop	{r4, pc}
 3186              	.L540:
 3187 0022 0120     		movs	r0, #1
 3188 0024 FFF7FEFF 		bl	smtc_modem_test_duty_cycle_app_activate
 3189 0028 F8E7     		b	.L541
 3191              		.section	.text.smtc_modem_increment_event_middleware,"ax",%progbits
 3192              		.align	1
 3193              		.global	smtc_modem_increment_event_middleware
 3194              		.syntax unified
 3195              		.code	16
 3196              		.thumb_func
 3198              	smtc_modem_increment_event_middleware:
 3199              		@ args = 0, pretend = 0, frame = 0
 3200              		@ frame_needed = 0, uses_anonymous_args = 0
 3201 0000 0200     		movs	r2, r0
 3202 0002 163A     		subs	r2, r2, #22
 3203 0004 0423     		movs	r3, #4
 3204 0006 10B5     		push	{r4, lr}
 3205 0008 022A     		cmp	r2, #2
 3206 000a 02D8     		bhi	.L544
 3207 000c FFF7FEFF 		bl	increment_asynchronous_msgnumber
 3208 0010 0023     		movs	r3, #0
 3209              	.L544:
 3210              		@ sp needed
ARM GAS  /tmp/cc3hQV0n.s 			page 58


 3211 0012 1800     		movs	r0, r3
 3212 0014 10BD     		pop	{r4, pc}
 3214              		.section	.text.smtc_modem_get_certification_mode,"ax",%progbits
 3215              		.align	1
 3216              		.global	smtc_modem_get_certification_mode
 3217              		.syntax unified
 3218              		.code	16
 3219              		.thumb_func
 3221              	smtc_modem_get_certification_mode:
 3222              		@ args = 0, pretend = 0, frame = 0
 3223              		@ frame_needed = 0, uses_anonymous_args = 0
 3224 0000 70B5     		push	{r4, r5, r6, lr}
 3225 0002 0D00     		movs	r5, r1
 3226 0004 FFF7FEFF 		bl	modem_get_test_mode_status
 3227 0008 0400     		movs	r4, r0
 3228 000a 0520     		movs	r0, #5
 3229 000c 002C     		cmp	r4, #0
 3230 000e 08D1     		bne	.L547
 3231 0010 0138     		subs	r0, r0, #1
 3232 0012 002D     		cmp	r5, #0
 3233 0014 05D0     		beq	.L547
 3234 0016 FFF7FEFF 		bl	lorawan_api_modem_certification_is_enabled
 3235 001a 431E     		subs	r3, r0, #1
 3236 001c 9841     		sbcs	r0, r0, r3
 3237 001e 2870     		strb	r0, [r5]
 3238 0020 2000     		movs	r0, r4
 3239              	.L547:
 3240              		@ sp needed
 3241 0022 70BD     		pop	{r4, r5, r6, pc}
 3243              		.section	.text.smtc_modem_connection_timeout_set_thresholds,"ax",%progbits
 3244              		.align	1
 3245              		.global	smtc_modem_connection_timeout_set_thresholds
 3246              		.syntax unified
 3247              		.code	16
 3248              		.thumb_func
 3250              	smtc_modem_connection_timeout_set_thresholds:
 3251              		@ args = 0, pretend = 0, frame = 0
 3252              		@ frame_needed = 0, uses_anonymous_args = 0
 3253 0000 70B5     		push	{r4, r5, r6, lr}
 3254 0002 0E00     		movs	r6, r1
 3255 0004 1500     		movs	r5, r2
 3256 0006 FFF7FEFF 		bl	modem_get_test_mode_status
 3257 000a 0400     		movs	r4, r0
 3258 000c 0520     		movs	r0, #5
 3259 000e 002C     		cmp	r4, #0
 3260 0010 06D1     		bne	.L551
 3261 0012 3000     		movs	r0, r6
 3262 0014 FFF7FEFF 		bl	modem_set_adr_mobile_timeout_config
 3263 0018 2800     		movs	r0, r5
 3264 001a FFF7FEFF 		bl	lorawan_api_set_no_rx_packet_threshold
 3265 001e 2000     		movs	r0, r4
 3266              	.L551:
 3267              		@ sp needed
 3268 0020 70BD     		pop	{r4, r5, r6, pc}
 3270              		.section	.text.smtc_modem_connection_timeout_get_thresholds,"ax",%progbits
 3271              		.align	1
 3272              		.global	smtc_modem_connection_timeout_get_thresholds
ARM GAS  /tmp/cc3hQV0n.s 			page 59


 3273              		.syntax unified
 3274              		.code	16
 3275              		.thumb_func
 3277              	smtc_modem_connection_timeout_get_thresholds:
 3278              		@ args = 0, pretend = 0, frame = 0
 3279              		@ frame_needed = 0, uses_anonymous_args = 0
 3280 0000 70B5     		push	{r4, r5, r6, lr}
 3281 0002 0E00     		movs	r6, r1
 3282 0004 1500     		movs	r5, r2
 3283 0006 FFF7FEFF 		bl	modem_get_test_mode_status
 3284 000a 0400     		movs	r4, r0
 3285 000c 0520     		movs	r0, #5
 3286 000e 002C     		cmp	r4, #0
 3287 0010 0BD1     		bne	.L554
 3288 0012 0138     		subs	r0, r0, #1
 3289 0014 002E     		cmp	r6, #0
 3290 0016 08D0     		beq	.L554
 3291 0018 002D     		cmp	r5, #0
 3292 001a 06D0     		beq	.L554
 3293 001c FFF7FEFF 		bl	modem_get_adr_mobile_timeout_config
 3294 0020 3080     		strh	r0, [r6]
 3295 0022 FFF7FEFF 		bl	lorawan_api_get_no_rx_packet_threshold
 3296 0026 2880     		strh	r0, [r5]
 3297 0028 2000     		movs	r0, r4
 3298              	.L554:
 3299              		@ sp needed
 3300 002a 70BD     		pop	{r4, r5, r6, pc}
 3302              		.section	.text.smtc_modem_connection_timeout_get_current_values,"ax",%progbits
 3303              		.align	1
 3304              		.global	smtc_modem_connection_timeout_get_current_values
 3305              		.syntax unified
 3306              		.code	16
 3307              		.thumb_func
 3309              	smtc_modem_connection_timeout_get_current_values:
 3310              		@ args = 0, pretend = 0, frame = 0
 3311              		@ frame_needed = 0, uses_anonymous_args = 0
 3312 0000 70B5     		push	{r4, r5, r6, lr}
 3313 0002 0E00     		movs	r6, r1
 3314 0004 1500     		movs	r5, r2
 3315 0006 FFF7FEFF 		bl	modem_get_test_mode_status
 3316 000a 0400     		movs	r4, r0
 3317 000c 0520     		movs	r0, #5
 3318 000e 002C     		cmp	r4, #0
 3319 0010 0BD1     		bne	.L559
 3320 0012 0138     		subs	r0, r0, #1
 3321 0014 002E     		cmp	r6, #0
 3322 0016 08D0     		beq	.L559
 3323 0018 002D     		cmp	r5, #0
 3324 001a 06D0     		beq	.L559
 3325 001c FFF7FEFF 		bl	lorawan_api_get_current_no_rx_packet_in_mobile_mode_cnt
 3326 0020 3080     		strh	r0, [r6]
 3327 0022 FFF7FEFF 		bl	lorawan_api_get_current_adr_ack_cnt
 3328 0026 2880     		strh	r0, [r5]
 3329 0028 2000     		movs	r0, r4
 3330              	.L559:
 3331              		@ sp needed
 3332 002a 70BD     		pop	{r4, r5, r6, pc}
ARM GAS  /tmp/cc3hQV0n.s 			page 60


 3334              		.section	.text.smtc_modem_lorawan_get_lost_connection_counter,"ax",%progbits
 3335              		.align	1
 3336              		.global	smtc_modem_lorawan_get_lost_connection_counter
 3337              		.syntax unified
 3338              		.code	16
 3339              		.thumb_func
 3341              	smtc_modem_lorawan_get_lost_connection_counter:
 3342              		@ args = 0, pretend = 0, frame = 0
 3343              		@ frame_needed = 0, uses_anonymous_args = 0
 3344 0000 70B5     		push	{r4, r5, r6, lr}
 3345 0002 0D00     		movs	r5, r1
 3346 0004 FFF7FEFF 		bl	modem_get_test_mode_status
 3347 0008 0400     		movs	r4, r0
 3348 000a 0520     		movs	r0, #5
 3349 000c 002C     		cmp	r4, #0
 3350 000e 06D1     		bne	.L564
 3351 0010 0138     		subs	r0, r0, #1
 3352 0012 002D     		cmp	r5, #0
 3353 0014 03D0     		beq	.L564
 3354 0016 FFF7FEFF 		bl	lorawan_api_get_current_no_rx_packet_cnt
 3355 001a 2880     		strh	r0, [r5]
 3356 001c 2000     		movs	r0, r4
 3357              	.L564:
 3358              		@ sp needed
 3359 001e 70BD     		pop	{r4, r5, r6, pc}
 3361              		.section	.text.smtc_modem_get_duty_cycle_status,"ax",%progbits
 3362              		.align	1
 3363              		.global	smtc_modem_get_duty_cycle_status
 3364              		.syntax unified
 3365              		.code	16
 3366              		.thumb_func
 3368              	smtc_modem_get_duty_cycle_status:
 3369              		@ args = 0, pretend = 0, frame = 0
 3370              		@ frame_needed = 0, uses_anonymous_args = 0
 3371 0000 70B5     		push	{r4, r5, r6, lr}
 3372 0002 0500     		movs	r5, r0
 3373 0004 FFF7FEFF 		bl	modem_get_test_mode_status
 3374 0008 0400     		movs	r4, r0
 3375 000a 0520     		movs	r0, #5
 3376 000c 002C     		cmp	r4, #0
 3377 000e 07D1     		bne	.L568
 3378 0010 0138     		subs	r0, r0, #1
 3379 0012 002D     		cmp	r5, #0
 3380 0014 04D0     		beq	.L568
 3381 0016 FFF7FEFF 		bl	lorawan_api_next_free_duty_cycle_ms_get
 3382 001a 4042     		rsbs	r0, r0, #0
 3383 001c 2860     		str	r0, [r5]
 3384 001e 2000     		movs	r0, r4
 3385              	.L568:
 3386              		@ sp needed
 3387 0020 70BD     		pop	{r4, r5, r6, pc}
 3389              		.section	.text.smtc_modem_rp_abort_user_radio_access_task,"ax",%progbits
 3390              		.align	1
 3391              		.global	smtc_modem_rp_abort_user_radio_access_task
 3392              		.syntax unified
 3393              		.code	16
 3394              		.thumb_func
ARM GAS  /tmp/cc3hQV0n.s 			page 61


 3396              	smtc_modem_rp_abort_user_radio_access_task:
 3397              		@ args = 0, pretend = 0, frame = 0
 3398              		@ frame_needed = 0, uses_anonymous_args = 0
 3399 0000 0300     		movs	r3, r0
 3400 0002 10B5     		push	{r4, lr}
 3401 0004 0128     		cmp	r0, #1
 3402 0006 0CD0     		beq	.L572
 3403 0008 0228     		cmp	r0, #2
 3404 000a 0DD0     		beq	.L573
 3405 000c 0420     		movs	r0, #4
 3406 000e 002B     		cmp	r3, #0
 3407 0010 06D1     		bne	.L574
 3408 0012 0121     		movs	r1, #1
 3409 0014 0648     		ldr	r0, .L579
 3410              	.L578:
 3411 0016 FFF7FEFF 		bl	rp_task_abort
 3412 001a 0028     		cmp	r0, #0
 3413 001c 00D0     		beq	.L574
 3414 001e 0620     		movs	r0, #6
 3415              	.L574:
 3416              		@ sp needed
 3417 0020 10BD     		pop	{r4, pc}
 3418              	.L572:
 3419 0022 0821     		movs	r1, #8
 3420 0024 0248     		ldr	r0, .L579
 3421 0026 F6E7     		b	.L578
 3422              	.L573:
 3423 0028 0921     		movs	r1, #9
 3424 002a 0148     		ldr	r0, .L579
 3425 002c F3E7     		b	.L578
 3426              	.L580:
 3427 002e C046     		.align	2
 3428              	.L579:
 3429 0030 00000000 		.word	modem_radio_planner
 3431              		.section	.text.smtc_modem_rp_add_user_radio_access_task,"ax",%progbits
 3432              		.align	1
 3433              		.global	smtc_modem_rp_add_user_radio_access_task
 3434              		.syntax unified
 3435              		.code	16
 3436              		.thumb_func
 3438              	smtc_modem_rp_add_user_radio_access_task:
 3439              		@ args = 0, pretend = 0, frame = 160
 3440              		@ frame_needed = 0, uses_anonymous_args = 0
 3441 0000 70B5     		push	{r4, r5, r6, lr}
 3442 0002 AAB0     		sub	sp, sp, #168
 3443 0004 0400     		movs	r4, r0
 3444 0006 FFF7FEFF 		bl	modem_get_test_mode_status
 3445 000a 0100     		movs	r1, r0
 3446 000c 0520     		movs	r0, #5
 3447 000e 0029     		cmp	r1, #0
 3448 0010 2CD1     		bne	.L582
 3449 0012 09AD     		add	r5, sp, #36
 3450 0014 8422     		movs	r2, #132
 3451 0016 2800     		movs	r0, r5
 3452 0018 FFF7FEFF 		bl	memset
 3453 001c 237B     		ldrb	r3, [r4, #12]
 3454 001e 012B     		cmp	r3, #1
ARM GAS  /tmp/cc3hQV0n.s 			page 62


 3455 0020 26D0     		beq	.L583
 3456 0022 022B     		cmp	r3, #2
 3457 0024 29D0     		beq	.L584
 3458 0026 0420     		movs	r0, #4
 3459 0028 002B     		cmp	r3, #0
 3460 002a 1FD1     		bne	.L582
 3461 002c 0126     		movs	r6, #1
 3462 002e 154B     		ldr	r3, .L589
 3463 0030 6269     		ldr	r2, [r4, #20]
 3464 0032 1A60     		str	r2, [r3]
 3465              	.L585:
 3466 0034 1822     		movs	r2, #24
 3467 0036 0021     		movs	r1, #0
 3468 0038 02A8     		add	r0, sp, #8
 3469 003a FFF7FEFF 		bl	memset
 3470 003e 6B46     		mov	r3, sp
 3471 0040 1E72     		strb	r6, [r3, #8]
 3472 0042 2369     		ldr	r3, [r4, #16]
 3473 0044 1048     		ldr	r0, .L589+4
 3474 0046 0393     		str	r3, [sp, #12]
 3475 0048 2378     		ldrb	r3, [r4]
 3476 004a 02A9     		add	r1, sp, #8
 3477 004c 5A1E     		subs	r2, r3, #1
 3478 004e 9341     		sbcs	r3, r3, r2
 3479 0050 6A46     		mov	r2, sp
 3480 0052 9374     		strb	r3, [r2, #18]
 3481 0054 6368     		ldr	r3, [r4, #4]
 3482 0056 0593     		str	r3, [sp, #20]
 3483 0058 A368     		ldr	r3, [r4, #8]
 3484 005a 0095     		str	r5, [sp]
 3485 005c 0893     		str	r3, [sp, #32]
 3486 005e 0023     		movs	r3, #0
 3487 0060 1A00     		movs	r2, r3
 3488 0062 FFF7FEFF 		bl	rp_task_enqueue
 3489 0066 0028     		cmp	r0, #0
 3490 0068 00D0     		beq	.L582
 3491 006a 0620     		movs	r0, #6
 3492              	.L582:
 3493 006c 2AB0     		add	sp, sp, #168
 3494              		@ sp needed
 3495 006e 70BD     		pop	{r4, r5, r6, pc}
 3496              	.L583:
 3497 0070 064B     		ldr	r3, .L589+8
 3498 0072 6269     		ldr	r2, [r4, #20]
 3499 0074 0826     		movs	r6, #8
 3500 0076 1A60     		str	r2, [r3]
 3501 0078 DCE7     		b	.L585
 3502              	.L584:
 3503 007a 054B     		ldr	r3, .L589+12
 3504 007c 6269     		ldr	r2, [r4, #20]
 3505 007e 0926     		movs	r6, #9
 3506 0080 1A60     		str	r2, [r3]
 3507 0082 D7E7     		b	.L585
 3508              	.L590:
 3509              		.align	2
 3510              	.L589:
 3511 0084 00000000 		.word	user_end_task_callback_0
ARM GAS  /tmp/cc3hQV0n.s 			page 63


 3512 0088 00000000 		.word	modem_radio_planner
 3513 008c 00000000 		.word	user_end_task_callback_1
 3514 0090 00000000 		.word	user_end_task_callback_2
 3516              		.section	.rodata.smtc_modem_suspend_before_user_radio_access.str1.1,"aMS",%progbits,1
 3517              	.LC156:
 3518 0000 53757370 		.ascii	"Suspend modem user radio access\012\015\015\000"
 3518      656E6420 
 3518      6D6F6465 
 3518      6D207573 
 3518      65722072 
 3519              		.section	.text.smtc_modem_suspend_before_user_radio_access,"ax",%progbits
 3520              		.align	1
 3521              		.global	smtc_modem_suspend_before_user_radio_access
 3522              		.syntax unified
 3523              		.code	16
 3524              		.thumb_func
 3526              	smtc_modem_suspend_before_user_radio_access:
 3527              		@ args = 0, pretend = 0, frame = 0
 3528              		@ frame_needed = 0, uses_anonymous_args = 0
 3529 0000 10B5     		push	{r4, lr}
 3530 0002 FFF7FEFF 		bl	modem_get_test_mode_status
 3531 0006 0523     		movs	r3, #5
 3532 0008 041E     		subs	r4, r0, #0
 3533 000a 0CD1     		bne	.L592
 3534 000c 0120     		movs	r0, #1
 3535 000e FFF7FEFF 		bl	smtc_modem_suspend_radio_communications
 3536 0012 0648     		ldr	r0, .L595
 3537 0014 FFF7FEFF 		bl	smtc_modem_hal_print_trace
 3538 0018 0E20     		movs	r0, #14
 3539 001a FFF7FEFF 		bl	modem_context_suspend_user_radio_access
 3540 001e 0623     		movs	r3, #6
 3541 0020 0028     		cmp	r0, #0
 3542 0022 00D0     		beq	.L592
 3543 0024 2300     		movs	r3, r4
 3544              	.L592:
 3545              		@ sp needed
 3546 0026 1800     		movs	r0, r3
 3547 0028 10BD     		pop	{r4, pc}
 3548              	.L596:
 3549 002a C046     		.align	2
 3550              	.L595:
 3551 002c 00000000 		.word	.LC156
 3553              		.section	.rodata.smtc_modem_resume_after_user_radio_access.str1.1,"aMS",%progbits,1
 3554              	.LC158:
 3555 0000 52657375 		.ascii	"Resume modem user radio access\012\015\015\000"
 3555      6D65206D 
 3555      6F64656D 
 3555      20757365 
 3555      72207261 
 3556              		.section	.text.smtc_modem_resume_after_user_radio_access,"ax",%progbits
 3557              		.align	1
 3558              		.global	smtc_modem_resume_after_user_radio_access
 3559              		.syntax unified
 3560              		.code	16
 3561              		.thumb_func
 3563              	smtc_modem_resume_after_user_radio_access:
 3564              		@ args = 0, pretend = 0, frame = 0
ARM GAS  /tmp/cc3hQV0n.s 			page 64


 3565              		@ frame_needed = 0, uses_anonymous_args = 0
 3566 0000 10B5     		push	{r4, lr}
 3567 0002 FFF7FEFF 		bl	modem_get_test_mode_status
 3568 0006 0400     		movs	r4, r0
 3569 0008 0520     		movs	r0, #5
 3570 000a 002C     		cmp	r4, #0
 3571 000c 08D1     		bne	.L598
 3572 000e 0548     		ldr	r0, .L600
 3573 0010 FFF7FEFF 		bl	smtc_modem_hal_print_trace
 3574 0014 FFF7FEFF 		bl	modem_context_resume_user_radio_access
 3575 0018 2000     		movs	r0, r4
 3576 001a FFF7FEFF 		bl	smtc_modem_suspend_radio_communications
 3577 001e 2000     		movs	r0, r4
 3578              	.L598:
 3579              		@ sp needed
 3580 0020 10BD     		pop	{r4, pc}
 3581              	.L601:
 3582 0022 C046     		.align	2
 3583              	.L600:
 3584 0024 00000000 		.word	.LC158
 3586              		.section	.text.smtc_modem_get_stack_state,"ax",%progbits
 3587              		.align	1
 3588              		.global	smtc_modem_get_stack_state
 3589              		.syntax unified
 3590              		.code	16
 3591              		.thumb_func
 3593              	smtc_modem_get_stack_state:
 3594              		@ args = 0, pretend = 0, frame = 0
 3595              		@ frame_needed = 0, uses_anonymous_args = 0
 3596 0000 10B5     		push	{r4, lr}
 3597 0002 0C00     		movs	r4, r1
 3598 0004 FFF7FEFF 		bl	modem_get_test_mode_status
 3599 0008 0523     		movs	r3, #5
 3600 000a 0028     		cmp	r0, #0
 3601 000c 08D1     		bne	.L603
 3602 000e 013B     		subs	r3, r3, #1
 3603 0010 002C     		cmp	r4, #0
 3604 0012 05D0     		beq	.L603
 3605 0014 FFF7FEFF 		bl	lorawan_api_state_get
 3606 0018 0028     		cmp	r0, #0
 3607 001a 03D1     		bne	.L604
 3608 001c 2070     		strb	r0, [r4]
 3609              	.L606:
 3610 001e 0023     		movs	r3, #0
 3611              	.L603:
 3612              		@ sp needed
 3613 0020 1800     		movs	r0, r3
 3614 0022 10BD     		pop	{r4, pc}
 3615              	.L604:
 3616 0024 0223     		movs	r3, #2
 3617 0026 0428     		cmp	r0, #4
 3618 0028 00D0     		beq	.L609
 3619 002a 0123     		movs	r3, #1
 3620              	.L609:
 3621 002c 2370     		strb	r3, [r4]
 3622 002e F6E7     		b	.L606
 3624              		.section	.text.smtc_modem_set_network_type,"ax",%progbits
ARM GAS  /tmp/cc3hQV0n.s 			page 65


 3625              		.align	1
 3626              		.global	smtc_modem_set_network_type
 3627              		.syntax unified
 3628              		.code	16
 3629              		.thumb_func
 3631              	smtc_modem_set_network_type:
 3632              		@ args = 0, pretend = 0, frame = 0
 3633              		@ frame_needed = 0, uses_anonymous_args = 0
 3634 0000 70B5     		push	{r4, r5, r6, lr}
 3635 0002 0D00     		movs	r5, r1
 3636 0004 FFF7FEFF 		bl	modem_get_test_mode_status
 3637 0008 0400     		movs	r4, r0
 3638 000a 0520     		movs	r0, #5
 3639 000c 002C     		cmp	r4, #0
 3640 000e 03D1     		bne	.L611
 3641 0010 2800     		movs	r0, r5
 3642 0012 FFF7FEFF 		bl	modem_context_set_network_type
 3643 0016 2000     		movs	r0, r4
 3644              	.L611:
 3645              		@ sp needed
 3646 0018 70BD     		pop	{r4, r5, r6, pc}
 3648              		.section	.text.smtc_modem_get_network_type,"ax",%progbits
 3649              		.align	1
 3650              		.global	smtc_modem_get_network_type
 3651              		.syntax unified
 3652              		.code	16
 3653              		.thumb_func
 3655              	smtc_modem_get_network_type:
 3656              		@ args = 0, pretend = 0, frame = 0
 3657              		@ frame_needed = 0, uses_anonymous_args = 0
 3658 0000 70B5     		push	{r4, r5, r6, lr}
 3659 0002 0D00     		movs	r5, r1
 3660 0004 FFF7FEFF 		bl	modem_get_test_mode_status
 3661 0008 0400     		movs	r4, r0
 3662 000a 0520     		movs	r0, #5
 3663 000c 002C     		cmp	r4, #0
 3664 000e 06D1     		bne	.L614
 3665 0010 0138     		subs	r0, r0, #1
 3666 0012 002D     		cmp	r5, #0
 3667 0014 03D0     		beq	.L614
 3668 0016 FFF7FEFF 		bl	modem_context_get_network_type
 3669 001a 2870     		strb	r0, [r5]
 3670 001c 2000     		movs	r0, r4
 3671              	.L614:
 3672              		@ sp needed
 3673 001e 70BD     		pop	{r4, r5, r6, pc}
 3675              		.section	.rodata.smtc_modem_lbt_set_parameters.str1.1,"aMS",%progbits,1
 3676              	.LC160:
 3677 0000 4C42542C 		.ascii	"LBT, duration:%d, threshold:%d, bw:%d\012\015\015\000"
 3677      20647572 
 3677      6174696F 
 3677      6E3A2564 
 3677      2C207468 
 3678              		.section	.text.smtc_modem_lbt_set_parameters,"ax",%progbits
 3679              		.align	1
 3680              		.global	smtc_modem_lbt_set_parameters
 3681              		.syntax unified
ARM GAS  /tmp/cc3hQV0n.s 			page 66


 3682              		.code	16
 3683              		.thumb_func
 3685              	smtc_modem_lbt_set_parameters:
 3686              		@ args = 0, pretend = 0, frame = 0
 3687              		@ frame_needed = 0, uses_anonymous_args = 0
 3688 0000 F8B5     		push	{r3, r4, r5, r6, r7, lr}
 3689 0002 0D00     		movs	r5, r1
 3690 0004 1600     		movs	r6, r2
 3691 0006 1F00     		movs	r7, r3
 3692 0008 FFF7FEFF 		bl	modem_get_test_mode_status
 3693 000c 0400     		movs	r4, r0
 3694 000e 0520     		movs	r0, #5
 3695 0010 002C     		cmp	r4, #0
 3696 0012 0ED1     		bne	.L618
 3697 0014 3B00     		movs	r3, r7
 3698 0016 3200     		movs	r2, r6
 3699 0018 2900     		movs	r1, r5
 3700 001a 0648     		ldr	r0, .L620
 3701 001c FFF7FEFF 		bl	smtc_modem_hal_print_trace
 3702 0020 3A00     		movs	r2, r7
 3703 0022 2800     		movs	r0, r5
 3704 0024 3100     		movs	r1, r6
 3705 0026 FFF7FEFF 		bl	lorawan_api_lbt_set_parameters
 3706 002a 0122     		movs	r2, #1
 3707 002c 2000     		movs	r0, r4
 3708 002e 024B     		ldr	r3, .L620+4
 3709 0030 1A70     		strb	r2, [r3]
 3710              	.L618:
 3711              		@ sp needed
 3712 0032 F8BD     		pop	{r3, r4, r5, r6, r7, pc}
 3713              	.L621:
 3714              		.align	2
 3715              	.L620:
 3716 0034 00000000 		.word	.LC160
 3717 0038 00000000 		.word	lbt_config_available
 3719              		.section	.text.smtc_modem_lbt_get_parameters,"ax",%progbits
 3720              		.align	1
 3721              		.global	smtc_modem_lbt_get_parameters
 3722              		.syntax unified
 3723              		.code	16
 3724              		.thumb_func
 3726              	smtc_modem_lbt_get_parameters:
 3727              		@ args = 0, pretend = 0, frame = 0
 3728              		@ frame_needed = 0, uses_anonymous_args = 0
 3729 0000 F8B5     		push	{r3, r4, r5, r6, r7, lr}
 3730 0002 0D00     		movs	r5, r1
 3731 0004 1600     		movs	r6, r2
 3732 0006 1F00     		movs	r7, r3
 3733 0008 FFF7FEFF 		bl	modem_get_test_mode_status
 3734 000c 0400     		movs	r4, r0
 3735 000e 0520     		movs	r0, #5
 3736 0010 002C     		cmp	r4, #0
 3737 0012 0CD1     		bne	.L623
 3738 0014 0138     		subs	r0, r0, #1
 3739 0016 002D     		cmp	r5, #0
 3740 0018 09D0     		beq	.L623
 3741 001a 002E     		cmp	r6, #0
ARM GAS  /tmp/cc3hQV0n.s 			page 67


 3742 001c 07D0     		beq	.L623
 3743 001e 002F     		cmp	r7, #0
 3744 0020 05D0     		beq	.L623
 3745 0022 2800     		movs	r0, r5
 3746 0024 3A00     		movs	r2, r7
 3747 0026 3100     		movs	r1, r6
 3748 0028 FFF7FEFF 		bl	lorawan_api_lbt_get_parameters
 3749 002c 2000     		movs	r0, r4
 3750              	.L623:
 3751              		@ sp needed
 3752 002e F8BD     		pop	{r3, r4, r5, r6, r7, pc}
 3754              		.section	.rodata.smtc_modem_lbt_set_state.str1.1,"aMS",%progbits,1
 3755              	.LC164:
 3756 0000 1B5B303B 		.ascii	"\033[0;31mERROR: A configuration shall be set befor"
 3756      33316D45 
 3756      52524F52 
 3756      3A204120 
 3756      636F6E66 
 3757 0030 65207374 		.ascii	"e starting LBT \012\015\015\000"
 3757      61727469 
 3757      6E67204C 
 3757      4254200A 
 3757      0D0D00
 3758              		.section	.text.smtc_modem_lbt_set_state,"ax",%progbits
 3759              		.align	1
 3760              		.global	smtc_modem_lbt_set_state
 3761              		.syntax unified
 3762              		.code	16
 3763              		.thumb_func
 3765              	smtc_modem_lbt_set_state:
 3766              		@ args = 0, pretend = 0, frame = 0
 3767              		@ frame_needed = 0, uses_anonymous_args = 0
 3768 0000 10B5     		push	{r4, lr}
 3769 0002 0C00     		movs	r4, r1
 3770 0004 FFF7FEFF 		bl	modem_get_test_mode_status
 3771 0008 0523     		movs	r3, #5
 3772 000a 0028     		cmp	r0, #0
 3773 000c 0DD1     		bne	.L629
 3774 000e 002C     		cmp	r4, #0
 3775 0010 0DD0     		beq	.L630
 3776 0012 094B     		ldr	r3, .L635
 3777 0014 0130     		adds	r0, r0, #1
 3778 0016 1B78     		ldrb	r3, [r3]
 3779 0018 002B     		cmp	r3, #0
 3780 001a 09D1     		bne	.L634
 3781 001c 0748     		ldr	r0, .L635+4
 3782 001e FFF7FEFF 		bl	smtc_modem_hal_print_trace
 3783 0022 0748     		ldr	r0, .L635+8
 3784 0024 FFF7FEFF 		bl	smtc_modem_hal_print_trace
 3785 0028 0623     		movs	r3, #6
 3786              	.L629:
 3787              		@ sp needed
 3788 002a 1800     		movs	r0, r3
 3789 002c 10BD     		pop	{r4, pc}
 3790              	.L630:
 3791 002e 2000     		movs	r0, r4
 3792              	.L634:
ARM GAS  /tmp/cc3hQV0n.s 			page 68


 3793 0030 FFF7FEFF 		bl	lorawan_api_lbt_set_state
 3794 0034 0023     		movs	r3, #0
 3795 0036 F8E7     		b	.L629
 3796              	.L636:
 3797              		.align	2
 3798              	.L635:
 3799 0038 00000000 		.word	lbt_config_available
 3800 003c 00000000 		.word	.LC164
 3801 0040 31000000 		.word	.LC3
 3803              		.section	.text.smtc_modem_lbt_get_state,"ax",%progbits
 3804              		.align	1
 3805              		.global	smtc_modem_lbt_get_state
 3806              		.syntax unified
 3807              		.code	16
 3808              		.thumb_func
 3810              	smtc_modem_lbt_get_state:
 3811              		@ args = 0, pretend = 0, frame = 0
 3812              		@ frame_needed = 0, uses_anonymous_args = 0
 3813 0000 70B5     		push	{r4, r5, r6, lr}
 3814 0002 0D00     		movs	r5, r1
 3815 0004 FFF7FEFF 		bl	modem_get_test_mode_status
 3816 0008 0400     		movs	r4, r0
 3817 000a 0520     		movs	r0, #5
 3818 000c 002C     		cmp	r4, #0
 3819 000e 06D1     		bne	.L638
 3820 0010 0138     		subs	r0, r0, #1
 3821 0012 002D     		cmp	r5, #0
 3822 0014 03D0     		beq	.L638
 3823 0016 FFF7FEFF 		bl	lorawan_api_lbt_get_state
 3824 001a 2870     		strb	r0, [r5]
 3825 001c 2000     		movs	r0, r4
 3826              	.L638:
 3827              		@ sp needed
 3828 001e 70BD     		pop	{r4, r5, r6, pc}
 3830              		.section	.text.smtc_modem_set_nb_trans,"ax",%progbits
 3831              		.align	1
 3832              		.global	smtc_modem_set_nb_trans
 3833              		.syntax unified
 3834              		.code	16
 3835              		.thumb_func
 3837              	smtc_modem_set_nb_trans:
 3838              		@ args = 0, pretend = 0, frame = 0
 3839              		@ frame_needed = 0, uses_anonymous_args = 0
 3840 0000 10B5     		push	{r4, lr}
 3841 0002 0C00     		movs	r4, r1
 3842 0004 FFF7FEFF 		bl	modem_get_test_mode_status
 3843 0008 0300     		movs	r3, r0
 3844 000a 0520     		movs	r0, #5
 3845 000c 002B     		cmp	r3, #0
 3846 000e 05D1     		bne	.L642
 3847 0010 2000     		movs	r0, r4
 3848 0012 FFF7FEFF 		bl	lorawan_api_nb_trans_set
 3849 0016 431E     		subs	r3, r0, #1
 3850 0018 9841     		sbcs	r0, r0, r3
 3851 001a 8000     		lsls	r0, r0, #2
 3852              	.L642:
 3853              		@ sp needed
ARM GAS  /tmp/cc3hQV0n.s 			page 69


 3854 001c 10BD     		pop	{r4, pc}
 3856              		.section	.text.smtc_modem_get_nb_trans,"ax",%progbits
 3857              		.align	1
 3858              		.global	smtc_modem_get_nb_trans
 3859              		.syntax unified
 3860              		.code	16
 3861              		.thumb_func
 3863              	smtc_modem_get_nb_trans:
 3864              		@ args = 0, pretend = 0, frame = 0
 3865              		@ frame_needed = 0, uses_anonymous_args = 0
 3866 0000 70B5     		push	{r4, r5, r6, lr}
 3867 0002 0D00     		movs	r5, r1
 3868 0004 FFF7FEFF 		bl	modem_get_test_mode_status
 3869 0008 0400     		movs	r4, r0
 3870 000a 0520     		movs	r0, #5
 3871 000c 002C     		cmp	r4, #0
 3872 000e 06D1     		bne	.L645
 3873 0010 0138     		subs	r0, r0, #1
 3874 0012 002D     		cmp	r5, #0
 3875 0014 03D0     		beq	.L645
 3876 0016 FFF7FEFF 		bl	lorawan_api_nb_trans_get
 3877 001a 2870     		strb	r0, [r5]
 3878 001c 2000     		movs	r0, r4
 3879              	.L645:
 3880              		@ sp needed
 3881 001e 70BD     		pop	{r4, r5, r6, pc}
 3883              		.section	.text.smtc_modem_set_crystal_error_ppm,"ax",%progbits
 3884              		.align	1
 3885              		.global	smtc_modem_set_crystal_error_ppm
 3886              		.syntax unified
 3887              		.code	16
 3888              		.thumb_func
 3890              	smtc_modem_set_crystal_error_ppm:
 3891              		@ args = 0, pretend = 0, frame = 0
 3892              		@ frame_needed = 0, uses_anonymous_args = 0
 3893 0000 70B5     		push	{r4, r5, r6, lr}
 3894 0002 0500     		movs	r5, r0
 3895 0004 FFF7FEFF 		bl	modem_get_test_mode_status
 3896 0008 0400     		movs	r4, r0
 3897 000a 0520     		movs	r0, #5
 3898 000c 002C     		cmp	r4, #0
 3899 000e 03D1     		bne	.L649
 3900 0010 2800     		movs	r0, r5
 3901 0012 FFF7FEFF 		bl	lorawan_api_set_crystal_error
 3902 0016 2000     		movs	r0, r4
 3903              	.L649:
 3904              		@ sp needed
 3905 0018 70BD     		pop	{r4, r5, r6, pc}
 3907              		.section	.text.smtc_modem_get_crystal_error_ppm,"ax",%progbits
 3908              		.align	1
 3909              		.global	smtc_modem_get_crystal_error_ppm
 3910              		.syntax unified
 3911              		.code	16
 3912              		.thumb_func
 3914              	smtc_modem_get_crystal_error_ppm:
 3915              		@ args = 0, pretend = 0, frame = 0
 3916              		@ frame_needed = 0, uses_anonymous_args = 0
ARM GAS  /tmp/cc3hQV0n.s 			page 70


 3917 0000 70B5     		push	{r4, r5, r6, lr}
 3918 0002 0500     		movs	r5, r0
 3919 0004 FFF7FEFF 		bl	modem_get_test_mode_status
 3920 0008 0400     		movs	r4, r0
 3921 000a 0520     		movs	r0, #5
 3922 000c 002C     		cmp	r4, #0
 3923 000e 06D1     		bne	.L652
 3924 0010 0138     		subs	r0, r0, #1
 3925 0012 002D     		cmp	r5, #0
 3926 0014 03D0     		beq	.L652
 3927 0016 FFF7FEFF 		bl	lorawan_api_get_crystal_error
 3928 001a 2860     		str	r0, [r5]
 3929 001c 2000     		movs	r0, r4
 3930              	.L652:
 3931              		@ sp needed
 3932 001e 70BD     		pop	{r4, r5, r6, pc}
 3934              		.section	.text.smtc_modem_lorawan_request_link_check,"ax",%progbits
 3935              		.align	1
 3936              		.global	smtc_modem_lorawan_request_link_check
 3937              		.syntax unified
 3938              		.code	16
 3939              		.thumb_func
 3941              	smtc_modem_lorawan_request_link_check:
 3942              		@ args = 0, pretend = 0, frame = 0
 3943              		@ frame_needed = 0, uses_anonymous_args = 0
 3944 0000 10B5     		push	{r4, lr}
 3945 0002 FFF7FEFF 		bl	modem_get_test_mode_status
 3946 0006 0523     		movs	r3, #5
 3947 0008 041E     		subs	r4, r0, #0
 3948 000a 08D1     		bne	.L656
 3949 000c FFF7FEFF 		bl	is_modem_connected
 3950 0010 0623     		movs	r3, #6
 3951 0012 0028     		cmp	r0, #0
 3952 0014 03D0     		beq	.L656
 3953 0016 2000     		movs	r0, r4
 3954 0018 FFF7FEFF 		bl	modem_supervisor_add_task_link_check_req
 3955 001c 2300     		movs	r3, r4
 3956              	.L656:
 3957              		@ sp needed
 3958 001e 1800     		movs	r0, r3
 3959 0020 10BD     		pop	{r4, pc}
 3961              		.section	.text.smtc_modem_lorawan_class_b_request_ping_slot_info,"ax",%progbits
 3962              		.align	1
 3963              		.global	smtc_modem_lorawan_class_b_request_ping_slot_info
 3964              		.syntax unified
 3965              		.code	16
 3966              		.thumb_func
 3968              	smtc_modem_lorawan_class_b_request_ping_slot_info:
 3969              		@ args = 0, pretend = 0, frame = 0
 3970              		@ frame_needed = 0, uses_anonymous_args = 0
 3971 0000 10B5     		push	{r4, lr}
 3972 0002 FFF7FEFF 		bl	modem_get_test_mode_status
 3973 0006 0523     		movs	r3, #5
 3974 0008 041E     		subs	r4, r0, #0
 3975 000a 08D1     		bne	.L661
 3976 000c FFF7FEFF 		bl	is_modem_connected
 3977 0010 0623     		movs	r3, #6
ARM GAS  /tmp/cc3hQV0n.s 			page 71


 3978 0012 0028     		cmp	r0, #0
 3979 0014 03D0     		beq	.L661
 3980 0016 2000     		movs	r0, r4
 3981 0018 FFF7FEFF 		bl	modem_supervisor_add_task_ping_slot_info_req
 3982 001c 2300     		movs	r3, r4
 3983              	.L661:
 3984              		@ sp needed
 3985 001e 1800     		movs	r0, r3
 3986 0020 10BD     		pop	{r4, pc}
 3988              		.section	.text.smtc_modem_class_b_set_ping_slot_periodicity,"ax",%progbits
 3989              		.align	1
 3990              		.global	smtc_modem_class_b_set_ping_slot_periodicity
 3991              		.syntax unified
 3992              		.code	16
 3993              		.thumb_func
 3995              	smtc_modem_class_b_set_ping_slot_periodicity:
 3996              		@ args = 0, pretend = 0, frame = 0
 3997              		@ frame_needed = 0, uses_anonymous_args = 0
 3998 0000 10B5     		push	{r4, lr}
 3999 0002 0C00     		movs	r4, r1
 4000 0004 FFF7FEFF 		bl	modem_get_test_mode_status
 4001 0008 0300     		movs	r3, r0
 4002 000a 0520     		movs	r0, #5
 4003 000c 002B     		cmp	r3, #0
 4004 000e 05D1     		bne	.L666
 4005 0010 2000     		movs	r0, r4
 4006 0012 FFF7FEFF 		bl	lorawan_api_set_ping_slot_periodicity
 4007 0016 431E     		subs	r3, r0, #1
 4008 0018 9841     		sbcs	r0, r0, r3
 4009 001a 8000     		lsls	r0, r0, #2
 4010              	.L666:
 4011              		@ sp needed
 4012 001c 10BD     		pop	{r4, pc}
 4014              		.section	.text.smtc_modem_class_b_get_ping_slot_periodicity,"ax",%progbits
 4015              		.align	1
 4016              		.global	smtc_modem_class_b_get_ping_slot_periodicity
 4017              		.syntax unified
 4018              		.code	16
 4019              		.thumb_func
 4021              	smtc_modem_class_b_get_ping_slot_periodicity:
 4022              		@ args = 0, pretend = 0, frame = 0
 4023              		@ frame_needed = 0, uses_anonymous_args = 0
 4024 0000 70B5     		push	{r4, r5, r6, lr}
 4025 0002 0D00     		movs	r5, r1
 4026 0004 FFF7FEFF 		bl	modem_get_test_mode_status
 4027 0008 0400     		movs	r4, r0
 4028 000a 0520     		movs	r0, #5
 4029 000c 002C     		cmp	r4, #0
 4030 000e 06D1     		bne	.L669
 4031 0010 0138     		subs	r0, r0, #1
 4032 0012 002D     		cmp	r5, #0
 4033 0014 03D0     		beq	.L669
 4034 0016 FFF7FEFF 		bl	lorawan_api_get_ping_slot_periodicity
 4035 001a 2870     		strb	r0, [r5]
 4036 001c 2000     		movs	r0, r4
 4037              	.L669:
 4038              		@ sp needed
ARM GAS  /tmp/cc3hQV0n.s 			page 72


 4039 001e 70BD     		pop	{r4, r5, r6, pc}
 4041              		.section	.text.smtc_modem_d2d_class_b_request_uplink,"ax",%progbits
 4042              		.align	1
 4043              		.global	smtc_modem_d2d_class_b_request_uplink
 4044              		.syntax unified
 4045              		.code	16
 4046              		.thumb_func
 4048              	smtc_modem_d2d_class_b_request_uplink:
 4049              		@ args = 8, pretend = 0, frame = 0
 4050              		@ frame_needed = 0, uses_anonymous_args = 0
 4051              		@ link register save eliminated.
 4052 0000 0620     		movs	r0, #6
 4053              		@ sp needed
 4054 0002 7047     		bx	lr
 4056              		.section	.text.smtc_modem_d2d_class_b_get_tx_max_payload,"ax",%progbits
 4057              		.align	1
 4058              		.global	smtc_modem_d2d_class_b_get_tx_max_payload
 4059              		.syntax unified
 4060              		.code	16
 4061              		.thumb_func
 4063              	smtc_modem_d2d_class_b_get_tx_max_payload:
 4064              		@ args = 0, pretend = 0, frame = 0
 4065              		@ frame_needed = 0, uses_anonymous_args = 0
 4066              		@ link register save eliminated.
 4067 0000 0620     		movs	r0, #6
 4068              		@ sp needed
 4069 0002 7047     		bx	lr
 4071              		.section	.text.smtc_modem_get_network_frame_pending_status,"ax",%progbits
 4072              		.align	1
 4073              		.global	smtc_modem_get_network_frame_pending_status
 4074              		.syntax unified
 4075              		.code	16
 4076              		.thumb_func
 4078              	smtc_modem_get_network_frame_pending_status:
 4079              		@ args = 0, pretend = 0, frame = 0
 4080              		@ frame_needed = 0, uses_anonymous_args = 0
 4081 0000 70B5     		push	{r4, r5, r6, lr}
 4082 0002 0D00     		movs	r5, r1
 4083 0004 FFF7FEFF 		bl	modem_get_test_mode_status
 4084 0008 0400     		movs	r4, r0
 4085 000a 0520     		movs	r0, #5
 4086 000c 002C     		cmp	r4, #0
 4087 000e 06D1     		bne	.L675
 4088 0010 0138     		subs	r0, r0, #1
 4089 0012 002D     		cmp	r5, #0
 4090 0014 03D0     		beq	.L675
 4091 0016 FFF7FEFF 		bl	lorawan_api_rx_fpending_bit_get
 4092 001a 2870     		strb	r0, [r5]
 4093 001c 2000     		movs	r0, r4
 4094              	.L675:
 4095              		@ sp needed
 4096 001e 70BD     		pop	{r4, r5, r6, pc}
 4098              		.section	.text.smtc_modem_set_adr_ack_limit_delay,"ax",%progbits
 4099              		.align	1
 4100              		.global	smtc_modem_set_adr_ack_limit_delay
 4101              		.syntax unified
 4102              		.code	16
ARM GAS  /tmp/cc3hQV0n.s 			page 73


 4103              		.thumb_func
 4105              	smtc_modem_set_adr_ack_limit_delay:
 4106              		@ args = 0, pretend = 0, frame = 0
 4107              		@ frame_needed = 0, uses_anonymous_args = 0
 4108 0000 70B5     		push	{r4, r5, r6, lr}
 4109 0002 0C00     		movs	r4, r1
 4110 0004 1500     		movs	r5, r2
 4111 0006 FFF7FEFF 		bl	modem_get_test_mode_status
 4112 000a 0300     		movs	r3, r0
 4113 000c 0520     		movs	r0, #5
 4114 000e 002B     		cmp	r3, #0
 4115 0010 06D1     		bne	.L679
 4116 0012 2900     		movs	r1, r5
 4117 0014 2000     		movs	r0, r4
 4118 0016 FFF7FEFF 		bl	lorawan_api_set_adr_ack_limit_delay
 4119 001a 431E     		subs	r3, r0, #1
 4120 001c 9841     		sbcs	r0, r0, r3
 4121 001e 8000     		lsls	r0, r0, #2
 4122              	.L679:
 4123              		@ sp needed
 4124 0020 70BD     		pop	{r4, r5, r6, pc}
 4126              		.section	.text.smtc_modem_get_adr_ack_limit_delay,"ax",%progbits
 4127              		.align	1
 4128              		.global	smtc_modem_get_adr_ack_limit_delay
 4129              		.syntax unified
 4130              		.code	16
 4131              		.thumb_func
 4133              	smtc_modem_get_adr_ack_limit_delay:
 4134              		@ args = 0, pretend = 0, frame = 0
 4135              		@ frame_needed = 0, uses_anonymous_args = 0
 4136 0000 70B5     		push	{r4, r5, r6, lr}
 4137 0002 0D00     		movs	r5, r1
 4138 0004 1600     		movs	r6, r2
 4139 0006 FFF7FEFF 		bl	modem_get_test_mode_status
 4140 000a 0400     		movs	r4, r0
 4141 000c 0520     		movs	r0, #5
 4142 000e 002C     		cmp	r4, #0
 4143 0010 09D1     		bne	.L682
 4144 0012 0138     		subs	r0, r0, #1
 4145 0014 002D     		cmp	r5, #0
 4146 0016 06D0     		beq	.L682
 4147 0018 002E     		cmp	r6, #0
 4148 001a 04D0     		beq	.L682
 4149 001c 2800     		movs	r0, r5
 4150 001e 3100     		movs	r1, r6
 4151 0020 FFF7FEFF 		bl	lorawan_api_get_adr_ack_limit_delay
 4152 0024 2000     		movs	r0, r4
 4153              	.L682:
 4154              		@ sp needed
 4155 0026 70BD     		pop	{r4, r5, r6, pc}
 4157              		.section	.text.smtc_modem_get_pin,"ax",%progbits
 4158              		.align	1
 4159              		.global	smtc_modem_get_pin
 4160              		.syntax unified
 4161              		.code	16
 4162              		.thumb_func
 4164              	smtc_modem_get_pin:
ARM GAS  /tmp/cc3hQV0n.s 			page 74


 4165              		@ args = 0, pretend = 0, frame = 0
 4166              		@ frame_needed = 0, uses_anonymous_args = 0
 4167 0000 10B5     		push	{r4, lr}
 4168 0002 FFF7FEFF 		bl	modem_get_test_mode_status
 4169              		@ sp needed
 4170 0006 0623     		movs	r3, #6
 4171 0008 181A     		subs	r0, r3, r0
 4172 000a C0B2     		uxtb	r0, r0
 4173 000c 10BD     		pop	{r4, pc}
 4175              		.section	.text.smtc_modem_get_chip_eui,"ax",%progbits
 4176              		.align	1
 4177              		.global	smtc_modem_get_chip_eui
 4178              		.syntax unified
 4179              		.code	16
 4180              		.thumb_func
 4182              	smtc_modem_get_chip_eui:
 4183              		@ args = 0, pretend = 0, frame = 0
 4184              		@ frame_needed = 0, uses_anonymous_args = 0
 4185 0000 10B5     		push	{r4, lr}
 4186 0002 FFF7FEFF 		bl	modem_get_test_mode_status
 4187              		@ sp needed
 4188 0006 0623     		movs	r3, #6
 4189 0008 181A     		subs	r0, r3, r0
 4190 000a C0B2     		uxtb	r0, r0
 4191 000c 10BD     		pop	{r4, pc}
 4193              		.section	.text.smtc_modem_derive_keys,"ax",%progbits
 4194              		.align	1
 4195              		.global	smtc_modem_derive_keys
 4196              		.syntax unified
 4197              		.code	16
 4198              		.thumb_func
 4200              	smtc_modem_derive_keys:
 4201              		@ args = 0, pretend = 0, frame = 0
 4202              		@ frame_needed = 0, uses_anonymous_args = 0
 4203 0000 10B5     		push	{r4, lr}
 4204 0002 FFF7FEFF 		bl	modem_get_test_mode_status
 4205 0006 0028     		cmp	r0, #0
 4206 0008 01D0     		beq	.L689
 4207              	.L691:
 4208 000a 0520     		movs	r0, #5
 4209              	.L690:
 4210              		@ sp needed
 4211 000c 10BD     		pop	{r4, pc}
 4212              	.L689:
 4213 000e FFF7FEFF 		bl	get_join_state
 4214 0012 0028     		cmp	r0, #0
 4215 0014 F9D1     		bne	.L691
 4216 0016 0630     		adds	r0, r0, #6
 4217 0018 F8E7     		b	.L690
 4219              		.section	.text.convert_rp_to_user_radio_access_status,"ax",%progbits
 4220              		.align	1
 4221              		.global	convert_rp_to_user_radio_access_status
 4222              		.syntax unified
 4223              		.code	16
 4224              		.thumb_func
 4226              	convert_rp_to_user_radio_access_status:
 4227              		@ args = 0, pretend = 0, frame = 0
ARM GAS  /tmp/cc3hQV0n.s 			page 75


 4228              		@ frame_needed = 0, uses_anonymous_args = 0
 4229              		@ link register save eliminated.
 4230 0000 0300     		movs	r3, r0
 4231 0002 0920     		movs	r0, #9
 4232 0004 0A2B     		cmp	r3, #10
 4233 0006 01D8     		bhi	.L693
 4234 0008 014A     		ldr	r2, .L695
 4235 000a D05C     		ldrb	r0, [r2, r3]
 4236              	.L693:
 4237              		@ sp needed
 4238 000c 7047     		bx	lr
 4239              	.L696:
 4240 000e C046     		.align	2
 4241              	.L695:
 4242 0010 00000000 		.word	CSWTCH.144
 4244              		.section	.rodata.smtc_modem_get_event.str1.1,"aMS",%progbits,1
 4245              	.LC169:
 4246 0000 1B5B303B 		.ascii	"\033[0;31mERROR: crash log :%s\012\015\000"
 4246      33316D45 
 4246      52524F52 
 4246      3A206372 
 4246      61736820 
 4247              	.LC172:
 4248 001e 1B5B303B 		.ascii	"\033[0;31mERROR: -> asynchronous_msgnumber overlap\000"
 4248      33316D45 
 4248      52524F52 
 4248      3A202D3E 
 4248      20617379 
 4249              		.section	.text.smtc_modem_get_event,"ax",%progbits
 4250              		.align	1
 4251              		.global	smtc_modem_get_event
 4252              		.syntax unified
 4253              		.code	16
 4254              		.thumb_func
 4256              	smtc_modem_get_event:
 4257              		@ args = 0, pretend = 0, frame = 24
 4258              		@ frame_needed = 0, uses_anonymous_args = 0
 4259 0000 70B5     		push	{r4, r5, r6, lr}
 4260 0002 8AB0     		sub	sp, sp, #40
 4261 0004 0400     		movs	r4, r0
 4262 0006 0E00     		movs	r6, r1
 4263 0008 FFF7FEFF 		bl	modem_get_test_mode_status
 4264 000c 0523     		movs	r3, #5
 4265 000e 0028     		cmp	r0, #0
 4266 0010 21D1     		bne	.L698
 4267 0012 013B     		subs	r3, r3, #1
 4268 0014 002C     		cmp	r4, #0
 4269 0016 1ED0     		beq	.L698
 4270 0018 002E     		cmp	r6, #0
 4271 001a 1CD0     		beq	.L698
 4272 001c FFF7FEFF 		bl	get_asynchronous_msgnumber
 4273 0020 0500     		movs	r5, r0
 4274 0022 1928     		cmp	r0, #25
 4275 0024 1AD9     		bls	.L699
 4276 0026 4C4C     		ldr	r4, .L724
 4277 0028 2000     		movs	r0, r4
 4278 002a FFF7FEFF 		bl	smtc_modem_hal_store_crashlog
ARM GAS  /tmp/cc3hQV0n.s 			page 76


 4279 002e 0120     		movs	r0, #1
 4280 0030 FFF7FEFF 		bl	smtc_modem_hal_set_crashlog_status
 4281 0034 2100     		movs	r1, r4
 4282 0036 4948     		ldr	r0, .L724+4
 4283 0038 FFF7FEFF 		bl	smtc_modem_hal_print_trace
 4284 003c 484C     		ldr	r4, .L724+8
 4285 003e 2000     		movs	r0, r4
 4286 0040 FFF7FEFF 		bl	smtc_modem_hal_print_trace
 4287 0044 4748     		ldr	r0, .L724+12
 4288 0046 FFF7FEFF 		bl	smtc_modem_hal_print_trace
 4289 004a 2000     		movs	r0, r4
 4290 004c FFF7FEFF 		bl	smtc_modem_hal_print_trace
 4291 0050 FFF7FEFF 		bl	smtc_modem_hal_reset_mcu
 4292              	.L700:
 4293 0054 0023     		movs	r3, #0
 4294              	.L698:
 4295 0056 1800     		movs	r0, r3
 4296 0058 0AB0     		add	sp, sp, #40
 4297              		@ sp needed
 4298 005a 70BD     		pop	{r4, r5, r6, pc}
 4299              	.L699:
 4300 005c 0028     		cmp	r0, #0
 4301 005e 77D0     		beq	.L701
 4302 0060 FFF7FEFF 		bl	get_last_msg_event
 4303 0064 6070     		strb	r0, [r4, #1]
 4304 0066 FFF7FEFF 		bl	get_modem_event_count
 4305 006a 013D     		subs	r5, r5, #1
 4306 006c 0138     		subs	r0, r0, #1
 4307 006e A070     		strb	r0, [r4, #2]
 4308 0070 3570     		strb	r5, [r6]
 4309 0072 6078     		ldrb	r0, [r4, #1]
 4310 0074 1828     		cmp	r0, #24
 4311 0076 11D8     		bhi	.L702
 4312 0078 FFF7FEFF 		bl	__gnu_thumb1_case_uqi
 4313              	.L704:
 4314 007c 0D       		.byte	(.L716-.L704)/2
 4315 007d 10       		.byte	(.L702-.L704)/2
 4316 007e 10       		.byte	(.L702-.L704)/2
 4317 007f 4A       		.byte	(.L715-.L704)/2
 4318 0080 18       		.byte	(.L714-.L704)/2
 4319 0081 46       		.byte	(.L713-.L704)/2
 4320 0082 4C       		.byte	(.L712-.L704)/2
 4321 0083 4E       		.byte	(.L711-.L704)/2
 4322 0084 10       		.byte	(.L702-.L704)/2
 4323 0085 10       		.byte	(.L702-.L704)/2
 4324 0086 10       		.byte	(.L702-.L704)/2
 4325 0087 10       		.byte	(.L702-.L704)/2
 4326 0088 10       		.byte	(.L702-.L704)/2
 4327 0089 54       		.byte	(.L710-.L704)/2
 4328 008a 10       		.byte	(.L702-.L704)/2
 4329 008b 10       		.byte	(.L702-.L704)/2
 4330 008c 56       		.byte	(.L709-.L704)/2
 4331 008d 64       		.byte	(.L708-.L704)/2
 4332 008e 5C       		.byte	(.L707-.L704)/2
 4333 008f 66       		.byte	(.L706-.L704)/2
 4334 0090 68       		.byte	(.L705-.L704)/2
 4335 0091 10       		.byte	(.L702-.L704)/2
ARM GAS  /tmp/cc3hQV0n.s 			page 77


 4336 0092 47       		.byte	(.L703-.L704)/2
 4337 0093 47       		.byte	(.L703-.L704)/2
 4338 0094 47       		.byte	(.L703-.L704)/2
 4339 0095 00       		.p2align 1
 4340              	.L716:
 4341 0096 FFF7FEFF 		bl	lorawan_api_nb_reset_get
 4342 009a A080     		strh	r0, [r4, #4]
 4343              	.L702:
 4344 009c 0022     		movs	r2, #0
 4345 009e 6078     		ldrb	r0, [r4, #1]
 4346 00a0 1100     		movs	r1, r2
 4347 00a2 FFF7FEFF 		bl	set_modem_event_count_and_status
 4348 00a6 FFF7FEFF 		bl	decrement_asynchronous_msgnumber
 4349 00aa D3E7     		b	.L700
 4350              	.L714:
 4351 00ac FFF7FEFF 		bl	lorawan_api_get_fifo_obj
 4352 00b0 1423     		movs	r3, #20
 4353 00b2 2200     		movs	r2, r4
 4354 00b4 2100     		movs	r1, r4
 4355 00b6 0293     		str	r3, [sp, #8]
 4356 00b8 013B     		subs	r3, r3, #1
 4357 00ba 6B44     		add	r3, r3, sp
 4358 00bc 05AD     		add	r5, sp, #20
 4359 00be FA32     		adds	r2, r2, #250
 4360 00c0 0193     		str	r3, [sp, #4]
 4361 00c2 0095     		str	r5, [sp]
 4362 00c4 F223     		movs	r3, #242
 4363 00c6 0831     		adds	r1, r1, #8
 4364 00c8 FFF7FEFF 		bl	fifo_ctrl_get
 4365 00cc 0622     		movs	r2, #6
 4366 00ce AB5E     		ldrsh	r3, [r5, r2]
 4367 00d0 1A00     		movs	r2, r3
 4368 00d2 8032     		adds	r2, r2, #128
 4369 00d4 92B2     		uxth	r2, r2
 4370 00d6 BF2A     		cmp	r2, #191
 4371 00d8 11D8     		bhi	.L717
 4372 00da 4033     		adds	r3, r3, #64
 4373 00dc 5AB2     		sxtb	r2, r3
 4374              	.L718:
 4375 00de 2271     		strb	r2, [r4, #4]
 4376 00e0 AB88     		ldrh	r3, [r5, #4]
 4377 00e2 9B00     		lsls	r3, r3, #2
 4378 00e4 6371     		strb	r3, [r4, #5]
 4379 00e6 2B89     		ldrh	r3, [r5, #8]
 4380 00e8 5BBA     		rev16	r3, r3
 4381 00ea E380     		strh	r3, [r4, #6]
 4382 00ec 2300     		movs	r3, r4
 4383 00ee AA7A     		ldrb	r2, [r5, #10]
 4384 00f0 FC33     		adds	r3, r3, #252
 4385 00f2 1A70     		strb	r2, [r3]
 4386 00f4 EA68     		ldr	r2, [r5, #12]
 4387 00f6 5A60     		str	r2, [r3, #4]
 4388 00f8 2A7C     		ldrb	r2, [r5, #16]
 4389 00fa 1A72     		strb	r2, [r3, #8]
 4390 00fc CEE7     		b	.L702
 4391              	.L717:
 4392 00fe 7F22     		movs	r2, #127
ARM GAS  /tmp/cc3hQV0n.s 			page 78


 4393 0100 3F2B     		cmp	r3, #63
 4394 0102 ECDC     		bgt	.L718
 4395 0104 FF3A     		subs	r2, r2, #255
 4396 0106 EAE7     		b	.L718
 4397              	.L713:
 4398 0108 0520     		movs	r0, #5
 4399              	.L703:
 4400 010a FFF7FEFF 		bl	get_modem_event_status
 4401 010e 07E0     		b	.L723
 4402              	.L715:
 4403 0110 0320     		movs	r0, #3
 4404 0112 FAE7     		b	.L703
 4405              	.L712:
 4406 0114 0620     		movs	r0, #6
 4407 0116 F8E7     		b	.L703
 4408              	.L711:
 4409 0118 FFF7FEFF 		bl	get_modem_muted
 4410 011c 431E     		subs	r3, r0, #1
 4411 011e 9841     		sbcs	r0, r0, r3
 4412              	.L723:
 4413 0120 2071     		strb	r0, [r4, #4]
 4414 0122 BBE7     		b	.L702
 4415              	.L710:
 4416 0124 0D20     		movs	r0, #13
 4417 0126 F0E7     		b	.L703
 4418              	.L709:
 4419 0128 A11D     		adds	r1, r4, #6
 4420 012a 601D     		adds	r0, r4, #5
 4421 012c FFF7FEFF 		bl	lorawan_api_get_link_check_ans
 4422 0130 6078     		ldrb	r0, [r4, #1]
 4423 0132 EAE7     		b	.L703
 4424              	.L707:
 4425 0134 0C4B     		ldr	r3, .L724+16
 4426 0136 1B68     		ldr	r3, [r3]
 4427 0138 A360     		str	r3, [r4, #8]
 4428 013a 0C4B     		ldr	r3, .L724+20
 4429 013c 1878     		ldrb	r0, [r3]
 4430 013e FFF7FEFF 		bl	convert_rp_to_user_radio_access_status
 4431 0142 EDE7     		b	.L723
 4432              	.L708:
 4433 0144 1120     		movs	r0, #17
 4434 0146 E0E7     		b	.L703
 4435              	.L706:
 4436 0148 1320     		movs	r0, #19
 4437 014a DEE7     		b	.L703
 4438              	.L705:
 4439 014c 1420     		movs	r0, #20
 4440 014e DCE7     		b	.L703
 4441              	.L701:
 4442 0150 FF23     		movs	r3, #255
 4443 0152 6370     		strb	r3, [r4, #1]
 4444 0154 7EE7     		b	.L700
 4445              	.L725:
 4446 0156 C046     		.align	2
 4447              	.L724:
 4448 0158 00000000 		.word	__func__.14
 4449 015c 00000000 		.word	.LC169
ARM GAS  /tmp/cc3hQV0n.s 			page 79


 4450 0160 31000000 		.word	.LC3
 4451 0164 1E000000 		.word	.LC172
 4452 0168 00000000 		.word	user_radio_irq_timestamp
 4453 016c 00000000 		.word	user_radio_irq_status
 4455              		.section	.text.convert_rp_to_user_radio_access_rp_status,"ax",%progbits
 4456              		.align	1
 4457              		.global	convert_rp_to_user_radio_access_rp_status
 4458              		.syntax unified
 4459              		.code	16
 4460              		.thumb_func
 4462              	convert_rp_to_user_radio_access_rp_status:
 4463              		@ args = 0, pretend = 0, frame = 0
 4464              		@ frame_needed = 0, uses_anonymous_args = 0
 4465              		@ link register save eliminated.
 4466 0000 0300     		movs	r3, r0
 4467 0002 0920     		movs	r0, #9
 4468 0004 0A2B     		cmp	r3, #10
 4469 0006 01D8     		bhi	.L727
 4470 0008 014A     		ldr	r2, .L729
 4471 000a D05C     		ldrb	r0, [r2, r3]
 4472              	.L727:
 4473              		@ sp needed
 4474 000c 7047     		bx	lr
 4475              	.L730:
 4476 000e C046     		.align	2
 4477              	.L729:
 4478 0010 00000000 		.word	CSWTCH.147
 4480              		.section	.text.callback_rp_user_radio_access_0,"ax",%progbits
 4481              		.align	1
 4482              		.global	callback_rp_user_radio_access_0
 4483              		.syntax unified
 4484              		.code	16
 4485              		.thumb_func
 4487              	callback_rp_user_radio_access_0:
 4488              		@ args = 0, pretend = 0, frame = 16
 4489              		@ frame_needed = 0, uses_anonymous_args = 0
 4490 0000 F0B5     		push	{r4, r5, r6, r7, lr}
 4491 0002 85B0     		sub	sp, sp, #20
 4492 0004 02AC     		add	r4, sp, #8
 4493 0006 0500     		movs	r5, r0
 4494 0008 0822     		movs	r2, #8
 4495 000a 0021     		movs	r1, #0
 4496 000c 2000     		movs	r0, r4
 4497 000e FFF7FEFF 		bl	memset
 4498 0012 6B46     		mov	r3, sp
 4499 0014 0026     		movs	r6, #0
 4500 0016 5F1C     		adds	r7, r3, #1
 4501 0018 0121     		movs	r1, #1
 4502 001a 2800     		movs	r0, r5
 4503 001c 5E80     		strh	r6, [r3, #2]
 4504 001e 01AA     		add	r2, sp, #4
 4505 0020 3B00     		movs	r3, r7
 4506 0022 0196     		str	r6, [sp, #4]
 4507 0024 FFF7FEFF 		bl	rp_get_status
 4508 0028 6B46     		mov	r3, sp
 4509 002a 0121     		movs	r1, #1
 4510 002c 9A1C     		adds	r2, r3, #2
ARM GAS  /tmp/cc3hQV0n.s 			page 80


 4511 002e 2800     		movs	r0, r5
 4512 0030 FFF7FEFF 		bl	rp_get_and_clear_raw_radio_irq
 4513 0034 019B     		ldr	r3, [sp, #4]
 4514 0036 3878     		ldrb	r0, [r7]
 4515 0038 0393     		str	r3, [sp, #12]
 4516 003a 2670     		strb	r6, [r4]
 4517 003c FFF7FEFF 		bl	convert_rp_to_user_radio_access_rp_status
 4518 0040 6B46     		mov	r3, sp
 4519 0042 5B88     		ldrh	r3, [r3, #2]
 4520 0044 6070     		strb	r0, [r4, #1]
 4521 0046 6380     		strh	r3, [r4, #2]
 4522 0048 034B     		ldr	r3, .L736
 4523 004a 1B68     		ldr	r3, [r3]
 4524 004c B342     		cmp	r3, r6
 4525 004e 01D0     		beq	.L731
 4526 0050 2000     		movs	r0, r4
 4527 0052 9847     		blx	r3
 4528              	.L731:
 4529 0054 05B0     		add	sp, sp, #20
 4530              		@ sp needed
 4531 0056 F0BD     		pop	{r4, r5, r6, r7, pc}
 4532              	.L737:
 4533              		.align	2
 4534              	.L736:
 4535 0058 00000000 		.word	user_end_task_callback_0
 4537              		.section	.text.callback_rp_user_radio_access_1,"ax",%progbits
 4538              		.align	1
 4539              		.global	callback_rp_user_radio_access_1
 4540              		.syntax unified
 4541              		.code	16
 4542              		.thumb_func
 4544              	callback_rp_user_radio_access_1:
 4545              		@ args = 0, pretend = 0, frame = 16
 4546              		@ frame_needed = 0, uses_anonymous_args = 0
 4547 0000 7FB5     		push	{r0, r1, r2, r3, r4, r5, r6, lr}
 4548 0002 02AC     		add	r4, sp, #8
 4549 0004 0500     		movs	r5, r0
 4550 0006 0822     		movs	r2, #8
 4551 0008 0021     		movs	r1, #0
 4552 000a 2000     		movs	r0, r4
 4553 000c FFF7FEFF 		bl	memset
 4554 0010 6A46     		mov	r2, sp
 4555 0012 0023     		movs	r3, #0
 4556 0014 561C     		adds	r6, r2, #1
 4557 0016 5380     		strh	r3, [r2, #2]
 4558 0018 0821     		movs	r1, #8
 4559 001a 2800     		movs	r0, r5
 4560 001c 0193     		str	r3, [sp, #4]
 4561 001e 01AA     		add	r2, sp, #4
 4562 0020 3300     		movs	r3, r6
 4563 0022 FFF7FEFF 		bl	rp_get_status
 4564 0026 6B46     		mov	r3, sp
 4565 0028 0821     		movs	r1, #8
 4566 002a 9A1C     		adds	r2, r3, #2
 4567 002c 2800     		movs	r0, r5
 4568 002e FFF7FEFF 		bl	rp_get_and_clear_raw_radio_irq
 4569 0032 0123     		movs	r3, #1
ARM GAS  /tmp/cc3hQV0n.s 			page 81


 4570 0034 2370     		strb	r3, [r4]
 4571 0036 019B     		ldr	r3, [sp, #4]
 4572 0038 3078     		ldrb	r0, [r6]
 4573 003a 0393     		str	r3, [sp, #12]
 4574 003c FFF7FEFF 		bl	convert_rp_to_user_radio_access_rp_status
 4575 0040 6B46     		mov	r3, sp
 4576 0042 5B88     		ldrh	r3, [r3, #2]
 4577 0044 6070     		strb	r0, [r4, #1]
 4578 0046 6380     		strh	r3, [r4, #2]
 4579 0048 034B     		ldr	r3, .L743
 4580 004a 1B68     		ldr	r3, [r3]
 4581 004c 002B     		cmp	r3, #0
 4582 004e 01D0     		beq	.L738
 4583 0050 2000     		movs	r0, r4
 4584 0052 9847     		blx	r3
 4585              	.L738:
 4586              		@ sp needed
 4587 0054 7FBD     		pop	{r0, r1, r2, r3, r4, r5, r6, pc}
 4588              	.L744:
 4589 0056 C046     		.align	2
 4590              	.L743:
 4591 0058 00000000 		.word	user_end_task_callback_1
 4593              		.section	.text.callback_rp_user_radio_access_2,"ax",%progbits
 4594              		.align	1
 4595              		.global	callback_rp_user_radio_access_2
 4596              		.syntax unified
 4597              		.code	16
 4598              		.thumb_func
 4600              	callback_rp_user_radio_access_2:
 4601              		@ args = 0, pretend = 0, frame = 16
 4602              		@ frame_needed = 0, uses_anonymous_args = 0
 4603 0000 7FB5     		push	{r0, r1, r2, r3, r4, r5, r6, lr}
 4604 0002 02AC     		add	r4, sp, #8
 4605 0004 0500     		movs	r5, r0
 4606 0006 0822     		movs	r2, #8
 4607 0008 0021     		movs	r1, #0
 4608 000a 2000     		movs	r0, r4
 4609 000c FFF7FEFF 		bl	memset
 4610 0010 6A46     		mov	r2, sp
 4611 0012 0023     		movs	r3, #0
 4612 0014 561C     		adds	r6, r2, #1
 4613 0016 5380     		strh	r3, [r2, #2]
 4614 0018 0921     		movs	r1, #9
 4615 001a 2800     		movs	r0, r5
 4616 001c 0193     		str	r3, [sp, #4]
 4617 001e 01AA     		add	r2, sp, #4
 4618 0020 3300     		movs	r3, r6
 4619 0022 FFF7FEFF 		bl	rp_get_status
 4620 0026 6B46     		mov	r3, sp
 4621 0028 0921     		movs	r1, #9
 4622 002a 9A1C     		adds	r2, r3, #2
 4623 002c 2800     		movs	r0, r5
 4624 002e FFF7FEFF 		bl	rp_get_and_clear_raw_radio_irq
 4625 0032 0223     		movs	r3, #2
 4626 0034 2370     		strb	r3, [r4]
 4627 0036 019B     		ldr	r3, [sp, #4]
 4628 0038 3078     		ldrb	r0, [r6]
ARM GAS  /tmp/cc3hQV0n.s 			page 82


 4629 003a 0393     		str	r3, [sp, #12]
 4630 003c FFF7FEFF 		bl	convert_rp_to_user_radio_access_rp_status
 4631 0040 6B46     		mov	r3, sp
 4632 0042 5B88     		ldrh	r3, [r3, #2]
 4633 0044 6070     		strb	r0, [r4, #1]
 4634 0046 6380     		strh	r3, [r4, #2]
 4635 0048 034B     		ldr	r3, .L750
 4636 004a 1B68     		ldr	r3, [r3]
 4637 004c 002B     		cmp	r3, #0
 4638 004e 01D0     		beq	.L745
 4639 0050 2000     		movs	r0, r4
 4640 0052 9847     		blx	r3
 4641              	.L745:
 4642              		@ sp needed
 4643 0054 7FBD     		pop	{r0, r1, r2, r3, r4, r5, r6, pc}
 4644              	.L751:
 4645 0056 C046     		.align	2
 4646              	.L750:
 4647 0058 00000000 		.word	user_end_task_callback_2
 4649              		.section	.rodata.CSWTCH.144,"a"
 4652              	CSWTCH.144:
 4653 0000 00       		.byte	0
 4654 0001 01       		.byte	1
 4655 0002 02       		.byte	2
 4656 0003 03       		.byte	3
 4657 0004 04       		.byte	4
 4658 0005 05       		.byte	5
 4659 0006 09       		.byte	9
 4660 0007 09       		.byte	9
 4661 0008 06       		.byte	6
 4662 0009 07       		.byte	7
 4663 000a 08       		.byte	8
 4664              		.set	CSWTCH.147,CSWTCH.144
 4665              		.section	.rodata.__func__.0,"a"
 4668              	__func__.0:
 4669 0000 736D7463 		.ascii	"smtc_modem_file_upload_init\000"
 4669      5F6D6F64 
 4669      656D5F66 
 4669      696C655F 
 4669      75706C6F 
 4670              		.section	.rodata.__func__.1,"a"
 4673              	__func__.1:
 4674 0000 736D7463 		.ascii	"smtc_modem_send_empty_tx\000"
 4674      5F6D6F64 
 4674      656D5F73 
 4674      656E645F 
 4674      656D7074 
 4675              		.section	.rodata.__func__.2,"a"
 4678              	__func__.2:
 4679 0000 736D7463 		.ascii	"smtc_modem_send_tx\000"
 4679      5F6D6F64 
 4679      656D5F73 
 4679      656E645F 
 4679      747800
 4680              		.section	.rodata.__func__.3,"a"
 4683              	__func__.3:
 4684 0000 736D7463 		.ascii	"smtc_modem_get_next_tx_max_payload\000"
ARM GAS  /tmp/cc3hQV0n.s 			page 83


 4684      5F6D6F64 
 4684      656D5F67 
 4684      65745F6E 
 4684      6578745F 
 4685              		.section	.rodata.__func__.4,"a"
 4688              	__func__.4:
 4689 0000 736D7463 		.ascii	"smtc_modem_suspend_radio_communications\000"
 4689      5F6D6F64 
 4689      656D5F73 
 4689      75737065 
 4689      6E645F72 
 4690              		.section	.rodata.__func__.5,"a"
 4693              	__func__.5:
 4694 0000 736D7463 		.ascii	"smtc_modem_join_network\000"
 4694      5F6D6F64 
 4694      656D5F6A 
 4694      6F696E5F 
 4694      6E657477 
 4695              		.section	.rodata.__func__.6,"a"
 4698              	__func__.6:
 4699 0000 736D7463 		.ascii	"smtc_modem_dm_set_info_interval\000"
 4699      5F6D6F64 
 4699      656D5F64 
 4699      6D5F7365 
 4699      745F696E 
 4700              		.section	.rodata.__func__.7,"a"
 4703              	__func__.7:
 4704 0000 736D7463 		.ascii	"smtc_modem_dm_set_fport\000"
 4704      5F6D6F64 
 4704      656D5F64 
 4704      6D5F7365 
 4704      745F6670 
 4705              		.section	.rodata.__func__.8,"a"
 4708              	__func__.8:
 4709 0000 736D7463 		.ascii	"smtc_modem_adr_set_profile\000"
 4709      5F6D6F64 
 4709      656D5F61 
 4709      64725F73 
 4709      65745F70 
 4710              		.section	.rodata.__func__.9,"a"
 4713              	__func__.9:
 4714 0000 736D7463 		.ascii	"smtc_modem_set_region\000"
 4714      5F6D6F64 
 4714      656D5F73 
 4714      65745F72 
 4714      6567696F 
 4715              		.section	.rodata.__func__.10,"a"
 4718              	__func__.10:
 4719 0000 736D7463 		.ascii	"smtc_modem_set_nwkkey\000"
 4719      5F6D6F64 
 4719      656D5F73 
 4719      65745F6E 
 4719      776B6B65 
 4720              		.section	.rodata.__func__.11,"a"
 4723              	__func__.11:
 4724 0000 736D7463 		.ascii	"smtc_modem_set_deveui\000"
 4724      5F6D6F64 
ARM GAS  /tmp/cc3hQV0n.s 			page 84


 4724      656D5F73 
 4724      65745F64 
 4724      65766575 
 4725              		.section	.rodata.__func__.12,"a"
 4728              	__func__.12:
 4729 0000 736D7463 		.ascii	"smtc_modem_set_joineui\000"
 4729      5F6D6F64 
 4729      656D5F73 
 4729      65745F6A 
 4729      6F696E65 
 4730              		.section	.rodata.__func__.13,"a"
 4733              	__func__.13:
 4734 0000 69735F6D 		.ascii	"is_modem_connected\000"
 4734      6F64656D 
 4734      5F636F6E 
 4734      6E656374 
 4734      656400
 4735              		.section	.rodata.__func__.14,"a"
 4738              	__func__.14:
 4739 0000 736D7463 		.ascii	"smtc_modem_get_event\000"
 4739      5F6D6F64 
 4739      656D5F67 
 4739      65745F65 
 4739      76656E74 
 4740              		.section	.bss.user_end_task_callback_2,"aw",%nobits
 4741              		.align	2
 4744              	user_end_task_callback_2:
 4745 0000 00000000 		.space	4
 4746              		.section	.bss.user_end_task_callback_1,"aw",%nobits
 4747              		.align	2
 4750              	user_end_task_callback_1:
 4751 0000 00000000 		.space	4
 4752              		.section	.bss.user_end_task_callback_0,"aw",%nobits
 4753              		.align	2
 4756              	user_end_task_callback_0:
 4757 0000 00000000 		.space	4
 4758              		.section	.bss.user_radio_irq_timestamp,"aw",%nobits
 4759              		.align	2
 4762              	user_radio_irq_timestamp:
 4763 0000 00000000 		.space	4
 4764              		.section	.bss.user_radio_irq_status,"aw",%nobits
 4767              	user_radio_irq_status:
 4768 0000 00       		.space	1
 4769              		.section	.bss.lbt_config_available,"aw",%nobits
 4772              	lbt_config_available:
 4773 0000 00       		.space	1
 4774              		.global	smtc_modem_services_ctx
 4775              		.section	.bss.smtc_modem_services_ctx,"aw",%nobits
 4776              		.align	2
 4779              	smtc_modem_services_ctx:
 4780 0000 00000000 		.space	1228
 4780      00000000 
 4780      00000000 
 4780      00000000 
 4780      00000000 
 4781              		.section	.bss.modem_radio_planner,"aw",%nobits
 4782              		.align	2
ARM GAS  /tmp/cc3hQV0n.s 			page 85


 4785              	modem_radio_planner:
 4786 0000 00000000 		.space	2504
 4786      00000000 
 4786      00000000 
 4786      00000000 
 4786      00000000 
 4787              		.section	.bss.modem_buffer,"aw",%nobits
 4788              		.align	2
 4791              	modem_buffer:
 4792 0000 00000000 		.space	242
 4792      00000000 
 4792      00000000 
 4792      00000000 
 4792      00000000 
 4793              		.ident	"GCC: (Arch Repository) 13.2.0"
ARM GAS  /tmp/cc3hQV0n.s 			page 86


DEFINED SYMBOLS
                            *ABS*:00000000 smtc_modem.c
     /tmp/cc3hQV0n.s:14     .text.empty_callback:00000000 $t
     /tmp/cc3hQV0n.s:20     .text.empty_callback:00000000 empty_callback
     /tmp/cc3hQV0n.s:39     .text.is_modem_connected:00000000 $t
     /tmp/cc3hQV0n.s:44     .text.is_modem_connected:00000000 is_modem_connected
     /tmp/cc3hQV0n.s:92     .text.is_modem_connected:00000058 $d
     /tmp/cc3hQV0n.s:4733   .rodata.__func__.13:00000000 __func__.13
     /tmp/cc3hQV0n.s:103    .text.user_radio_access_callback:00000000 $t
     /tmp/cc3hQV0n.s:109    .text.user_radio_access_callback:00000000 user_radio_access_callback
     /tmp/cc3hQV0n.s:137    .text.user_radio_access_callback:00000030 $d
     /tmp/cc3hQV0n.s:4767   .bss.user_radio_irq_status:00000000 user_radio_irq_status
     /tmp/cc3hQV0n.s:4762   .bss.user_radio_irq_timestamp:00000000 user_radio_irq_timestamp
     /tmp/cc3hQV0n.s:148    .text.smtc_modem_send_tx.constprop.0:00000000 $t
     /tmp/cc3hQV0n.s:153    .text.smtc_modem_send_tx.constprop.0:00000000 smtc_modem_send_tx.constprop.0
     /tmp/cc3hQV0n.s:230    .text.smtc_modem_send_tx.constprop.0:00000090 $d
     /tmp/cc3hQV0n.s:4678   .rodata.__func__.2:00000000 __func__.2
     /tmp/cc3hQV0n.s:4791   .bss.modem_buffer:00000000 modem_buffer
     /tmp/cc3hQV0n.s:239    .text.smtc_modem_init:00000000 $t
     /tmp/cc3hQV0n.s:245    .text.smtc_modem_init:00000000 smtc_modem_init
     /tmp/cc3hQV0n.s:309    .text.smtc_modem_init:0000008c $d
     /tmp/cc3hQV0n.s:4785   .bss.modem_radio_planner:00000000 modem_radio_planner
     /tmp/cc3hQV0n.s:4487   .text.callback_rp_user_radio_access_0:00000000 callback_rp_user_radio_access_0
     /tmp/cc3hQV0n.s:4544   .text.callback_rp_user_radio_access_1:00000000 callback_rp_user_radio_access_1
     /tmp/cc3hQV0n.s:4600   .text.callback_rp_user_radio_access_2:00000000 callback_rp_user_radio_access_2
     /tmp/cc3hQV0n.s:4779   .bss.smtc_modem_services_ctx:00000000 smtc_modem_services_ctx
     /tmp/cc3hQV0n.s:321    .text.smtc_modem_run_engine:00000000 $t
     /tmp/cc3hQV0n.s:327    .text.smtc_modem_run_engine:00000000 smtc_modem_run_engine
     /tmp/cc3hQV0n.s:349    .text.smtc_modem_get_modem_version:00000000 $t
     /tmp/cc3hQV0n.s:355    .text.smtc_modem_get_modem_version:00000000 smtc_modem_get_modem_version
     /tmp/cc3hQV0n.s:379    .text.smtc_modem_get_lorawan_version:00000000 $t
     /tmp/cc3hQV0n.s:385    .text.smtc_modem_get_lorawan_version:00000000 smtc_modem_get_lorawan_version
     /tmp/cc3hQV0n.s:412    .text.smtc_modem_get_regional_params_version:00000000 $t
     /tmp/cc3hQV0n.s:418    .text.smtc_modem_get_regional_params_version:00000000 smtc_modem_get_regional_params_version
     /tmp/cc3hQV0n.s:445    .text.smtc_modem_reset:00000000 $t
     /tmp/cc3hQV0n.s:451    .text.smtc_modem_reset:00000000 smtc_modem_reset
     /tmp/cc3hQV0n.s:468    .text.smtc_modem_factory_reset:00000000 $t
     /tmp/cc3hQV0n.s:474    .text.smtc_modem_factory_reset:00000000 smtc_modem_factory_reset
     /tmp/cc3hQV0n.s:493    .text.smtc_modem_get_charge:00000000 $t
     /tmp/cc3hQV0n.s:499    .text.smtc_modem_get_charge:00000000 smtc_modem_get_charge
     /tmp/cc3hQV0n.s:520    .text.smtc_modem_reset_charge:00000000 $t
     /tmp/cc3hQV0n.s:526    .text.smtc_modem_reset_charge:00000000 smtc_modem_reset_charge
     /tmp/cc3hQV0n.s:542    .text.smtc_modem_get_tx_power_offset_db:00000000 $t
     /tmp/cc3hQV0n.s:548    .text.smtc_modem_get_tx_power_offset_db:00000000 smtc_modem_get_tx_power_offset_db
     /tmp/cc3hQV0n.s:569    .text.smtc_modem_set_tx_power_offset_db:00000000 $t
     /tmp/cc3hQV0n.s:575    .text.smtc_modem_set_tx_power_offset_db:00000000 smtc_modem_set_tx_power_offset_db
     /tmp/cc3hQV0n.s:599    .text.smtc_modem_time_start_sync_service:00000000 $t
     /tmp/cc3hQV0n.s:605    .text.smtc_modem_time_start_sync_service:00000000 smtc_modem_time_start_sync_service
     /tmp/cc3hQV0n.s:646    .text.smtc_modem_time_start_sync_service:00000050 $d
     /tmp/cc3hQV0n.s:649    .text.smtc_modem_time_stop_sync_service:00000000 $t
     /tmp/cc3hQV0n.s:655    .text.smtc_modem_time_stop_sync_service:00000000 smtc_modem_time_stop_sync_service
     /tmp/cc3hQV0n.s:685    .text.smtc_modem_time_stop_sync_service:00000038 $d
     /tmp/cc3hQV0n.s:689    .text.smtc_modem_get_time:00000000 $t
     /tmp/cc3hQV0n.s:695    .text.smtc_modem_get_time:00000000 smtc_modem_get_time
     /tmp/cc3hQV0n.s:732    .text.smtc_modem_get_time:00000040 $d
     /tmp/cc3hQV0n.s:735    .text.smtc_modem_time_set_alcsync_fport:00000000 $t
     /tmp/cc3hQV0n.s:741    .text.smtc_modem_time_set_alcsync_fport:00000000 smtc_modem_time_set_alcsync_fport
ARM GAS  /tmp/cc3hQV0n.s 			page 87


     /tmp/cc3hQV0n.s:763    .text.smtc_modem_time_set_alcsync_fport:00000020 $d
     /tmp/cc3hQV0n.s:766    .text.smtc_modem_time_trigger_sync_request:00000000 $t
     /tmp/cc3hQV0n.s:772    .text.smtc_modem_time_trigger_sync_request:00000000 smtc_modem_time_trigger_sync_request
     /tmp/cc3hQV0n.s:801    .text.smtc_modem_time_trigger_sync_request:00000030 $d
     /tmp/cc3hQV0n.s:804    .text.smtc_modem_time_get_alcsync_fport:00000000 $t
     /tmp/cc3hQV0n.s:810    .text.smtc_modem_time_get_alcsync_fport:00000000 smtc_modem_time_get_alcsync_fport
     /tmp/cc3hQV0n.s:833    .text.smtc_modem_time_get_alcsync_fport:00000024 $d
     /tmp/cc3hQV0n.s:836    .text.smtc_modem_time_set_sync_interval_s:00000000 $t
     /tmp/cc3hQV0n.s:842    .text.smtc_modem_time_set_sync_interval_s:00000000 smtc_modem_time_set_sync_interval_s
     /tmp/cc3hQV0n.s:864    .text.smtc_modem_time_set_sync_interval_s:00000020 $d
     /tmp/cc3hQV0n.s:867    .text.smtc_modem_time_get_sync_interval_s:00000000 $t
     /tmp/cc3hQV0n.s:873    .text.smtc_modem_time_get_sync_interval_s:00000000 smtc_modem_time_get_sync_interval_s
     /tmp/cc3hQV0n.s:896    .text.smtc_modem_time_get_sync_interval_s:00000024 $d
     /tmp/cc3hQV0n.s:899    .text.smtc_modem_time_set_sync_invalid_delay_s:00000000 $t
     /tmp/cc3hQV0n.s:905    .text.smtc_modem_time_set_sync_invalid_delay_s:00000000 smtc_modem_time_set_sync_invalid_delay_s
     /tmp/cc3hQV0n.s:927    .text.smtc_modem_time_set_sync_invalid_delay_s:00000020 $d
     /tmp/cc3hQV0n.s:930    .text.smtc_modem_time_get_sync_invalid_delay_s:00000000 $t
     /tmp/cc3hQV0n.s:936    .text.smtc_modem_time_get_sync_invalid_delay_s:00000000 smtc_modem_time_get_sync_invalid_delay_s
     /tmp/cc3hQV0n.s:959    .text.smtc_modem_time_get_sync_invalid_delay_s:00000024 $d
     /tmp/cc3hQV0n.s:962    .text.smtc_modem_get_status:00000000 $t
     /tmp/cc3hQV0n.s:968    .text.smtc_modem_get_status:00000000 smtc_modem_get_status
     /tmp/cc3hQV0n.s:989    .text.smtc_modem_alarm_start_timer:00000000 $t
     /tmp/cc3hQV0n.s:995    .text.smtc_modem_alarm_start_timer:00000000 smtc_modem_alarm_start_timer
     /tmp/cc3hQV0n.s:1022   .text.smtc_modem_alarm_clear_timer:00000000 $t
     /tmp/cc3hQV0n.s:1028   .text.smtc_modem_alarm_clear_timer:00000000 smtc_modem_alarm_clear_timer
     /tmp/cc3hQV0n.s:1056   .text.smtc_modem_alarm_clear_timer:00000030 $d
     /tmp/cc3hQV0n.s:1064   .text.smtc_modem_alarm_get_remaining_time:00000000 $t
     /tmp/cc3hQV0n.s:1070   .text.smtc_modem_alarm_get_remaining_time:00000000 smtc_modem_alarm_get_remaining_time
     /tmp/cc3hQV0n.s:1108   .text.smtc_modem_alarm_get_remaining_time:00000048 $d
     /tmp/cc3hQV0n.s:1112   .text.smtc_modem_get_joineui:00000000 $t
     /tmp/cc3hQV0n.s:1118   .text.smtc_modem_get_joineui:00000000 smtc_modem_get_joineui
     /tmp/cc3hQV0n.s:1146   .text.smtc_modem_set_joineui:00000000 $t
     /tmp/cc3hQV0n.s:1152   .text.smtc_modem_set_joineui:00000000 smtc_modem_set_joineui
     /tmp/cc3hQV0n.s:1187   .text.smtc_modem_set_joineui:0000003c $d
     /tmp/cc3hQV0n.s:4728   .rodata.__func__.12:00000000 __func__.12
     /tmp/cc3hQV0n.s:1192   .text.smtc_modem_get_deveui:00000000 $t
     /tmp/cc3hQV0n.s:1198   .text.smtc_modem_get_deveui:00000000 smtc_modem_get_deveui
     /tmp/cc3hQV0n.s:1222   .text.smtc_modem_set_deveui:00000000 $t
     /tmp/cc3hQV0n.s:1228   .text.smtc_modem_set_deveui:00000000 smtc_modem_set_deveui
     /tmp/cc3hQV0n.s:1263   .text.smtc_modem_set_deveui:0000003c $d
     /tmp/cc3hQV0n.s:4723   .rodata.__func__.11:00000000 __func__.11
     /tmp/cc3hQV0n.s:1268   .text.smtc_modem_set_nwkkey:00000000 $t
     /tmp/cc3hQV0n.s:1274   .text.smtc_modem_set_nwkkey:00000000 smtc_modem_set_nwkkey
     /tmp/cc3hQV0n.s:1308   .text.smtc_modem_set_nwkkey:0000003c $d
     /tmp/cc3hQV0n.s:4718   .rodata.__func__.10:00000000 __func__.10
     /tmp/cc3hQV0n.s:1313   .text.smtc_modem_get_class:00000000 $t
     /tmp/cc3hQV0n.s:1319   .text.smtc_modem_get_class:00000000 smtc_modem_get_class
     /tmp/cc3hQV0n.s:1347   .text.smtc_modem_set_class:00000000 $t
     /tmp/cc3hQV0n.s:1353   .text.smtc_modem_set_class:00000000 smtc_modem_set_class
     /tmp/cc3hQV0n.s:1412   .text.smtc_modem_set_class:00000070 $d
     /tmp/cc3hQV0n.s:1418   .text.smtc_modem_multicast_set_grp_config:00000000 $t
     /tmp/cc3hQV0n.s:1424   .text.smtc_modem_multicast_set_grp_config:00000000 smtc_modem_multicast_set_grp_config
     /tmp/cc3hQV0n.s:1465   .text.smtc_modem_multicast_get_grp_config:00000000 $t
     /tmp/cc3hQV0n.s:1471   .text.smtc_modem_multicast_get_grp_config:00000000 smtc_modem_multicast_get_grp_config
     /tmp/cc3hQV0n.s:1499   .text.smtc_modem_multicast_class_c_start_session:00000000 $t
     /tmp/cc3hQV0n.s:1505   .text.smtc_modem_multicast_class_c_start_session:00000000 smtc_modem_multicast_class_c_start_session
     /tmp/cc3hQV0n.s:1539   .text.smtc_modem_multicast_class_c_get_session_status:00000000 $t
ARM GAS  /tmp/cc3hQV0n.s 			page 88


     /tmp/cc3hQV0n.s:1545   .text.smtc_modem_multicast_class_c_get_session_status:00000000 smtc_modem_multicast_class_c_get_session_status
     /tmp/cc3hQV0n.s:1580   .text.smtc_modem_multicast_class_c_stop_session:00000000 $t
     /tmp/cc3hQV0n.s:1586   .text.smtc_modem_multicast_class_c_stop_session:00000000 smtc_modem_multicast_class_c_stop_session
     /tmp/cc3hQV0n.s:1609   .text.smtc_modem_multicast_class_c_stop_all_sessions:00000000 $t
     /tmp/cc3hQV0n.s:1615   .text.smtc_modem_multicast_class_c_stop_all_sessions:00000000 smtc_modem_multicast_class_c_stop_all_sessions
     /tmp/cc3hQV0n.s:1633   .text.smtc_modem_multicast_class_b_start_session:00000000 $t
     /tmp/cc3hQV0n.s:1639   .text.smtc_modem_multicast_class_b_start_session:00000000 smtc_modem_multicast_class_b_start_session
     /tmp/cc3hQV0n.s:1676   .text.smtc_modem_multicast_class_b_get_session_status:00000000 $t
     /tmp/cc3hQV0n.s:1682   .text.smtc_modem_multicast_class_b_get_session_status:00000000 smtc_modem_multicast_class_b_get_session_status
     /tmp/cc3hQV0n.s:1726   .text.smtc_modem_multicast_class_b_stop_session:00000000 $t
     /tmp/cc3hQV0n.s:1732   .text.smtc_modem_multicast_class_b_stop_session:00000000 smtc_modem_multicast_class_b_stop_session
     /tmp/cc3hQV0n.s:1755   .text.smtc_modem_multicast_class_b_stop_all_sessions:00000000 $t
     /tmp/cc3hQV0n.s:1761   .text.smtc_modem_multicast_class_b_stop_all_sessions:00000000 smtc_modem_multicast_class_b_stop_all_sessions
     /tmp/cc3hQV0n.s:1779   .text.smtc_modem_get_region:00000000 $t
     /tmp/cc3hQV0n.s:1785   .text.smtc_modem_get_region:00000000 smtc_modem_get_region
     /tmp/cc3hQV0n.s:1810   .text.smtc_modem_set_region:00000000 $t
     /tmp/cc3hQV0n.s:1816   .text.smtc_modem_set_region:00000000 smtc_modem_set_region
     /tmp/cc3hQV0n.s:1853   .text.smtc_modem_set_region:00000044 $d
     /tmp/cc3hQV0n.s:4713   .rodata.__func__.9:00000000 __func__.9
     /tmp/cc3hQV0n.s:1859   .text.smtc_modem_adr_get_profile:00000000 $t
     /tmp/cc3hQV0n.s:1865   .text.smtc_modem_adr_get_profile:00000000 smtc_modem_adr_get_profile
     /tmp/cc3hQV0n.s:1890   .text.smtc_modem_adr_set_profile:00000000 $t
     /tmp/cc3hQV0n.s:1896   .text.smtc_modem_adr_set_profile:00000000 smtc_modem_adr_set_profile
     /tmp/cc3hQV0n.s:1944   .text.smtc_modem_adr_set_profile:00000050 $d
     /tmp/cc3hQV0n.s:4708   .rodata.__func__.8:00000000 __func__.8
     /tmp/cc3hQV0n.s:1949   .text.smtc_modem_get_available_datarates:00000000 $t
     /tmp/cc3hQV0n.s:1955   .text.smtc_modem_get_available_datarates:00000000 smtc_modem_get_available_datarates
     /tmp/cc3hQV0n.s:1976   .text.smtc_modem_dm_get_fport:00000000 $t
     /tmp/cc3hQV0n.s:1982   .text.smtc_modem_dm_get_fport:00000000 smtc_modem_dm_get_fport
     /tmp/cc3hQV0n.s:2007   .text.smtc_modem_dm_set_fport:00000000 $t
     /tmp/cc3hQV0n.s:2013   .text.smtc_modem_dm_set_fport:00000000 smtc_modem_dm_set_fport
     /tmp/cc3hQV0n.s:2040   .text.smtc_modem_dm_set_fport:00000030 $d
     /tmp/cc3hQV0n.s:4703   .rodata.__func__.7:00000000 __func__.7
     /tmp/cc3hQV0n.s:2045   .text.smtc_modem_dm_get_info_interval:00000000 $t
     /tmp/cc3hQV0n.s:2051   .text.smtc_modem_dm_get_info_interval:00000000 smtc_modem_dm_get_info_interval
     /tmp/cc3hQV0n.s:2083   .text.smtc_modem_dm_set_info_interval:00000000 $t
     /tmp/cc3hQV0n.s:2089   .text.smtc_modem_dm_set_info_interval:00000000 smtc_modem_dm_set_info_interval
     /tmp/cc3hQV0n.s:2130   .text.smtc_modem_dm_set_info_interval:00000048 $d
     /tmp/cc3hQV0n.s:4698   .rodata.__func__.6:00000000 __func__.6
     /tmp/cc3hQV0n.s:2135   .text.smtc_modem_dm_get_info_fields:00000000 $t
     /tmp/cc3hQV0n.s:2141   .text.smtc_modem_dm_get_info_fields:00000000 smtc_modem_dm_get_info_fields
     /tmp/cc3hQV0n.s:2167   .text.smtc_modem_dm_set_info_fields:00000000 $t
     /tmp/cc3hQV0n.s:2173   .text.smtc_modem_dm_set_info_fields:00000000 smtc_modem_dm_set_info_fields
     /tmp/cc3hQV0n.s:2198   .text.smtc_modem_dm_request_single_uplink:00000000 $t
     /tmp/cc3hQV0n.s:2204   .text.smtc_modem_dm_request_single_uplink:00000000 smtc_modem_dm_request_single_uplink
     /tmp/cc3hQV0n.s:2238   .text.smtc_modem_dm_set_user_data:00000000 $t
     /tmp/cc3hQV0n.s:2244   .text.smtc_modem_dm_set_user_data:00000000 smtc_modem_dm_set_user_data
     /tmp/cc3hQV0n.s:2265   .text.smtc_modem_dm_get_user_data:00000000 $t
     /tmp/cc3hQV0n.s:2271   .text.smtc_modem_dm_get_user_data:00000000 smtc_modem_dm_get_user_data
     /tmp/cc3hQV0n.s:2298   .text.smtc_modem_join_network:00000000 $t
     /tmp/cc3hQV0n.s:2304   .text.smtc_modem_join_network:00000000 smtc_modem_join_network
     /tmp/cc3hQV0n.s:2357   .text.smtc_modem_join_network:00000064 $d
     /tmp/cc3hQV0n.s:4693   .rodata.__func__.5:00000000 __func__.5
     /tmp/cc3hQV0n.s:2365   .text.smtc_modem_leave_network:00000000 $t
     /tmp/cc3hQV0n.s:2371   .text.smtc_modem_leave_network:00000000 smtc_modem_leave_network
     /tmp/cc3hQV0n.s:2391   .text.smtc_modem_suspend_radio_communications:00000000 $t
     /tmp/cc3hQV0n.s:2397   .text.smtc_modem_suspend_radio_communications:00000000 smtc_modem_suspend_radio_communications
ARM GAS  /tmp/cc3hQV0n.s 			page 89


     /tmp/cc3hQV0n.s:2424   .text.smtc_modem_suspend_radio_communications:00000030 $d
     /tmp/cc3hQV0n.s:4688   .rodata.__func__.4:00000000 __func__.4
     /tmp/cc3hQV0n.s:2433   .text.smtc_modem_get_next_tx_max_payload:00000000 $t
     /tmp/cc3hQV0n.s:2439   .text.smtc_modem_get_next_tx_max_payload:00000000 smtc_modem_get_next_tx_max_payload
     /tmp/cc3hQV0n.s:2473   .text.smtc_modem_get_next_tx_max_payload:0000003c $d
     /tmp/cc3hQV0n.s:4683   .rodata.__func__.3:00000000 __func__.3
     /tmp/cc3hQV0n.s:2478   .text.smtc_modem_request_uplink:00000000 $t
     /tmp/cc3hQV0n.s:2484   .text.smtc_modem_request_uplink:00000000 smtc_modem_request_uplink
     /tmp/cc3hQV0n.s:2512   .text.smtc_modem_request_extended_uplink:00000000 $t
     /tmp/cc3hQV0n.s:2518   .text.smtc_modem_request_extended_uplink:00000000 smtc_modem_request_extended_uplink
     /tmp/cc3hQV0n.s:2529   .text.smtc_modem_abort_extended_uplink:00000000 $t
     /tmp/cc3hQV0n.s:2535   .text.smtc_modem_abort_extended_uplink:00000000 smtc_modem_abort_extended_uplink
     /tmp/cc3hQV0n.s:2546   .text.smtc_modem_request_emergency_uplink:00000000 $t
     /tmp/cc3hQV0n.s:2552   .text.smtc_modem_request_emergency_uplink:00000000 smtc_modem_request_emergency_uplink
     /tmp/cc3hQV0n.s:2581   .text.smtc_modem_request_empty_uplink:00000000 $t
     /tmp/cc3hQV0n.s:2587   .text.smtc_modem_request_empty_uplink:00000000 smtc_modem_request_empty_uplink
     /tmp/cc3hQV0n.s:2654   .text.smtc_modem_request_empty_uplink:0000007c $d
     /tmp/cc3hQV0n.s:4673   .rodata.__func__.1:00000000 __func__.1
     /tmp/cc3hQV0n.s:2675   .text.smtc_modem_file_upload_init:00000000 $t
     /tmp/cc3hQV0n.s:2681   .text.smtc_modem_file_upload_init:00000000 smtc_modem_file_upload_init
     /tmp/cc3hQV0n.s:2766   .text.smtc_modem_file_upload_init:000000a4 $d
     /tmp/cc3hQV0n.s:4668   .rodata.__func__.0:00000000 __func__.0
     /tmp/cc3hQV0n.s:2783   .text.smtc_modem_file_upload_start:00000000 $t
     /tmp/cc3hQV0n.s:2789   .text.smtc_modem_file_upload_start:00000000 smtc_modem_file_upload_start
     /tmp/cc3hQV0n.s:2840   .text.smtc_modem_file_upload_start:0000006c $d
     /tmp/cc3hQV0n.s:2853   .text.smtc_modem_file_upload_reset:00000000 $t
     /tmp/cc3hQV0n.s:2859   .text.smtc_modem_file_upload_reset:00000000 smtc_modem_file_upload_reset
     /tmp/cc3hQV0n.s:2898   .text.smtc_modem_file_upload_reset:0000004c $d
     /tmp/cc3hQV0n.s:2919   .text.smtc_modem_stream_init:00000000 $t
     /tmp/cc3hQV0n.s:2925   .text.smtc_modem_stream_init:00000000 smtc_modem_stream_init
     /tmp/cc3hQV0n.s:3000   .text.smtc_modem_stream_init:0000009c $d
     /tmp/cc3hQV0n.s:3025   .text.smtc_modem_stream_add_data:00000000 $t
     /tmp/cc3hQV0n.s:3031   .text.smtc_modem_stream_add_data:00000000 smtc_modem_stream_add_data
     /tmp/cc3hQV0n.s:3111   .text.smtc_modem_stream_add_data:000000a4 $d
     /tmp/cc3hQV0n.s:3120   .text.smtc_modem_stream_status:00000000 $t
     /tmp/cc3hQV0n.s:3126   .text.smtc_modem_stream_status:00000000 smtc_modem_stream_status
     /tmp/cc3hQV0n.s:3157   .text.smtc_modem_stream_status:00000034 $d
     /tmp/cc3hQV0n.s:3160   .text.smtc_modem_set_certification_mode:00000000 $t
     /tmp/cc3hQV0n.s:3166   .text.smtc_modem_set_certification_mode:00000000 smtc_modem_set_certification_mode
     /tmp/cc3hQV0n.s:3192   .text.smtc_modem_increment_event_middleware:00000000 $t
     /tmp/cc3hQV0n.s:3198   .text.smtc_modem_increment_event_middleware:00000000 smtc_modem_increment_event_middleware
     /tmp/cc3hQV0n.s:3215   .text.smtc_modem_get_certification_mode:00000000 $t
     /tmp/cc3hQV0n.s:3221   .text.smtc_modem_get_certification_mode:00000000 smtc_modem_get_certification_mode
     /tmp/cc3hQV0n.s:3244   .text.smtc_modem_connection_timeout_set_thresholds:00000000 $t
     /tmp/cc3hQV0n.s:3250   .text.smtc_modem_connection_timeout_set_thresholds:00000000 smtc_modem_connection_timeout_set_thresholds
     /tmp/cc3hQV0n.s:3271   .text.smtc_modem_connection_timeout_get_thresholds:00000000 $t
     /tmp/cc3hQV0n.s:3277   .text.smtc_modem_connection_timeout_get_thresholds:00000000 smtc_modem_connection_timeout_get_thresholds
     /tmp/cc3hQV0n.s:3303   .text.smtc_modem_connection_timeout_get_current_values:00000000 $t
     /tmp/cc3hQV0n.s:3309   .text.smtc_modem_connection_timeout_get_current_values:00000000 smtc_modem_connection_timeout_get_current_values
     /tmp/cc3hQV0n.s:3335   .text.smtc_modem_lorawan_get_lost_connection_counter:00000000 $t
     /tmp/cc3hQV0n.s:3341   .text.smtc_modem_lorawan_get_lost_connection_counter:00000000 smtc_modem_lorawan_get_lost_connection_counter
     /tmp/cc3hQV0n.s:3362   .text.smtc_modem_get_duty_cycle_status:00000000 $t
     /tmp/cc3hQV0n.s:3368   .text.smtc_modem_get_duty_cycle_status:00000000 smtc_modem_get_duty_cycle_status
     /tmp/cc3hQV0n.s:3390   .text.smtc_modem_rp_abort_user_radio_access_task:00000000 $t
     /tmp/cc3hQV0n.s:3396   .text.smtc_modem_rp_abort_user_radio_access_task:00000000 smtc_modem_rp_abort_user_radio_access_task
     /tmp/cc3hQV0n.s:3429   .text.smtc_modem_rp_abort_user_radio_access_task:00000030 $d
     /tmp/cc3hQV0n.s:3432   .text.smtc_modem_rp_add_user_radio_access_task:00000000 $t
ARM GAS  /tmp/cc3hQV0n.s 			page 90


     /tmp/cc3hQV0n.s:3438   .text.smtc_modem_rp_add_user_radio_access_task:00000000 smtc_modem_rp_add_user_radio_access_task
     /tmp/cc3hQV0n.s:3511   .text.smtc_modem_rp_add_user_radio_access_task:00000084 $d
     /tmp/cc3hQV0n.s:4756   .bss.user_end_task_callback_0:00000000 user_end_task_callback_0
     /tmp/cc3hQV0n.s:4750   .bss.user_end_task_callback_1:00000000 user_end_task_callback_1
     /tmp/cc3hQV0n.s:4744   .bss.user_end_task_callback_2:00000000 user_end_task_callback_2
     /tmp/cc3hQV0n.s:3520   .text.smtc_modem_suspend_before_user_radio_access:00000000 $t
     /tmp/cc3hQV0n.s:3526   .text.smtc_modem_suspend_before_user_radio_access:00000000 smtc_modem_suspend_before_user_radio_access
     /tmp/cc3hQV0n.s:3551   .text.smtc_modem_suspend_before_user_radio_access:0000002c $d
     /tmp/cc3hQV0n.s:3557   .text.smtc_modem_resume_after_user_radio_access:00000000 $t
     /tmp/cc3hQV0n.s:3563   .text.smtc_modem_resume_after_user_radio_access:00000000 smtc_modem_resume_after_user_radio_access
     /tmp/cc3hQV0n.s:3584   .text.smtc_modem_resume_after_user_radio_access:00000024 $d
     /tmp/cc3hQV0n.s:3587   .text.smtc_modem_get_stack_state:00000000 $t
     /tmp/cc3hQV0n.s:3593   .text.smtc_modem_get_stack_state:00000000 smtc_modem_get_stack_state
     /tmp/cc3hQV0n.s:3625   .text.smtc_modem_set_network_type:00000000 $t
     /tmp/cc3hQV0n.s:3631   .text.smtc_modem_set_network_type:00000000 smtc_modem_set_network_type
     /tmp/cc3hQV0n.s:3649   .text.smtc_modem_get_network_type:00000000 $t
     /tmp/cc3hQV0n.s:3655   .text.smtc_modem_get_network_type:00000000 smtc_modem_get_network_type
     /tmp/cc3hQV0n.s:3679   .text.smtc_modem_lbt_set_parameters:00000000 $t
     /tmp/cc3hQV0n.s:3685   .text.smtc_modem_lbt_set_parameters:00000000 smtc_modem_lbt_set_parameters
     /tmp/cc3hQV0n.s:3716   .text.smtc_modem_lbt_set_parameters:00000034 $d
     /tmp/cc3hQV0n.s:4772   .bss.lbt_config_available:00000000 lbt_config_available
     /tmp/cc3hQV0n.s:3720   .text.smtc_modem_lbt_get_parameters:00000000 $t
     /tmp/cc3hQV0n.s:3726   .text.smtc_modem_lbt_get_parameters:00000000 smtc_modem_lbt_get_parameters
     /tmp/cc3hQV0n.s:3759   .text.smtc_modem_lbt_set_state:00000000 $t
     /tmp/cc3hQV0n.s:3765   .text.smtc_modem_lbt_set_state:00000000 smtc_modem_lbt_set_state
     /tmp/cc3hQV0n.s:3799   .text.smtc_modem_lbt_set_state:00000038 $d
     /tmp/cc3hQV0n.s:3804   .text.smtc_modem_lbt_get_state:00000000 $t
     /tmp/cc3hQV0n.s:3810   .text.smtc_modem_lbt_get_state:00000000 smtc_modem_lbt_get_state
     /tmp/cc3hQV0n.s:3831   .text.smtc_modem_set_nb_trans:00000000 $t
     /tmp/cc3hQV0n.s:3837   .text.smtc_modem_set_nb_trans:00000000 smtc_modem_set_nb_trans
     /tmp/cc3hQV0n.s:3857   .text.smtc_modem_get_nb_trans:00000000 $t
     /tmp/cc3hQV0n.s:3863   .text.smtc_modem_get_nb_trans:00000000 smtc_modem_get_nb_trans
     /tmp/cc3hQV0n.s:3884   .text.smtc_modem_set_crystal_error_ppm:00000000 $t
     /tmp/cc3hQV0n.s:3890   .text.smtc_modem_set_crystal_error_ppm:00000000 smtc_modem_set_crystal_error_ppm
     /tmp/cc3hQV0n.s:3908   .text.smtc_modem_get_crystal_error_ppm:00000000 $t
     /tmp/cc3hQV0n.s:3914   .text.smtc_modem_get_crystal_error_ppm:00000000 smtc_modem_get_crystal_error_ppm
     /tmp/cc3hQV0n.s:3935   .text.smtc_modem_lorawan_request_link_check:00000000 $t
     /tmp/cc3hQV0n.s:3941   .text.smtc_modem_lorawan_request_link_check:00000000 smtc_modem_lorawan_request_link_check
     /tmp/cc3hQV0n.s:3962   .text.smtc_modem_lorawan_class_b_request_ping_slot_info:00000000 $t
     /tmp/cc3hQV0n.s:3968   .text.smtc_modem_lorawan_class_b_request_ping_slot_info:00000000 smtc_modem_lorawan_class_b_request_ping_slot_info
     /tmp/cc3hQV0n.s:3989   .text.smtc_modem_class_b_set_ping_slot_periodicity:00000000 $t
     /tmp/cc3hQV0n.s:3995   .text.smtc_modem_class_b_set_ping_slot_periodicity:00000000 smtc_modem_class_b_set_ping_slot_periodicity
     /tmp/cc3hQV0n.s:4015   .text.smtc_modem_class_b_get_ping_slot_periodicity:00000000 $t
     /tmp/cc3hQV0n.s:4021   .text.smtc_modem_class_b_get_ping_slot_periodicity:00000000 smtc_modem_class_b_get_ping_slot_periodicity
     /tmp/cc3hQV0n.s:4042   .text.smtc_modem_d2d_class_b_request_uplink:00000000 $t
     /tmp/cc3hQV0n.s:4048   .text.smtc_modem_d2d_class_b_request_uplink:00000000 smtc_modem_d2d_class_b_request_uplink
     /tmp/cc3hQV0n.s:4057   .text.smtc_modem_d2d_class_b_get_tx_max_payload:00000000 $t
     /tmp/cc3hQV0n.s:4063   .text.smtc_modem_d2d_class_b_get_tx_max_payload:00000000 smtc_modem_d2d_class_b_get_tx_max_payload
     /tmp/cc3hQV0n.s:4072   .text.smtc_modem_get_network_frame_pending_status:00000000 $t
     /tmp/cc3hQV0n.s:4078   .text.smtc_modem_get_network_frame_pending_status:00000000 smtc_modem_get_network_frame_pending_status
     /tmp/cc3hQV0n.s:4099   .text.smtc_modem_set_adr_ack_limit_delay:00000000 $t
     /tmp/cc3hQV0n.s:4105   .text.smtc_modem_set_adr_ack_limit_delay:00000000 smtc_modem_set_adr_ack_limit_delay
     /tmp/cc3hQV0n.s:4127   .text.smtc_modem_get_adr_ack_limit_delay:00000000 $t
     /tmp/cc3hQV0n.s:4133   .text.smtc_modem_get_adr_ack_limit_delay:00000000 smtc_modem_get_adr_ack_limit_delay
     /tmp/cc3hQV0n.s:4158   .text.smtc_modem_get_pin:00000000 $t
     /tmp/cc3hQV0n.s:4164   .text.smtc_modem_get_pin:00000000 smtc_modem_get_pin
     /tmp/cc3hQV0n.s:4176   .text.smtc_modem_get_chip_eui:00000000 $t
ARM GAS  /tmp/cc3hQV0n.s 			page 91


     /tmp/cc3hQV0n.s:4182   .text.smtc_modem_get_chip_eui:00000000 smtc_modem_get_chip_eui
     /tmp/cc3hQV0n.s:4194   .text.smtc_modem_derive_keys:00000000 $t
     /tmp/cc3hQV0n.s:4200   .text.smtc_modem_derive_keys:00000000 smtc_modem_derive_keys
     /tmp/cc3hQV0n.s:4220   .text.convert_rp_to_user_radio_access_status:00000000 $t
     /tmp/cc3hQV0n.s:4226   .text.convert_rp_to_user_radio_access_status:00000000 convert_rp_to_user_radio_access_status
     /tmp/cc3hQV0n.s:4242   .text.convert_rp_to_user_radio_access_status:00000010 $d
     /tmp/cc3hQV0n.s:4652   .rodata.CSWTCH.144:00000000 CSWTCH.144
     /tmp/cc3hQV0n.s:4250   .text.smtc_modem_get_event:00000000 $t
     /tmp/cc3hQV0n.s:4256   .text.smtc_modem_get_event:00000000 smtc_modem_get_event
     /tmp/cc3hQV0n.s:4314   .text.smtc_modem_get_event:0000007c $d
     /tmp/cc3hQV0n.s:4448   .text.smtc_modem_get_event:00000158 $d
     /tmp/cc3hQV0n.s:4738   .rodata.__func__.14:00000000 __func__.14
     /tmp/cc3hQV0n.s:4456   .text.convert_rp_to_user_radio_access_rp_status:00000000 $t
     /tmp/cc3hQV0n.s:4462   .text.convert_rp_to_user_radio_access_rp_status:00000000 convert_rp_to_user_radio_access_rp_status
     /tmp/cc3hQV0n.s:4478   .text.convert_rp_to_user_radio_access_rp_status:00000010 $d
     /tmp/cc3hQV0n.s:4652   .rodata.CSWTCH.144:00000000 CSWTCH.147
     /tmp/cc3hQV0n.s:4481   .text.callback_rp_user_radio_access_0:00000000 $t
     /tmp/cc3hQV0n.s:4535   .text.callback_rp_user_radio_access_0:00000058 $d
     /tmp/cc3hQV0n.s:4538   .text.callback_rp_user_radio_access_1:00000000 $t
     /tmp/cc3hQV0n.s:4591   .text.callback_rp_user_radio_access_1:00000058 $d
     /tmp/cc3hQV0n.s:4594   .text.callback_rp_user_radio_access_2:00000000 $t
     /tmp/cc3hQV0n.s:4647   .text.callback_rp_user_radio_access_2:00000058 $d
     /tmp/cc3hQV0n.s:4741   .bss.user_end_task_callback_2:00000000 $d
     /tmp/cc3hQV0n.s:4747   .bss.user_end_task_callback_1:00000000 $d
     /tmp/cc3hQV0n.s:4753   .bss.user_end_task_callback_0:00000000 $d
     /tmp/cc3hQV0n.s:4759   .bss.user_radio_irq_timestamp:00000000 $d
     /tmp/cc3hQV0n.s:4768   .bss.user_radio_irq_status:00000000 $d
     /tmp/cc3hQV0n.s:4773   .bss.lbt_config_available:00000000 $d
     /tmp/cc3hQV0n.s:4776   .bss.smtc_modem_services_ctx:00000000 $d
     /tmp/cc3hQV0n.s:4782   .bss.modem_radio_planner:00000000 $d
     /tmp/cc3hQV0n.s:4788   .bss.modem_buffer:00000000 $d
     /tmp/cc3hQV0n.s:4339   .text.smtc_modem_get_event:00000095 $d
     /tmp/cc3hQV0n.s:4339   .text.smtc_modem_get_event:00000096 $t

UNDEFINED SYMBOLS
get_modem_muted
dm_get_number_of_days_mute
smtc_modem_hal_print_trace
get_modem_suspend
get_join_state
lorawan_api_get_activation_mode
rp_get_status
increment_asynchronous_msgnumber
get_modem_dm_port
lorawan_api_modem_certification_is_enabled
lorawan_api_duty_cycle_enable_set
memcpy
smtc_modem_hal_get_time_in_s
modem_supervisor_add_task
modem_context_set_modem_radio_ctx
rp_init
smtc_modem_hal_irq_config_radio_irq
rp_hook_init
modem_supervisor_init
smtc_secure_element_init
rp_radio_irq_callback
lorawan_api_get_fifo_obj
ARM GAS  /tmp/cc3hQV0n.s 			page 92


fifo_ctrl_get_nb_elt
set_modem_event_count_and_status
modem_supervisor_engine
modem_get_test_mode_status
lorawan_api_get_spec_version
lorawan_api_get_regional_parameters_version
set_modem_reset_requested
lorawan_api_factory_reset
modem_context_factory_reset
get_modem_charge_ma_h
reset_modem_charge
modem_context_get_tx_power_offset_db
modem_context_set_tx_power_offset_db
clock_sync_is_enabled
clock_sync_set_enabled
modem_supervisor_is_clock_sync_running
modem_supervisor_add_task_clock_sync_time_req
clock_sync_set_sync_lost
modem_supervisor_remove_task_clock_sync
clock_sync_is_time_valid
clock_sync_get_gps_time_second
clock_sync_set_alcsync_port
clock_sync_get_alcsync_port
clock_sync_set_interval_second
clock_sync_get_interval_second
clock_sync_set_invalid_time_delay_s
clock_sync_get_invalid_time_delay_s
get_modem_status
modem_set_user_alarm
modem_get_user_alarm
lorawan_api_get_joineui
lorawan_api_set_joineui
lorawan_api_get_deveui
lorawan_api_set_deveui
modem_context_set_appkey
get_modem_class
lorawan_api_class_b_enabled
lorawan_api_class_c_enabled
set_modem_class
lorawan_api_multicast_set_group_address
lorawan_api_multicast_set_group_session_keys
lorawan_api_multicast_get_group_address
lorawan_api_multicast_c_start_session
lorawan_api_multicast_c_get_session_status
lorawan_api_multicast_c_stop_session
lorawan_api_multicast_c_stop_all_sessions
lorawan_api_multicast_b_start_session
lorawan_api_multicast_b_get_session_status
lorawan_api_multicast_b_stop_session
lorawan_api_multicast_b_stop_all_sessions
get_modem_region
set_modem_region
get_modem_adr_profile
set_modem_adr_profile
lorawan_api_reset_no_rx_packet_in_mobile_mode_cnt
lorawan_api_mask_tx_dr_channel_up_dwell_time_check
set_modem_dm_port
ARM GAS  /tmp/cc3hQV0n.s 			page 93


get_modem_dm_interval
set_modem_dm_interval
get_modem_dm_interval_second
modem_supervisor_add_task_dm_status
get_dm_info_tag_list
set_dm_info
modem_supervisor_add_task_dm_status_now
set_modem_appstatus
get_modem_appstatus
modem_supervisor_add_task_join
modem_leave
set_modem_suspend
lorawan_api_next_max_payload_length_get
modem_get_upload_state
modem_context_compute_and_get_next_dm_upload_sctr
file_upload_init
file_upload_attach_file_buffer
modem_set_upload_state
file_upload_prepare_upload
smtc_modem_hal_get_random_nb_in_range
modem_supervisor_add_task_file_upload
set_modem_status_file_upload
stream_reset
stream_init
stream_enable_encryption
modem_supervisor_remove_task
modem_set_stream_port
stream_set_rr
modem_set_stream_encryption
modem_set_stream_state
modem_get_stream_state
stream_add_data
modem_supervisor_add_task_stream
stream_status
lorawan_api_modem_certification_set
smtc_secure_element_store_context
smtc_modem_test_duty_cycle_app_activate
modem_set_adr_mobile_timeout_config
lorawan_api_set_no_rx_packet_threshold
modem_get_adr_mobile_timeout_config
lorawan_api_get_no_rx_packet_threshold
lorawan_api_get_current_no_rx_packet_in_mobile_mode_cnt
lorawan_api_get_current_adr_ack_cnt
lorawan_api_get_current_no_rx_packet_cnt
lorawan_api_next_free_duty_cycle_ms_get
rp_task_abort
memset
rp_task_enqueue
modem_context_suspend_user_radio_access
modem_context_resume_user_radio_access
lorawan_api_state_get
modem_context_set_network_type
modem_context_get_network_type
lorawan_api_lbt_set_parameters
lorawan_api_lbt_get_parameters
lorawan_api_lbt_set_state
lorawan_api_lbt_get_state
ARM GAS  /tmp/cc3hQV0n.s 			page 94


lorawan_api_nb_trans_set
lorawan_api_nb_trans_get
lorawan_api_set_crystal_error
lorawan_api_get_crystal_error
modem_supervisor_add_task_link_check_req
modem_supervisor_add_task_ping_slot_info_req
lorawan_api_set_ping_slot_periodicity
lorawan_api_get_ping_slot_periodicity
lorawan_api_rx_fpending_bit_get
lorawan_api_set_adr_ack_limit_delay
lorawan_api_get_adr_ack_limit_delay
get_asynchronous_msgnumber
smtc_modem_hal_store_crashlog
smtc_modem_hal_set_crashlog_status
smtc_modem_hal_reset_mcu
get_last_msg_event
get_modem_event_count
__gnu_thumb1_case_uqi
lorawan_api_nb_reset_get
decrement_asynchronous_msgnumber
fifo_ctrl_get
get_modem_event_status
lorawan_api_get_link_check_ans
rp_get_and_clear_raw_radio_irq
