ARM GAS  /tmp/ccFPSyWO.s 			page 1


   1              		.cpu cortex-m0
   2              		.arch armv6s-m
   3              		.fpu softvfp
   4              		.eabi_attribute 23, 1
   5              		.eabi_attribute 24, 1
   6              		.eabi_attribute 25, 1
   7              		.eabi_attribute 26, 1
   8              		.eabi_attribute 30, 4
   9              		.eabi_attribute 34, 0
  10              		.eabi_attribute 18, 4
  11              		.file	"smtc_modem.c"
  12              		.text
  13              		.section	.text.empty_callback,"ax",%progbits
  14              		.align	1
  15              		.global	empty_callback
  16              		.syntax unified
  17              		.code	16
  18              		.thumb_func
  20              	empty_callback:
  21              		@ args = 0, pretend = 0, frame = 0
  22              		@ frame_needed = 0, uses_anonymous_args = 0
  23              		@ link register save eliminated.
  24              		@ sp needed
  25 0000 7047     		bx	lr
  27              		.section	.rodata.is_modem_connected.str1.1,"aMS",%progbits,1
  28              	.LC1:
  29 0000 1B5B303B 		.ascii	"\033[0;31mERROR: %s Modem is muted for %d day(s)\012"
  29      33316D45 
  29      52524F52 
  29      3A202573 
  29      204D6F64 
  30 002e 00       		.ascii	"\000"
  31              	.LC3:
  32 002f 1B5B306D 		.ascii	"\033[0m\000"
  32      00
  33              	.LC5:
  34 0034 1B5B303B 		.ascii	"\033[0;31mERROR: %s Modem is suspend\012\000"
  34      33316D45 
  34      52524F52 
  34      3A202573 
  34      204D6F64 
  35              	.LC7:
  36 0057 1B5B303B 		.ascii	"\033[0;31mERROR: %s Stack not joined or OTA device "
  36      33316D45 
  36      52524F52 
  36      3A202573 
  36      20537461 
  37 0087 2564200A 		.ascii	"%d \012\000"
  37      00
  38              		.section	.text.is_modem_connected,"ax",%progbits
  39              		.align	1
  40              		.syntax unified
  41              		.code	16
  42              		.thumb_func
  44              	is_modem_connected:
  45              		@ args = 0, pretend = 0, frame = 0
  46              		@ frame_needed = 0, uses_anonymous_args = 0
ARM GAS  /tmp/ccFPSyWO.s 			page 2


  47 0000 10B5     		push	{r4, lr}
  48 0002 FFF7FEFF 		bl	get_modem_muted
  49 0006 0028     		cmp	r0, #0
  50 0008 08D0     		beq	.L3
  51 000a FFF7FEFF 		bl	dm_get_number_of_days_mute
  52 000e 0200     		movs	r2, r0
  53 0010 1149     		ldr	r1, .L11
  54 0012 124B     		ldr	r3, .L11+4
  55              	.L10:
  56 0014 1800     		movs	r0, r3
  57 0016 FFF7FEFF 		bl	smtc_modem_hal_print_trace
  58 001a 07E0     		b	.L9
  59              	.L3:
  60 001c FFF7FEFF 		bl	get_modem_suspend
  61 0020 0128     		cmp	r0, #1
  62 0022 08D1     		bne	.L5
  63 0024 0C49     		ldr	r1, .L11
  64 0026 0E48     		ldr	r0, .L11+8
  65 0028 FFF7FEFF 		bl	smtc_modem_hal_print_trace
  66              	.L9:
  67 002c 0D48     		ldr	r0, .L11+12
  68 002e FFF7FEFF 		bl	smtc_modem_hal_print_trace
  69 0032 0020     		movs	r0, #0
  70              	.L6:
  71              		@ sp needed
  72 0034 10BD     		pop	{r4, pc}
  73              	.L5:
  74 0036 FFF7FEFF 		bl	get_join_state
  75 003a 0228     		cmp	r0, #2
  76 003c 01D1     		bne	.L7
  77              	.L8:
  78 003e 0120     		movs	r0, #1
  79 0040 F8E7     		b	.L6
  80              	.L7:
  81 0042 FFF7FEFF 		bl	lorawan_api_get_activation_mode
  82 0046 0028     		cmp	r0, #0
  83 0048 F9D1     		bne	.L8
  84 004a FFF7FEFF 		bl	get_join_state
  85 004e 0249     		ldr	r1, .L11
  86 0050 0200     		movs	r2, r0
  87 0052 054B     		ldr	r3, .L11+16
  88 0054 DEE7     		b	.L10
  89              	.L12:
  90 0056 C046     		.align	2
  91              	.L11:
  92 0058 00000000 		.word	__func__.13
  93 005c 00000000 		.word	.LC1
  94 0060 34000000 		.word	.LC5
  95 0064 2F000000 		.word	.LC3
  96 0068 57000000 		.word	.LC7
  98              		.section	.rodata.user_radio_access_callback.str1.1,"aMS",%progbits,1
  99              	.LC11:
 100 0000 1B5B303B 		.ascii	"\033[0;32mINFO: User radio access callback: ignored"
 100      33326D49 
 100      4E464F3A 
 100      20557365 
 100      72207261 
ARM GAS  /tmp/ccFPSyWO.s 			page 3


 101 0030 2041424F 		.ascii	" ABORTED status \012\000"
 101      52544544 
 101      20737461 
 101      74757320 
 101      0A00
 102              		.section	.text.user_radio_access_callback,"ax",%progbits
 103              		.align	1
 104              		.global	user_radio_access_callback
 105              		.syntax unified
 106              		.code	16
 107              		.thumb_func
 109              	user_radio_access_callback:
 110              		@ args = 0, pretend = 0, frame = 0
 111              		@ frame_needed = 0, uses_anonymous_args = 0
 112 0000 10B5     		push	{r4, lr}
 113 0002 0B4B     		ldr	r3, .L16
 114 0004 0B4C     		ldr	r4, .L16+4
 115 0006 C15C     		ldrb	r1, [r0, r3]
 116 0008 0B4A     		ldr	r2, .L16+8
 117 000a 2300     		movs	r3, r4
 118 000c FFF7FEFF 		bl	rp_get_status
 119 0010 2378     		ldrb	r3, [r4]
 120 0012 0A2B     		cmp	r3, #10
 121 0014 06D1     		bne	.L14
 122 0016 0948     		ldr	r0, .L16+12
 123 0018 FFF7FEFF 		bl	smtc_modem_hal_print_trace
 124 001c 0848     		ldr	r0, .L16+16
 125 001e FFF7FEFF 		bl	smtc_modem_hal_print_trace
 126              	.L13:
 127              		@ sp needed
 128 0022 10BD     		pop	{r4, pc}
 129              	.L14:
 130 0024 0021     		movs	r1, #0
 131 0026 1220     		movs	r0, #18
 132 0028 FFF7FEFF 		bl	increment_asynchronous_msgnumber
 133 002c F9E7     		b	.L13
 134              	.L17:
 135 002e C046     		.align	2
 136              	.L16:
 137 0030 84090000 		.word	2436
 138 0034 00000000 		.word	user_radio_irq_status
 139 0038 00000000 		.word	user_radio_irq_timestamp
 140 003c 00000000 		.word	.LC11
 141 0040 2F000000 		.word	.LC3
 143              		.section	.rodata.smtc_modem_send_tx.constprop.0.str1.1,"aMS",%progbits,1
 144              	.LC15:
 145 0000 1B5B303B 		.ascii	"\033[0;31mERROR: %s port %d is forbidden \012\000"
 145      33316D45 
 145      52524F52 
 145      3A202573 
 145      20706F72 
 146              		.section	.text.smtc_modem_send_tx.constprop.0,"ax",%progbits
 147              		.align	1
 148              		.syntax unified
 149              		.code	16
 150              		.thumb_func
 152              	smtc_modem_send_tx.constprop.0:
ARM GAS  /tmp/ccFPSyWO.s 			page 4


 153              		@ args = 4, pretend = 0, frame = 32
 154              		@ frame_needed = 0, uses_anonymous_args = 0
 155 0000 F0B5     		push	{r4, r5, r6, r7, lr}
 156 0002 89B0     		sub	sp, sp, #36
 157 0004 1E00     		movs	r6, r3
 158 0006 0EAB     		add	r3, sp, #56
 159 0008 0500     		movs	r5, r0
 160 000a 1F78     		ldrb	r7, [r3]
 161 000c 0091     		str	r1, [sp]
 162 000e 0192     		str	r2, [sp, #4]
 163 0010 FFF7FEFF 		bl	is_modem_connected
 164 0014 0028     		cmp	r0, #0
 165 0016 35D0     		beq	.L19
 166 0018 6B1E     		subs	r3, r5, #1
 167 001a DBB2     		uxtb	r3, r3
 168 001c DE2B     		cmp	r3, #222
 169 001e 0ED8     		bhi	.L20
 170              	.L23:
 171 0020 FFF7FEFF 		bl	get_modem_dm_port
 172 0024 8542     		cmp	r5, r0
 173 0026 0FD1     		bne	.L33
 174              	.L21:
 175 0028 2A00     		movs	r2, r5
 176 002a 1949     		ldr	r1, .L34
 177 002c 1948     		ldr	r0, .L34+4
 178 002e FFF7FEFF 		bl	smtc_modem_hal_print_trace
 179 0032 1948     		ldr	r0, .L34+8
 180 0034 FFF7FEFF 		bl	smtc_modem_hal_print_trace
 181 0038 0420     		movs	r0, #4
 182              	.L24:
 183 003a 09B0     		add	sp, sp, #36
 184              		@ sp needed
 185 003c F0BD     		pop	{r4, r5, r6, r7, pc}
 186              	.L20:
 187 003e FFF7FEFF 		bl	lorawan_api_modem_certification_is_enabled
 188 0042 0028     		cmp	r0, #0
 189 0044 ECD1     		bne	.L23
 190 0046 EFE7     		b	.L21
 191              	.L33:
 192 0048 03AC     		add	r4, sp, #12
 193 004a 002F     		cmp	r7, #0
 194 004c 1CD0     		beq	.L25
 195 004e 0020     		movs	r0, #0
 196 0050 2072     		strb	r0, [r4, #8]
 197 0052 FFF7FEFF 		bl	lorawan_api_duty_cycle_enable_set
 198              	.L26:
 199 0056 114F     		ldr	r7, .L34+12
 200 0058 3200     		movs	r2, r6
 201 005a 0199     		ldr	r1, [sp, #4]
 202 005c 3800     		movs	r0, r7
 203 005e FFF7FEFF 		bl	memcpy
 204 0062 0023     		movs	r3, #0
 205 0064 2370     		strb	r3, [r4]
 206 0066 0133     		adds	r3, r3, #1
 207 0068 A372     		strb	r3, [r4, #10]
 208 006a 009B     		ldr	r3, [sp]
 209 006c E760     		str	r7, [r4, #12]
ARM GAS  /tmp/ccFPSyWO.s 			page 5


 210 006e 6572     		strb	r5, [r4, #9]
 211 0070 6374     		strb	r3, [r4, #17]
 212 0072 2674     		strb	r6, [r4, #16]
 213 0074 FFF7FEFF 		bl	smtc_modem_hal_get_time_in_s
 214 0078 6060     		str	r0, [r4, #4]
 215 007a 2000     		movs	r0, r4
 216 007c FFF7FEFF 		bl	modem_supervisor_add_task
 217 0080 0028     		cmp	r0, #0
 218 0082 DAD0     		beq	.L24
 219              	.L19:
 220 0084 0620     		movs	r0, #6
 221 0086 D8E7     		b	.L24
 222              	.L25:
 223 0088 0123     		movs	r3, #1
 224 008a 2372     		strb	r3, [r4, #8]
 225 008c E3E7     		b	.L26
 226              	.L35:
 227 008e C046     		.align	2
 228              	.L34:
 229 0090 00000000 		.word	__func__.2
 230 0094 00000000 		.word	.LC15
 231 0098 2F000000 		.word	.LC3
 232 009c 00000000 		.word	modem_buffer
 234              		.section	.rodata.smtc_modem_init.str1.1,"aMS",%progbits,1
 235              	.LC19:
 236 0000 1B5B303B 		.ascii	"\033[0;32mINFO: Modem Initialization\012\000"
 236      33326D49 
 236      4E464F3A 
 236      204D6F64 
 236      656D2049 
 237              		.section	.text.smtc_modem_init,"ax",%progbits
 238              		.align	1
 239              		.global	smtc_modem_init
 240              		.syntax unified
 241              		.code	16
 242              		.thumb_func
 244              	smtc_modem_init:
 245              		@ args = 0, pretend = 0, frame = 0
 246              		@ frame_needed = 0, uses_anonymous_args = 0
 247 0000 70B5     		push	{r4, r5, r6, lr}
 248 0002 0500     		movs	r5, r0
 249              		@ sp needed
 250 0004 0E00     		movs	r6, r1
 251 0006 2148     		ldr	r0, .L37
 252 0008 FFF7FEFF 		bl	smtc_modem_hal_print_trace
 253 000c 2048     		ldr	r0, .L37+4
 254 000e FFF7FEFF 		bl	smtc_modem_hal_print_trace
 255 0012 AB68     		ldr	r3, [r5, #8]
 256 0014 2868     		ldr	r0, [r5]
 257 0016 9847     		blx	r3
 258 0018 EB68     		ldr	r3, [r5, #12]
 259 001a 2868     		ldr	r0, [r5]
 260 001c 9847     		blx	r3
 261 001e 6B69     		ldr	r3, [r5, #20]
 262 0020 0121     		movs	r1, #1
 263 0022 2868     		ldr	r0, [r5]
 264 0024 9847     		blx	r3
ARM GAS  /tmp/ccFPSyWO.s 			page 6


 265 0026 2868     		ldr	r0, [r5]
 266 0028 FFF7FEFF 		bl	modem_context_set_modem_radio_ctx
 267 002c 194C     		ldr	r4, .L37+8
 268 002e 2900     		movs	r1, r5
 269 0030 2000     		movs	r0, r4
 270 0032 FFF7FEFF 		bl	rp_init
 271 0036 2100     		movs	r1, r4
 272 0038 1748     		ldr	r0, .L37+12
 273 003a FFF7FEFF 		bl	smtc_modem_hal_irq_config_radio_irq
 274 003e 2300     		movs	r3, r4
 275 0040 0221     		movs	r1, #2
 276 0042 2000     		movs	r0, r4
 277 0044 154A     		ldr	r2, .L37+16
 278 0046 FFF7FEFF 		bl	rp_hook_init
 279 004a 2300     		movs	r3, r4
 280 004c 0021     		movs	r1, #0
 281 004e 2000     		movs	r0, r4
 282 0050 134A     		ldr	r2, .L37+20
 283 0052 FFF7FEFF 		bl	rp_hook_init
 284 0056 2300     		movs	r3, r4
 285 0058 0121     		movs	r1, #1
 286 005a 2000     		movs	r0, r4
 287 005c 114A     		ldr	r2, .L37+24
 288 005e FFF7FEFF 		bl	rp_hook_init
 289 0062 2300     		movs	r3, r4
 290 0064 0821     		movs	r1, #8
 291 0066 2000     		movs	r0, r4
 292 0068 0F4A     		ldr	r2, .L37+28
 293 006a FFF7FEFF 		bl	rp_hook_init
 294 006e 2300     		movs	r3, r4
 295 0070 0921     		movs	r1, #9
 296 0072 2000     		movs	r0, r4
 297 0074 0D4A     		ldr	r2, .L37+32
 298 0076 FFF7FEFF 		bl	rp_hook_init
 299 007a 3000     		movs	r0, r6
 300 007c 2100     		movs	r1, r4
 301 007e 0C4A     		ldr	r2, .L37+36
 302 0080 FFF7FEFF 		bl	modem_supervisor_init
 303 0084 FFF7FEFF 		bl	smtc_secure_element_init
 304 0088 70BD     		pop	{r4, r5, r6, pc}
 305              	.L38:
 306 008a C046     		.align	2
 307              	.L37:
 308 008c 00000000 		.word	.LC19
 309 0090 2F000000 		.word	.LC3
 310 0094 00000000 		.word	modem_radio_planner
 311 0098 00000000 		.word	rp_radio_irq_callback
 312 009c 00000000 		.word	empty_callback
 313 00a0 00000000 		.word	user_radio_access_callback
 314 00a4 00000000 		.word	callback_rp_user_radio_access_0
 315 00a8 00000000 		.word	callback_rp_user_radio_access_1
 316 00ac 00000000 		.word	callback_rp_user_radio_access_2
 317 00b0 00000000 		.word	smtc_modem_services_ctx
 319              		.section	.text.smtc_modem_run_engine,"ax",%progbits
 320              		.align	1
 321              		.global	smtc_modem_run_engine
 322              		.syntax unified
ARM GAS  /tmp/ccFPSyWO.s 			page 7


 323              		.code	16
 324              		.thumb_func
 326              	smtc_modem_run_engine:
 327              		@ args = 0, pretend = 0, frame = 0
 328              		@ frame_needed = 0, uses_anonymous_args = 0
 329 0000 10B5     		push	{r4, lr}
 330 0002 FFF7FEFF 		bl	lorawan_api_get_fifo_obj
 331 0006 FFF7FEFF 		bl	fifo_ctrl_get_nb_elt
 332 000a C4B2     		uxtb	r4, r0
 333 000c 002C     		cmp	r4, #0
 334 000e 08D0     		beq	.L40
 335 0010 0021     		movs	r1, #0
 336 0012 0420     		movs	r0, #4
 337 0014 FFF7FEFF 		bl	increment_asynchronous_msgnumber
 338 0018 0022     		movs	r2, #0
 339 001a 2100     		movs	r1, r4
 340 001c 0420     		movs	r0, #4
 341 001e FFF7FEFF 		bl	set_modem_event_count_and_status
 342              	.L40:
 343              		@ sp needed
 344 0022 FFF7FEFF 		bl	modem_supervisor_engine
 345 0026 10BD     		pop	{r4, pc}
 347              		.section	.text.smtc_modem_get_modem_version,"ax",%progbits
 348              		.align	1
 349              		.global	smtc_modem_get_modem_version
 350              		.syntax unified
 351              		.code	16
 352              		.thumb_func
 354              	smtc_modem_get_modem_version:
 355              		@ args = 0, pretend = 0, frame = 0
 356              		@ frame_needed = 0, uses_anonymous_args = 0
 357 0000 10B5     		push	{r4, lr}
 358 0002 0400     		movs	r4, r0
 359 0004 FFF7FEFF 		bl	modem_get_test_mode_status
 360 0008 0300     		movs	r3, r0
 361 000a 0520     		movs	r0, #5
 362 000c 002B     		cmp	r3, #0
 363 000e 08D1     		bne	.L45
 364 0010 0138     		subs	r0, r0, #1
 365 0012 002C     		cmp	r4, #0
 366 0014 05D0     		beq	.L45
 367 0016 0322     		movs	r2, #3
 368 0018 A070     		strb	r0, [r4, #2]
 369 001a 1800     		movs	r0, r3
 370 001c 2270     		strb	r2, [r4]
 371 001e 013A     		subs	r2, r2, #1
 372 0020 6270     		strb	r2, [r4, #1]
 373              	.L45:
 374              		@ sp needed
 375 0022 10BD     		pop	{r4, pc}
 377              		.section	.text.smtc_modem_get_lorawan_version,"ax",%progbits
 378              		.align	1
 379              		.global	smtc_modem_get_lorawan_version
 380              		.syntax unified
 381              		.code	16
 382              		.thumb_func
 384              	smtc_modem_get_lorawan_version:
ARM GAS  /tmp/ccFPSyWO.s 			page 8


 385              		@ args = 0, pretend = 0, frame = 8
 386              		@ frame_needed = 0, uses_anonymous_args = 0
 387 0000 37B5     		push	{r0, r1, r2, r4, r5, lr}
 388 0002 0400     		movs	r4, r0
 389 0004 FFF7FEFF 		bl	modem_get_test_mode_status
 390 0008 0500     		movs	r5, r0
 391 000a 0520     		movs	r0, #5
 392 000c 002D     		cmp	r5, #0
 393 000e 0CD1     		bne	.L49
 394 0010 0138     		subs	r0, r0, #1
 395 0012 002C     		cmp	r4, #0
 396 0014 09D0     		beq	.L49
 397 0016 FFF7FEFF 		bl	lorawan_api_get_spec_version
 398 001a 020A     		lsrs	r2, r0, #8
 399 001c 030C     		lsrs	r3, r0, #16
 400 001e 2070     		strb	r0, [r4]
 401 0020 000E     		lsrs	r0, r0, #24
 402 0022 E070     		strb	r0, [r4, #3]
 403 0024 2800     		movs	r0, r5
 404 0026 6270     		strb	r2, [r4, #1]
 405 0028 A370     		strb	r3, [r4, #2]
 406              	.L49:
 407              		@ sp needed
 408 002a 3EBD     		pop	{r1, r2, r3, r4, r5, pc}
 410              		.section	.text.smtc_modem_get_regional_params_version,"ax",%progbits
 411              		.align	1
 412              		.global	smtc_modem_get_regional_params_version
 413              		.syntax unified
 414              		.code	16
 415              		.thumb_func
 417              	smtc_modem_get_regional_params_version:
 418              		@ args = 0, pretend = 0, frame = 8
 419              		@ frame_needed = 0, uses_anonymous_args = 0
 420 0000 37B5     		push	{r0, r1, r2, r4, r5, lr}
 421 0002 0400     		movs	r4, r0
 422 0004 FFF7FEFF 		bl	modem_get_test_mode_status
 423 0008 0500     		movs	r5, r0
 424 000a 0520     		movs	r0, #5
 425 000c 002D     		cmp	r5, #0
 426 000e 0CD1     		bne	.L53
 427 0010 0138     		subs	r0, r0, #1
 428 0012 002C     		cmp	r4, #0
 429 0014 09D0     		beq	.L53
 430 0016 FFF7FEFF 		bl	lorawan_api_get_regional_parameters_version
 431 001a 020A     		lsrs	r2, r0, #8
 432 001c 030C     		lsrs	r3, r0, #16
 433 001e 2070     		strb	r0, [r4]
 434 0020 000E     		lsrs	r0, r0, #24
 435 0022 E070     		strb	r0, [r4, #3]
 436 0024 2800     		movs	r0, r5
 437 0026 6270     		strb	r2, [r4, #1]
 438 0028 A370     		strb	r3, [r4, #2]
 439              	.L53:
 440              		@ sp needed
 441 002a 3EBD     		pop	{r1, r2, r3, r4, r5, pc}
 443              		.section	.text.smtc_modem_reset,"ax",%progbits
 444              		.align	1
ARM GAS  /tmp/ccFPSyWO.s 			page 9


 445              		.global	smtc_modem_reset
 446              		.syntax unified
 447              		.code	16
 448              		.thumb_func
 450              	smtc_modem_reset:
 451              		@ args = 0, pretend = 0, frame = 0
 452              		@ frame_needed = 0, uses_anonymous_args = 0
 453 0000 10B5     		push	{r4, lr}
 454 0002 FFF7FEFF 		bl	modem_get_test_mode_status
 455 0006 0400     		movs	r4, r0
 456 0008 0520     		movs	r0, #5
 457 000a 002C     		cmp	r4, #0
 458 000c 03D1     		bne	.L57
 459 000e 0438     		subs	r0, r0, #4
 460 0010 FFF7FEFF 		bl	set_modem_reset_requested
 461 0014 2000     		movs	r0, r4
 462              	.L57:
 463              		@ sp needed
 464 0016 10BD     		pop	{r4, pc}
 466              		.section	.text.smtc_modem_factory_reset,"ax",%progbits
 467              		.align	1
 468              		.global	smtc_modem_factory_reset
 469              		.syntax unified
 470              		.code	16
 471              		.thumb_func
 473              	smtc_modem_factory_reset:
 474              		@ args = 0, pretend = 0, frame = 0
 475              		@ frame_needed = 0, uses_anonymous_args = 0
 476 0000 10B5     		push	{r4, lr}
 477 0002 FFF7FEFF 		bl	modem_get_test_mode_status
 478 0006 0400     		movs	r4, r0
 479 0008 0520     		movs	r0, #5
 480 000a 002C     		cmp	r4, #0
 481 000c 07D1     		bne	.L60
 482 000e FFF7FEFF 		bl	lorawan_api_factory_reset
 483 0012 FFF7FEFF 		bl	modem_context_factory_reset
 484 0016 0120     		movs	r0, #1
 485 0018 FFF7FEFF 		bl	set_modem_reset_requested
 486 001c 2000     		movs	r0, r4
 487              	.L60:
 488              		@ sp needed
 489 001e 10BD     		pop	{r4, pc}
 491              		.section	.text.smtc_modem_get_charge,"ax",%progbits
 492              		.align	1
 493              		.global	smtc_modem_get_charge
 494              		.syntax unified
 495              		.code	16
 496              		.thumb_func
 498              	smtc_modem_get_charge:
 499              		@ args = 0, pretend = 0, frame = 0
 500              		@ frame_needed = 0, uses_anonymous_args = 0
 501 0000 70B5     		push	{r4, r5, r6, lr}
 502 0002 0500     		movs	r5, r0
 503 0004 FFF7FEFF 		bl	modem_get_test_mode_status
 504 0008 0400     		movs	r4, r0
 505 000a 0520     		movs	r0, #5
 506 000c 002C     		cmp	r4, #0
ARM GAS  /tmp/ccFPSyWO.s 			page 10


 507 000e 06D1     		bne	.L63
 508 0010 0138     		subs	r0, r0, #1
 509 0012 002D     		cmp	r5, #0
 510 0014 03D0     		beq	.L63
 511 0016 FFF7FEFF 		bl	get_modem_charge_ma_h
 512 001a 2860     		str	r0, [r5]
 513 001c 2000     		movs	r0, r4
 514              	.L63:
 515              		@ sp needed
 516 001e 70BD     		pop	{r4, r5, r6, pc}
 518              		.section	.text.smtc_modem_reset_charge,"ax",%progbits
 519              		.align	1
 520              		.global	smtc_modem_reset_charge
 521              		.syntax unified
 522              		.code	16
 523              		.thumb_func
 525              	smtc_modem_reset_charge:
 526              		@ args = 0, pretend = 0, frame = 0
 527              		@ frame_needed = 0, uses_anonymous_args = 0
 528 0000 10B5     		push	{r4, lr}
 529 0002 FFF7FEFF 		bl	modem_get_test_mode_status
 530 0006 0400     		movs	r4, r0
 531 0008 0520     		movs	r0, #5
 532 000a 002C     		cmp	r4, #0
 533 000c 02D1     		bne	.L67
 534 000e FFF7FEFF 		bl	reset_modem_charge
 535 0012 2000     		movs	r0, r4
 536              	.L67:
 537              		@ sp needed
 538 0014 10BD     		pop	{r4, pc}
 540              		.section	.text.smtc_modem_get_tx_power_offset_db,"ax",%progbits
 541              		.align	1
 542              		.global	smtc_modem_get_tx_power_offset_db
 543              		.syntax unified
 544              		.code	16
 545              		.thumb_func
 547              	smtc_modem_get_tx_power_offset_db:
 548              		@ args = 0, pretend = 0, frame = 0
 549              		@ frame_needed = 0, uses_anonymous_args = 0
 550 0000 70B5     		push	{r4, r5, r6, lr}
 551 0002 0D00     		movs	r5, r1
 552 0004 FFF7FEFF 		bl	modem_get_test_mode_status
 553 0008 0400     		movs	r4, r0
 554 000a 0520     		movs	r0, #5
 555 000c 002C     		cmp	r4, #0
 556 000e 06D1     		bne	.L70
 557 0010 0138     		subs	r0, r0, #1
 558 0012 002D     		cmp	r5, #0
 559 0014 03D0     		beq	.L70
 560 0016 FFF7FEFF 		bl	modem_context_get_tx_power_offset_db
 561 001a 2870     		strb	r0, [r5]
 562 001c 2000     		movs	r0, r4
 563              	.L70:
 564              		@ sp needed
 565 001e 70BD     		pop	{r4, r5, r6, pc}
 567              		.section	.text.smtc_modem_set_tx_power_offset_db,"ax",%progbits
 568              		.align	1
ARM GAS  /tmp/ccFPSyWO.s 			page 11


 569              		.global	smtc_modem_set_tx_power_offset_db
 570              		.syntax unified
 571              		.code	16
 572              		.thumb_func
 574              	smtc_modem_set_tx_power_offset_db:
 575              		@ args = 0, pretend = 0, frame = 0
 576              		@ frame_needed = 0, uses_anonymous_args = 0
 577 0000 70B5     		push	{r4, r5, r6, lr}
 578 0002 0D00     		movs	r5, r1
 579 0004 FFF7FEFF 		bl	modem_get_test_mode_status
 580 0008 0400     		movs	r4, r0
 581 000a 0520     		movs	r0, #5
 582 000c 002C     		cmp	r4, #0
 583 000e 09D1     		bne	.L74
 584 0010 2B00     		movs	r3, r5
 585 0012 1E33     		adds	r3, r3, #30
 586 0014 DBB2     		uxtb	r3, r3
 587 0016 0138     		subs	r0, r0, #1
 588 0018 3C2B     		cmp	r3, #60
 589 001a 03D8     		bhi	.L74
 590 001c 2800     		movs	r0, r5
 591 001e FFF7FEFF 		bl	modem_context_set_tx_power_offset_db
 592 0022 2000     		movs	r0, r4
 593              	.L74:
 594              		@ sp needed
 595 0024 70BD     		pop	{r4, r5, r6, pc}
 597              		.section	.text.smtc_modem_time_start_sync_service,"ax",%progbits
 598              		.align	1
 599              		.global	smtc_modem_time_start_sync_service
 600              		.syntax unified
 601              		.code	16
 602              		.thumb_func
 604              	smtc_modem_time_start_sync_service:
 605              		@ args = 0, pretend = 0, frame = 0
 606              		@ frame_needed = 0, uses_anonymous_args = 0
 607 0000 70B5     		push	{r4, r5, r6, lr}
 608 0002 0C00     		movs	r4, r1
 609 0004 FFF7FEFF 		bl	modem_get_test_mode_status
 610 0008 0523     		movs	r3, #5
 611 000a 0028     		cmp	r0, #0
 612 000c 1DD1     		bne	.L78
 613 000e 013B     		subs	r3, r3, #1
 614 0010 012C     		cmp	r4, #1
 615 0012 1AD8     		bhi	.L78
 616 0014 0E4D     		ldr	r5, .L85
 617 0016 2800     		movs	r0, r5
 618 0018 FFF7FEFF 		bl	clock_sync_is_enabled
 619 001c 0623     		movs	r3, #6
 620 001e 0028     		cmp	r0, #0
 621 0020 13D1     		bne	.L78
 622 0022 2200     		movs	r2, r4
 623 0024 0121     		movs	r1, #1
 624 0026 2800     		movs	r0, r5
 625 0028 FFF7FEFF 		bl	clock_sync_set_enabled
 626 002c FFF7FEFF 		bl	get_join_state
 627 0030 0228     		cmp	r0, #2
 628 0032 09D1     		bne	.L80
ARM GAS  /tmp/ccFPSyWO.s 			page 12


 629 0034 FFF7FEFF 		bl	modem_supervisor_is_clock_sync_running
 630 0038 0028     		cmp	r0, #0
 631 003a 05D1     		bne	.L80
 632 003c 0130     		adds	r0, r0, #1
 633 003e FFF7FEFF 		bl	modem_supervisor_add_task_clock_sync_time_req
 634 0042 2800     		movs	r0, r5
 635 0044 FFF7FEFF 		bl	clock_sync_set_sync_lost
 636              	.L80:
 637 0048 0023     		movs	r3, #0
 638              	.L78:
 639              		@ sp needed
 640 004a 1800     		movs	r0, r3
 641 004c 70BD     		pop	{r4, r5, r6, pc}
 642              	.L86:
 643 004e C046     		.align	2
 644              	.L85:
 645 0050 2C000000 		.word	smtc_modem_services_ctx+44
 647              		.section	.text.smtc_modem_time_stop_sync_service,"ax",%progbits
 648              		.align	1
 649              		.global	smtc_modem_time_stop_sync_service
 650              		.syntax unified
 651              		.code	16
 652              		.thumb_func
 654              	smtc_modem_time_stop_sync_service:
 655              		@ args = 0, pretend = 0, frame = 0
 656              		@ frame_needed = 0, uses_anonymous_args = 0
 657 0000 70B5     		push	{r4, r5, r6, lr}
 658 0002 FFF7FEFF 		bl	modem_get_test_mode_status
 659 0006 0523     		movs	r3, #5
 660 0008 041E     		subs	r4, r0, #0
 661 000a 12D1     		bne	.L88
 662 000c 0A4D     		ldr	r5, .L92
 663 000e 2800     		movs	r0, r5
 664 0010 FFF7FEFF 		bl	clock_sync_is_enabled
 665 0014 0623     		movs	r3, #6
 666 0016 0028     		cmp	r0, #0
 667 0018 0BD0     		beq	.L88
 668 001a 084B     		ldr	r3, .L92+4
 669 001c 2100     		movs	r1, r4
 670 001e 1A78     		ldrb	r2, [r3]
 671 0020 2800     		movs	r0, r5
 672 0022 FFF7FEFF 		bl	clock_sync_set_enabled
 673 0026 FFF7FEFF 		bl	modem_supervisor_remove_task_clock_sync
 674 002a 2800     		movs	r0, r5
 675 002c FFF7FEFF 		bl	clock_sync_set_sync_lost
 676 0030 2300     		movs	r3, r4
 677              	.L88:
 678              		@ sp needed
 679 0032 1800     		movs	r0, r3
 680 0034 70BD     		pop	{r4, r5, r6, pc}
 681              	.L93:
 682 0036 C046     		.align	2
 683              	.L92:
 684 0038 2C000000 		.word	smtc_modem_services_ctx+44
 685 003c 3C000000 		.word	smtc_modem_services_ctx+60
 687              		.section	.text.smtc_modem_get_time,"ax",%progbits
 688              		.align	1
ARM GAS  /tmp/ccFPSyWO.s 			page 13


 689              		.global	smtc_modem_get_time
 690              		.syntax unified
 691              		.code	16
 692              		.thumb_func
 694              	smtc_modem_get_time:
 695              		@ args = 0, pretend = 0, frame = 0
 696              		@ frame_needed = 0, uses_anonymous_args = 0
 697 0000 F8B5     		push	{r3, r4, r5, r6, r7, lr}
 698 0002 0500     		movs	r5, r0
 699 0004 0C00     		movs	r4, r1
 700 0006 FFF7FEFF 		bl	modem_get_test_mode_status
 701 000a 0600     		movs	r6, r0
 702 000c 0520     		movs	r0, #5
 703 000e 002E     		cmp	r6, #0
 704 0010 10D1     		bne	.L95
 705 0012 0138     		subs	r0, r0, #1
 706 0014 002D     		cmp	r5, #0
 707 0016 0DD0     		beq	.L95
 708 0018 002C     		cmp	r4, #0
 709 001a 0BD0     		beq	.L95
 710 001c 084F     		ldr	r7, .L100
 711 001e 3800     		movs	r0, r7
 712 0020 FFF7FEFF 		bl	clock_sync_is_time_valid
 713 0024 0028     		cmp	r0, #0
 714 0026 06D0     		beq	.L96
 715 0028 2200     		movs	r2, r4
 716 002a 2900     		movs	r1, r5
 717 002c 3800     		movs	r0, r7
 718 002e FFF7FEFF 		bl	clock_sync_get_gps_time_second
 719 0032 3000     		movs	r0, r6
 720              	.L95:
 721              		@ sp needed
 722 0034 F8BD     		pop	{r3, r4, r5, r6, r7, pc}
 723              	.L96:
 724 0036 2860     		str	r0, [r5]
 725 0038 2060     		str	r0, [r4]
 726 003a 1020     		movs	r0, #16
 727 003c FAE7     		b	.L95
 728              	.L101:
 729 003e C046     		.align	2
 730              	.L100:
 731 0040 2C000000 		.word	smtc_modem_services_ctx+44
 733              		.section	.text.smtc_modem_time_set_alcsync_fport,"ax",%progbits
 734              		.align	1
 735              		.global	smtc_modem_time_set_alcsync_fport
 736              		.syntax unified
 737              		.code	16
 738              		.thumb_func
 740              	smtc_modem_time_set_alcsync_fport:
 741              		@ args = 0, pretend = 0, frame = 0
 742              		@ frame_needed = 0, uses_anonymous_args = 0
 743 0000 10B5     		push	{r4, lr}
 744 0002 0400     		movs	r4, r0
 745 0004 FFF7FEFF 		bl	modem_get_test_mode_status
 746 0008 0523     		movs	r3, #5
 747 000a 0028     		cmp	r0, #0
 748 000c 06D1     		bne	.L103
ARM GAS  /tmp/ccFPSyWO.s 			page 14


 749 000e 2100     		movs	r1, r4
 750 0010 0348     		ldr	r0, .L105
 751 0012 FFF7FEFF 		bl	clock_sync_set_alcsync_port
 752 0016 431E     		subs	r3, r0, #1
 753 0018 9841     		sbcs	r0, r0, r3
 754 001a 8300     		lsls	r3, r0, #2
 755              	.L103:
 756 001c 1800     		movs	r0, r3
 757              		@ sp needed
 758 001e 10BD     		pop	{r4, pc}
 759              	.L106:
 760              		.align	2
 761              	.L105:
 762 0020 2C000000 		.word	smtc_modem_services_ctx+44
 764              		.section	.text.smtc_modem_time_trigger_sync_request,"ax",%progbits
 765              		.align	1
 766              		.global	smtc_modem_time_trigger_sync_request
 767              		.syntax unified
 768              		.code	16
 769              		.thumb_func
 771              	smtc_modem_time_trigger_sync_request:
 772              		@ args = 0, pretend = 0, frame = 0
 773              		@ frame_needed = 0, uses_anonymous_args = 0
 774 0000 10B5     		push	{r4, lr}
 775 0002 FFF7FEFF 		bl	modem_get_test_mode_status
 776 0006 0400     		movs	r4, r0
 777 0008 0520     		movs	r0, #5
 778 000a 002C     		cmp	r4, #0
 779 000c 04D1     		bne	.L108
 780 000e FFF7FEFF 		bl	is_modem_connected
 781 0012 0028     		cmp	r0, #0
 782 0014 01D1     		bne	.L109
 783              	.L110:
 784 0016 0620     		movs	r0, #6
 785              	.L108:
 786              		@ sp needed
 787 0018 10BD     		pop	{r4, pc}
 788              	.L109:
 789 001a 0548     		ldr	r0, .L115
 790 001c FFF7FEFF 		bl	clock_sync_is_enabled
 791 0020 0028     		cmp	r0, #0
 792 0022 F8D0     		beq	.L110
 793 0024 0120     		movs	r0, #1
 794 0026 FFF7FEFF 		bl	modem_supervisor_add_task_clock_sync_time_req
 795 002a 2000     		movs	r0, r4
 796 002c F4E7     		b	.L108
 797              	.L116:
 798 002e C046     		.align	2
 799              	.L115:
 800 0030 2C000000 		.word	smtc_modem_services_ctx+44
 802              		.section	.text.smtc_modem_time_get_alcsync_fport,"ax",%progbits
 803              		.align	1
 804              		.global	smtc_modem_time_get_alcsync_fport
 805              		.syntax unified
 806              		.code	16
 807              		.thumb_func
 809              	smtc_modem_time_get_alcsync_fport:
ARM GAS  /tmp/ccFPSyWO.s 			page 15


 810              		@ args = 0, pretend = 0, frame = 0
 811              		@ frame_needed = 0, uses_anonymous_args = 0
 812 0000 70B5     		push	{r4, r5, r6, lr}
 813 0002 0500     		movs	r5, r0
 814 0004 FFF7FEFF 		bl	modem_get_test_mode_status
 815 0008 0400     		movs	r4, r0
 816 000a 0520     		movs	r0, #5
 817 000c 002C     		cmp	r4, #0
 818 000e 07D1     		bne	.L118
 819 0010 0138     		subs	r0, r0, #1
 820 0012 002D     		cmp	r5, #0
 821 0014 04D0     		beq	.L118
 822 0016 0348     		ldr	r0, .L121
 823 0018 FFF7FEFF 		bl	clock_sync_get_alcsync_port
 824 001c 2870     		strb	r0, [r5]
 825 001e 2000     		movs	r0, r4
 826              	.L118:
 827              		@ sp needed
 828 0020 70BD     		pop	{r4, r5, r6, pc}
 829              	.L122:
 830 0022 C046     		.align	2
 831              	.L121:
 832 0024 2C000000 		.word	smtc_modem_services_ctx+44
 834              		.section	.text.smtc_modem_time_set_sync_interval_s,"ax",%progbits
 835              		.align	1
 836              		.global	smtc_modem_time_set_sync_interval_s
 837              		.syntax unified
 838              		.code	16
 839              		.thumb_func
 841              	smtc_modem_time_set_sync_interval_s:
 842              		@ args = 0, pretend = 0, frame = 0
 843              		@ frame_needed = 0, uses_anonymous_args = 0
 844 0000 10B5     		push	{r4, lr}
 845 0002 0400     		movs	r4, r0
 846 0004 FFF7FEFF 		bl	modem_get_test_mode_status
 847 0008 0523     		movs	r3, #5
 848 000a 0028     		cmp	r0, #0
 849 000c 06D1     		bne	.L124
 850 000e 2100     		movs	r1, r4
 851 0010 0348     		ldr	r0, .L126
 852 0012 FFF7FEFF 		bl	clock_sync_set_interval_second
 853 0016 431E     		subs	r3, r0, #1
 854 0018 9841     		sbcs	r0, r0, r3
 855 001a 8300     		lsls	r3, r0, #2
 856              	.L124:
 857 001c 1800     		movs	r0, r3
 858              		@ sp needed
 859 001e 10BD     		pop	{r4, pc}
 860              	.L127:
 861              		.align	2
 862              	.L126:
 863 0020 2C000000 		.word	smtc_modem_services_ctx+44
 865              		.section	.text.smtc_modem_time_get_sync_interval_s,"ax",%progbits
 866              		.align	1
 867              		.global	smtc_modem_time_get_sync_interval_s
 868              		.syntax unified
 869              		.code	16
ARM GAS  /tmp/ccFPSyWO.s 			page 16


 870              		.thumb_func
 872              	smtc_modem_time_get_sync_interval_s:
 873              		@ args = 0, pretend = 0, frame = 0
 874              		@ frame_needed = 0, uses_anonymous_args = 0
 875 0000 70B5     		push	{r4, r5, r6, lr}
 876 0002 0500     		movs	r5, r0
 877 0004 FFF7FEFF 		bl	modem_get_test_mode_status
 878 0008 0400     		movs	r4, r0
 879 000a 0520     		movs	r0, #5
 880 000c 002C     		cmp	r4, #0
 881 000e 07D1     		bne	.L129
 882 0010 0138     		subs	r0, r0, #1
 883 0012 002D     		cmp	r5, #0
 884 0014 04D0     		beq	.L129
 885 0016 0348     		ldr	r0, .L132
 886 0018 FFF7FEFF 		bl	clock_sync_get_interval_second
 887 001c 2860     		str	r0, [r5]
 888 001e 2000     		movs	r0, r4
 889              	.L129:
 890              		@ sp needed
 891 0020 70BD     		pop	{r4, r5, r6, pc}
 892              	.L133:
 893 0022 C046     		.align	2
 894              	.L132:
 895 0024 2C000000 		.word	smtc_modem_services_ctx+44
 897              		.section	.text.smtc_modem_time_set_sync_invalid_delay_s,"ax",%progbits
 898              		.align	1
 899              		.global	smtc_modem_time_set_sync_invalid_delay_s
 900              		.syntax unified
 901              		.code	16
 902              		.thumb_func
 904              	smtc_modem_time_set_sync_invalid_delay_s:
 905              		@ args = 0, pretend = 0, frame = 0
 906              		@ frame_needed = 0, uses_anonymous_args = 0
 907 0000 10B5     		push	{r4, lr}
 908 0002 0400     		movs	r4, r0
 909 0004 FFF7FEFF 		bl	modem_get_test_mode_status
 910 0008 0523     		movs	r3, #5
 911 000a 0028     		cmp	r0, #0
 912 000c 06D1     		bne	.L135
 913 000e 2100     		movs	r1, r4
 914 0010 0348     		ldr	r0, .L137
 915 0012 FFF7FEFF 		bl	clock_sync_set_invalid_time_delay_s
 916 0016 431E     		subs	r3, r0, #1
 917 0018 9841     		sbcs	r0, r0, r3
 918 001a 8300     		lsls	r3, r0, #2
 919              	.L135:
 920 001c 1800     		movs	r0, r3
 921              		@ sp needed
 922 001e 10BD     		pop	{r4, pc}
 923              	.L138:
 924              		.align	2
 925              	.L137:
 926 0020 2C000000 		.word	smtc_modem_services_ctx+44
 928              		.section	.text.smtc_modem_time_get_sync_invalid_delay_s,"ax",%progbits
 929              		.align	1
 930              		.global	smtc_modem_time_get_sync_invalid_delay_s
ARM GAS  /tmp/ccFPSyWO.s 			page 17


 931              		.syntax unified
 932              		.code	16
 933              		.thumb_func
 935              	smtc_modem_time_get_sync_invalid_delay_s:
 936              		@ args = 0, pretend = 0, frame = 0
 937              		@ frame_needed = 0, uses_anonymous_args = 0
 938 0000 70B5     		push	{r4, r5, r6, lr}
 939 0002 0500     		movs	r5, r0
 940 0004 FFF7FEFF 		bl	modem_get_test_mode_status
 941 0008 0400     		movs	r4, r0
 942 000a 0520     		movs	r0, #5
 943 000c 002C     		cmp	r4, #0
 944 000e 07D1     		bne	.L140
 945 0010 0138     		subs	r0, r0, #1
 946 0012 002D     		cmp	r5, #0
 947 0014 04D0     		beq	.L140
 948 0016 0348     		ldr	r0, .L143
 949 0018 FFF7FEFF 		bl	clock_sync_get_invalid_time_delay_s
 950 001c 2860     		str	r0, [r5]
 951 001e 2000     		movs	r0, r4
 952              	.L140:
 953              		@ sp needed
 954 0020 70BD     		pop	{r4, r5, r6, pc}
 955              	.L144:
 956 0022 C046     		.align	2
 957              	.L143:
 958 0024 2C000000 		.word	smtc_modem_services_ctx+44
 960              		.section	.text.smtc_modem_get_status,"ax",%progbits
 961              		.align	1
 962              		.global	smtc_modem_get_status
 963              		.syntax unified
 964              		.code	16
 965              		.thumb_func
 967              	smtc_modem_get_status:
 968              		@ args = 0, pretend = 0, frame = 0
 969              		@ frame_needed = 0, uses_anonymous_args = 0
 970 0000 70B5     		push	{r4, r5, r6, lr}
 971 0002 0D00     		movs	r5, r1
 972 0004 FFF7FEFF 		bl	modem_get_test_mode_status
 973 0008 0400     		movs	r4, r0
 974 000a 0520     		movs	r0, #5
 975 000c 002C     		cmp	r4, #0
 976 000e 06D1     		bne	.L146
 977 0010 0138     		subs	r0, r0, #1
 978 0012 002D     		cmp	r5, #0
 979 0014 03D0     		beq	.L146
 980 0016 FFF7FEFF 		bl	get_modem_status
 981 001a 2860     		str	r0, [r5]
 982 001c 2000     		movs	r0, r4
 983              	.L146:
 984              		@ sp needed
 985 001e 70BD     		pop	{r4, r5, r6, pc}
 987              		.section	.text.smtc_modem_alarm_start_timer,"ax",%progbits
 988              		.align	1
 989              		.global	smtc_modem_alarm_start_timer
 990              		.syntax unified
 991              		.code	16
ARM GAS  /tmp/ccFPSyWO.s 			page 18


 992              		.thumb_func
 994              	smtc_modem_alarm_start_timer:
 995              		@ args = 0, pretend = 0, frame = 0
 996              		@ frame_needed = 0, uses_anonymous_args = 0
 997 0000 10B5     		push	{r4, lr}
 998 0002 0400     		movs	r4, r0
 999 0004 FFF7FEFF 		bl	modem_get_test_mode_status
 1000 0008 0523     		movs	r3, #5
 1001 000a 0028     		cmp	r0, #0
 1002 000c 08D1     		bne	.L150
 1003 000e 002C     		cmp	r4, #0
 1004 0010 02D0     		beq	.L151
 1005 0012 FFF7FEFF 		bl	smtc_modem_hal_get_time_in_s
 1006 0016 2418     		adds	r4, r4, r0
 1007              	.L151:
 1008 0018 2000     		movs	r0, r4
 1009 001a FFF7FEFF 		bl	modem_set_user_alarm
 1010 001e 0023     		movs	r3, #0
 1011              	.L150:
 1012              		@ sp needed
 1013 0020 1800     		movs	r0, r3
 1014 0022 10BD     		pop	{r4, pc}
 1016              		.section	.rodata.smtc_modem_alarm_clear_timer.str1.1,"aMS",%progbits,1
 1017              	.LC42:
 1018 0000 1B5B303B 		.ascii	"\033[0;33mWARN: Alarm clear timer impossible: no al"
 1018      33336D57 
 1018      41524E3A 
 1018      20416C61 
 1018      726D2063 
 1019 0030 61726D20 		.ascii	"arm timer is currently running\000"
 1019      74696D65 
 1019      72206973 
 1019      20637572 
 1019      72656E74 
 1020              		.section	.text.smtc_modem_alarm_clear_timer,"ax",%progbits
 1021              		.align	1
 1022              		.global	smtc_modem_alarm_clear_timer
 1023              		.syntax unified
 1024              		.code	16
 1025              		.thumb_func
 1027              	smtc_modem_alarm_clear_timer:
 1028              		@ args = 0, pretend = 0, frame = 0
 1029              		@ frame_needed = 0, uses_anonymous_args = 0
 1030 0000 10B5     		push	{r4, lr}
 1031 0002 FFF7FEFF 		bl	modem_get_test_mode_status
 1032 0006 0400     		movs	r4, r0
 1033 0008 0520     		movs	r0, #5
 1034 000a 002C     		cmp	r4, #0
 1035 000c 0AD1     		bne	.L157
 1036 000e FFF7FEFF 		bl	modem_get_user_alarm
 1037 0012 0028     		cmp	r0, #0
 1038 0014 07D1     		bne	.L158
 1039 0016 0648     		ldr	r0, .L160
 1040 0018 FFF7FEFF 		bl	smtc_modem_hal_print_trace
 1041 001c 0548     		ldr	r0, .L160+4
 1042 001e FFF7FEFF 		bl	smtc_modem_hal_print_trace
 1043 0022 0320     		movs	r0, #3
ARM GAS  /tmp/ccFPSyWO.s 			page 19


 1044              	.L157:
 1045              		@ sp needed
 1046 0024 10BD     		pop	{r4, pc}
 1047              	.L158:
 1048 0026 2000     		movs	r0, r4
 1049 0028 FFF7FEFF 		bl	modem_set_user_alarm
 1050 002c 2000     		movs	r0, r4
 1051 002e F9E7     		b	.L157
 1052              	.L161:
 1053              		.align	2
 1054              	.L160:
 1055 0030 00000000 		.word	.LC42
 1056 0034 2F000000 		.word	.LC3
 1058              		.section	.rodata.smtc_modem_alarm_get_remaining_time.str1.1,"aMS",%progbits,1
 1059              	.LC45:
 1060 0000 1B5B303B 		.ascii	"\033[0;33mWARN: Alarm get remaining impossible: no "
 1060      33336D57 
 1060      41524E3A 
 1060      20416C61 
 1060      726D2067 
 1061 0030 616C6172 		.ascii	"alarm timer is currently running\000"
 1061      6D207469 
 1061      6D657220 
 1061      69732063 
 1061      75727265 
 1062              		.section	.text.smtc_modem_alarm_get_remaining_time,"ax",%progbits
 1063              		.align	1
 1064              		.global	smtc_modem_alarm_get_remaining_time
 1065              		.syntax unified
 1066              		.code	16
 1067              		.thumb_func
 1069              	smtc_modem_alarm_get_remaining_time:
 1070              		@ args = 0, pretend = 0, frame = 0
 1071              		@ frame_needed = 0, uses_anonymous_args = 0
 1072 0000 70B5     		push	{r4, r5, r6, lr}
 1073 0002 0600     		movs	r6, r0
 1074 0004 FFF7FEFF 		bl	modem_get_test_mode_status
 1075 0008 0500     		movs	r5, r0
 1076 000a 0520     		movs	r0, #5
 1077 000c 002D     		cmp	r5, #0
 1078 000e 0DD1     		bne	.L163
 1079 0010 0138     		subs	r0, r0, #1
 1080 0012 002E     		cmp	r6, #0
 1081 0014 0AD0     		beq	.L163
 1082 0016 FFF7FEFF 		bl	modem_get_user_alarm
 1083 001a 0028     		cmp	r0, #0
 1084 001c 07D1     		bne	.L164
 1085 001e 0A48     		ldr	r0, .L168
 1086 0020 FFF7FEFF 		bl	smtc_modem_hal_print_trace
 1087 0024 0948     		ldr	r0, .L168+4
 1088 0026 FFF7FEFF 		bl	smtc_modem_hal_print_trace
 1089 002a 0320     		movs	r0, #3
 1090              	.L163:
 1091              		@ sp needed
 1092 002c 70BD     		pop	{r4, r5, r6, pc}
 1093              	.L164:
 1094 002e FFF7FEFF 		bl	modem_get_user_alarm
ARM GAS  /tmp/ccFPSyWO.s 			page 20


 1095 0032 0400     		movs	r4, r0
 1096 0034 FFF7FEFF 		bl	smtc_modem_hal_get_time_in_s
 1097 0038 201A     		subs	r0, r4, r0
 1098 003a C243     		mvns	r2, r0
 1099 003c D217     		asrs	r2, r2, #31
 1100 003e 1040     		ands	r0, r2
 1101 0040 3060     		str	r0, [r6]
 1102 0042 2800     		movs	r0, r5
 1103 0044 F2E7     		b	.L163
 1104              	.L169:
 1105 0046 C046     		.align	2
 1106              	.L168:
 1107 0048 00000000 		.word	.LC45
 1108 004c 2F000000 		.word	.LC3
 1110              		.section	.text.smtc_modem_get_joineui,"ax",%progbits
 1111              		.align	1
 1112              		.global	smtc_modem_get_joineui
 1113              		.syntax unified
 1114              		.code	16
 1115              		.thumb_func
 1117              	smtc_modem_get_joineui:
 1118              		@ args = 0, pretend = 0, frame = 0
 1119              		@ frame_needed = 0, uses_anonymous_args = 0
 1120 0000 10B5     		push	{r4, lr}
 1121 0002 0C00     		movs	r4, r1
 1122 0004 FFF7FEFF 		bl	modem_get_test_mode_status
 1123 0008 0523     		movs	r3, #5
 1124 000a 0028     		cmp	r0, #0
 1125 000c 09D1     		bne	.L171
 1126 000e 013B     		subs	r3, r3, #1
 1127 0010 002C     		cmp	r4, #0
 1128 0012 06D0     		beq	.L171
 1129 0014 2000     		movs	r0, r4
 1130 0016 FFF7FEFF 		bl	lorawan_api_get_joineui
 1131 001a 0623     		movs	r3, #6
 1132 001c 0028     		cmp	r0, #0
 1133 001e 00D1     		bne	.L171
 1134 0020 0300     		movs	r3, r0
 1135              	.L171:
 1136              		@ sp needed
 1137 0022 1800     		movs	r0, r3
 1138 0024 10BD     		pop	{r4, pc}
 1140              		.section	.rodata.smtc_modem_set_joineui.str1.1,"aMS",%progbits,1
 1141              	.LC49:
 1142 0000 1B5B303B 		.ascii	"\033[0;31mERROR: %s call but the device is already "
 1142      33316D45 
 1142      52524F52 
 1142      3A202573 
 1142      2063616C 
 1143 0030 6A6F696E 		.ascii	"join\012\000"
 1143      0A00
 1144              		.section	.text.smtc_modem_set_joineui,"ax",%progbits
 1145              		.align	1
 1146              		.global	smtc_modem_set_joineui
 1147              		.syntax unified
 1148              		.code	16
 1149              		.thumb_func
ARM GAS  /tmp/ccFPSyWO.s 			page 21


 1151              	smtc_modem_set_joineui:
 1152              		@ args = 0, pretend = 0, frame = 0
 1153              		@ frame_needed = 0, uses_anonymous_args = 0
 1154 0000 70B5     		push	{r4, r5, r6, lr}
 1155 0002 0D00     		movs	r5, r1
 1156 0004 FFF7FEFF 		bl	modem_get_test_mode_status
 1157 0008 0028     		cmp	r0, #0
 1158 000a 0DD1     		bne	.L176
 1159 000c 0424     		movs	r4, #4
 1160 000e 002D     		cmp	r5, #0
 1161 0010 0BD0     		beq	.L177
 1162 0012 FFF7FEFF 		bl	get_join_state
 1163 0016 041E     		subs	r4, r0, #0
 1164 0018 09D0     		beq	.L178
 1165 001a 0848     		ldr	r0, .L181
 1166 001c 0849     		ldr	r1, .L181+4
 1167 001e FFF7FEFF 		bl	smtc_modem_hal_print_trace
 1168 0022 0848     		ldr	r0, .L181+8
 1169 0024 FFF7FEFF 		bl	smtc_modem_hal_print_trace
 1170              	.L176:
 1171 0028 0524     		movs	r4, #5
 1172              	.L177:
 1173              		@ sp needed
 1174 002a 2000     		movs	r0, r4
 1175 002c 70BD     		pop	{r4, r5, r6, pc}
 1176              	.L178:
 1177 002e 2800     		movs	r0, r5
 1178 0030 FFF7FEFF 		bl	lorawan_api_set_joineui
 1179 0034 0028     		cmp	r0, #0
 1180 0036 F8D0     		beq	.L177
 1181 0038 0624     		movs	r4, #6
 1182 003a F6E7     		b	.L177
 1183              	.L182:
 1184              		.align	2
 1185              	.L181:
 1186 003c 00000000 		.word	.LC49
 1187 0040 00000000 		.word	__func__.12
 1188 0044 2F000000 		.word	.LC3
 1190              		.section	.text.smtc_modem_get_deveui,"ax",%progbits
 1191              		.align	1
 1192              		.global	smtc_modem_get_deveui
 1193              		.syntax unified
 1194              		.code	16
 1195              		.thumb_func
 1197              	smtc_modem_get_deveui:
 1198              		@ args = 0, pretend = 0, frame = 0
 1199              		@ frame_needed = 0, uses_anonymous_args = 0
 1200 0000 10B5     		push	{r4, lr}
 1201 0002 0C00     		movs	r4, r1
 1202 0004 FFF7FEFF 		bl	modem_get_test_mode_status
 1203 0008 0523     		movs	r3, #5
 1204 000a 0028     		cmp	r0, #0
 1205 000c 09D1     		bne	.L184
 1206 000e 013B     		subs	r3, r3, #1
 1207 0010 002C     		cmp	r4, #0
 1208 0012 06D0     		beq	.L184
 1209 0014 2000     		movs	r0, r4
ARM GAS  /tmp/ccFPSyWO.s 			page 22


 1210 0016 FFF7FEFF 		bl	lorawan_api_get_deveui
 1211 001a 0623     		movs	r3, #6
 1212 001c 0028     		cmp	r0, #0
 1213 001e 00D1     		bne	.L184
 1214 0020 0300     		movs	r3, r0
 1215              	.L184:
 1216              		@ sp needed
 1217 0022 1800     		movs	r0, r3
 1218 0024 10BD     		pop	{r4, pc}
 1220              		.section	.text.smtc_modem_set_deveui,"ax",%progbits
 1221              		.align	1
 1222              		.global	smtc_modem_set_deveui
 1223              		.syntax unified
 1224              		.code	16
 1225              		.thumb_func
 1227              	smtc_modem_set_deveui:
 1228              		@ args = 0, pretend = 0, frame = 0
 1229              		@ frame_needed = 0, uses_anonymous_args = 0
 1230 0000 70B5     		push	{r4, r5, r6, lr}
 1231 0002 0D00     		movs	r5, r1
 1232 0004 FFF7FEFF 		bl	modem_get_test_mode_status
 1233 0008 0028     		cmp	r0, #0
 1234 000a 0DD1     		bne	.L189
 1235 000c 0424     		movs	r4, #4
 1236 000e 002D     		cmp	r5, #0
 1237 0010 0BD0     		beq	.L190
 1238 0012 FFF7FEFF 		bl	get_join_state
 1239 0016 041E     		subs	r4, r0, #0
 1240 0018 09D0     		beq	.L191
 1241 001a 0848     		ldr	r0, .L194
 1242 001c 0849     		ldr	r1, .L194+4
 1243 001e FFF7FEFF 		bl	smtc_modem_hal_print_trace
 1244 0022 0848     		ldr	r0, .L194+8
 1245 0024 FFF7FEFF 		bl	smtc_modem_hal_print_trace
 1246              	.L189:
 1247 0028 0524     		movs	r4, #5
 1248              	.L190:
 1249              		@ sp needed
 1250 002a 2000     		movs	r0, r4
 1251 002c 70BD     		pop	{r4, r5, r6, pc}
 1252              	.L191:
 1253 002e 2800     		movs	r0, r5
 1254 0030 FFF7FEFF 		bl	lorawan_api_set_deveui
 1255 0034 0028     		cmp	r0, #0
 1256 0036 F8D0     		beq	.L190
 1257 0038 0624     		movs	r4, #6
 1258 003a F6E7     		b	.L190
 1259              	.L195:
 1260              		.align	2
 1261              	.L194:
 1262 003c 00000000 		.word	.LC49
 1263 0040 00000000 		.word	__func__.11
 1264 0044 2F000000 		.word	.LC3
 1266              		.section	.text.smtc_modem_set_nwkkey,"ax",%progbits
 1267              		.align	1
 1268              		.global	smtc_modem_set_nwkkey
 1269              		.syntax unified
ARM GAS  /tmp/ccFPSyWO.s 			page 23


 1270              		.code	16
 1271              		.thumb_func
 1273              	smtc_modem_set_nwkkey:
 1274              		@ args = 0, pretend = 0, frame = 0
 1275              		@ frame_needed = 0, uses_anonymous_args = 0
 1276 0000 10B5     		push	{r4, lr}
 1277 0002 0C00     		movs	r4, r1
 1278 0004 FFF7FEFF 		bl	modem_get_test_mode_status
 1279 0008 0028     		cmp	r0, #0
 1280 000a 0DD1     		bne	.L197
 1281 000c 0430     		adds	r0, r0, #4
 1282 000e 002C     		cmp	r4, #0
 1283 0010 0BD0     		beq	.L198
 1284 0012 FFF7FEFF 		bl	get_join_state
 1285 0016 0028     		cmp	r0, #0
 1286 0018 08D0     		beq	.L199
 1287 001a 0848     		ldr	r0, .L202
 1288 001c 0849     		ldr	r1, .L202+4
 1289 001e FFF7FEFF 		bl	smtc_modem_hal_print_trace
 1290 0022 0848     		ldr	r0, .L202+8
 1291 0024 FFF7FEFF 		bl	smtc_modem_hal_print_trace
 1292              	.L197:
 1293 0028 0520     		movs	r0, #5
 1294              	.L198:
 1295              		@ sp needed
 1296 002a 10BD     		pop	{r4, pc}
 1297              	.L199:
 1298 002c 2000     		movs	r0, r4
 1299 002e FFF7FEFF 		bl	modem_context_set_appkey
 1300 0032 0028     		cmp	r0, #0
 1301 0034 F9D0     		beq	.L198
 1302 0036 0620     		movs	r0, #6
 1303 0038 F7E7     		b	.L198
 1304              	.L203:
 1305 003a C046     		.align	2
 1306              	.L202:
 1307 003c 00000000 		.word	.LC49
 1308 0040 00000000 		.word	__func__.10
 1309 0044 2F000000 		.word	.LC3
 1311              		.section	.text.smtc_modem_get_class,"ax",%progbits
 1312              		.align	1
 1313              		.global	smtc_modem_get_class
 1314              		.syntax unified
 1315              		.code	16
 1316              		.thumb_func
 1318              	smtc_modem_get_class:
 1319              		@ args = 0, pretend = 0, frame = 0
 1320              		@ frame_needed = 0, uses_anonymous_args = 0
 1321 0000 70B5     		push	{r4, r5, r6, lr}
 1322 0002 0D00     		movs	r5, r1
 1323 0004 FFF7FEFF 		bl	modem_get_test_mode_status
 1324 0008 0400     		movs	r4, r0
 1325 000a 0520     		movs	r0, #5
 1326 000c 002C     		cmp	r4, #0
 1327 000e 06D1     		bne	.L205
 1328 0010 0138     		subs	r0, r0, #1
 1329 0012 002D     		cmp	r5, #0
ARM GAS  /tmp/ccFPSyWO.s 			page 24


 1330 0014 03D0     		beq	.L205
 1331 0016 FFF7FEFF 		bl	get_modem_class
 1332 001a 2870     		strb	r0, [r5]
 1333 001c 2000     		movs	r0, r4
 1334              	.L205:
 1335              		@ sp needed
 1336 001e 70BD     		pop	{r4, r5, r6, pc}
 1338              		.section	.rodata.smtc_modem_set_class.str1.1,"aMS",%progbits,1
 1339              	.LC59:
 1340 0000 1B5B303B 		.ascii	"\033[0;31mERROR: set to class b is refused : modem "
 1340      33316D45 
 1340      52524F52 
 1340      3A207365 
 1340      7420746F 
 1341 0030 6973206E 		.ascii	"is not time synced\000"
 1341      6F742074 
 1341      696D6520 
 1341      73796E63 
 1341      656400
 1342              	.LC62:
 1343 0043 1B5B303B 		.ascii	"\033[0;31mERROR: set to class b is refused : modem "
 1343      33316D45 
 1343      52524F52 
 1343      3A207365 
 1343      7420746F 
 1344 0073 6973206E 		.ascii	"is not joined\000"
 1344      6F74206A 
 1344      6F696E65 
 1344      6400
 1345              		.section	.text.smtc_modem_set_class,"ax",%progbits
 1346              		.align	1
 1347              		.global	smtc_modem_set_class
 1348              		.syntax unified
 1349              		.code	16
 1350              		.thumb_func
 1352              	smtc_modem_set_class:
 1353              		@ args = 0, pretend = 0, frame = 0
 1354              		@ frame_needed = 0, uses_anonymous_args = 0
 1355 0000 70B5     		push	{r4, r5, r6, lr}
 1356 0002 0C00     		movs	r4, r1
 1357 0004 FFF7FEFF 		bl	modem_get_test_mode_status
 1358 0008 0500     		movs	r5, r0
 1359 000a 0520     		movs	r0, #5
 1360 000c 002D     		cmp	r5, #0
 1361 000e 1DD1     		bne	.L209
 1362 0010 012C     		cmp	r4, #1
 1363 0012 0FD0     		beq	.L210
 1364 0014 022C     		cmp	r4, #2
 1365 0016 25D0     		beq	.L211
 1366 0018 0138     		subs	r0, r0, #1
 1367 001a 002C     		cmp	r4, #0
 1368 001c 16D1     		bne	.L209
 1369 001e 2000     		movs	r0, r4
 1370 0020 FFF7FEFF 		bl	lorawan_api_class_b_enabled
 1371 0024 2000     		movs	r0, r4
 1372              	.L219:
 1373 0026 FFF7FEFF 		bl	lorawan_api_class_c_enabled
ARM GAS  /tmp/ccFPSyWO.s 			page 25


 1374 002a 2000     		movs	r0, r4
 1375 002c FFF7FEFF 		bl	set_modem_class
 1376 0030 0020     		movs	r0, #0
 1377 0032 0BE0     		b	.L209
 1378              	.L210:
 1379 0034 0E48     		ldr	r0, .L220
 1380 0036 FFF7FEFF 		bl	clock_sync_is_time_valid
 1381 003a 0028     		cmp	r0, #0
 1382 003c 07D1     		bne	.L213
 1383 003e 0D48     		ldr	r0, .L220+4
 1384              	.L218:
 1385 0040 FFF7FEFF 		bl	smtc_modem_hal_print_trace
 1386 0044 0C48     		ldr	r0, .L220+8
 1387 0046 FFF7FEFF 		bl	smtc_modem_hal_print_trace
 1388 004a 0620     		movs	r0, #6
 1389              	.L209:
 1390              		@ sp needed
 1391 004c 70BD     		pop	{r4, r5, r6, pc}
 1392              	.L213:
 1393 004e FFF7FEFF 		bl	get_join_state
 1394 0052 0228     		cmp	r0, #2
 1395 0054 01D0     		beq	.L215
 1396 0056 0948     		ldr	r0, .L220+12
 1397 0058 F2E7     		b	.L218
 1398              	.L215:
 1399 005a 2000     		movs	r0, r4
 1400 005c FFF7FEFF 		bl	lorawan_api_class_b_enabled
 1401 0060 2800     		movs	r0, r5
 1402 0062 E0E7     		b	.L219
 1403              	.L211:
 1404 0064 2800     		movs	r0, r5
 1405 0066 FFF7FEFF 		bl	lorawan_api_class_b_enabled
 1406 006a 0120     		movs	r0, #1
 1407 006c DBE7     		b	.L219
 1408              	.L221:
 1409 006e C046     		.align	2
 1410              	.L220:
 1411 0070 2C000000 		.word	smtc_modem_services_ctx+44
 1412 0074 00000000 		.word	.LC59
 1413 0078 2F000000 		.word	.LC3
 1414 007c 43000000 		.word	.LC62
 1416              		.section	.text.smtc_modem_multicast_set_grp_config,"ax",%progbits
 1417              		.align	1
 1418              		.global	smtc_modem_multicast_set_grp_config
 1419              		.syntax unified
 1420              		.code	16
 1421              		.thumb_func
 1423              	smtc_modem_multicast_set_grp_config:
 1424              		@ args = 4, pretend = 0, frame = 0
 1425              		@ frame_needed = 0, uses_anonymous_args = 0
 1426 0000 70B5     		push	{r4, r5, r6, lr}
 1427 0002 1D00     		movs	r5, r3
 1428 0004 0C00     		movs	r4, r1
 1429 0006 1600     		movs	r6, r2
 1430 0008 FFF7FEFF 		bl	modem_get_test_mode_status
 1431 000c 0300     		movs	r3, r0
 1432 000e 0520     		movs	r0, #5
ARM GAS  /tmp/ccFPSyWO.s 			page 26


 1433 0010 002B     		cmp	r3, #0
 1434 0012 14D1     		bne	.L223
 1435 0014 002D     		cmp	r5, #0
 1436 0016 11D0     		beq	.L224
 1437 0018 049B     		ldr	r3, [sp, #16]
 1438 001a 002B     		cmp	r3, #0
 1439 001c 0ED0     		beq	.L224
 1440 001e 3100     		movs	r1, r6
 1441 0020 2000     		movs	r0, r4
 1442 0022 FFF7FEFF 		bl	lorawan_api_multicast_set_group_address
 1443 0026 0028     		cmp	r0, #0
 1444 0028 06D1     		bne	.L225
 1445 002a 2900     		movs	r1, r5
 1446 002c 2000     		movs	r0, r4
 1447 002e 049A     		ldr	r2, [sp, #16]
 1448 0030 FFF7FEFF 		bl	lorawan_api_multicast_set_group_session_keys
 1449 0034 0028     		cmp	r0, #0
 1450 0036 02D0     		beq	.L223
 1451              	.L225:
 1452 0038 0128     		cmp	r0, #1
 1453 003a 01D1     		bne	.L227
 1454              	.L224:
 1455 003c 0420     		movs	r0, #4
 1456              	.L223:
 1457              		@ sp needed
 1458 003e 70BD     		pop	{r4, r5, r6, pc}
 1459              	.L227:
 1460 0040 0620     		movs	r0, #6
 1461 0042 FCE7     		b	.L223
 1463              		.section	.text.smtc_modem_multicast_get_grp_config,"ax",%progbits
 1464              		.align	1
 1465              		.global	smtc_modem_multicast_get_grp_config
 1466              		.syntax unified
 1467              		.code	16
 1468              		.thumb_func
 1470              	smtc_modem_multicast_get_grp_config:
 1471              		@ args = 0, pretend = 0, frame = 0
 1472              		@ frame_needed = 0, uses_anonymous_args = 0
 1473 0000 70B5     		push	{r4, r5, r6, lr}
 1474 0002 0D00     		movs	r5, r1
 1475 0004 1400     		movs	r4, r2
 1476 0006 FFF7FEFF 		bl	modem_get_test_mode_status
 1477 000a 0300     		movs	r3, r0
 1478 000c 0520     		movs	r0, #5
 1479 000e 002B     		cmp	r3, #0
 1480 0010 0BD1     		bne	.L238
 1481 0012 002C     		cmp	r4, #0
 1482 0014 08D0     		beq	.L239
 1483 0016 2100     		movs	r1, r4
 1484 0018 2800     		movs	r0, r5
 1485 001a FFF7FEFF 		bl	lorawan_api_multicast_get_group_address
 1486 001e 031E     		subs	r3, r0, #0
 1487 0020 03D0     		beq	.L238
 1488 0022 0620     		movs	r0, #6
 1489 0024 012B     		cmp	r3, #1
 1490 0026 00D1     		bne	.L238
 1491              	.L239:
ARM GAS  /tmp/ccFPSyWO.s 			page 27


 1492 0028 0420     		movs	r0, #4
 1493              	.L238:
 1494              		@ sp needed
 1495 002a 70BD     		pop	{r4, r5, r6, pc}
 1497              		.section	.text.smtc_modem_multicast_class_c_start_session,"ax",%progbits
 1498              		.align	1
 1499              		.global	smtc_modem_multicast_class_c_start_session
 1500              		.syntax unified
 1501              		.code	16
 1502              		.thumb_func
 1504              	smtc_modem_multicast_class_c_start_session:
 1505              		@ args = 0, pretend = 0, frame = 0
 1506              		@ frame_needed = 0, uses_anonymous_args = 0
 1507 0000 F8B5     		push	{r3, r4, r5, r6, r7, lr}
 1508 0002 0D00     		movs	r5, r1
 1509 0004 1600     		movs	r6, r2
 1510 0006 1F00     		movs	r7, r3
 1511 0008 FFF7FEFF 		bl	modem_get_test_mode_status
 1512 000c 0400     		movs	r4, r0
 1513 000e 0520     		movs	r0, #5
 1514 0010 002C     		cmp	r4, #0
 1515 0012 11D1     		bne	.L249
 1516 0014 3A00     		movs	r2, r7
 1517 0016 3100     		movs	r1, r6
 1518 0018 2800     		movs	r0, r5
 1519 001a FFF7FEFF 		bl	lorawan_api_multicast_c_start_session
 1520 001e 0300     		movs	r3, r0
 1521 0020 0420     		movs	r0, #4
 1522 0022 012B     		cmp	r3, #1
 1523 0024 08D0     		beq	.L249
 1524 0026 2000     		movs	r0, r4
 1525 0028 012B     		cmp	r3, #1
 1526 002a 05D9     		bls	.L249
 1527 002c 043B     		subs	r3, r3, #4
 1528 002e DBB2     		uxtb	r3, r3
 1529 0030 0430     		adds	r0, r0, #4
 1530 0032 012B     		cmp	r3, #1
 1531 0034 00D9     		bls	.L249
 1532 0036 0230     		adds	r0, r0, #2
 1533              	.L249:
 1534              		@ sp needed
 1535 0038 F8BD     		pop	{r3, r4, r5, r6, r7, pc}
 1537              		.section	.text.smtc_modem_multicast_class_c_get_session_status,"ax",%progbits
 1538              		.align	1
 1539              		.global	smtc_modem_multicast_class_c_get_session_status
 1540              		.syntax unified
 1541              		.code	16
 1542              		.thumb_func
 1544              	smtc_modem_multicast_class_c_get_session_status:
 1545              		@ args = 4, pretend = 0, frame = 0
 1546              		@ frame_needed = 0, uses_anonymous_args = 0
 1547 0000 70B5     		push	{r4, r5, r6, lr}
 1548 0002 1D00     		movs	r5, r3
 1549 0004 0E00     		movs	r6, r1
 1550 0006 1400     		movs	r4, r2
 1551 0008 FFF7FEFF 		bl	modem_get_test_mode_status
 1552 000c 0300     		movs	r3, r0
ARM GAS  /tmp/ccFPSyWO.s 			page 28


 1553 000e 0520     		movs	r0, #5
 1554 0010 002B     		cmp	r3, #0
 1555 0012 11D1     		bne	.L255
 1556 0014 002C     		cmp	r4, #0
 1557 0016 0ED0     		beq	.L256
 1558 0018 002D     		cmp	r5, #0
 1559 001a 0CD0     		beq	.L256
 1560 001c 049B     		ldr	r3, [sp, #16]
 1561 001e 002B     		cmp	r3, #0
 1562 0020 09D0     		beq	.L256
 1563 0022 2A00     		movs	r2, r5
 1564 0024 2100     		movs	r1, r4
 1565 0026 3000     		movs	r0, r6
 1566 0028 FFF7FEFF 		bl	lorawan_api_multicast_c_get_session_status
 1567 002c 031E     		subs	r3, r0, #0
 1568 002e 03D0     		beq	.L255
 1569 0030 0620     		movs	r0, #6
 1570 0032 012B     		cmp	r3, #1
 1571 0034 00D1     		bne	.L255
 1572              	.L256:
 1573 0036 0420     		movs	r0, #4
 1574              	.L255:
 1575              		@ sp needed
 1576 0038 70BD     		pop	{r4, r5, r6, pc}
 1578              		.section	.text.smtc_modem_multicast_class_c_stop_session,"ax",%progbits
 1579              		.align	1
 1580              		.global	smtc_modem_multicast_class_c_stop_session
 1581              		.syntax unified
 1582              		.code	16
 1583              		.thumb_func
 1585              	smtc_modem_multicast_class_c_stop_session:
 1586              		@ args = 0, pretend = 0, frame = 0
 1587              		@ frame_needed = 0, uses_anonymous_args = 0
 1588 0000 10B5     		push	{r4, lr}
 1589 0002 0C00     		movs	r4, r1
 1590 0004 FFF7FEFF 		bl	modem_get_test_mode_status
 1591 0008 0300     		movs	r3, r0
 1592 000a 0520     		movs	r0, #5
 1593 000c 002B     		cmp	r3, #0
 1594 000e 08D1     		bne	.L272
 1595 0010 2000     		movs	r0, r4
 1596 0012 FFF7FEFF 		bl	lorawan_api_multicast_c_stop_session
 1597 0016 031E     		subs	r3, r0, #0
 1598 0018 03D0     		beq	.L272
 1599 001a 0420     		movs	r0, #4
 1600 001c 012B     		cmp	r3, #1
 1601 001e 00D0     		beq	.L272
 1602 0020 0230     		adds	r0, r0, #2
 1603              	.L272:
 1604              		@ sp needed
 1605 0022 10BD     		pop	{r4, pc}
 1607              		.section	.text.smtc_modem_multicast_class_c_stop_all_sessions,"ax",%progbits
 1608              		.align	1
 1609              		.global	smtc_modem_multicast_class_c_stop_all_sessions
 1610              		.syntax unified
 1611              		.code	16
 1612              		.thumb_func
ARM GAS  /tmp/ccFPSyWO.s 			page 29


 1614              	smtc_modem_multicast_class_c_stop_all_sessions:
 1615              		@ args = 0, pretend = 0, frame = 0
 1616              		@ frame_needed = 0, uses_anonymous_args = 0
 1617 0000 10B5     		push	{r4, lr}
 1618 0002 FFF7FEFF 		bl	modem_get_test_mode_status
 1619 0006 0300     		movs	r3, r0
 1620 0008 0520     		movs	r0, #5
 1621 000a 002B     		cmp	r3, #0
 1622 000c 04D1     		bne	.L280
 1623 000e FFF7FEFF 		bl	lorawan_api_multicast_c_stop_all_sessions
 1624 0012 0028     		cmp	r0, #0
 1625 0014 00D0     		beq	.L280
 1626 0016 0620     		movs	r0, #6
 1627              	.L280:
 1628              		@ sp needed
 1629 0018 10BD     		pop	{r4, pc}
 1631              		.section	.text.smtc_modem_multicast_class_b_start_session,"ax",%progbits
 1632              		.align	1
 1633              		.global	smtc_modem_multicast_class_b_start_session
 1634              		.syntax unified
 1635              		.code	16
 1636              		.thumb_func
 1638              	smtc_modem_multicast_class_b_start_session:
 1639              		@ args = 4, pretend = 0, frame = 8
 1640              		@ frame_needed = 0, uses_anonymous_args = 0
 1641 0000 F7B5     		push	{r0, r1, r2, r4, r5, r6, r7, lr}
 1642 0002 1E00     		movs	r6, r3
 1643 0004 08AB     		add	r3, sp, #32
 1644 0006 0D00     		movs	r5, r1
 1645 0008 1F78     		ldrb	r7, [r3]
 1646 000a 0192     		str	r2, [sp, #4]
 1647 000c FFF7FEFF 		bl	modem_get_test_mode_status
 1648 0010 0400     		movs	r4, r0
 1649 0012 0520     		movs	r0, #5
 1650 0014 002C     		cmp	r4, #0
 1651 0016 12D1     		bne	.L284
 1652 0018 3B00     		movs	r3, r7
 1653 001a 3200     		movs	r2, r6
 1654 001c 2800     		movs	r0, r5
 1655 001e 0199     		ldr	r1, [sp, #4]
 1656 0020 FFF7FEFF 		bl	lorawan_api_multicast_b_start_session
 1657 0024 0300     		movs	r3, r0
 1658 0026 0420     		movs	r0, #4
 1659 0028 012B     		cmp	r3, #1
 1660 002a 08D0     		beq	.L284
 1661 002c 2000     		movs	r0, r4
 1662 002e 012B     		cmp	r3, #1
 1663 0030 05D9     		bls	.L284
 1664 0032 043B     		subs	r3, r3, #4
 1665 0034 DBB2     		uxtb	r3, r3
 1666 0036 0430     		adds	r0, r0, #4
 1667 0038 012B     		cmp	r3, #1
 1668 003a 00D9     		bls	.L284
 1669 003c 0230     		adds	r0, r0, #2
 1670              	.L284:
 1671              		@ sp needed
 1672 003e FEBD     		pop	{r1, r2, r3, r4, r5, r6, r7, pc}
ARM GAS  /tmp/ccFPSyWO.s 			page 30


 1674              		.section	.text.smtc_modem_multicast_class_b_get_session_status,"ax",%progbits
 1675              		.align	1
 1676              		.global	smtc_modem_multicast_class_b_get_session_status
 1677              		.syntax unified
 1678              		.code	16
 1679              		.thumb_func
 1681              	smtc_modem_multicast_class_b_get_session_status:
 1682              		@ args = 12, pretend = 0, frame = 0
 1683              		@ frame_needed = 0, uses_anonymous_args = 0
 1684 0000 F7B5     		push	{r0, r1, r2, r4, r5, r6, r7, lr}
 1685 0002 0A9F     		ldr	r7, [sp, #40]
 1686 0004 1D00     		movs	r5, r3
 1687 0006 0E00     		movs	r6, r1
 1688 0008 1400     		movs	r4, r2
 1689 000a FFF7FEFF 		bl	modem_get_test_mode_status
 1690 000e 0300     		movs	r3, r0
 1691 0010 0520     		movs	r0, #5
 1692 0012 002B     		cmp	r3, #0
 1693 0014 19D1     		bne	.L290
 1694 0016 002C     		cmp	r4, #0
 1695 0018 16D0     		beq	.L291
 1696 001a 002D     		cmp	r5, #0
 1697 001c 14D0     		beq	.L291
 1698 001e 089B     		ldr	r3, [sp, #32]
 1699 0020 002B     		cmp	r3, #0
 1700 0022 11D0     		beq	.L291
 1701 0024 099B     		ldr	r3, [sp, #36]
 1702 0026 002B     		cmp	r3, #0
 1703 0028 0ED0     		beq	.L291
 1704 002a 002F     		cmp	r7, #0
 1705 002c 0CD0     		beq	.L291
 1706 002e 0093     		str	r3, [sp]
 1707 0030 2A00     		movs	r2, r5
 1708 0032 089B     		ldr	r3, [sp, #32]
 1709 0034 2100     		movs	r1, r4
 1710 0036 3000     		movs	r0, r6
 1711 0038 0197     		str	r7, [sp, #4]
 1712 003a FFF7FEFF 		bl	lorawan_api_multicast_b_get_session_status
 1713 003e 031E     		subs	r3, r0, #0
 1714 0040 03D0     		beq	.L290
 1715 0042 0620     		movs	r0, #6
 1716 0044 012B     		cmp	r3, #1
 1717 0046 00D1     		bne	.L290
 1718              	.L291:
 1719 0048 0420     		movs	r0, #4
 1720              	.L290:
 1721              		@ sp needed
 1722 004a FEBD     		pop	{r1, r2, r3, r4, r5, r6, r7, pc}
 1724              		.section	.text.smtc_modem_multicast_class_b_stop_session,"ax",%progbits
 1725              		.align	1
 1726              		.global	smtc_modem_multicast_class_b_stop_session
 1727              		.syntax unified
 1728              		.code	16
 1729              		.thumb_func
 1731              	smtc_modem_multicast_class_b_stop_session:
 1732              		@ args = 0, pretend = 0, frame = 0
 1733              		@ frame_needed = 0, uses_anonymous_args = 0
ARM GAS  /tmp/ccFPSyWO.s 			page 31


 1734 0000 10B5     		push	{r4, lr}
 1735 0002 0C00     		movs	r4, r1
 1736 0004 FFF7FEFF 		bl	modem_get_test_mode_status
 1737 0008 0300     		movs	r3, r0
 1738 000a 0520     		movs	r0, #5
 1739 000c 002B     		cmp	r3, #0
 1740 000e 08D1     		bne	.L313
 1741 0010 2000     		movs	r0, r4
 1742 0012 FFF7FEFF 		bl	lorawan_api_multicast_b_stop_session
 1743 0016 031E     		subs	r3, r0, #0
 1744 0018 03D0     		beq	.L313
 1745 001a 0420     		movs	r0, #4
 1746 001c 012B     		cmp	r3, #1
 1747 001e 00D0     		beq	.L313
 1748 0020 0230     		adds	r0, r0, #2
 1749              	.L313:
 1750              		@ sp needed
 1751 0022 10BD     		pop	{r4, pc}
 1753              		.section	.text.smtc_modem_multicast_class_b_stop_all_sessions,"ax",%progbits
 1754              		.align	1
 1755              		.global	smtc_modem_multicast_class_b_stop_all_sessions
 1756              		.syntax unified
 1757              		.code	16
 1758              		.thumb_func
 1760              	smtc_modem_multicast_class_b_stop_all_sessions:
 1761              		@ args = 0, pretend = 0, frame = 0
 1762              		@ frame_needed = 0, uses_anonymous_args = 0
 1763 0000 10B5     		push	{r4, lr}
 1764 0002 FFF7FEFF 		bl	modem_get_test_mode_status
 1765 0006 0300     		movs	r3, r0
 1766 0008 0520     		movs	r0, #5
 1767 000a 002B     		cmp	r3, #0
 1768 000c 04D1     		bne	.L321
 1769 000e FFF7FEFF 		bl	lorawan_api_multicast_b_stop_all_sessions
 1770 0012 0028     		cmp	r0, #0
 1771 0014 00D0     		beq	.L321
 1772 0016 0620     		movs	r0, #6
 1773              	.L321:
 1774              		@ sp needed
 1775 0018 10BD     		pop	{r4, pc}
 1777              		.section	.text.smtc_modem_get_region,"ax",%progbits
 1778              		.align	1
 1779              		.global	smtc_modem_get_region
 1780              		.syntax unified
 1781              		.code	16
 1782              		.thumb_func
 1784              	smtc_modem_get_region:
 1785              		@ args = 0, pretend = 0, frame = 0
 1786              		@ frame_needed = 0, uses_anonymous_args = 0
 1787 0000 70B5     		push	{r4, r5, r6, lr}
 1788 0002 0D00     		movs	r5, r1
 1789 0004 FFF7FEFF 		bl	modem_get_test_mode_status
 1790 0008 0400     		movs	r4, r0
 1791 000a 0520     		movs	r0, #5
 1792 000c 002C     		cmp	r4, #0
 1793 000e 06D1     		bne	.L325
 1794 0010 0138     		subs	r0, r0, #1
ARM GAS  /tmp/ccFPSyWO.s 			page 32


 1795 0012 002D     		cmp	r5, #0
 1796 0014 03D0     		beq	.L325
 1797 0016 FFF7FEFF 		bl	get_modem_region
 1798 001a 2870     		strb	r0, [r5]
 1799 001c 2000     		movs	r0, r4
 1800              	.L325:
 1801              		@ sp needed
 1802 001e 70BD     		pop	{r4, r5, r6, pc}
 1804              		.section	.rodata.smtc_modem_set_region.str1.1,"aMS",%progbits,1
 1805              	.LC67:
 1806 0000 1B5B303B 		.ascii	"\033[0;31mERROR: %s call with region not valid\012\000"
 1806      33316D45 
 1806      52524F52 
 1806      3A202573 
 1806      2063616C 
 1807              		.section	.text.smtc_modem_set_region,"ax",%progbits
 1808              		.align	1
 1809              		.global	smtc_modem_set_region
 1810              		.syntax unified
 1811              		.code	16
 1812              		.thumb_func
 1814              	smtc_modem_set_region:
 1815              		@ args = 0, pretend = 0, frame = 0
 1816              		@ frame_needed = 0, uses_anonymous_args = 0
 1817 0000 70B5     		push	{r4, r5, r6, lr}
 1818 0002 0D00     		movs	r5, r1
 1819 0004 FFF7FEFF 		bl	modem_get_test_mode_status
 1820 0008 0028     		cmp	r0, #0
 1821 000a 0AD1     		bne	.L329
 1822 000c FFF7FEFF 		bl	get_join_state
 1823 0010 041E     		subs	r4, r0, #0
 1824 0012 09D0     		beq	.L330
 1825 0014 0B48     		ldr	r0, .L332
 1826 0016 0C49     		ldr	r1, .L332+4
 1827 0018 FFF7FEFF 		bl	smtc_modem_hal_print_trace
 1828 001c 0B48     		ldr	r0, .L332+8
 1829 001e FFF7FEFF 		bl	smtc_modem_hal_print_trace
 1830              	.L329:
 1831 0022 0524     		movs	r4, #5
 1832              	.L331:
 1833              		@ sp needed
 1834 0024 2000     		movs	r0, r4
 1835 0026 70BD     		pop	{r4, r5, r6, pc}
 1836              	.L330:
 1837 0028 2800     		movs	r0, r5
 1838 002a FFF7FEFF 		bl	set_modem_region
 1839 002e 0028     		cmp	r0, #0
 1840 0030 F8D1     		bne	.L331
 1841 0032 0549     		ldr	r1, .L332+4
 1842 0034 0648     		ldr	r0, .L332+12
 1843 0036 FFF7FEFF 		bl	smtc_modem_hal_print_trace
 1844 003a 0448     		ldr	r0, .L332+8
 1845 003c FFF7FEFF 		bl	smtc_modem_hal_print_trace
 1846 0040 0424     		movs	r4, #4
 1847 0042 EFE7     		b	.L331
 1848              	.L333:
 1849              		.align	2
ARM GAS  /tmp/ccFPSyWO.s 			page 33


 1850              	.L332:
 1851 0044 00000000 		.word	.LC49
 1852 0048 00000000 		.word	__func__.9
 1853 004c 2F000000 		.word	.LC3
 1854 0050 00000000 		.word	.LC67
 1856              		.section	.text.smtc_modem_adr_get_profile,"ax",%progbits
 1857              		.align	1
 1858              		.global	smtc_modem_adr_get_profile
 1859              		.syntax unified
 1860              		.code	16
 1861              		.thumb_func
 1863              	smtc_modem_adr_get_profile:
 1864              		@ args = 0, pretend = 0, frame = 0
 1865              		@ frame_needed = 0, uses_anonymous_args = 0
 1866 0000 70B5     		push	{r4, r5, r6, lr}
 1867 0002 0D00     		movs	r5, r1
 1868 0004 FFF7FEFF 		bl	modem_get_test_mode_status
 1869 0008 0400     		movs	r4, r0
 1870 000a 0520     		movs	r0, #5
 1871 000c 002C     		cmp	r4, #0
 1872 000e 06D1     		bne	.L335
 1873 0010 0138     		subs	r0, r0, #1
 1874 0012 002D     		cmp	r5, #0
 1875 0014 03D0     		beq	.L335
 1876 0016 FFF7FEFF 		bl	get_modem_adr_profile
 1877 001a 2870     		strb	r0, [r5]
 1878 001c 2000     		movs	r0, r4
 1879              	.L335:
 1880              		@ sp needed
 1881 001e 70BD     		pop	{r4, r5, r6, pc}
 1883              		.section	.rodata.smtc_modem_adr_set_profile.str1.1,"aMS",%progbits,1
 1884              	.LC70:
 1885 0000 1B5B303B 		.ascii	"\033[0;31mERROR: %s call with adr profile not valid"
 1885      33316D45 
 1885      52524F52 
 1885      3A202573 
 1885      2063616C 
 1886 0030 0A00     		.ascii	"\012\000"
 1887              		.section	.text.smtc_modem_adr_set_profile,"ax",%progbits
 1888              		.align	1
 1889              		.global	smtc_modem_adr_set_profile
 1890              		.syntax unified
 1891              		.code	16
 1892              		.thumb_func
 1894              	smtc_modem_adr_set_profile:
 1895              		@ args = 0, pretend = 0, frame = 0
 1896              		@ frame_needed = 0, uses_anonymous_args = 0
 1897 0000 70B5     		push	{r4, r5, r6, lr}
 1898 0002 0D00     		movs	r5, r1
 1899 0004 1600     		movs	r6, r2
 1900 0006 FFF7FEFF 		bl	modem_get_test_mode_status
 1901 000a 0400     		movs	r4, r0
 1902 000c 0520     		movs	r0, #5
 1903 000e 002C     		cmp	r4, #0
 1904 0010 05D1     		bne	.L339
 1905 0012 032D     		cmp	r5, #3
 1906 0014 04D1     		bne	.L340
ARM GAS  /tmp/ccFPSyWO.s 			page 34


 1907 0016 1022     		movs	r2, #16
 1908 0018 002E     		cmp	r6, #0
 1909 001a 04D1     		bne	.L350
 1910              	.L341:
 1911 001c 0420     		movs	r0, #4
 1912              	.L339:
 1913              		@ sp needed
 1914 001e 70BD     		pop	{r4, r5, r6, pc}
 1915              	.L340:
 1916 0020 022D     		cmp	r5, #2
 1917 0022 05D8     		bhi	.L342
 1918 0024 2200     		movs	r2, r4
 1919              	.L350:
 1920 0026 3100     		movs	r1, r6
 1921 0028 2800     		movs	r0, r5
 1922 002a FFF7FEFF 		bl	set_modem_adr_profile
 1923 002e 0400     		movs	r4, r0
 1924              	.L342:
 1925 0030 013D     		subs	r5, r5, #1
 1926 0032 022D     		cmp	r5, #2
 1927 0034 01D8     		bhi	.L343
 1928 0036 FFF7FEFF 		bl	lorawan_api_reset_no_rx_packet_in_mobile_mode_cnt
 1929              	.L343:
 1930 003a 0020     		movs	r0, #0
 1931 003c 8442     		cmp	r4, r0
 1932 003e EED1     		bne	.L339
 1933 0040 0349     		ldr	r1, .L351
 1934 0042 0448     		ldr	r0, .L351+4
 1935 0044 FFF7FEFF 		bl	smtc_modem_hal_print_trace
 1936 0048 0348     		ldr	r0, .L351+8
 1937 004a FFF7FEFF 		bl	smtc_modem_hal_print_trace
 1938 004e E5E7     		b	.L341
 1939              	.L352:
 1940              		.align	2
 1941              	.L351:
 1942 0050 00000000 		.word	__func__.8
 1943 0054 00000000 		.word	.LC70
 1944 0058 2F000000 		.word	.LC3
 1946              		.section	.text.smtc_modem_get_available_datarates,"ax",%progbits
 1947              		.align	1
 1948              		.global	smtc_modem_get_available_datarates
 1949              		.syntax unified
 1950              		.code	16
 1951              		.thumb_func
 1953              	smtc_modem_get_available_datarates:
 1954              		@ args = 0, pretend = 0, frame = 0
 1955              		@ frame_needed = 0, uses_anonymous_args = 0
 1956 0000 70B5     		push	{r4, r5, r6, lr}
 1957 0002 0D00     		movs	r5, r1
 1958 0004 FFF7FEFF 		bl	modem_get_test_mode_status
 1959 0008 0400     		movs	r4, r0
 1960 000a 0520     		movs	r0, #5
 1961 000c 002C     		cmp	r4, #0
 1962 000e 06D1     		bne	.L354
 1963 0010 0138     		subs	r0, r0, #1
 1964 0012 002D     		cmp	r5, #0
 1965 0014 03D0     		beq	.L354
ARM GAS  /tmp/ccFPSyWO.s 			page 35


 1966 0016 FFF7FEFF 		bl	lorawan_api_mask_tx_dr_channel_up_dwell_time_check
 1967 001a 2880     		strh	r0, [r5]
 1968 001c 2000     		movs	r0, r4
 1969              	.L354:
 1970              		@ sp needed
 1971 001e 70BD     		pop	{r4, r5, r6, pc}
 1973              		.section	.text.smtc_modem_dm_get_fport,"ax",%progbits
 1974              		.align	1
 1975              		.global	smtc_modem_dm_get_fport
 1976              		.syntax unified
 1977              		.code	16
 1978              		.thumb_func
 1980              	smtc_modem_dm_get_fport:
 1981              		@ args = 0, pretend = 0, frame = 0
 1982              		@ frame_needed = 0, uses_anonymous_args = 0
 1983 0000 70B5     		push	{r4, r5, r6, lr}
 1984 0002 0500     		movs	r5, r0
 1985 0004 FFF7FEFF 		bl	modem_get_test_mode_status
 1986 0008 0400     		movs	r4, r0
 1987 000a 0520     		movs	r0, #5
 1988 000c 002C     		cmp	r4, #0
 1989 000e 06D1     		bne	.L358
 1990 0010 0138     		subs	r0, r0, #1
 1991 0012 002D     		cmp	r5, #0
 1992 0014 03D0     		beq	.L358
 1993 0016 FFF7FEFF 		bl	get_modem_dm_port
 1994 001a 2870     		strb	r0, [r5]
 1995 001c 2000     		movs	r0, r4
 1996              	.L358:
 1997              		@ sp needed
 1998 001e 70BD     		pop	{r4, r5, r6, pc}
 2000              		.section	.rodata.smtc_modem_dm_set_fport.str1.1,"aMS",%progbits,1
 2001              	.LC74:
 2002 0000 1B5B303B 		.ascii	"\033[0;31mERROR: %s call with DM port not valid\012"
 2002      33316D45 
 2002      52524F52 
 2002      3A202573 
 2002      2063616C 
 2003 002d 00       		.ascii	"\000"
 2004              		.section	.text.smtc_modem_dm_set_fport,"ax",%progbits
 2005              		.align	1
 2006              		.global	smtc_modem_dm_set_fport
 2007              		.syntax unified
 2008              		.code	16
 2009              		.thumb_func
 2011              	smtc_modem_dm_set_fport:
 2012              		@ args = 0, pretend = 0, frame = 0
 2013              		@ frame_needed = 0, uses_anonymous_args = 0
 2014 0000 70B5     		push	{r4, r5, r6, lr}
 2015 0002 0500     		movs	r5, r0
 2016 0004 FFF7FEFF 		bl	modem_get_test_mode_status
 2017 0008 0523     		movs	r3, #5
 2018 000a 041E     		subs	r4, r0, #0
 2019 000c 0DD1     		bne	.L362
 2020 000e 2800     		movs	r0, r5
 2021 0010 FFF7FEFF 		bl	set_modem_dm_port
 2022 0014 2300     		movs	r3, r4
ARM GAS  /tmp/ccFPSyWO.s 			page 36


 2023 0016 0028     		cmp	r0, #0
 2024 0018 07D1     		bne	.L362
 2025 001a 0549     		ldr	r1, .L365
 2026 001c 0548     		ldr	r0, .L365+4
 2027 001e FFF7FEFF 		bl	smtc_modem_hal_print_trace
 2028 0022 0548     		ldr	r0, .L365+8
 2029 0024 FFF7FEFF 		bl	smtc_modem_hal_print_trace
 2030 0028 0423     		movs	r3, #4
 2031              	.L362:
 2032              		@ sp needed
 2033 002a 1800     		movs	r0, r3
 2034 002c 70BD     		pop	{r4, r5, r6, pc}
 2035              	.L366:
 2036 002e C046     		.align	2
 2037              	.L365:
 2038 0030 00000000 		.word	__func__.7
 2039 0034 00000000 		.word	.LC74
 2040 0038 2F000000 		.word	.LC3
 2042              		.section	.text.smtc_modem_dm_get_info_interval,"ax",%progbits
 2043              		.align	1
 2044              		.global	smtc_modem_dm_get_info_interval
 2045              		.syntax unified
 2046              		.code	16
 2047              		.thumb_func
 2049              	smtc_modem_dm_get_info_interval:
 2050              		@ args = 0, pretend = 0, frame = 0
 2051              		@ frame_needed = 0, uses_anonymous_args = 0
 2052 0000 70B5     		push	{r4, r5, r6, lr}
 2053 0002 0600     		movs	r6, r0
 2054 0004 0D00     		movs	r5, r1
 2055 0006 FFF7FEFF 		bl	modem_get_test_mode_status
 2056 000a 0400     		movs	r4, r0
 2057 000c 0520     		movs	r0, #5
 2058 000e 002C     		cmp	r4, #0
 2059 0010 0CD1     		bne	.L368
 2060 0012 0138     		subs	r0, r0, #1
 2061 0014 002E     		cmp	r6, #0
 2062 0016 09D0     		beq	.L368
 2063 0018 002D     		cmp	r5, #0
 2064 001a 07D0     		beq	.L368
 2065 001c FFF7FEFF 		bl	get_modem_dm_interval
 2066 0020 8309     		lsrs	r3, r0, #6
 2067 0022 3370     		strb	r3, [r6]
 2068 0024 3F23     		movs	r3, #63
 2069 0026 1840     		ands	r0, r3
 2070 0028 2870     		strb	r0, [r5]
 2071 002a 2000     		movs	r0, r4
 2072              	.L368:
 2073              		@ sp needed
 2074 002c 70BD     		pop	{r4, r5, r6, pc}
 2076              		.section	.rodata.smtc_modem_dm_set_info_interval.str1.1,"aMS",%progbits,1
 2077              	.LC78:
 2078 0000 1B5B303B 		.ascii	"\033[0;31mERROR: %s call but interval not valid\012"
 2078      33316D45 
 2078      52524F52 
 2078      3A202573 
 2078      2063616C 
ARM GAS  /tmp/ccFPSyWO.s 			page 37


 2079 002d 00       		.ascii	"\000"
 2080              		.section	.text.smtc_modem_dm_set_info_interval,"ax",%progbits
 2081              		.align	1
 2082              		.global	smtc_modem_dm_set_info_interval
 2083              		.syntax unified
 2084              		.code	16
 2085              		.thumb_func
 2087              	smtc_modem_dm_set_info_interval:
 2088              		@ args = 0, pretend = 0, frame = 0
 2089              		@ frame_needed = 0, uses_anonymous_args = 0
 2090 0000 70B5     		push	{r4, r5, r6, lr}
 2091 0002 0600     		movs	r6, r0
 2092 0004 0C00     		movs	r4, r1
 2093 0006 FFF7FEFF 		bl	modem_get_test_mode_status
 2094 000a 0500     		movs	r5, r0
 2095 000c 0520     		movs	r0, #5
 2096 000e 002D     		cmp	r5, #0
 2097 0010 04D1     		bne	.L373
 2098 0012 032E     		cmp	r6, #3
 2099 0014 01D8     		bhi	.L374
 2100 0016 3F2C     		cmp	r4, #63
 2101 0018 01D9     		bls	.L375
 2102              	.L374:
 2103 001a 0420     		movs	r0, #4
 2104              	.L373:
 2105              		@ sp needed
 2106 001c 70BD     		pop	{r4, r5, r6, pc}
 2107              	.L375:
 2108 001e B601     		lsls	r6, r6, #6
 2109 0020 3443     		orrs	r4, r6
 2110 0022 E0B2     		uxtb	r0, r4
 2111 0024 FFF7FEFF 		bl	set_modem_dm_interval
 2112 0028 0028     		cmp	r0, #0
 2113 002a 07D1     		bne	.L376
 2114 002c 0649     		ldr	r1, .L378
 2115 002e 0748     		ldr	r0, .L378+4
 2116 0030 FFF7FEFF 		bl	smtc_modem_hal_print_trace
 2117 0034 0648     		ldr	r0, .L378+8
 2118 0036 FFF7FEFF 		bl	smtc_modem_hal_print_trace
 2119 003a EEE7     		b	.L374
 2120              	.L376:
 2121 003c FFF7FEFF 		bl	get_modem_dm_interval_second
 2122 0040 FFF7FEFF 		bl	modem_supervisor_add_task_dm_status
 2123 0044 2800     		movs	r0, r5
 2124 0046 E9E7     		b	.L373
 2125              	.L379:
 2126              		.align	2
 2127              	.L378:
 2128 0048 00000000 		.word	__func__.6
 2129 004c 00000000 		.word	.LC78
 2130 0050 2F000000 		.word	.LC3
 2132              		.section	.text.smtc_modem_dm_get_info_fields,"ax",%progbits
 2133              		.align	1
 2134              		.global	smtc_modem_dm_get_info_fields
 2135              		.syntax unified
 2136              		.code	16
 2137              		.thumb_func
ARM GAS  /tmp/ccFPSyWO.s 			page 38


 2139              	smtc_modem_dm_get_info_fields:
 2140              		@ args = 0, pretend = 0, frame = 0
 2141              		@ frame_needed = 0, uses_anonymous_args = 0
 2142 0000 70B5     		push	{r4, r5, r6, lr}
 2143 0002 0600     		movs	r6, r0
 2144 0004 0D00     		movs	r5, r1
 2145 0006 FFF7FEFF 		bl	modem_get_test_mode_status
 2146 000a 0400     		movs	r4, r0
 2147 000c 0520     		movs	r0, #5
 2148 000e 002C     		cmp	r4, #0
 2149 0010 0AD1     		bne	.L381
 2150 0012 0138     		subs	r0, r0, #1
 2151 0014 002E     		cmp	r6, #0
 2152 0016 07D0     		beq	.L381
 2153 0018 002D     		cmp	r5, #0
 2154 001a 05D0     		beq	.L381
 2155 001c 2100     		movs	r1, r4
 2156 001e 3000     		movs	r0, r6
 2157 0020 FFF7FEFF 		bl	get_dm_info_tag_list
 2158 0024 2870     		strb	r0, [r5]
 2159 0026 2000     		movs	r0, r4
 2160              	.L381:
 2161              		@ sp needed
 2162 0028 70BD     		pop	{r4, r5, r6, pc}
 2164              		.section	.text.smtc_modem_dm_set_info_fields,"ax",%progbits
 2165              		.align	1
 2166              		.global	smtc_modem_dm_set_info_fields
 2167              		.syntax unified
 2168              		.code	16
 2169              		.thumb_func
 2171              	smtc_modem_dm_set_info_fields:
 2172              		@ args = 0, pretend = 0, frame = 0
 2173              		@ frame_needed = 0, uses_anonymous_args = 0
 2174 0000 70B5     		push	{r4, r5, r6, lr}
 2175 0002 0400     		movs	r4, r0
 2176 0004 0D00     		movs	r5, r1
 2177 0006 FFF7FEFF 		bl	modem_get_test_mode_status
 2178 000a 0200     		movs	r2, r0
 2179 000c 0520     		movs	r0, #5
 2180 000e 002A     		cmp	r2, #0
 2181 0010 09D1     		bne	.L386
 2182 0012 0138     		subs	r0, r0, #1
 2183 0014 002C     		cmp	r4, #0
 2184 0016 06D0     		beq	.L386
 2185 0018 2900     		movs	r1, r5
 2186 001a 2000     		movs	r0, r4
 2187 001c FFF7FEFF 		bl	set_dm_info
 2188 0020 4342     		rsbs	r3, r0, #0
 2189 0022 5841     		adcs	r0, r0, r3
 2190 0024 8000     		lsls	r0, r0, #2
 2191              	.L386:
 2192              		@ sp needed
 2193 0026 70BD     		pop	{r4, r5, r6, pc}
 2195              		.section	.text.smtc_modem_dm_request_single_uplink,"ax",%progbits
 2196              		.align	1
 2197              		.global	smtc_modem_dm_request_single_uplink
 2198              		.syntax unified
ARM GAS  /tmp/ccFPSyWO.s 			page 39


 2199              		.code	16
 2200              		.thumb_func
 2202              	smtc_modem_dm_request_single_uplink:
 2203              		@ args = 0, pretend = 0, frame = 0
 2204              		@ frame_needed = 0, uses_anonymous_args = 0
 2205 0000 70B5     		push	{r4, r5, r6, lr}
 2206 0002 0500     		movs	r5, r0
 2207 0004 0E00     		movs	r6, r1
 2208 0006 FFF7FEFF 		bl	modem_get_test_mode_status
 2209 000a 0523     		movs	r3, #5
 2210 000c 041E     		subs	r4, r0, #0
 2211 000e 02D1     		bne	.L390
 2212 0010 002D     		cmp	r5, #0
 2213 0012 02D1     		bne	.L391
 2214              	.L392:
 2215 0014 0423     		movs	r3, #4
 2216              	.L390:
 2217              		@ sp needed
 2218 0016 1800     		movs	r0, r3
 2219 0018 70BD     		pop	{r4, r5, r6, pc}
 2220              	.L391:
 2221 001a FFF7FEFF 		bl	is_modem_connected
 2222 001e 0623     		movs	r3, #6
 2223 0020 0028     		cmp	r0, #0
 2224 0022 F8D0     		beq	.L390
 2225 0024 0122     		movs	r2, #1
 2226 0026 3100     		movs	r1, r6
 2227 0028 2800     		movs	r0, r5
 2228 002a FFF7FEFF 		bl	set_dm_info
 2229 002e 0028     		cmp	r0, #0
 2230 0030 F0D0     		beq	.L392
 2231 0032 FFF7FEFF 		bl	modem_supervisor_add_task_dm_status_now
 2232 0036 2300     		movs	r3, r4
 2233 0038 EDE7     		b	.L390
 2235              		.section	.text.smtc_modem_dm_set_user_data,"ax",%progbits
 2236              		.align	1
 2237              		.global	smtc_modem_dm_set_user_data
 2238              		.syntax unified
 2239              		.code	16
 2240              		.thumb_func
 2242              	smtc_modem_dm_set_user_data:
 2243              		@ args = 0, pretend = 0, frame = 0
 2244              		@ frame_needed = 0, uses_anonymous_args = 0
 2245 0000 70B5     		push	{r4, r5, r6, lr}
 2246 0002 0500     		movs	r5, r0
 2247 0004 FFF7FEFF 		bl	modem_get_test_mode_status
 2248 0008 0400     		movs	r4, r0
 2249 000a 0520     		movs	r0, #5
 2250 000c 002C     		cmp	r4, #0
 2251 000e 06D1     		bne	.L400
 2252 0010 0138     		subs	r0, r0, #1
 2253 0012 002D     		cmp	r5, #0
 2254 0014 03D0     		beq	.L400
 2255 0016 2800     		movs	r0, r5
 2256 0018 FFF7FEFF 		bl	set_modem_appstatus
 2257 001c 2000     		movs	r0, r4
 2258              	.L400:
ARM GAS  /tmp/ccFPSyWO.s 			page 40


 2259              		@ sp needed
 2260 001e 70BD     		pop	{r4, r5, r6, pc}
 2262              		.section	.text.smtc_modem_dm_get_user_data,"ax",%progbits
 2263              		.align	1
 2264              		.global	smtc_modem_dm_get_user_data
 2265              		.syntax unified
 2266              		.code	16
 2267              		.thumb_func
 2269              	smtc_modem_dm_get_user_data:
 2270              		@ args = 0, pretend = 0, frame = 0
 2271              		@ frame_needed = 0, uses_anonymous_args = 0
 2272 0000 70B5     		push	{r4, r5, r6, lr}
 2273 0002 0500     		movs	r5, r0
 2274 0004 FFF7FEFF 		bl	modem_get_test_mode_status
 2275 0008 0400     		movs	r4, r0
 2276 000a 0520     		movs	r0, #5
 2277 000c 002C     		cmp	r4, #0
 2278 000e 06D1     		bne	.L404
 2279 0010 0138     		subs	r0, r0, #1
 2280 0012 002D     		cmp	r5, #0
 2281 0014 03D0     		beq	.L404
 2282 0016 2800     		movs	r0, r5
 2283 0018 FFF7FEFF 		bl	get_modem_appstatus
 2284 001c 2000     		movs	r0, r4
 2285              	.L404:
 2286              		@ sp needed
 2287 001e 70BD     		pop	{r4, r5, r6, pc}
 2289              		.section	.rodata.smtc_modem_join_network.str1.1,"aMS",%progbits,1
 2290              	.LC82:
 2291 0000 1B5B303B 		.ascii	"\033[0;31mERROR: %s call but the device is configur"
 2291      33316D45 
 2291      52524F52 
 2291      3A202573 
 2291      2063616C 
 2292 0030 65642069 		.ascii	"ed in ABP mode\012\000"
 2292      6E204142 
 2292      50206D6F 
 2292      64650A00 
 2293              	.LC86:
 2294 0040 1B5B303B 		.ascii	"\033[0;31mERROR: %s Modem is muted\012\000"
 2294      33316D45 
 2294      52524F52 
 2294      3A202573 
 2294      204D6F64 
 2295              		.section	.text.smtc_modem_join_network,"ax",%progbits
 2296              		.align	1
 2297              		.global	smtc_modem_join_network
 2298              		.syntax unified
 2299              		.code	16
 2300              		.thumb_func
 2302              	smtc_modem_join_network:
 2303              		@ args = 0, pretend = 0, frame = 0
 2304              		@ frame_needed = 0, uses_anonymous_args = 0
 2305 0000 10B5     		push	{r4, lr}
 2306 0002 FFF7FEFF 		bl	modem_get_test_mode_status
 2307 0006 0028     		cmp	r0, #0
 2308 0008 17D1     		bne	.L408
ARM GAS  /tmp/ccFPSyWO.s 			page 41


 2309 000a FFF7FEFF 		bl	lorawan_api_get_activation_mode
 2310 000e 0128     		cmp	r0, #1
 2311 0010 08D1     		bne	.L409
 2312 0012 1449     		ldr	r1, .L416
 2313 0014 1448     		ldr	r0, .L416+4
 2314              	.L415:
 2315 0016 FFF7FEFF 		bl	smtc_modem_hal_print_trace
 2316 001a 1448     		ldr	r0, .L416+8
 2317 001c FFF7FEFF 		bl	smtc_modem_hal_print_trace
 2318 0020 0624     		movs	r4, #6
 2319 0022 0BE0     		b	.L412
 2320              	.L409:
 2321 0024 FFF7FEFF 		bl	get_join_state
 2322 0028 041E     		subs	r4, r0, #0
 2323 002a 09D0     		beq	.L411
 2324 002c 1048     		ldr	r0, .L416+12
 2325 002e 0D49     		ldr	r1, .L416
 2326 0030 FFF7FEFF 		bl	smtc_modem_hal_print_trace
 2327 0034 0D48     		ldr	r0, .L416+8
 2328 0036 FFF7FEFF 		bl	smtc_modem_hal_print_trace
 2329              	.L408:
 2330 003a 0524     		movs	r4, #5
 2331              	.L412:
 2332              		@ sp needed
 2333 003c 2000     		movs	r0, r4
 2334 003e 10BD     		pop	{r4, pc}
 2335              	.L411:
 2336 0040 FFF7FEFF 		bl	get_modem_muted
 2337 0044 FF28     		cmp	r0, #255
 2338 0046 02D1     		bne	.L413
 2339 0048 0649     		ldr	r1, .L416
 2340 004a 0A48     		ldr	r0, .L416+16
 2341 004c E3E7     		b	.L415
 2342              	.L413:
 2343 004e FFF7FEFF 		bl	get_modem_suspend
 2344 0052 0128     		cmp	r0, #1
 2345 0054 02D1     		bne	.L414
 2346 0056 0349     		ldr	r1, .L416
 2347 0058 0748     		ldr	r0, .L416+20
 2348 005a DCE7     		b	.L415
 2349              	.L414:
 2350 005c FFF7FEFF 		bl	modem_supervisor_add_task_join
 2351 0060 ECE7     		b	.L412
 2352              	.L417:
 2353 0062 C046     		.align	2
 2354              	.L416:
 2355 0064 00000000 		.word	__func__.5
 2356 0068 00000000 		.word	.LC82
 2357 006c 2F000000 		.word	.LC3
 2358 0070 00000000 		.word	.LC49
 2359 0074 40000000 		.word	.LC86
 2360 0078 34000000 		.word	.LC5
 2362              		.section	.text.smtc_modem_leave_network,"ax",%progbits
 2363              		.align	1
 2364              		.global	smtc_modem_leave_network
 2365              		.syntax unified
 2366              		.code	16
ARM GAS  /tmp/ccFPSyWO.s 			page 42


 2367              		.thumb_func
 2369              	smtc_modem_leave_network:
 2370              		@ args = 0, pretend = 0, frame = 0
 2371              		@ frame_needed = 0, uses_anonymous_args = 0
 2372 0000 10B5     		push	{r4, lr}
 2373 0002 FFF7FEFF 		bl	modem_get_test_mode_status
 2374 0006 0400     		movs	r4, r0
 2375 0008 0520     		movs	r0, #5
 2376 000a 002C     		cmp	r4, #0
 2377 000c 02D1     		bne	.L419
 2378 000e FFF7FEFF 		bl	modem_leave
 2379 0012 2000     		movs	r0, r4
 2380              	.L419:
 2381              		@ sp needed
 2382 0014 10BD     		pop	{r4, pc}
 2384              		.section	.rodata.smtc_modem_suspend_radio_communications.str1.1,"aMS",%progbits,1
 2385              	.LC90:
 2386 0000 1B5B303B 		.ascii	"\033[0;31mERROR: %s call but suspend value is not v"
 2386      33316D45 
 2386      52524F52 
 2386      3A202573 
 2386      2063616C 
 2387 0030 616C6964 		.ascii	"alid\012\000"
 2387      0A00
 2388              		.section	.text.smtc_modem_suspend_radio_communications,"ax",%progbits
 2389              		.align	1
 2390              		.global	smtc_modem_suspend_radio_communications
 2391              		.syntax unified
 2392              		.code	16
 2393              		.thumb_func
 2395              	smtc_modem_suspend_radio_communications:
 2396              		@ args = 0, pretend = 0, frame = 0
 2397              		@ frame_needed = 0, uses_anonymous_args = 0
 2398 0000 70B5     		push	{r4, r5, r6, lr}
 2399 0002 0500     		movs	r5, r0
 2400 0004 FFF7FEFF 		bl	modem_get_test_mode_status
 2401 0008 0523     		movs	r3, #5
 2402 000a 041E     		subs	r4, r0, #0
 2403 000c 0DD1     		bne	.L422
 2404 000e 2800     		movs	r0, r5
 2405 0010 FFF7FEFF 		bl	set_modem_suspend
 2406 0014 2300     		movs	r3, r4
 2407 0016 0028     		cmp	r0, #0
 2408 0018 07D1     		bne	.L422
 2409 001a 0549     		ldr	r1, .L425
 2410 001c 0548     		ldr	r0, .L425+4
 2411 001e FFF7FEFF 		bl	smtc_modem_hal_print_trace
 2412 0022 0548     		ldr	r0, .L425+8
 2413 0024 FFF7FEFF 		bl	smtc_modem_hal_print_trace
 2414 0028 0423     		movs	r3, #4
 2415              	.L422:
 2416              		@ sp needed
 2417 002a 1800     		movs	r0, r3
 2418 002c 70BD     		pop	{r4, r5, r6, pc}
 2419              	.L426:
 2420 002e C046     		.align	2
 2421              	.L425:
ARM GAS  /tmp/ccFPSyWO.s 			page 43


 2422 0030 00000000 		.word	__func__.4
 2423 0034 00000000 		.word	.LC90
 2424 0038 2F000000 		.word	.LC3
 2426              		.section	.rodata.smtc_modem_get_next_tx_max_payload.str1.1,"aMS",%progbits,1
 2427              	.LC94:
 2428 0000 1B5B303B 		.ascii	"\033[0;31mERROR: %s call but the device is not join"
 2428      33316D45 
 2428      52524F52 
 2428      3A202573 
 2428      2063616C 
 2429 0030 0A00     		.ascii	"\012\000"
 2430              		.section	.text.smtc_modem_get_next_tx_max_payload,"ax",%progbits
 2431              		.align	1
 2432              		.global	smtc_modem_get_next_tx_max_payload
 2433              		.syntax unified
 2434              		.code	16
 2435              		.thumb_func
 2437              	smtc_modem_get_next_tx_max_payload:
 2438              		@ args = 0, pretend = 0, frame = 0
 2439              		@ frame_needed = 0, uses_anonymous_args = 0
 2440 0000 70B5     		push	{r4, r5, r6, lr}
 2441 0002 0C00     		movs	r4, r1
 2442 0004 FFF7FEFF 		bl	modem_get_test_mode_status
 2443 0008 0500     		movs	r5, r0
 2444 000a 0520     		movs	r0, #5
 2445 000c 002D     		cmp	r5, #0
 2446 000e 0AD1     		bne	.L428
 2447 0010 0138     		subs	r0, r0, #1
 2448 0012 002C     		cmp	r4, #0
 2449 0014 07D0     		beq	.L428
 2450 0016 FFF7FEFF 		bl	get_join_state
 2451 001a 0228     		cmp	r0, #2
 2452 001c 04D1     		bne	.L429
 2453 001e FFF7FEFF 		bl	lorawan_api_next_max_payload_length_get
 2454 0022 2070     		strb	r0, [r4]
 2455 0024 2800     		movs	r0, r5
 2456              	.L428:
 2457              		@ sp needed
 2458 0026 70BD     		pop	{r4, r5, r6, pc}
 2459              	.L429:
 2460 0028 0449     		ldr	r1, .L432
 2461 002a 0548     		ldr	r0, .L432+4
 2462 002c FFF7FEFF 		bl	smtc_modem_hal_print_trace
 2463 0030 0448     		ldr	r0, .L432+8
 2464 0032 FFF7FEFF 		bl	smtc_modem_hal_print_trace
 2465 0036 0620     		movs	r0, #6
 2466 0038 2570     		strb	r5, [r4]
 2467 003a F4E7     		b	.L428
 2468              	.L433:
 2469              		.align	2
 2470              	.L432:
 2471 003c 00000000 		.word	__func__.3
 2472 0040 00000000 		.word	.LC94
 2473 0044 2F000000 		.word	.LC3
 2475              		.section	.text.smtc_modem_request_uplink,"ax",%progbits
 2476              		.align	1
 2477              		.global	smtc_modem_request_uplink
ARM GAS  /tmp/ccFPSyWO.s 			page 44


 2478              		.syntax unified
 2479              		.code	16
 2480              		.thumb_func
 2482              	smtc_modem_request_uplink:
 2483              		@ args = 4, pretend = 0, frame = 0
 2484              		@ frame_needed = 0, uses_anonymous_args = 0
 2485 0000 F7B5     		push	{r0, r1, r2, r4, r5, r6, r7, lr}
 2486 0002 1C00     		movs	r4, r3
 2487 0004 08AB     		add	r3, sp, #32
 2488 0006 1F78     		ldrb	r7, [r3]
 2489 0008 0D00     		movs	r5, r1
 2490 000a 1600     		movs	r6, r2
 2491 000c FFF7FEFF 		bl	modem_get_test_mode_status
 2492 0010 0300     		movs	r3, r0
 2493 0012 0520     		movs	r0, #5
 2494 0014 002B     		cmp	r3, #0
 2495 0016 09D1     		bne	.L435
 2496 0018 0138     		subs	r0, r0, #1
 2497 001a 002C     		cmp	r4, #0
 2498 001c 06D0     		beq	.L435
 2499 001e 0093     		str	r3, [sp]
 2500 0020 2200     		movs	r2, r4
 2501 0022 3B00     		movs	r3, r7
 2502 0024 3100     		movs	r1, r6
 2503 0026 2800     		movs	r0, r5
 2504 0028 FFF7FEFF 		bl	smtc_modem_send_tx.constprop.0
 2505              	.L435:
 2506              		@ sp needed
 2507 002c FEBD     		pop	{r1, r2, r3, r4, r5, r6, r7, pc}
 2509              		.section	.text.smtc_modem_request_extended_uplink,"ax",%progbits
 2510              		.align	1
 2511              		.global	smtc_modem_request_extended_uplink
 2512              		.syntax unified
 2513              		.code	16
 2514              		.thumb_func
 2516              	smtc_modem_request_extended_uplink:
 2517              		@ args = 12, pretend = 0, frame = 0
 2518              		@ frame_needed = 0, uses_anonymous_args = 0
 2519 0000 10B5     		push	{r4, lr}
 2520 0002 FFF7FEFF 		bl	modem_get_test_mode_status
 2521              		@ sp needed
 2522 0006 0430     		adds	r0, r0, #4
 2523 0008 C0B2     		uxtb	r0, r0
 2524 000a 10BD     		pop	{r4, pc}
 2526              		.section	.text.smtc_modem_abort_extended_uplink,"ax",%progbits
 2527              		.align	1
 2528              		.global	smtc_modem_abort_extended_uplink
 2529              		.syntax unified
 2530              		.code	16
 2531              		.thumb_func
 2533              	smtc_modem_abort_extended_uplink:
 2534              		@ args = 0, pretend = 0, frame = 0
 2535              		@ frame_needed = 0, uses_anonymous_args = 0
 2536 0000 10B5     		push	{r4, lr}
 2537 0002 FFF7FEFF 		bl	modem_get_test_mode_status
 2538              		@ sp needed
 2539 0006 0430     		adds	r0, r0, #4
ARM GAS  /tmp/ccFPSyWO.s 			page 45


 2540 0008 C0B2     		uxtb	r0, r0
 2541 000a 10BD     		pop	{r4, pc}
 2543              		.section	.text.smtc_modem_request_emergency_uplink,"ax",%progbits
 2544              		.align	1
 2545              		.global	smtc_modem_request_emergency_uplink
 2546              		.syntax unified
 2547              		.code	16
 2548              		.thumb_func
 2550              	smtc_modem_request_emergency_uplink:
 2551              		@ args = 4, pretend = 0, frame = 0
 2552              		@ frame_needed = 0, uses_anonymous_args = 0
 2553 0000 F7B5     		push	{r0, r1, r2, r4, r5, r6, r7, lr}
 2554 0002 1C00     		movs	r4, r3
 2555 0004 08AB     		add	r3, sp, #32
 2556 0006 1F78     		ldrb	r7, [r3]
 2557 0008 0D00     		movs	r5, r1
 2558 000a 1600     		movs	r6, r2
 2559 000c FFF7FEFF 		bl	modem_get_test_mode_status
 2560 0010 0300     		movs	r3, r0
 2561 0012 0520     		movs	r0, #5
 2562 0014 002B     		cmp	r3, #0
 2563 0016 0AD1     		bne	.L441
 2564 0018 0138     		subs	r0, r0, #1
 2565 001a 002C     		cmp	r4, #0
 2566 001c 07D0     		beq	.L441
 2567 001e 0133     		adds	r3, r3, #1
 2568 0020 0093     		str	r3, [sp]
 2569 0022 2200     		movs	r2, r4
 2570 0024 3B00     		movs	r3, r7
 2571 0026 3100     		movs	r1, r6
 2572 0028 2800     		movs	r0, r5
 2573 002a FFF7FEFF 		bl	smtc_modem_send_tx.constprop.0
 2574              	.L441:
 2575              		@ sp needed
 2576 002e FEBD     		pop	{r1, r2, r3, r4, r5, r6, r7, pc}
 2578              		.section	.text.smtc_modem_request_empty_uplink,"ax",%progbits
 2579              		.align	1
 2580              		.global	smtc_modem_request_empty_uplink
 2581              		.syntax unified
 2582              		.code	16
 2583              		.thumb_func
 2585              	smtc_modem_request_empty_uplink:
 2586              		@ args = 0, pretend = 0, frame = 24
 2587              		@ frame_needed = 0, uses_anonymous_args = 0
 2588 0000 F0B5     		push	{r4, r5, r6, r7, lr}
 2589 0002 87B0     		sub	sp, sp, #28
 2590 0004 1F00     		movs	r7, r3
 2591 0006 0E00     		movs	r6, r1
 2592 0008 1500     		movs	r5, r2
 2593 000a FFF7FEFF 		bl	modem_get_test_mode_status
 2594 000e 0300     		movs	r3, r0
 2595 0010 0520     		movs	r0, #5
 2596 0012 002B     		cmp	r3, #0
 2597 0014 04D1     		bne	.L445
 2598 0016 FFF7FEFF 		bl	is_modem_connected
 2599 001a 0028     		cmp	r0, #0
 2600 001c 02D1     		bne	.L446
ARM GAS  /tmp/ccFPSyWO.s 			page 46


 2601              	.L452:
 2602 001e 0620     		movs	r0, #6
 2603              	.L445:
 2604 0020 07B0     		add	sp, sp, #28
 2605              		@ sp needed
 2606 0022 F0BD     		pop	{r4, r5, r6, r7, pc}
 2607              	.L446:
 2608 0024 002E     		cmp	r6, #0
 2609 0026 16D0     		beq	.L448
 2610 0028 6B1E     		subs	r3, r5, #1
 2611 002a DBB2     		uxtb	r3, r3
 2612 002c DE2B     		cmp	r3, #222
 2613 002e 0DD8     		bhi	.L449
 2614              	.L451:
 2615 0030 FFF7FEFF 		bl	get_modem_dm_port
 2616 0034 8542     		cmp	r5, r0
 2617 0036 0ED1     		bne	.L448
 2618              	.L450:
 2619 0038 2A00     		movs	r2, r5
 2620 003a 1049     		ldr	r1, .L457
 2621 003c 1048     		ldr	r0, .L457+4
 2622 003e FFF7FEFF 		bl	smtc_modem_hal_print_trace
 2623 0042 1048     		ldr	r0, .L457+8
 2624 0044 FFF7FEFF 		bl	smtc_modem_hal_print_trace
 2625 0048 0420     		movs	r0, #4
 2626 004a E9E7     		b	.L445
 2627              	.L449:
 2628 004c FFF7FEFF 		bl	lorawan_api_modem_certification_is_enabled
 2629 0050 0028     		cmp	r0, #0
 2630 0052 EDD1     		bne	.L451
 2631 0054 F0E7     		b	.L450
 2632              	.L448:
 2633 0056 0123     		movs	r3, #1
 2634 0058 01AC     		add	r4, sp, #4
 2635 005a 2372     		strb	r3, [r4, #8]
 2636 005c 0023     		movs	r3, #0
 2637 005e 6572     		strb	r5, [r4, #9]
 2638 0060 2370     		strb	r3, [r4]
 2639 0062 A672     		strb	r6, [r4, #10]
 2640 0064 6774     		strb	r7, [r4, #17]
 2641 0066 2374     		strb	r3, [r4, #16]
 2642 0068 FFF7FEFF 		bl	smtc_modem_hal_get_time_in_s
 2643 006c 0290     		str	r0, [sp, #8]
 2644 006e 2000     		movs	r0, r4
 2645 0070 FFF7FEFF 		bl	modem_supervisor_add_task
 2646 0074 0028     		cmp	r0, #0
 2647 0076 D3D0     		beq	.L445
 2648 0078 D1E7     		b	.L452
 2649              	.L458:
 2650 007a C046     		.align	2
 2651              	.L457:
 2652 007c 00000000 		.word	__func__.1
 2653 0080 00000000 		.word	.LC15
 2654 0084 2F000000 		.word	.LC3
 2656              		.section	.rodata.smtc_modem_file_upload_init.str1.1,"aMS",%progbits,1
 2657              	.LC100:
 2658 0000 1B5B303B 		.ascii	"\033[0;31mERROR: Upload initialization fails: size "
ARM GAS  /tmp/ccFPSyWO.s 			page 47


 2658      33316D45 
 2658      52524F52 
 2658      3A205570 
 2658      6C6F6164 
 2659 0030 3D203020 		.ascii	"= 0 is not allowed\012\000"
 2659      6973206E 
 2659      6F742061 
 2659      6C6C6F77 
 2659      65640A00 
 2660              	.LC103:
 2661 0044 1B5B303B 		.ascii	"\033[0;31mERROR: File Upload still in going\012\000"
 2661      33316D45 
 2661      52524F52 
 2661      3A204669 
 2661      6C652055 
 2662              	.LC105:
 2663 006e 1B5B303B 		.ascii	"\033[0;31mERROR: Upload file data is null\012\000"
 2663      33316D45 
 2663      52524F52 
 2663      3A205570 
 2663      6C6F6164 
 2664              	.LC108:
 2665 0096 1B5B303B 		.ascii	"\033[0;31mERROR: Upload initialization fails\012\000"
 2665      33316D45 
 2665      52524F52 
 2665      3A205570 
 2665      6C6F6164 
 2666              	.LC111:
 2667 00c1 25732C20 		.ascii	"%s, cipher_mode: %d, size:%d, average_delay:%d, ses"
 2667      63697068 
 2667      65725F6D 
 2667      6F64653A 
 2667      2025642C 
 2668 00f4 73696F6E 		.ascii	"sion counter:%d\000"
 2668      20636F75 
 2668      6E746572 
 2668      3A256400 
 2669              		.section	.text.smtc_modem_file_upload_init,"ax",%progbits
 2670              		.align	1
 2671              		.global	smtc_modem_file_upload_init
 2672              		.syntax unified
 2673              		.code	16
 2674              		.thumb_func
 2676              	smtc_modem_file_upload_init:
 2677              		@ args = 8, pretend = 0, frame = 16
 2678              		@ frame_needed = 0, uses_anonymous_args = 0
 2679 0000 F0B5     		push	{r4, r5, r6, r7, lr}
 2680 0002 89B0     		sub	sp, sp, #36
 2681 0004 0593     		str	r3, [sp, #20]
 2682 0006 0EAB     		add	r3, sp, #56
 2683 0008 1400     		movs	r4, r2
 2684 000a 1E88     		ldrh	r6, [r3]
 2685 000c 0791     		str	r1, [sp, #28]
 2686 000e FFF7FEFF 		bl	modem_get_test_mode_status
 2687 0012 051E     		subs	r5, r0, #0
 2688 0014 12D1     		bne	.L460
 2689 0016 2348     		ldr	r0, .L473
ARM GAS  /tmp/ccFPSyWO.s 			page 48


 2690 0018 002E     		cmp	r6, #0
 2691 001a 19D0     		beq	.L472
 2692 001c 012C     		cmp	r4, #1
 2693 001e 03D9     		bls	.L463
 2694              	.L462:
 2695 0020 0425     		movs	r5, #4
 2696              	.L464:
 2697 0022 2800     		movs	r0, r5
 2698 0024 09B0     		add	sp, sp, #36
 2699              		@ sp needed
 2700 0026 F0BD     		pop	{r4, r5, r6, r7, pc}
 2701              	.L463:
 2702 0028 FFF7FEFF 		bl	modem_get_upload_state
 2703 002c 0128     		cmp	r0, #1
 2704 002e 07D1     		bne	.L465
 2705              	.L466:
 2706 0030 1D48     		ldr	r0, .L473+4
 2707 0032 FFF7FEFF 		bl	smtc_modem_hal_print_trace
 2708 0036 1D48     		ldr	r0, .L473+8
 2709 0038 FFF7FEFF 		bl	smtc_modem_hal_print_trace
 2710              	.L460:
 2711 003c 0525     		movs	r5, #5
 2712 003e F0E7     		b	.L464
 2713              	.L465:
 2714 0040 FFF7FEFF 		bl	modem_get_upload_state
 2715 0044 0228     		cmp	r0, #2
 2716 0046 F3D0     		beq	.L466
 2717 0048 059B     		ldr	r3, [sp, #20]
 2718 004a 002B     		cmp	r3, #0
 2719 004c 06D1     		bne	.L467
 2720 004e 1848     		ldr	r0, .L473+12
 2721              	.L472:
 2722 0050 FFF7FEFF 		bl	smtc_modem_hal_print_trace
 2723 0054 1548     		ldr	r0, .L473+8
 2724 0056 FFF7FEFF 		bl	smtc_modem_hal_print_trace
 2725 005a E1E7     		b	.L462
 2726              	.L467:
 2727 005c FFF7FEFF 		bl	modem_context_compute_and_get_next_dm_upload_sctr
 2728 0060 144A     		ldr	r2, .L473+16
 2729 0062 0F9B     		ldr	r3, [sp, #60]
 2730 0064 0692     		str	r2, [sp, #24]
 2731 0066 079A     		ldr	r2, [sp, #28]
 2732 0068 2900     		movs	r1, r5
 2733 006a 0290     		str	r0, [sp, #8]
 2734 006c 0092     		str	r2, [sp]
 2735 006e 0700     		movs	r7, r0
 2736 0070 3200     		movs	r2, r6
 2737 0072 0698     		ldr	r0, [sp, #24]
 2738 0074 9BB2     		uxth	r3, r3
 2739 0076 0194     		str	r4, [sp, #4]
 2740 0078 FFF7FEFF 		bl	file_upload_init
 2741 007c 051E     		subs	r5, r0, #0
 2742 007e 0E48     		ldr	r0, .L473+20
 2743 0080 E6D1     		bne	.L472
 2744 0082 0F9B     		ldr	r3, [sp, #60]
 2745 0084 2200     		movs	r2, r4
 2746 0086 0093     		str	r3, [sp]
ARM GAS  /tmp/ccFPSyWO.s 			page 49


 2747 0088 0C49     		ldr	r1, .L473+24
 2748 008a 3300     		movs	r3, r6
 2749 008c 0C48     		ldr	r0, .L473+28
 2750 008e 0197     		str	r7, [sp, #4]
 2751 0090 FFF7FEFF 		bl	smtc_modem_hal_print_trace
 2752 0094 0698     		ldr	r0, [sp, #24]
 2753 0096 0599     		ldr	r1, [sp, #20]
 2754 0098 FFF7FEFF 		bl	file_upload_attach_file_buffer
 2755 009c 0120     		movs	r0, #1
 2756 009e FFF7FEFF 		bl	modem_set_upload_state
 2757 00a2 BEE7     		b	.L464
 2758              	.L474:
 2759              		.align	2
 2760              	.L473:
 2761 00a4 00000000 		.word	.LC100
 2762 00a8 44000000 		.word	.LC103
 2763 00ac 2F000000 		.word	.LC3
 2764 00b0 6E000000 		.word	.LC105
 2765 00b4 A8040000 		.word	smtc_modem_services_ctx+1192
 2766 00b8 96000000 		.word	.LC108
 2767 00bc 00000000 		.word	__func__.0
 2768 00c0 C1000000 		.word	.LC111
 2770              		.section	.rodata.smtc_modem_file_upload_start.str1.1,"aMS",%progbits,1
 2771              	.LC113:
 2772 0000 1B5B303B 		.ascii	"\033[0;31mERROR: FileUpload still in progress..\012"
 2772      33316D45 
 2772      52524F52 
 2772      3A204669 
 2772      6C655570 
 2773 002d 00       		.ascii	"\000"
 2774              	.LC116:
 2775 002e 1B5B303B 		.ascii	"\033[0;31mERROR: File upload session not initialize"
 2775      33316D45 
 2775      52524F52 
 2775      3A204669 
 2775      6C652075 
 2776 005e 640A00   		.ascii	"d\012\000"
 2777              		.section	.text.smtc_modem_file_upload_start,"ax",%progbits
 2778              		.align	1
 2779              		.global	smtc_modem_file_upload_start
 2780              		.syntax unified
 2781              		.code	16
 2782              		.thumb_func
 2784              	smtc_modem_file_upload_start:
 2785              		@ args = 0, pretend = 0, frame = 0
 2786              		@ frame_needed = 0, uses_anonymous_args = 0
 2787 0000 70B5     		push	{r4, r5, r6, lr}
 2788 0002 FFF7FEFF 		bl	modem_get_test_mode_status
 2789 0006 041E     		subs	r4, r0, #0
 2790 0008 0ED1     		bne	.L476
 2791 000a FFF7FEFF 		bl	is_modem_connected
 2792 000e 0623     		movs	r3, #6
 2793 0010 0028     		cmp	r0, #0
 2794 0012 0AD0     		beq	.L477
 2795 0014 FFF7FEFF 		bl	modem_get_upload_state
 2796 0018 0228     		cmp	r0, #2
 2797 001a 08D1     		bne	.L478
ARM GAS  /tmp/ccFPSyWO.s 			page 50


 2798 001c 1348     		ldr	r0, .L481
 2799 001e FFF7FEFF 		bl	smtc_modem_hal_print_trace
 2800 0022 1348     		ldr	r0, .L481+4
 2801 0024 FFF7FEFF 		bl	smtc_modem_hal_print_trace
 2802              	.L476:
 2803 0028 0523     		movs	r3, #5
 2804              	.L477:
 2805              		@ sp needed
 2806 002a 1800     		movs	r0, r3
 2807 002c 70BD     		pop	{r4, r5, r6, pc}
 2808              	.L478:
 2809 002e FFF7FEFF 		bl	modem_get_upload_state
 2810 0032 0500     		movs	r5, r0
 2811 0034 0128     		cmp	r0, #1
 2812 0036 07D0     		beq	.L479
 2813 0038 0E48     		ldr	r0, .L481+8
 2814 003a FFF7FEFF 		bl	smtc_modem_hal_print_trace
 2815 003e 0C48     		ldr	r0, .L481+4
 2816 0040 FFF7FEFF 		bl	smtc_modem_hal_print_trace
 2817 0044 0323     		movs	r3, #3
 2818 0046 F0E7     		b	.L477
 2819              	.L479:
 2820 0048 0B48     		ldr	r0, .L481+12
 2821 004a FFF7FEFF 		bl	file_upload_prepare_upload
 2822 004e 0221     		movs	r1, #2
 2823 0050 2000     		movs	r0, r4
 2824 0052 FFF7FEFF 		bl	smtc_modem_hal_get_random_nb_in_range
 2825 0056 FFF7FEFF 		bl	modem_supervisor_add_task_file_upload
 2826 005a 0220     		movs	r0, #2
 2827 005c FFF7FEFF 		bl	modem_set_upload_state
 2828 0060 2800     		movs	r0, r5
 2829 0062 FFF7FEFF 		bl	set_modem_status_file_upload
 2830 0066 2300     		movs	r3, r4
 2831 0068 DFE7     		b	.L477
 2832              	.L482:
 2833 006a C046     		.align	2
 2834              	.L481:
 2835 006c 00000000 		.word	.LC113
 2836 0070 2F000000 		.word	.LC3
 2837 0074 2E000000 		.word	.LC116
 2838 0078 A8040000 		.word	smtc_modem_services_ctx+1192
 2840              		.section	.rodata.smtc_modem_file_upload_reset.str1.1,"aMS",%progbits,1
 2841              	.LC119:
 2842 0000 1B5B303B 		.ascii	"\033[0;31mERROR: No file upload session is on going"
 2842      33316D45 
 2842      52524F52 
 2842      3A204E6F 
 2842      2066696C 
 2843 0030 0A00     		.ascii	"\012\000"
 2844              	.LC122:
 2845 0032 1B5B303B 		.ascii	"\033[0;33mWARN: File Upload Cancel and session rese"
 2845      33336D57 
 2845      41524E3A 
 2845      2046696C 
 2845      65205570 
 2846 0062 74210A00 		.ascii	"t!\012\000"
 2847              		.section	.text.smtc_modem_file_upload_reset,"ax",%progbits
ARM GAS  /tmp/ccFPSyWO.s 			page 51


 2848              		.align	1
 2849              		.global	smtc_modem_file_upload_reset
 2850              		.syntax unified
 2851              		.code	16
 2852              		.thumb_func
 2854              	smtc_modem_file_upload_reset:
 2855              		@ args = 0, pretend = 0, frame = 0
 2856              		@ frame_needed = 0, uses_anonymous_args = 0
 2857 0000 70B5     		push	{r4, r5, r6, lr}
 2858 0002 FFF7FEFF 		bl	modem_get_test_mode_status
 2859 0006 0400     		movs	r4, r0
 2860 0008 0520     		movs	r0, #5
 2861 000a 002C     		cmp	r4, #0
 2862 000c 0BD1     		bne	.L484
 2863 000e FFF7FEFF 		bl	modem_get_upload_state
 2864 0012 0E4D     		ldr	r5, .L491
 2865 0014 0028     		cmp	r0, #0
 2866 0016 07D1     		bne	.L485
 2867              	.L486:
 2868 0018 0D48     		ldr	r0, .L491+4
 2869 001a FFF7FEFF 		bl	smtc_modem_hal_print_trace
 2870 001e 2800     		movs	r0, r5
 2871 0020 FFF7FEFF 		bl	smtc_modem_hal_print_trace
 2872 0024 0320     		movs	r0, #3
 2873              	.L484:
 2874              		@ sp needed
 2875 0026 70BD     		pop	{r4, r5, r6, pc}
 2876              	.L485:
 2877 0028 FFF7FEFF 		bl	modem_get_upload_state
 2878 002c 0328     		cmp	r0, #3
 2879 002e F3D0     		beq	.L486
 2880 0030 0848     		ldr	r0, .L491+8
 2881 0032 FFF7FEFF 		bl	smtc_modem_hal_print_trace
 2882 0036 2800     		movs	r0, r5
 2883 0038 FFF7FEFF 		bl	smtc_modem_hal_print_trace
 2884 003c 2000     		movs	r0, r4
 2885 003e FFF7FEFF 		bl	modem_set_upload_state
 2886 0042 2000     		movs	r0, r4
 2887 0044 FFF7FEFF 		bl	set_modem_status_file_upload
 2888 0048 2000     		movs	r0, r4
 2889 004a ECE7     		b	.L484
 2890              	.L492:
 2891              		.align	2
 2892              	.L491:
 2893 004c 2F000000 		.word	.LC3
 2894 0050 00000000 		.word	.LC119
 2895 0054 32000000 		.word	.LC122
 2897              		.section	.rodata.smtc_modem_stream_init.str1.1,"aMS",%progbits,1
 2898              	.LC124:
 2899 0000 1B5B303B 		.ascii	"\033[0;31mERROR: STREAM_INIT fport invalid\012\000"
 2899      33316D45 
 2899      52524F52 
 2899      3A205354 
 2899      5245414D 
 2900              	.LC127:
 2901 0029 1B5B303B 		.ascii	"\033[0;31mERROR: STREAM_INIT encryption mode invali"
 2901      33316D45 
ARM GAS  /tmp/ccFPSyWO.s 			page 52


 2901      52524F52 
 2901      3A205354 
 2901      5245414D 
 2902 0059 640A00   		.ascii	"d\012\000"
 2903              	.LC129:
 2904 005c 53545245 		.ascii	"STREAM_INIT Using default DM port\012\000"
 2904      414D5F49 
 2904      4E495420 
 2904      5573696E 
 2904      67206465 
 2905              	.LC131:
 2906 007f 25732573 		.ascii	"%s%s\000"
 2906      00
 2907              	.LC134:
 2908 0084 1B5B303B 		.ascii	"\033[0;31mERROR: STREAM_INIT FAILED\012\000"
 2908      33316D45 
 2908      52524F52 
 2908      3A205354 
 2908      5245414D 
 2909              	.LC136:
 2910 00a6 1B5B303B 		.ascii	"\033[0;31mERROR: STREAM_INIT ENCRYPTION FAILED\012\000"
 2910      33316D45 
 2910      52524F52 
 2910      3A205354 
 2910      5245414D 
 2911              		.section	.text.smtc_modem_stream_init,"ax",%progbits
 2912              		.align	1
 2913              		.global	smtc_modem_stream_init
 2914              		.syntax unified
 2915              		.code	16
 2916              		.thumb_func
 2918              	smtc_modem_stream_init:
 2919              		@ args = 0, pretend = 0, frame = 8
 2920              		@ frame_needed = 0, uses_anonymous_args = 0
 2921 0000 F7B5     		push	{r0, r1, r2, r4, r5, r6, r7, lr}
 2922 0002 0C00     		movs	r4, r1
 2923 0004 1600     		movs	r6, r2
 2924 0006 0193     		str	r3, [sp, #4]
 2925 0008 FFF7FEFF 		bl	modem_get_test_mode_status
 2926 000c 0525     		movs	r5, #5
 2927 000e 0028     		cmp	r0, #0
 2928 0010 0BD1     		bne	.L494
 2929 0012 2248     		ldr	r0, .L508
 2930 0014 DF2C     		cmp	r4, #223
 2931 0016 02D8     		bhi	.L506
 2932 0018 012E     		cmp	r6, #1
 2933 001a 08D9     		bls	.L497
 2934 001c 2048     		ldr	r0, .L508+4
 2935              	.L506:
 2936 001e FFF7FEFF 		bl	smtc_modem_hal_print_trace
 2937 0022 2048     		ldr	r0, .L508+8
 2938 0024 FFF7FEFF 		bl	smtc_modem_hal_print_trace
 2939 0028 0425     		movs	r5, #4
 2940              	.L494:
 2941              		@ sp needed
 2942 002a 2800     		movs	r0, r5
 2943 002c FEBD     		pop	{r1, r2, r3, r4, r5, r6, r7, pc}
ARM GAS  /tmp/ccFPSyWO.s 			page 53


 2944              	.L497:
 2945 002e 002C     		cmp	r4, #0
 2946 0030 07D1     		bne	.L498
 2947 0032 1D4A     		ldr	r2, .L508+12
 2948 0034 1B49     		ldr	r1, .L508+8
 2949 0036 1D48     		ldr	r0, .L508+16
 2950 0038 FFF7FEFF 		bl	smtc_modem_hal_print_trace
 2951 003c FFF7FEFF 		bl	get_modem_dm_port
 2952 0040 0400     		movs	r4, r0
 2953              	.L498:
 2954 0042 1B4F     		ldr	r7, .L508+20
 2955 0044 3800     		movs	r0, r7
 2956 0046 FFF7FEFF 		bl	stream_reset
 2957 004a 3800     		movs	r0, r7
 2958 004c FFF7FEFF 		bl	stream_init
 2959 0050 051E     		subs	r5, r0, #0
 2960 0052 1848     		ldr	r0, .L508+24
 2961 0054 07D1     		bne	.L507
 2962 0056 012E     		cmp	r6, #1
 2963 0058 0CD1     		bne	.L501
 2964 005a 3800     		movs	r0, r7
 2965 005c FFF7FEFF 		bl	stream_enable_encryption
 2966 0060 0028     		cmp	r0, #0
 2967 0062 07D0     		beq	.L501
 2968 0064 1448     		ldr	r0, .L508+28
 2969              	.L507:
 2970 0066 FFF7FEFF 		bl	smtc_modem_hal_print_trace
 2971 006a 0E48     		ldr	r0, .L508+8
 2972 006c FFF7FEFF 		bl	smtc_modem_hal_print_trace
 2973 0070 0625     		movs	r5, #6
 2974 0072 DAE7     		b	.L494
 2975              	.L501:
 2976 0074 0820     		movs	r0, #8
 2977 0076 FFF7FEFF 		bl	modem_supervisor_remove_task
 2978 007a 2000     		movs	r0, r4
 2979 007c FFF7FEFF 		bl	modem_set_stream_port
 2980 0080 3800     		movs	r0, r7
 2981 0082 0199     		ldr	r1, [sp, #4]
 2982 0084 FFF7FEFF 		bl	stream_set_rr
 2983 0088 0124     		movs	r4, #1
 2984 008a 3000     		movs	r0, r6
 2985 008c 2040     		ands	r0, r4
 2986 008e FFF7FEFF 		bl	modem_set_stream_encryption
 2987 0092 2000     		movs	r0, r4
 2988 0094 FFF7FEFF 		bl	modem_set_stream_state
 2989 0098 C7E7     		b	.L494
 2990              	.L509:
 2991 009a C046     		.align	2
 2992              	.L508:
 2993 009c 00000000 		.word	.LC124
 2994 00a0 29000000 		.word	.LC127
 2995 00a4 2F000000 		.word	.LC3
 2996 00a8 5C000000 		.word	.LC129
 2997 00ac 7F000000 		.word	.LC131
 2998 00b0 54000000 		.word	smtc_modem_services_ctx+84
 2999 00b4 84000000 		.word	.LC134
 3000 00b8 A6000000 		.word	.LC136
ARM GAS  /tmp/ccFPSyWO.s 			page 54


 3002              		.section	.rodata.smtc_modem_stream_add_data.str1.1,"aMS",%progbits,1
 3003              	.LC138:
 3004 0000 1B5B303B 		.ascii	"\033[0;31mERROR: Stream implicit init failed\012\000"
 3004      33316D45 
 3004      52524F52 
 3004      3A205374 
 3004      7265616D 
 3005              	.LC142:
 3006 002b 1B5B303B 		.ascii	"\033[0;31mERROR: STREAM ADD DATA: Invalid length\012"
 3006      33316D45 
 3006      52524F52 
 3006      3A205354 
 3006      5245414D 
 3007 0059 00       		.ascii	"\000"
 3008              	.LC144:
 3009 005a 1B5B303B 		.ascii	"\033[0;31mERROR: STREAM ADD DATA: Buffer is full\012"
 3009      33316D45 
 3009      52524F52 
 3009      3A205354 
 3009      5245414D 
 3010 0088 00       		.ascii	"\000"
 3011              	.LC146:
 3012 0089 1B5B303B 		.ascii	"\033[0;31mERROR: STREAM ADD DATA: No data record pr"
 3012      33316D45 
 3012      52524F52 
 3012      3A205354 
 3012      5245414D 
 3013 00b9 6F766964 		.ascii	"ovided\012\000"
 3013      65640A00 
 3014              	.LC148:
 3015 00c1 1B5B303B 		.ascii	"\033[0;32mINFO: STREAM_SEND [OK]\012\000"
 3015      33326D49 
 3015      4E464F3A 
 3015      20535452 
 3015      45414D5F 
 3016              		.section	.text.smtc_modem_stream_add_data,"ax",%progbits
 3017              		.align	1
 3018              		.global	smtc_modem_stream_add_data
 3019              		.syntax unified
 3020              		.code	16
 3021              		.thumb_func
 3023              	smtc_modem_stream_add_data:
 3024              		@ args = 0, pretend = 0, frame = 8
 3025              		@ frame_needed = 0, uses_anonymous_args = 0
 3026 0000 F7B5     		push	{r0, r1, r2, r4, r5, r6, r7, lr}
 3027 0002 0700     		movs	r7, r0
 3028 0004 0D00     		movs	r5, r1
 3029 0006 0192     		str	r2, [sp, #4]
 3030 0008 FFF7FEFF 		bl	modem_get_test_mode_status
 3031 000c 0028     		cmp	r0, #0
 3032 000e 35D1     		bne	.L511
 3033 0010 002D     		cmp	r5, #0
 3034 0012 2BD0     		beq	.L512
 3035 0014 FFF7FEFF 		bl	is_modem_connected
 3036 0018 0028     		cmp	r0, #0
 3037 001a 37D0     		beq	.L513
 3038 001c FFF7FEFF 		bl	modem_get_stream_state
ARM GAS  /tmp/ccFPSyWO.s 			page 55


 3039 0020 204C     		ldr	r4, .L528
 3040 0022 061E     		subs	r6, r0, #0
 3041 0024 11D1     		bne	.L514
 3042 0026 FFF7FEFF 		bl	get_modem_dm_port
 3043 002a 3200     		movs	r2, r6
 3044 002c 0100     		movs	r1, r0
 3045 002e 6E23     		movs	r3, #110
 3046 0030 3800     		movs	r0, r7
 3047 0032 FFF7FEFF 		bl	smtc_modem_stream_init
 3048 0036 061E     		subs	r6, r0, #0
 3049 0038 07D0     		beq	.L514
 3050 003a 1B48     		ldr	r0, .L528+4
 3051 003c FFF7FEFF 		bl	smtc_modem_hal_print_trace
 3052 0040 2000     		movs	r0, r4
 3053 0042 FFF7FEFF 		bl	smtc_modem_hal_print_trace
 3054              	.L515:
 3055              		@ sp needed
 3056 0046 3000     		movs	r0, r6
 3057 0048 FEBD     		pop	{r1, r2, r3, r4, r5, r6, r7, pc}
 3058              	.L514:
 3059 004a 2900     		movs	r1, r5
 3060 004c 1748     		ldr	r0, .L528+8
 3061 004e 019A     		ldr	r2, [sp, #4]
 3062 0050 FFF7FEFF 		bl	stream_add_data
 3063 0054 0328     		cmp	r0, #3
 3064 0056 0BD0     		beq	.L516
 3065 0058 0428     		cmp	r0, #4
 3066 005a 11D0     		beq	.L517
 3067 005c 0128     		cmp	r0, #1
 3068 005e 17D1     		bne	.L518
 3069 0060 1348     		ldr	r0, .L528+12
 3070 0062 FFF7FEFF 		bl	smtc_modem_hal_print_trace
 3071 0066 2000     		movs	r0, r4
 3072 0068 FFF7FEFF 		bl	smtc_modem_hal_print_trace
 3073              	.L512:
 3074 006c 0426     		movs	r6, #4
 3075 006e EAE7     		b	.L515
 3076              	.L516:
 3077 0070 1048     		ldr	r0, .L528+16
 3078 0072 FFF7FEFF 		bl	smtc_modem_hal_print_trace
 3079 0076 2000     		movs	r0, r4
 3080 0078 FFF7FEFF 		bl	smtc_modem_hal_print_trace
 3081              	.L511:
 3082 007c 0526     		movs	r6, #5
 3083 007e E2E7     		b	.L515
 3084              	.L517:
 3085 0080 0D48     		ldr	r0, .L528+20
 3086 0082 FFF7FEFF 		bl	smtc_modem_hal_print_trace
 3087 0086 2000     		movs	r0, r4
 3088 0088 FFF7FEFF 		bl	smtc_modem_hal_print_trace
 3089              	.L513:
 3090 008c 0626     		movs	r6, #6
 3091 008e DAE7     		b	.L515
 3092              	.L518:
 3093 0090 FFF7FEFF 		bl	modem_supervisor_add_task_stream
 3094 0094 0948     		ldr	r0, .L528+24
 3095 0096 FFF7FEFF 		bl	smtc_modem_hal_print_trace
ARM GAS  /tmp/ccFPSyWO.s 			page 56


 3096 009a 2000     		movs	r0, r4
 3097 009c FFF7FEFF 		bl	smtc_modem_hal_print_trace
 3098 00a0 0026     		movs	r6, #0
 3099 00a2 D0E7     		b	.L515
 3100              	.L529:
 3101              		.align	2
 3102              	.L528:
 3103 00a4 2F000000 		.word	.LC3
 3104 00a8 00000000 		.word	.LC138
 3105 00ac 54000000 		.word	smtc_modem_services_ctx+84
 3106 00b0 2B000000 		.word	.LC142
 3107 00b4 5A000000 		.word	.LC144
 3108 00b8 89000000 		.word	.LC146
 3109 00bc C1000000 		.word	.LC148
 3111              		.section	.text.smtc_modem_stream_status,"ax",%progbits
 3112              		.align	1
 3113              		.global	smtc_modem_stream_status
 3114              		.syntax unified
 3115              		.code	16
 3116              		.thumb_func
 3118              	smtc_modem_stream_status:
 3119              		@ args = 0, pretend = 0, frame = 0
 3120              		@ frame_needed = 0, uses_anonymous_args = 0
 3121 0000 70B5     		push	{r4, r5, r6, lr}
 3122 0002 0D00     		movs	r5, r1
 3123 0004 1600     		movs	r6, r2
 3124 0006 FFF7FEFF 		bl	modem_get_test_mode_status
 3125 000a 0523     		movs	r3, #5
 3126 000c 041E     		subs	r4, r0, #0
 3127 000e 0FD1     		bne	.L531
 3128 0010 013B     		subs	r3, r3, #1
 3129 0012 002D     		cmp	r5, #0
 3130 0014 0CD0     		beq	.L531
 3131 0016 002E     		cmp	r6, #0
 3132 0018 0AD0     		beq	.L531
 3133 001a FFF7FEFF 		bl	modem_get_stream_state
 3134 001e 0323     		movs	r3, #3
 3135 0020 0028     		cmp	r0, #0
 3136 0022 05D0     		beq	.L531
 3137 0024 3200     		movs	r2, r6
 3138 0026 2900     		movs	r1, r5
 3139 0028 0248     		ldr	r0, .L536
 3140 002a FFF7FEFF 		bl	stream_status
 3141 002e 2300     		movs	r3, r4
 3142              	.L531:
 3143              		@ sp needed
 3144 0030 1800     		movs	r0, r3
 3145 0032 70BD     		pop	{r4, r5, r6, pc}
 3146              	.L537:
 3147              		.align	2
 3148              	.L536:
 3149 0034 54000000 		.word	smtc_modem_services_ctx+84
 3151              		.section	.text.smtc_modem_set_certification_mode,"ax",%progbits
 3152              		.align	1
 3153              		.global	smtc_modem_set_certification_mode
 3154              		.syntax unified
 3155              		.code	16
ARM GAS  /tmp/ccFPSyWO.s 			page 57


 3156              		.thumb_func
 3158              	smtc_modem_set_certification_mode:
 3159              		@ args = 0, pretend = 0, frame = 0
 3160              		@ frame_needed = 0, uses_anonymous_args = 0
 3161 0000 10B5     		push	{r4, lr}
 3162 0002 0C00     		movs	r4, r1
 3163 0004 FFF7FEFF 		bl	modem_get_test_mode_status
 3164 0008 0523     		movs	r3, #5
 3165 000a 0028     		cmp	r0, #0
 3166 000c 07D1     		bne	.L539
 3167 000e 2000     		movs	r0, r4
 3168 0010 FFF7FEFF 		bl	lorawan_api_modem_certification_set
 3169 0014 FFF7FEFF 		bl	smtc_secure_element_store_context
 3170 0018 002C     		cmp	r4, #0
 3171 001a 02D0     		beq	.L540
 3172              	.L541:
 3173 001c 0023     		movs	r3, #0
 3174              	.L539:
 3175              		@ sp needed
 3176 001e 1800     		movs	r0, r3
 3177 0020 10BD     		pop	{r4, pc}
 3178              	.L540:
 3179 0022 0120     		movs	r0, #1
 3180 0024 FFF7FEFF 		bl	smtc_modem_test_duty_cycle_app_activate
 3181 0028 F8E7     		b	.L541
 3183              		.section	.text.smtc_modem_increment_event_middleware,"ax",%progbits
 3184              		.align	1
 3185              		.global	smtc_modem_increment_event_middleware
 3186              		.syntax unified
 3187              		.code	16
 3188              		.thumb_func
 3190              	smtc_modem_increment_event_middleware:
 3191              		@ args = 0, pretend = 0, frame = 0
 3192              		@ frame_needed = 0, uses_anonymous_args = 0
 3193 0000 0200     		movs	r2, r0
 3194 0002 163A     		subs	r2, r2, #22
 3195 0004 0423     		movs	r3, #4
 3196 0006 10B5     		push	{r4, lr}
 3197 0008 022A     		cmp	r2, #2
 3198 000a 02D8     		bhi	.L544
 3199 000c FFF7FEFF 		bl	increment_asynchronous_msgnumber
 3200 0010 0023     		movs	r3, #0
 3201              	.L544:
 3202              		@ sp needed
 3203 0012 1800     		movs	r0, r3
 3204 0014 10BD     		pop	{r4, pc}
 3206              		.section	.text.smtc_modem_get_certification_mode,"ax",%progbits
 3207              		.align	1
 3208              		.global	smtc_modem_get_certification_mode
 3209              		.syntax unified
 3210              		.code	16
 3211              		.thumb_func
 3213              	smtc_modem_get_certification_mode:
 3214              		@ args = 0, pretend = 0, frame = 0
 3215              		@ frame_needed = 0, uses_anonymous_args = 0
 3216 0000 70B5     		push	{r4, r5, r6, lr}
 3217 0002 0D00     		movs	r5, r1
ARM GAS  /tmp/ccFPSyWO.s 			page 58


 3218 0004 FFF7FEFF 		bl	modem_get_test_mode_status
 3219 0008 0400     		movs	r4, r0
 3220 000a 0520     		movs	r0, #5
 3221 000c 002C     		cmp	r4, #0
 3222 000e 08D1     		bne	.L547
 3223 0010 0138     		subs	r0, r0, #1
 3224 0012 002D     		cmp	r5, #0
 3225 0014 05D0     		beq	.L547
 3226 0016 FFF7FEFF 		bl	lorawan_api_modem_certification_is_enabled
 3227 001a 431E     		subs	r3, r0, #1
 3228 001c 9841     		sbcs	r0, r0, r3
 3229 001e 2870     		strb	r0, [r5]
 3230 0020 2000     		movs	r0, r4
 3231              	.L547:
 3232              		@ sp needed
 3233 0022 70BD     		pop	{r4, r5, r6, pc}
 3235              		.section	.text.smtc_modem_connection_timeout_set_thresholds,"ax",%progbits
 3236              		.align	1
 3237              		.global	smtc_modem_connection_timeout_set_thresholds
 3238              		.syntax unified
 3239              		.code	16
 3240              		.thumb_func
 3242              	smtc_modem_connection_timeout_set_thresholds:
 3243              		@ args = 0, pretend = 0, frame = 0
 3244              		@ frame_needed = 0, uses_anonymous_args = 0
 3245 0000 70B5     		push	{r4, r5, r6, lr}
 3246 0002 0E00     		movs	r6, r1
 3247 0004 1500     		movs	r5, r2
 3248 0006 FFF7FEFF 		bl	modem_get_test_mode_status
 3249 000a 0400     		movs	r4, r0
 3250 000c 0520     		movs	r0, #5
 3251 000e 002C     		cmp	r4, #0
 3252 0010 06D1     		bne	.L551
 3253 0012 3000     		movs	r0, r6
 3254 0014 FFF7FEFF 		bl	modem_set_adr_mobile_timeout_config
 3255 0018 2800     		movs	r0, r5
 3256 001a FFF7FEFF 		bl	lorawan_api_set_no_rx_packet_threshold
 3257 001e 2000     		movs	r0, r4
 3258              	.L551:
 3259              		@ sp needed
 3260 0020 70BD     		pop	{r4, r5, r6, pc}
 3262              		.section	.text.smtc_modem_connection_timeout_get_thresholds,"ax",%progbits
 3263              		.align	1
 3264              		.global	smtc_modem_connection_timeout_get_thresholds
 3265              		.syntax unified
 3266              		.code	16
 3267              		.thumb_func
 3269              	smtc_modem_connection_timeout_get_thresholds:
 3270              		@ args = 0, pretend = 0, frame = 0
 3271              		@ frame_needed = 0, uses_anonymous_args = 0
 3272 0000 70B5     		push	{r4, r5, r6, lr}
 3273 0002 0E00     		movs	r6, r1
 3274 0004 1500     		movs	r5, r2
 3275 0006 FFF7FEFF 		bl	modem_get_test_mode_status
 3276 000a 0400     		movs	r4, r0
 3277 000c 0520     		movs	r0, #5
 3278 000e 002C     		cmp	r4, #0
ARM GAS  /tmp/ccFPSyWO.s 			page 59


 3279 0010 0BD1     		bne	.L554
 3280 0012 0138     		subs	r0, r0, #1
 3281 0014 002E     		cmp	r6, #0
 3282 0016 08D0     		beq	.L554
 3283 0018 002D     		cmp	r5, #0
 3284 001a 06D0     		beq	.L554
 3285 001c FFF7FEFF 		bl	modem_get_adr_mobile_timeout_config
 3286 0020 3080     		strh	r0, [r6]
 3287 0022 FFF7FEFF 		bl	lorawan_api_get_no_rx_packet_threshold
 3288 0026 2880     		strh	r0, [r5]
 3289 0028 2000     		movs	r0, r4
 3290              	.L554:
 3291              		@ sp needed
 3292 002a 70BD     		pop	{r4, r5, r6, pc}
 3294              		.section	.text.smtc_modem_connection_timeout_get_current_values,"ax",%progbits
 3295              		.align	1
 3296              		.global	smtc_modem_connection_timeout_get_current_values
 3297              		.syntax unified
 3298              		.code	16
 3299              		.thumb_func
 3301              	smtc_modem_connection_timeout_get_current_values:
 3302              		@ args = 0, pretend = 0, frame = 0
 3303              		@ frame_needed = 0, uses_anonymous_args = 0
 3304 0000 70B5     		push	{r4, r5, r6, lr}
 3305 0002 0E00     		movs	r6, r1
 3306 0004 1500     		movs	r5, r2
 3307 0006 FFF7FEFF 		bl	modem_get_test_mode_status
 3308 000a 0400     		movs	r4, r0
 3309 000c 0520     		movs	r0, #5
 3310 000e 002C     		cmp	r4, #0
 3311 0010 0BD1     		bne	.L559
 3312 0012 0138     		subs	r0, r0, #1
 3313 0014 002E     		cmp	r6, #0
 3314 0016 08D0     		beq	.L559
 3315 0018 002D     		cmp	r5, #0
 3316 001a 06D0     		beq	.L559
 3317 001c FFF7FEFF 		bl	lorawan_api_get_current_no_rx_packet_in_mobile_mode_cnt
 3318 0020 3080     		strh	r0, [r6]
 3319 0022 FFF7FEFF 		bl	lorawan_api_get_current_adr_ack_cnt
 3320 0026 2880     		strh	r0, [r5]
 3321 0028 2000     		movs	r0, r4
 3322              	.L559:
 3323              		@ sp needed
 3324 002a 70BD     		pop	{r4, r5, r6, pc}
 3326              		.section	.text.smtc_modem_lorawan_get_lost_connection_counter,"ax",%progbits
 3327              		.align	1
 3328              		.global	smtc_modem_lorawan_get_lost_connection_counter
 3329              		.syntax unified
 3330              		.code	16
 3331              		.thumb_func
 3333              	smtc_modem_lorawan_get_lost_connection_counter:
 3334              		@ args = 0, pretend = 0, frame = 0
 3335              		@ frame_needed = 0, uses_anonymous_args = 0
 3336 0000 70B5     		push	{r4, r5, r6, lr}
 3337 0002 0D00     		movs	r5, r1
 3338 0004 FFF7FEFF 		bl	modem_get_test_mode_status
 3339 0008 0400     		movs	r4, r0
ARM GAS  /tmp/ccFPSyWO.s 			page 60


 3340 000a 0520     		movs	r0, #5
 3341 000c 002C     		cmp	r4, #0
 3342 000e 06D1     		bne	.L564
 3343 0010 0138     		subs	r0, r0, #1
 3344 0012 002D     		cmp	r5, #0
 3345 0014 03D0     		beq	.L564
 3346 0016 FFF7FEFF 		bl	lorawan_api_get_current_no_rx_packet_cnt
 3347 001a 2880     		strh	r0, [r5]
 3348 001c 2000     		movs	r0, r4
 3349              	.L564:
 3350              		@ sp needed
 3351 001e 70BD     		pop	{r4, r5, r6, pc}
 3353              		.section	.text.smtc_modem_get_duty_cycle_status,"ax",%progbits
 3354              		.align	1
 3355              		.global	smtc_modem_get_duty_cycle_status
 3356              		.syntax unified
 3357              		.code	16
 3358              		.thumb_func
 3360              	smtc_modem_get_duty_cycle_status:
 3361              		@ args = 0, pretend = 0, frame = 0
 3362              		@ frame_needed = 0, uses_anonymous_args = 0
 3363 0000 70B5     		push	{r4, r5, r6, lr}
 3364 0002 0500     		movs	r5, r0
 3365 0004 FFF7FEFF 		bl	modem_get_test_mode_status
 3366 0008 0400     		movs	r4, r0
 3367 000a 0520     		movs	r0, #5
 3368 000c 002C     		cmp	r4, #0
 3369 000e 07D1     		bne	.L568
 3370 0010 0138     		subs	r0, r0, #1
 3371 0012 002D     		cmp	r5, #0
 3372 0014 04D0     		beq	.L568
 3373 0016 FFF7FEFF 		bl	lorawan_api_next_free_duty_cycle_ms_get
 3374 001a 4042     		rsbs	r0, r0, #0
 3375 001c 2860     		str	r0, [r5]
 3376 001e 2000     		movs	r0, r4
 3377              	.L568:
 3378              		@ sp needed
 3379 0020 70BD     		pop	{r4, r5, r6, pc}
 3381              		.section	.text.smtc_modem_rp_abort_user_radio_access_task,"ax",%progbits
 3382              		.align	1
 3383              		.global	smtc_modem_rp_abort_user_radio_access_task
 3384              		.syntax unified
 3385              		.code	16
 3386              		.thumb_func
 3388              	smtc_modem_rp_abort_user_radio_access_task:
 3389              		@ args = 0, pretend = 0, frame = 0
 3390              		@ frame_needed = 0, uses_anonymous_args = 0
 3391 0000 0300     		movs	r3, r0
 3392 0002 10B5     		push	{r4, lr}
 3393 0004 0128     		cmp	r0, #1
 3394 0006 0CD0     		beq	.L572
 3395 0008 0228     		cmp	r0, #2
 3396 000a 0DD0     		beq	.L573
 3397 000c 0420     		movs	r0, #4
 3398 000e 002B     		cmp	r3, #0
 3399 0010 06D1     		bne	.L574
 3400 0012 0121     		movs	r1, #1
ARM GAS  /tmp/ccFPSyWO.s 			page 61


 3401 0014 0648     		ldr	r0, .L579
 3402              	.L578:
 3403 0016 FFF7FEFF 		bl	rp_task_abort
 3404 001a 0028     		cmp	r0, #0
 3405 001c 00D0     		beq	.L574
 3406 001e 0620     		movs	r0, #6
 3407              	.L574:
 3408              		@ sp needed
 3409 0020 10BD     		pop	{r4, pc}
 3410              	.L572:
 3411 0022 0821     		movs	r1, #8
 3412 0024 0248     		ldr	r0, .L579
 3413 0026 F6E7     		b	.L578
 3414              	.L573:
 3415 0028 0921     		movs	r1, #9
 3416 002a 0148     		ldr	r0, .L579
 3417 002c F3E7     		b	.L578
 3418              	.L580:
 3419 002e C046     		.align	2
 3420              	.L579:
 3421 0030 00000000 		.word	modem_radio_planner
 3423              		.section	.text.smtc_modem_rp_add_user_radio_access_task,"ax",%progbits
 3424              		.align	1
 3425              		.global	smtc_modem_rp_add_user_radio_access_task
 3426              		.syntax unified
 3427              		.code	16
 3428              		.thumb_func
 3430              	smtc_modem_rp_add_user_radio_access_task:
 3431              		@ args = 0, pretend = 0, frame = 160
 3432              		@ frame_needed = 0, uses_anonymous_args = 0
 3433 0000 70B5     		push	{r4, r5, r6, lr}
 3434 0002 AAB0     		sub	sp, sp, #168
 3435 0004 0400     		movs	r4, r0
 3436 0006 FFF7FEFF 		bl	modem_get_test_mode_status
 3437 000a 0100     		movs	r1, r0
 3438 000c 0520     		movs	r0, #5
 3439 000e 0029     		cmp	r1, #0
 3440 0010 2CD1     		bne	.L582
 3441 0012 09AD     		add	r5, sp, #36
 3442 0014 8422     		movs	r2, #132
 3443 0016 2800     		movs	r0, r5
 3444 0018 FFF7FEFF 		bl	memset
 3445 001c 237B     		ldrb	r3, [r4, #12]
 3446 001e 012B     		cmp	r3, #1
 3447 0020 26D0     		beq	.L583
 3448 0022 022B     		cmp	r3, #2
 3449 0024 29D0     		beq	.L584
 3450 0026 0420     		movs	r0, #4
 3451 0028 002B     		cmp	r3, #0
 3452 002a 1FD1     		bne	.L582
 3453 002c 0126     		movs	r6, #1
 3454 002e 154B     		ldr	r3, .L589
 3455 0030 6269     		ldr	r2, [r4, #20]
 3456 0032 1A60     		str	r2, [r3]
 3457              	.L585:
 3458 0034 1822     		movs	r2, #24
 3459 0036 0021     		movs	r1, #0
ARM GAS  /tmp/ccFPSyWO.s 			page 62


 3460 0038 02A8     		add	r0, sp, #8
 3461 003a FFF7FEFF 		bl	memset
 3462 003e 6B46     		mov	r3, sp
 3463 0040 1E72     		strb	r6, [r3, #8]
 3464 0042 2369     		ldr	r3, [r4, #16]
 3465 0044 1048     		ldr	r0, .L589+4
 3466 0046 0393     		str	r3, [sp, #12]
 3467 0048 2378     		ldrb	r3, [r4]
 3468 004a 02A9     		add	r1, sp, #8
 3469 004c 5A1E     		subs	r2, r3, #1
 3470 004e 9341     		sbcs	r3, r3, r2
 3471 0050 6A46     		mov	r2, sp
 3472 0052 9374     		strb	r3, [r2, #18]
 3473 0054 6368     		ldr	r3, [r4, #4]
 3474 0056 0593     		str	r3, [sp, #20]
 3475 0058 A368     		ldr	r3, [r4, #8]
 3476 005a 0095     		str	r5, [sp]
 3477 005c 0893     		str	r3, [sp, #32]
 3478 005e 0023     		movs	r3, #0
 3479 0060 1A00     		movs	r2, r3
 3480 0062 FFF7FEFF 		bl	rp_task_enqueue
 3481 0066 0028     		cmp	r0, #0
 3482 0068 00D0     		beq	.L582
 3483 006a 0620     		movs	r0, #6
 3484              	.L582:
 3485 006c 2AB0     		add	sp, sp, #168
 3486              		@ sp needed
 3487 006e 70BD     		pop	{r4, r5, r6, pc}
 3488              	.L583:
 3489 0070 064B     		ldr	r3, .L589+8
 3490 0072 6269     		ldr	r2, [r4, #20]
 3491 0074 0826     		movs	r6, #8
 3492 0076 1A60     		str	r2, [r3]
 3493 0078 DCE7     		b	.L585
 3494              	.L584:
 3495 007a 054B     		ldr	r3, .L589+12
 3496 007c 6269     		ldr	r2, [r4, #20]
 3497 007e 0926     		movs	r6, #9
 3498 0080 1A60     		str	r2, [r3]
 3499 0082 D7E7     		b	.L585
 3500              	.L590:
 3501              		.align	2
 3502              	.L589:
 3503 0084 00000000 		.word	user_end_task_callback_0
 3504 0088 00000000 		.word	modem_radio_planner
 3505 008c 00000000 		.word	user_end_task_callback_1
 3506 0090 00000000 		.word	user_end_task_callback_2
 3508              		.section	.rodata.smtc_modem_suspend_before_user_radio_access.str1.1,"aMS",%progbits,1
 3509              	.LC156:
 3510 0000 53757370 		.ascii	"Suspend modem user radio access\012\000"
 3510      656E6420 
 3510      6D6F6465 
 3510      6D207573 
 3510      65722072 
 3511              		.section	.text.smtc_modem_suspend_before_user_radio_access,"ax",%progbits
 3512              		.align	1
 3513              		.global	smtc_modem_suspend_before_user_radio_access
ARM GAS  /tmp/ccFPSyWO.s 			page 63


 3514              		.syntax unified
 3515              		.code	16
 3516              		.thumb_func
 3518              	smtc_modem_suspend_before_user_radio_access:
 3519              		@ args = 0, pretend = 0, frame = 0
 3520              		@ frame_needed = 0, uses_anonymous_args = 0
 3521 0000 10B5     		push	{r4, lr}
 3522 0002 FFF7FEFF 		bl	modem_get_test_mode_status
 3523 0006 0523     		movs	r3, #5
 3524 0008 041E     		subs	r4, r0, #0
 3525 000a 0CD1     		bne	.L592
 3526 000c 0120     		movs	r0, #1
 3527 000e FFF7FEFF 		bl	smtc_modem_suspend_radio_communications
 3528 0012 0648     		ldr	r0, .L595
 3529 0014 FFF7FEFF 		bl	smtc_modem_hal_print_trace
 3530 0018 0E20     		movs	r0, #14
 3531 001a FFF7FEFF 		bl	modem_context_suspend_user_radio_access
 3532 001e 0623     		movs	r3, #6
 3533 0020 0028     		cmp	r0, #0
 3534 0022 00D0     		beq	.L592
 3535 0024 2300     		movs	r3, r4
 3536              	.L592:
 3537              		@ sp needed
 3538 0026 1800     		movs	r0, r3
 3539 0028 10BD     		pop	{r4, pc}
 3540              	.L596:
 3541 002a C046     		.align	2
 3542              	.L595:
 3543 002c 00000000 		.word	.LC156
 3545              		.section	.rodata.smtc_modem_resume_after_user_radio_access.str1.1,"aMS",%progbits,1
 3546              	.LC158:
 3547 0000 52657375 		.ascii	"Resume modem user radio access\012\000"
 3547      6D65206D 
 3547      6F64656D 
 3547      20757365 
 3547      72207261 
 3548              		.section	.text.smtc_modem_resume_after_user_radio_access,"ax",%progbits
 3549              		.align	1
 3550              		.global	smtc_modem_resume_after_user_radio_access
 3551              		.syntax unified
 3552              		.code	16
 3553              		.thumb_func
 3555              	smtc_modem_resume_after_user_radio_access:
 3556              		@ args = 0, pretend = 0, frame = 0
 3557              		@ frame_needed = 0, uses_anonymous_args = 0
 3558 0000 10B5     		push	{r4, lr}
 3559 0002 FFF7FEFF 		bl	modem_get_test_mode_status
 3560 0006 0400     		movs	r4, r0
 3561 0008 0520     		movs	r0, #5
 3562 000a 002C     		cmp	r4, #0
 3563 000c 08D1     		bne	.L598
 3564 000e 0548     		ldr	r0, .L600
 3565 0010 FFF7FEFF 		bl	smtc_modem_hal_print_trace
 3566 0014 FFF7FEFF 		bl	modem_context_resume_user_radio_access
 3567 0018 2000     		movs	r0, r4
 3568 001a FFF7FEFF 		bl	smtc_modem_suspend_radio_communications
 3569 001e 2000     		movs	r0, r4
ARM GAS  /tmp/ccFPSyWO.s 			page 64


 3570              	.L598:
 3571              		@ sp needed
 3572 0020 10BD     		pop	{r4, pc}
 3573              	.L601:
 3574 0022 C046     		.align	2
 3575              	.L600:
 3576 0024 00000000 		.word	.LC158
 3578              		.section	.text.smtc_modem_get_stack_state,"ax",%progbits
 3579              		.align	1
 3580              		.global	smtc_modem_get_stack_state
 3581              		.syntax unified
 3582              		.code	16
 3583              		.thumb_func
 3585              	smtc_modem_get_stack_state:
 3586              		@ args = 0, pretend = 0, frame = 0
 3587              		@ frame_needed = 0, uses_anonymous_args = 0
 3588 0000 10B5     		push	{r4, lr}
 3589 0002 0C00     		movs	r4, r1
 3590 0004 FFF7FEFF 		bl	modem_get_test_mode_status
 3591 0008 0523     		movs	r3, #5
 3592 000a 0028     		cmp	r0, #0
 3593 000c 08D1     		bne	.L603
 3594 000e 013B     		subs	r3, r3, #1
 3595 0010 002C     		cmp	r4, #0
 3596 0012 05D0     		beq	.L603
 3597 0014 FFF7FEFF 		bl	lorawan_api_state_get
 3598 0018 0028     		cmp	r0, #0
 3599 001a 03D1     		bne	.L604
 3600 001c 2070     		strb	r0, [r4]
 3601              	.L606:
 3602 001e 0023     		movs	r3, #0
 3603              	.L603:
 3604              		@ sp needed
 3605 0020 1800     		movs	r0, r3
 3606 0022 10BD     		pop	{r4, pc}
 3607              	.L604:
 3608 0024 0223     		movs	r3, #2
 3609 0026 0428     		cmp	r0, #4
 3610 0028 00D0     		beq	.L609
 3611 002a 0123     		movs	r3, #1
 3612              	.L609:
 3613 002c 2370     		strb	r3, [r4]
 3614 002e F6E7     		b	.L606
 3616              		.section	.text.smtc_modem_set_network_type,"ax",%progbits
 3617              		.align	1
 3618              		.global	smtc_modem_set_network_type
 3619              		.syntax unified
 3620              		.code	16
 3621              		.thumb_func
 3623              	smtc_modem_set_network_type:
 3624              		@ args = 0, pretend = 0, frame = 0
 3625              		@ frame_needed = 0, uses_anonymous_args = 0
 3626 0000 70B5     		push	{r4, r5, r6, lr}
 3627 0002 0D00     		movs	r5, r1
 3628 0004 FFF7FEFF 		bl	modem_get_test_mode_status
 3629 0008 0400     		movs	r4, r0
 3630 000a 0520     		movs	r0, #5
ARM GAS  /tmp/ccFPSyWO.s 			page 65


 3631 000c 002C     		cmp	r4, #0
 3632 000e 03D1     		bne	.L611
 3633 0010 2800     		movs	r0, r5
 3634 0012 FFF7FEFF 		bl	modem_context_set_network_type
 3635 0016 2000     		movs	r0, r4
 3636              	.L611:
 3637              		@ sp needed
 3638 0018 70BD     		pop	{r4, r5, r6, pc}
 3640              		.section	.text.smtc_modem_get_network_type,"ax",%progbits
 3641              		.align	1
 3642              		.global	smtc_modem_get_network_type
 3643              		.syntax unified
 3644              		.code	16
 3645              		.thumb_func
 3647              	smtc_modem_get_network_type:
 3648              		@ args = 0, pretend = 0, frame = 0
 3649              		@ frame_needed = 0, uses_anonymous_args = 0
 3650 0000 70B5     		push	{r4, r5, r6, lr}
 3651 0002 0D00     		movs	r5, r1
 3652 0004 FFF7FEFF 		bl	modem_get_test_mode_status
 3653 0008 0400     		movs	r4, r0
 3654 000a 0520     		movs	r0, #5
 3655 000c 002C     		cmp	r4, #0
 3656 000e 06D1     		bne	.L614
 3657 0010 0138     		subs	r0, r0, #1
 3658 0012 002D     		cmp	r5, #0
 3659 0014 03D0     		beq	.L614
 3660 0016 FFF7FEFF 		bl	modem_context_get_network_type
 3661 001a 2870     		strb	r0, [r5]
 3662 001c 2000     		movs	r0, r4
 3663              	.L614:
 3664              		@ sp needed
 3665 001e 70BD     		pop	{r4, r5, r6, pc}
 3667              		.section	.rodata.smtc_modem_lbt_set_parameters.str1.1,"aMS",%progbits,1
 3668              	.LC160:
 3669 0000 4C42542C 		.ascii	"LBT, duration:%d, threshold:%d, bw:%d\012\000"
 3669      20647572 
 3669      6174696F 
 3669      6E3A2564 
 3669      2C207468 
 3670              		.section	.text.smtc_modem_lbt_set_parameters,"ax",%progbits
 3671              		.align	1
 3672              		.global	smtc_modem_lbt_set_parameters
 3673              		.syntax unified
 3674              		.code	16
 3675              		.thumb_func
 3677              	smtc_modem_lbt_set_parameters:
 3678              		@ args = 0, pretend = 0, frame = 0
 3679              		@ frame_needed = 0, uses_anonymous_args = 0
 3680 0000 F8B5     		push	{r3, r4, r5, r6, r7, lr}
 3681 0002 0D00     		movs	r5, r1
 3682 0004 1600     		movs	r6, r2
 3683 0006 1F00     		movs	r7, r3
 3684 0008 FFF7FEFF 		bl	modem_get_test_mode_status
 3685 000c 0400     		movs	r4, r0
 3686 000e 0520     		movs	r0, #5
 3687 0010 002C     		cmp	r4, #0
ARM GAS  /tmp/ccFPSyWO.s 			page 66


 3688 0012 0ED1     		bne	.L618
 3689 0014 3B00     		movs	r3, r7
 3690 0016 3200     		movs	r2, r6
 3691 0018 2900     		movs	r1, r5
 3692 001a 0648     		ldr	r0, .L620
 3693 001c FFF7FEFF 		bl	smtc_modem_hal_print_trace
 3694 0020 3A00     		movs	r2, r7
 3695 0022 2800     		movs	r0, r5
 3696 0024 3100     		movs	r1, r6
 3697 0026 FFF7FEFF 		bl	lorawan_api_lbt_set_parameters
 3698 002a 0122     		movs	r2, #1
 3699 002c 2000     		movs	r0, r4
 3700 002e 024B     		ldr	r3, .L620+4
 3701 0030 1A70     		strb	r2, [r3]
 3702              	.L618:
 3703              		@ sp needed
 3704 0032 F8BD     		pop	{r3, r4, r5, r6, r7, pc}
 3705              	.L621:
 3706              		.align	2
 3707              	.L620:
 3708 0034 00000000 		.word	.LC160
 3709 0038 00000000 		.word	lbt_config_available
 3711              		.section	.text.smtc_modem_lbt_get_parameters,"ax",%progbits
 3712              		.align	1
 3713              		.global	smtc_modem_lbt_get_parameters
 3714              		.syntax unified
 3715              		.code	16
 3716              		.thumb_func
 3718              	smtc_modem_lbt_get_parameters:
 3719              		@ args = 0, pretend = 0, frame = 0
 3720              		@ frame_needed = 0, uses_anonymous_args = 0
 3721 0000 F8B5     		push	{r3, r4, r5, r6, r7, lr}
 3722 0002 0D00     		movs	r5, r1
 3723 0004 1600     		movs	r6, r2
 3724 0006 1F00     		movs	r7, r3
 3725 0008 FFF7FEFF 		bl	modem_get_test_mode_status
 3726 000c 0400     		movs	r4, r0
 3727 000e 0520     		movs	r0, #5
 3728 0010 002C     		cmp	r4, #0
 3729 0012 0CD1     		bne	.L623
 3730 0014 0138     		subs	r0, r0, #1
 3731 0016 002D     		cmp	r5, #0
 3732 0018 09D0     		beq	.L623
 3733 001a 002E     		cmp	r6, #0
 3734 001c 07D0     		beq	.L623
 3735 001e 002F     		cmp	r7, #0
 3736 0020 05D0     		beq	.L623
 3737 0022 2800     		movs	r0, r5
 3738 0024 3A00     		movs	r2, r7
 3739 0026 3100     		movs	r1, r6
 3740 0028 FFF7FEFF 		bl	lorawan_api_lbt_get_parameters
 3741 002c 2000     		movs	r0, r4
 3742              	.L623:
 3743              		@ sp needed
 3744 002e F8BD     		pop	{r3, r4, r5, r6, r7, pc}
 3746              		.section	.rodata.smtc_modem_lbt_set_state.str1.1,"aMS",%progbits,1
 3747              	.LC164:
ARM GAS  /tmp/ccFPSyWO.s 			page 67


 3748 0000 1B5B303B 		.ascii	"\033[0;31mERROR: A configuration shall be set befor"
 3748      33316D45 
 3748      52524F52 
 3748      3A204120 
 3748      636F6E66 
 3749 0030 65207374 		.ascii	"e starting LBT \012\000"
 3749      61727469 
 3749      6E67204C 
 3749      4254200A 
 3749      00
 3750              		.section	.text.smtc_modem_lbt_set_state,"ax",%progbits
 3751              		.align	1
 3752              		.global	smtc_modem_lbt_set_state
 3753              		.syntax unified
 3754              		.code	16
 3755              		.thumb_func
 3757              	smtc_modem_lbt_set_state:
 3758              		@ args = 0, pretend = 0, frame = 0
 3759              		@ frame_needed = 0, uses_anonymous_args = 0
 3760 0000 10B5     		push	{r4, lr}
 3761 0002 0C00     		movs	r4, r1
 3762 0004 FFF7FEFF 		bl	modem_get_test_mode_status
 3763 0008 0523     		movs	r3, #5
 3764 000a 0028     		cmp	r0, #0
 3765 000c 0DD1     		bne	.L629
 3766 000e 002C     		cmp	r4, #0
 3767 0010 0DD0     		beq	.L630
 3768 0012 094B     		ldr	r3, .L635
 3769 0014 0130     		adds	r0, r0, #1
 3770 0016 1B78     		ldrb	r3, [r3]
 3771 0018 002B     		cmp	r3, #0
 3772 001a 09D1     		bne	.L634
 3773 001c 0748     		ldr	r0, .L635+4
 3774 001e FFF7FEFF 		bl	smtc_modem_hal_print_trace
 3775 0022 0748     		ldr	r0, .L635+8
 3776 0024 FFF7FEFF 		bl	smtc_modem_hal_print_trace
 3777 0028 0623     		movs	r3, #6
 3778              	.L629:
 3779              		@ sp needed
 3780 002a 1800     		movs	r0, r3
 3781 002c 10BD     		pop	{r4, pc}
 3782              	.L630:
 3783 002e 2000     		movs	r0, r4
 3784              	.L634:
 3785 0030 FFF7FEFF 		bl	lorawan_api_lbt_set_state
 3786 0034 0023     		movs	r3, #0
 3787 0036 F8E7     		b	.L629
 3788              	.L636:
 3789              		.align	2
 3790              	.L635:
 3791 0038 00000000 		.word	lbt_config_available
 3792 003c 00000000 		.word	.LC164
 3793 0040 2F000000 		.word	.LC3
 3795              		.section	.text.smtc_modem_lbt_get_state,"ax",%progbits
 3796              		.align	1
 3797              		.global	smtc_modem_lbt_get_state
 3798              		.syntax unified
ARM GAS  /tmp/ccFPSyWO.s 			page 68


 3799              		.code	16
 3800              		.thumb_func
 3802              	smtc_modem_lbt_get_state:
 3803              		@ args = 0, pretend = 0, frame = 0
 3804              		@ frame_needed = 0, uses_anonymous_args = 0
 3805 0000 70B5     		push	{r4, r5, r6, lr}
 3806 0002 0D00     		movs	r5, r1
 3807 0004 FFF7FEFF 		bl	modem_get_test_mode_status
 3808 0008 0400     		movs	r4, r0
 3809 000a 0520     		movs	r0, #5
 3810 000c 002C     		cmp	r4, #0
 3811 000e 06D1     		bne	.L638
 3812 0010 0138     		subs	r0, r0, #1
 3813 0012 002D     		cmp	r5, #0
 3814 0014 03D0     		beq	.L638
 3815 0016 FFF7FEFF 		bl	lorawan_api_lbt_get_state
 3816 001a 2870     		strb	r0, [r5]
 3817 001c 2000     		movs	r0, r4
 3818              	.L638:
 3819              		@ sp needed
 3820 001e 70BD     		pop	{r4, r5, r6, pc}
 3822              		.section	.text.smtc_modem_set_nb_trans,"ax",%progbits
 3823              		.align	1
 3824              		.global	smtc_modem_set_nb_trans
 3825              		.syntax unified
 3826              		.code	16
 3827              		.thumb_func
 3829              	smtc_modem_set_nb_trans:
 3830              		@ args = 0, pretend = 0, frame = 0
 3831              		@ frame_needed = 0, uses_anonymous_args = 0
 3832 0000 10B5     		push	{r4, lr}
 3833 0002 0C00     		movs	r4, r1
 3834 0004 FFF7FEFF 		bl	modem_get_test_mode_status
 3835 0008 0300     		movs	r3, r0
 3836 000a 0520     		movs	r0, #5
 3837 000c 002B     		cmp	r3, #0
 3838 000e 05D1     		bne	.L642
 3839 0010 2000     		movs	r0, r4
 3840 0012 FFF7FEFF 		bl	lorawan_api_nb_trans_set
 3841 0016 431E     		subs	r3, r0, #1
 3842 0018 9841     		sbcs	r0, r0, r3
 3843 001a 8000     		lsls	r0, r0, #2
 3844              	.L642:
 3845              		@ sp needed
 3846 001c 10BD     		pop	{r4, pc}
 3848              		.section	.text.smtc_modem_get_nb_trans,"ax",%progbits
 3849              		.align	1
 3850              		.global	smtc_modem_get_nb_trans
 3851              		.syntax unified
 3852              		.code	16
 3853              		.thumb_func
 3855              	smtc_modem_get_nb_trans:
 3856              		@ args = 0, pretend = 0, frame = 0
 3857              		@ frame_needed = 0, uses_anonymous_args = 0
 3858 0000 70B5     		push	{r4, r5, r6, lr}
 3859 0002 0D00     		movs	r5, r1
 3860 0004 FFF7FEFF 		bl	modem_get_test_mode_status
ARM GAS  /tmp/ccFPSyWO.s 			page 69


 3861 0008 0400     		movs	r4, r0
 3862 000a 0520     		movs	r0, #5
 3863 000c 002C     		cmp	r4, #0
 3864 000e 06D1     		bne	.L645
 3865 0010 0138     		subs	r0, r0, #1
 3866 0012 002D     		cmp	r5, #0
 3867 0014 03D0     		beq	.L645
 3868 0016 FFF7FEFF 		bl	lorawan_api_nb_trans_get
 3869 001a 2870     		strb	r0, [r5]
 3870 001c 2000     		movs	r0, r4
 3871              	.L645:
 3872              		@ sp needed
 3873 001e 70BD     		pop	{r4, r5, r6, pc}
 3875              		.section	.text.smtc_modem_set_crystal_error_ppm,"ax",%progbits
 3876              		.align	1
 3877              		.global	smtc_modem_set_crystal_error_ppm
 3878              		.syntax unified
 3879              		.code	16
 3880              		.thumb_func
 3882              	smtc_modem_set_crystal_error_ppm:
 3883              		@ args = 0, pretend = 0, frame = 0
 3884              		@ frame_needed = 0, uses_anonymous_args = 0
 3885 0000 70B5     		push	{r4, r5, r6, lr}
 3886 0002 0500     		movs	r5, r0
 3887 0004 FFF7FEFF 		bl	modem_get_test_mode_status
 3888 0008 0400     		movs	r4, r0
 3889 000a 0520     		movs	r0, #5
 3890 000c 002C     		cmp	r4, #0
 3891 000e 03D1     		bne	.L649
 3892 0010 2800     		movs	r0, r5
 3893 0012 FFF7FEFF 		bl	lorawan_api_set_crystal_error
 3894 0016 2000     		movs	r0, r4
 3895              	.L649:
 3896              		@ sp needed
 3897 0018 70BD     		pop	{r4, r5, r6, pc}
 3899              		.section	.text.smtc_modem_get_crystal_error_ppm,"ax",%progbits
 3900              		.align	1
 3901              		.global	smtc_modem_get_crystal_error_ppm
 3902              		.syntax unified
 3903              		.code	16
 3904              		.thumb_func
 3906              	smtc_modem_get_crystal_error_ppm:
 3907              		@ args = 0, pretend = 0, frame = 0
 3908              		@ frame_needed = 0, uses_anonymous_args = 0
 3909 0000 70B5     		push	{r4, r5, r6, lr}
 3910 0002 0500     		movs	r5, r0
 3911 0004 FFF7FEFF 		bl	modem_get_test_mode_status
 3912 0008 0400     		movs	r4, r0
 3913 000a 0520     		movs	r0, #5
 3914 000c 002C     		cmp	r4, #0
 3915 000e 06D1     		bne	.L652
 3916 0010 0138     		subs	r0, r0, #1
 3917 0012 002D     		cmp	r5, #0
 3918 0014 03D0     		beq	.L652
 3919 0016 FFF7FEFF 		bl	lorawan_api_get_crystal_error
 3920 001a 2860     		str	r0, [r5]
 3921 001c 2000     		movs	r0, r4
ARM GAS  /tmp/ccFPSyWO.s 			page 70


 3922              	.L652:
 3923              		@ sp needed
 3924 001e 70BD     		pop	{r4, r5, r6, pc}
 3926              		.section	.text.smtc_modem_lorawan_request_link_check,"ax",%progbits
 3927              		.align	1
 3928              		.global	smtc_modem_lorawan_request_link_check
 3929              		.syntax unified
 3930              		.code	16
 3931              		.thumb_func
 3933              	smtc_modem_lorawan_request_link_check:
 3934              		@ args = 0, pretend = 0, frame = 0
 3935              		@ frame_needed = 0, uses_anonymous_args = 0
 3936 0000 10B5     		push	{r4, lr}
 3937 0002 FFF7FEFF 		bl	modem_get_test_mode_status
 3938 0006 0523     		movs	r3, #5
 3939 0008 041E     		subs	r4, r0, #0
 3940 000a 08D1     		bne	.L656
 3941 000c FFF7FEFF 		bl	is_modem_connected
 3942 0010 0623     		movs	r3, #6
 3943 0012 0028     		cmp	r0, #0
 3944 0014 03D0     		beq	.L656
 3945 0016 2000     		movs	r0, r4
 3946 0018 FFF7FEFF 		bl	modem_supervisor_add_task_link_check_req
 3947 001c 2300     		movs	r3, r4
 3948              	.L656:
 3949              		@ sp needed
 3950 001e 1800     		movs	r0, r3
 3951 0020 10BD     		pop	{r4, pc}
 3953              		.section	.text.smtc_modem_lorawan_class_b_request_ping_slot_info,"ax",%progbits
 3954              		.align	1
 3955              		.global	smtc_modem_lorawan_class_b_request_ping_slot_info
 3956              		.syntax unified
 3957              		.code	16
 3958              		.thumb_func
 3960              	smtc_modem_lorawan_class_b_request_ping_slot_info:
 3961              		@ args = 0, pretend = 0, frame = 0
 3962              		@ frame_needed = 0, uses_anonymous_args = 0
 3963 0000 10B5     		push	{r4, lr}
 3964 0002 FFF7FEFF 		bl	modem_get_test_mode_status
 3965 0006 0523     		movs	r3, #5
 3966 0008 041E     		subs	r4, r0, #0
 3967 000a 08D1     		bne	.L661
 3968 000c FFF7FEFF 		bl	is_modem_connected
 3969 0010 0623     		movs	r3, #6
 3970 0012 0028     		cmp	r0, #0
 3971 0014 03D0     		beq	.L661
 3972 0016 2000     		movs	r0, r4
 3973 0018 FFF7FEFF 		bl	modem_supervisor_add_task_ping_slot_info_req
 3974 001c 2300     		movs	r3, r4
 3975              	.L661:
 3976              		@ sp needed
 3977 001e 1800     		movs	r0, r3
 3978 0020 10BD     		pop	{r4, pc}
 3980              		.section	.text.smtc_modem_class_b_set_ping_slot_periodicity,"ax",%progbits
 3981              		.align	1
 3982              		.global	smtc_modem_class_b_set_ping_slot_periodicity
 3983              		.syntax unified
ARM GAS  /tmp/ccFPSyWO.s 			page 71


 3984              		.code	16
 3985              		.thumb_func
 3987              	smtc_modem_class_b_set_ping_slot_periodicity:
 3988              		@ args = 0, pretend = 0, frame = 0
 3989              		@ frame_needed = 0, uses_anonymous_args = 0
 3990 0000 10B5     		push	{r4, lr}
 3991 0002 0C00     		movs	r4, r1
 3992 0004 FFF7FEFF 		bl	modem_get_test_mode_status
 3993 0008 0300     		movs	r3, r0
 3994 000a 0520     		movs	r0, #5
 3995 000c 002B     		cmp	r3, #0
 3996 000e 05D1     		bne	.L666
 3997 0010 2000     		movs	r0, r4
 3998 0012 FFF7FEFF 		bl	lorawan_api_set_ping_slot_periodicity
 3999 0016 431E     		subs	r3, r0, #1
 4000 0018 9841     		sbcs	r0, r0, r3
 4001 001a 8000     		lsls	r0, r0, #2
 4002              	.L666:
 4003              		@ sp needed
 4004 001c 10BD     		pop	{r4, pc}
 4006              		.section	.text.smtc_modem_class_b_get_ping_slot_periodicity,"ax",%progbits
 4007              		.align	1
 4008              		.global	smtc_modem_class_b_get_ping_slot_periodicity
 4009              		.syntax unified
 4010              		.code	16
 4011              		.thumb_func
 4013              	smtc_modem_class_b_get_ping_slot_periodicity:
 4014              		@ args = 0, pretend = 0, frame = 0
 4015              		@ frame_needed = 0, uses_anonymous_args = 0
 4016 0000 70B5     		push	{r4, r5, r6, lr}
 4017 0002 0D00     		movs	r5, r1
 4018 0004 FFF7FEFF 		bl	modem_get_test_mode_status
 4019 0008 0400     		movs	r4, r0
 4020 000a 0520     		movs	r0, #5
 4021 000c 002C     		cmp	r4, #0
 4022 000e 06D1     		bne	.L669
 4023 0010 0138     		subs	r0, r0, #1
 4024 0012 002D     		cmp	r5, #0
 4025 0014 03D0     		beq	.L669
 4026 0016 FFF7FEFF 		bl	lorawan_api_get_ping_slot_periodicity
 4027 001a 2870     		strb	r0, [r5]
 4028 001c 2000     		movs	r0, r4
 4029              	.L669:
 4030              		@ sp needed
 4031 001e 70BD     		pop	{r4, r5, r6, pc}
 4033              		.section	.text.smtc_modem_d2d_class_b_request_uplink,"ax",%progbits
 4034              		.align	1
 4035              		.global	smtc_modem_d2d_class_b_request_uplink
 4036              		.syntax unified
 4037              		.code	16
 4038              		.thumb_func
 4040              	smtc_modem_d2d_class_b_request_uplink:
 4041              		@ args = 8, pretend = 0, frame = 0
 4042              		@ frame_needed = 0, uses_anonymous_args = 0
 4043              		@ link register save eliminated.
 4044 0000 0620     		movs	r0, #6
 4045              		@ sp needed
ARM GAS  /tmp/ccFPSyWO.s 			page 72


 4046 0002 7047     		bx	lr
 4048              		.section	.text.smtc_modem_d2d_class_b_get_tx_max_payload,"ax",%progbits
 4049              		.align	1
 4050              		.global	smtc_modem_d2d_class_b_get_tx_max_payload
 4051              		.syntax unified
 4052              		.code	16
 4053              		.thumb_func
 4055              	smtc_modem_d2d_class_b_get_tx_max_payload:
 4056              		@ args = 0, pretend = 0, frame = 0
 4057              		@ frame_needed = 0, uses_anonymous_args = 0
 4058              		@ link register save eliminated.
 4059 0000 0620     		movs	r0, #6
 4060              		@ sp needed
 4061 0002 7047     		bx	lr
 4063              		.section	.text.smtc_modem_get_network_frame_pending_status,"ax",%progbits
 4064              		.align	1
 4065              		.global	smtc_modem_get_network_frame_pending_status
 4066              		.syntax unified
 4067              		.code	16
 4068              		.thumb_func
 4070              	smtc_modem_get_network_frame_pending_status:
 4071              		@ args = 0, pretend = 0, frame = 0
 4072              		@ frame_needed = 0, uses_anonymous_args = 0
 4073 0000 70B5     		push	{r4, r5, r6, lr}
 4074 0002 0D00     		movs	r5, r1
 4075 0004 FFF7FEFF 		bl	modem_get_test_mode_status
 4076 0008 0400     		movs	r4, r0
 4077 000a 0520     		movs	r0, #5
 4078 000c 002C     		cmp	r4, #0
 4079 000e 06D1     		bne	.L675
 4080 0010 0138     		subs	r0, r0, #1
 4081 0012 002D     		cmp	r5, #0
 4082 0014 03D0     		beq	.L675
 4083 0016 FFF7FEFF 		bl	lorawan_api_rx_fpending_bit_get
 4084 001a 2870     		strb	r0, [r5]
 4085 001c 2000     		movs	r0, r4
 4086              	.L675:
 4087              		@ sp needed
 4088 001e 70BD     		pop	{r4, r5, r6, pc}
 4090              		.section	.text.smtc_modem_set_adr_ack_limit_delay,"ax",%progbits
 4091              		.align	1
 4092              		.global	smtc_modem_set_adr_ack_limit_delay
 4093              		.syntax unified
 4094              		.code	16
 4095              		.thumb_func
 4097              	smtc_modem_set_adr_ack_limit_delay:
 4098              		@ args = 0, pretend = 0, frame = 0
 4099              		@ frame_needed = 0, uses_anonymous_args = 0
 4100 0000 70B5     		push	{r4, r5, r6, lr}
 4101 0002 0C00     		movs	r4, r1
 4102 0004 1500     		movs	r5, r2
 4103 0006 FFF7FEFF 		bl	modem_get_test_mode_status
 4104 000a 0300     		movs	r3, r0
 4105 000c 0520     		movs	r0, #5
 4106 000e 002B     		cmp	r3, #0
 4107 0010 06D1     		bne	.L679
 4108 0012 2900     		movs	r1, r5
ARM GAS  /tmp/ccFPSyWO.s 			page 73


 4109 0014 2000     		movs	r0, r4
 4110 0016 FFF7FEFF 		bl	lorawan_api_set_adr_ack_limit_delay
 4111 001a 431E     		subs	r3, r0, #1
 4112 001c 9841     		sbcs	r0, r0, r3
 4113 001e 8000     		lsls	r0, r0, #2
 4114              	.L679:
 4115              		@ sp needed
 4116 0020 70BD     		pop	{r4, r5, r6, pc}
 4118              		.section	.text.smtc_modem_get_adr_ack_limit_delay,"ax",%progbits
 4119              		.align	1
 4120              		.global	smtc_modem_get_adr_ack_limit_delay
 4121              		.syntax unified
 4122              		.code	16
 4123              		.thumb_func
 4125              	smtc_modem_get_adr_ack_limit_delay:
 4126              		@ args = 0, pretend = 0, frame = 0
 4127              		@ frame_needed = 0, uses_anonymous_args = 0
 4128 0000 70B5     		push	{r4, r5, r6, lr}
 4129 0002 0D00     		movs	r5, r1
 4130 0004 1600     		movs	r6, r2
 4131 0006 FFF7FEFF 		bl	modem_get_test_mode_status
 4132 000a 0400     		movs	r4, r0
 4133 000c 0520     		movs	r0, #5
 4134 000e 002C     		cmp	r4, #0
 4135 0010 09D1     		bne	.L682
 4136 0012 0138     		subs	r0, r0, #1
 4137 0014 002D     		cmp	r5, #0
 4138 0016 06D0     		beq	.L682
 4139 0018 002E     		cmp	r6, #0
 4140 001a 04D0     		beq	.L682
 4141 001c 2800     		movs	r0, r5
 4142 001e 3100     		movs	r1, r6
 4143 0020 FFF7FEFF 		bl	lorawan_api_get_adr_ack_limit_delay
 4144 0024 2000     		movs	r0, r4
 4145              	.L682:
 4146              		@ sp needed
 4147 0026 70BD     		pop	{r4, r5, r6, pc}
 4149              		.section	.text.smtc_modem_get_pin,"ax",%progbits
 4150              		.align	1
 4151              		.global	smtc_modem_get_pin
 4152              		.syntax unified
 4153              		.code	16
 4154              		.thumb_func
 4156              	smtc_modem_get_pin:
 4157              		@ args = 0, pretend = 0, frame = 0
 4158              		@ frame_needed = 0, uses_anonymous_args = 0
 4159 0000 10B5     		push	{r4, lr}
 4160 0002 FFF7FEFF 		bl	modem_get_test_mode_status
 4161              		@ sp needed
 4162 0006 0623     		movs	r3, #6
 4163 0008 181A     		subs	r0, r3, r0
 4164 000a C0B2     		uxtb	r0, r0
 4165 000c 10BD     		pop	{r4, pc}
 4167              		.section	.text.smtc_modem_get_chip_eui,"ax",%progbits
 4168              		.align	1
 4169              		.global	smtc_modem_get_chip_eui
 4170              		.syntax unified
ARM GAS  /tmp/ccFPSyWO.s 			page 74


 4171              		.code	16
 4172              		.thumb_func
 4174              	smtc_modem_get_chip_eui:
 4175              		@ args = 0, pretend = 0, frame = 0
 4176              		@ frame_needed = 0, uses_anonymous_args = 0
 4177 0000 10B5     		push	{r4, lr}
 4178 0002 FFF7FEFF 		bl	modem_get_test_mode_status
 4179              		@ sp needed
 4180 0006 0623     		movs	r3, #6
 4181 0008 181A     		subs	r0, r3, r0
 4182 000a C0B2     		uxtb	r0, r0
 4183 000c 10BD     		pop	{r4, pc}
 4185              		.section	.text.smtc_modem_derive_keys,"ax",%progbits
 4186              		.align	1
 4187              		.global	smtc_modem_derive_keys
 4188              		.syntax unified
 4189              		.code	16
 4190              		.thumb_func
 4192              	smtc_modem_derive_keys:
 4193              		@ args = 0, pretend = 0, frame = 0
 4194              		@ frame_needed = 0, uses_anonymous_args = 0
 4195 0000 10B5     		push	{r4, lr}
 4196 0002 FFF7FEFF 		bl	modem_get_test_mode_status
 4197 0006 0028     		cmp	r0, #0
 4198 0008 01D0     		beq	.L689
 4199              	.L691:
 4200 000a 0520     		movs	r0, #5
 4201              	.L690:
 4202              		@ sp needed
 4203 000c 10BD     		pop	{r4, pc}
 4204              	.L689:
 4205 000e FFF7FEFF 		bl	get_join_state
 4206 0012 0028     		cmp	r0, #0
 4207 0014 F9D1     		bne	.L691
 4208 0016 0630     		adds	r0, r0, #6
 4209 0018 F8E7     		b	.L690
 4211              		.section	.text.convert_rp_to_user_radio_access_status,"ax",%progbits
 4212              		.align	1
 4213              		.global	convert_rp_to_user_radio_access_status
 4214              		.syntax unified
 4215              		.code	16
 4216              		.thumb_func
 4218              	convert_rp_to_user_radio_access_status:
 4219              		@ args = 0, pretend = 0, frame = 0
 4220              		@ frame_needed = 0, uses_anonymous_args = 0
 4221              		@ link register save eliminated.
 4222 0000 0300     		movs	r3, r0
 4223 0002 0920     		movs	r0, #9
 4224 0004 0A2B     		cmp	r3, #10
 4225 0006 01D8     		bhi	.L693
 4226 0008 014A     		ldr	r2, .L695
 4227 000a D05C     		ldrb	r0, [r2, r3]
 4228              	.L693:
 4229              		@ sp needed
 4230 000c 7047     		bx	lr
 4231              	.L696:
 4232 000e C046     		.align	2
ARM GAS  /tmp/ccFPSyWO.s 			page 75


 4233              	.L695:
 4234 0010 00000000 		.word	CSWTCH.144
 4236              		.section	.rodata.smtc_modem_get_event.str1.1,"aMS",%progbits,1
 4237              	.LC169:
 4238 0000 1B5B303B 		.ascii	"\033[0;31mERROR: crash log :%s\012\000"
 4238      33316D45 
 4238      52524F52 
 4238      3A206372 
 4238      61736820 
 4239              	.LC172:
 4240 001d 1B5B303B 		.ascii	"\033[0;31mERROR: -> asynchronous_msgnumber overlap\000"
 4240      33316D45 
 4240      52524F52 
 4240      3A202D3E 
 4240      20617379 
 4241              		.section	.text.smtc_modem_get_event,"ax",%progbits
 4242              		.align	1
 4243              		.global	smtc_modem_get_event
 4244              		.syntax unified
 4245              		.code	16
 4246              		.thumb_func
 4248              	smtc_modem_get_event:
 4249              		@ args = 0, pretend = 0, frame = 24
 4250              		@ frame_needed = 0, uses_anonymous_args = 0
 4251 0000 70B5     		push	{r4, r5, r6, lr}
 4252 0002 8AB0     		sub	sp, sp, #40
 4253 0004 0400     		movs	r4, r0
 4254 0006 0E00     		movs	r6, r1
 4255 0008 FFF7FEFF 		bl	modem_get_test_mode_status
 4256 000c 0523     		movs	r3, #5
 4257 000e 0028     		cmp	r0, #0
 4258 0010 21D1     		bne	.L698
 4259 0012 013B     		subs	r3, r3, #1
 4260 0014 002C     		cmp	r4, #0
 4261 0016 1ED0     		beq	.L698
 4262 0018 002E     		cmp	r6, #0
 4263 001a 1CD0     		beq	.L698
 4264 001c FFF7FEFF 		bl	get_asynchronous_msgnumber
 4265 0020 0500     		movs	r5, r0
 4266 0022 1928     		cmp	r0, #25
 4267 0024 1AD9     		bls	.L699
 4268 0026 4C4C     		ldr	r4, .L724
 4269 0028 2000     		movs	r0, r4
 4270 002a FFF7FEFF 		bl	smtc_modem_hal_store_crashlog
 4271 002e 0120     		movs	r0, #1
 4272 0030 FFF7FEFF 		bl	smtc_modem_hal_set_crashlog_status
 4273 0034 2100     		movs	r1, r4
 4274 0036 4948     		ldr	r0, .L724+4
 4275 0038 FFF7FEFF 		bl	smtc_modem_hal_print_trace
 4276 003c 484C     		ldr	r4, .L724+8
 4277 003e 2000     		movs	r0, r4
 4278 0040 FFF7FEFF 		bl	smtc_modem_hal_print_trace
 4279 0044 4748     		ldr	r0, .L724+12
 4280 0046 FFF7FEFF 		bl	smtc_modem_hal_print_trace
 4281 004a 2000     		movs	r0, r4
 4282 004c FFF7FEFF 		bl	smtc_modem_hal_print_trace
 4283 0050 FFF7FEFF 		bl	smtc_modem_hal_reset_mcu
ARM GAS  /tmp/ccFPSyWO.s 			page 76


 4284              	.L700:
 4285 0054 0023     		movs	r3, #0
 4286              	.L698:
 4287 0056 1800     		movs	r0, r3
 4288 0058 0AB0     		add	sp, sp, #40
 4289              		@ sp needed
 4290 005a 70BD     		pop	{r4, r5, r6, pc}
 4291              	.L699:
 4292 005c 0028     		cmp	r0, #0
 4293 005e 77D0     		beq	.L701
 4294 0060 FFF7FEFF 		bl	get_last_msg_event
 4295 0064 6070     		strb	r0, [r4, #1]
 4296 0066 FFF7FEFF 		bl	get_modem_event_count
 4297 006a 013D     		subs	r5, r5, #1
 4298 006c 0138     		subs	r0, r0, #1
 4299 006e A070     		strb	r0, [r4, #2]
 4300 0070 3570     		strb	r5, [r6]
 4301 0072 6078     		ldrb	r0, [r4, #1]
 4302 0074 1828     		cmp	r0, #24
 4303 0076 11D8     		bhi	.L702
 4304 0078 FFF7FEFF 		bl	__gnu_thumb1_case_uqi
 4305              	.L704:
 4306 007c 0D       		.byte	(.L716-.L704)/2
 4307 007d 10       		.byte	(.L702-.L704)/2
 4308 007e 10       		.byte	(.L702-.L704)/2
 4309 007f 4A       		.byte	(.L715-.L704)/2
 4310 0080 18       		.byte	(.L714-.L704)/2
 4311 0081 46       		.byte	(.L713-.L704)/2
 4312 0082 4C       		.byte	(.L712-.L704)/2
 4313 0083 4E       		.byte	(.L711-.L704)/2
 4314 0084 10       		.byte	(.L702-.L704)/2
 4315 0085 10       		.byte	(.L702-.L704)/2
 4316 0086 10       		.byte	(.L702-.L704)/2
 4317 0087 10       		.byte	(.L702-.L704)/2
 4318 0088 10       		.byte	(.L702-.L704)/2
 4319 0089 54       		.byte	(.L710-.L704)/2
 4320 008a 10       		.byte	(.L702-.L704)/2
 4321 008b 10       		.byte	(.L702-.L704)/2
 4322 008c 56       		.byte	(.L709-.L704)/2
 4323 008d 64       		.byte	(.L708-.L704)/2
 4324 008e 5C       		.byte	(.L707-.L704)/2
 4325 008f 66       		.byte	(.L706-.L704)/2
 4326 0090 68       		.byte	(.L705-.L704)/2
 4327 0091 10       		.byte	(.L702-.L704)/2
 4328 0092 47       		.byte	(.L703-.L704)/2
 4329 0093 47       		.byte	(.L703-.L704)/2
 4330 0094 47       		.byte	(.L703-.L704)/2
 4331 0095 00       		.p2align 1
 4332              	.L716:
 4333 0096 FFF7FEFF 		bl	lorawan_api_nb_reset_get
 4334 009a A080     		strh	r0, [r4, #4]
 4335              	.L702:
 4336 009c 0022     		movs	r2, #0
 4337 009e 6078     		ldrb	r0, [r4, #1]
 4338 00a0 1100     		movs	r1, r2
 4339 00a2 FFF7FEFF 		bl	set_modem_event_count_and_status
 4340 00a6 FFF7FEFF 		bl	decrement_asynchronous_msgnumber
ARM GAS  /tmp/ccFPSyWO.s 			page 77


 4341 00aa D3E7     		b	.L700
 4342              	.L714:
 4343 00ac FFF7FEFF 		bl	lorawan_api_get_fifo_obj
 4344 00b0 1423     		movs	r3, #20
 4345 00b2 2200     		movs	r2, r4
 4346 00b4 2100     		movs	r1, r4
 4347 00b6 0293     		str	r3, [sp, #8]
 4348 00b8 013B     		subs	r3, r3, #1
 4349 00ba 6B44     		add	r3, r3, sp
 4350 00bc 05AD     		add	r5, sp, #20
 4351 00be FA32     		adds	r2, r2, #250
 4352 00c0 0193     		str	r3, [sp, #4]
 4353 00c2 0095     		str	r5, [sp]
 4354 00c4 F223     		movs	r3, #242
 4355 00c6 0831     		adds	r1, r1, #8
 4356 00c8 FFF7FEFF 		bl	fifo_ctrl_get
 4357 00cc 0622     		movs	r2, #6
 4358 00ce AB5E     		ldrsh	r3, [r5, r2]
 4359 00d0 1A00     		movs	r2, r3
 4360 00d2 8032     		adds	r2, r2, #128
 4361 00d4 92B2     		uxth	r2, r2
 4362 00d6 BF2A     		cmp	r2, #191
 4363 00d8 11D8     		bhi	.L717
 4364 00da 4033     		adds	r3, r3, #64
 4365 00dc 5AB2     		sxtb	r2, r3
 4366              	.L718:
 4367 00de 2271     		strb	r2, [r4, #4]
 4368 00e0 AB88     		ldrh	r3, [r5, #4]
 4369 00e2 9B00     		lsls	r3, r3, #2
 4370 00e4 6371     		strb	r3, [r4, #5]
 4371 00e6 2B89     		ldrh	r3, [r5, #8]
 4372 00e8 5BBA     		rev16	r3, r3
 4373 00ea E380     		strh	r3, [r4, #6]
 4374 00ec 2300     		movs	r3, r4
 4375 00ee AA7A     		ldrb	r2, [r5, #10]
 4376 00f0 FC33     		adds	r3, r3, #252
 4377 00f2 1A70     		strb	r2, [r3]
 4378 00f4 EA68     		ldr	r2, [r5, #12]
 4379 00f6 5A60     		str	r2, [r3, #4]
 4380 00f8 2A7C     		ldrb	r2, [r5, #16]
 4381 00fa 1A72     		strb	r2, [r3, #8]
 4382 00fc CEE7     		b	.L702
 4383              	.L717:
 4384 00fe 7F22     		movs	r2, #127
 4385 0100 3F2B     		cmp	r3, #63
 4386 0102 ECDC     		bgt	.L718
 4387 0104 FF3A     		subs	r2, r2, #255
 4388 0106 EAE7     		b	.L718
 4389              	.L713:
 4390 0108 0520     		movs	r0, #5
 4391              	.L703:
 4392 010a FFF7FEFF 		bl	get_modem_event_status
 4393 010e 07E0     		b	.L723
 4394              	.L715:
 4395 0110 0320     		movs	r0, #3
 4396 0112 FAE7     		b	.L703
 4397              	.L712:
ARM GAS  /tmp/ccFPSyWO.s 			page 78


 4398 0114 0620     		movs	r0, #6
 4399 0116 F8E7     		b	.L703
 4400              	.L711:
 4401 0118 FFF7FEFF 		bl	get_modem_muted
 4402 011c 431E     		subs	r3, r0, #1
 4403 011e 9841     		sbcs	r0, r0, r3
 4404              	.L723:
 4405 0120 2071     		strb	r0, [r4, #4]
 4406 0122 BBE7     		b	.L702
 4407              	.L710:
 4408 0124 0D20     		movs	r0, #13
 4409 0126 F0E7     		b	.L703
 4410              	.L709:
 4411 0128 A11D     		adds	r1, r4, #6
 4412 012a 601D     		adds	r0, r4, #5
 4413 012c FFF7FEFF 		bl	lorawan_api_get_link_check_ans
 4414 0130 6078     		ldrb	r0, [r4, #1]
 4415 0132 EAE7     		b	.L703
 4416              	.L707:
 4417 0134 0C4B     		ldr	r3, .L724+16
 4418 0136 1B68     		ldr	r3, [r3]
 4419 0138 A360     		str	r3, [r4, #8]
 4420 013a 0C4B     		ldr	r3, .L724+20
 4421 013c 1878     		ldrb	r0, [r3]
 4422 013e FFF7FEFF 		bl	convert_rp_to_user_radio_access_status
 4423 0142 EDE7     		b	.L723
 4424              	.L708:
 4425 0144 1120     		movs	r0, #17
 4426 0146 E0E7     		b	.L703
 4427              	.L706:
 4428 0148 1320     		movs	r0, #19
 4429 014a DEE7     		b	.L703
 4430              	.L705:
 4431 014c 1420     		movs	r0, #20
 4432 014e DCE7     		b	.L703
 4433              	.L701:
 4434 0150 FF23     		movs	r3, #255
 4435 0152 6370     		strb	r3, [r4, #1]
 4436 0154 7EE7     		b	.L700
 4437              	.L725:
 4438 0156 C046     		.align	2
 4439              	.L724:
 4440 0158 00000000 		.word	__func__.14
 4441 015c 00000000 		.word	.LC169
 4442 0160 2F000000 		.word	.LC3
 4443 0164 1D000000 		.word	.LC172
 4444 0168 00000000 		.word	user_radio_irq_timestamp
 4445 016c 00000000 		.word	user_radio_irq_status
 4447              		.section	.text.convert_rp_to_user_radio_access_rp_status,"ax",%progbits
 4448              		.align	1
 4449              		.global	convert_rp_to_user_radio_access_rp_status
 4450              		.syntax unified
 4451              		.code	16
 4452              		.thumb_func
 4454              	convert_rp_to_user_radio_access_rp_status:
 4455              		@ args = 0, pretend = 0, frame = 0
 4456              		@ frame_needed = 0, uses_anonymous_args = 0
ARM GAS  /tmp/ccFPSyWO.s 			page 79


 4457              		@ link register save eliminated.
 4458 0000 0300     		movs	r3, r0
 4459 0002 0920     		movs	r0, #9
 4460 0004 0A2B     		cmp	r3, #10
 4461 0006 01D8     		bhi	.L727
 4462 0008 014A     		ldr	r2, .L729
 4463 000a D05C     		ldrb	r0, [r2, r3]
 4464              	.L727:
 4465              		@ sp needed
 4466 000c 7047     		bx	lr
 4467              	.L730:
 4468 000e C046     		.align	2
 4469              	.L729:
 4470 0010 00000000 		.word	CSWTCH.147
 4472              		.section	.text.callback_rp_user_radio_access_0,"ax",%progbits
 4473              		.align	1
 4474              		.global	callback_rp_user_radio_access_0
 4475              		.syntax unified
 4476              		.code	16
 4477              		.thumb_func
 4479              	callback_rp_user_radio_access_0:
 4480              		@ args = 0, pretend = 0, frame = 16
 4481              		@ frame_needed = 0, uses_anonymous_args = 0
 4482 0000 F0B5     		push	{r4, r5, r6, r7, lr}
 4483 0002 85B0     		sub	sp, sp, #20
 4484 0004 02AC     		add	r4, sp, #8
 4485 0006 0500     		movs	r5, r0
 4486 0008 0822     		movs	r2, #8
 4487 000a 0021     		movs	r1, #0
 4488 000c 2000     		movs	r0, r4
 4489 000e FFF7FEFF 		bl	memset
 4490 0012 6B46     		mov	r3, sp
 4491 0014 0026     		movs	r6, #0
 4492 0016 5F1C     		adds	r7, r3, #1
 4493 0018 0121     		movs	r1, #1
 4494 001a 2800     		movs	r0, r5
 4495 001c 5E80     		strh	r6, [r3, #2]
 4496 001e 01AA     		add	r2, sp, #4
 4497 0020 3B00     		movs	r3, r7
 4498 0022 0196     		str	r6, [sp, #4]
 4499 0024 FFF7FEFF 		bl	rp_get_status
 4500 0028 6B46     		mov	r3, sp
 4501 002a 0121     		movs	r1, #1
 4502 002c 9A1C     		adds	r2, r3, #2
 4503 002e 2800     		movs	r0, r5
 4504 0030 FFF7FEFF 		bl	rp_get_and_clear_raw_radio_irq
 4505 0034 019B     		ldr	r3, [sp, #4]
 4506 0036 3878     		ldrb	r0, [r7]
 4507 0038 0393     		str	r3, [sp, #12]
 4508 003a 2670     		strb	r6, [r4]
 4509 003c FFF7FEFF 		bl	convert_rp_to_user_radio_access_rp_status
 4510 0040 6B46     		mov	r3, sp
 4511 0042 5B88     		ldrh	r3, [r3, #2]
 4512 0044 6070     		strb	r0, [r4, #1]
 4513 0046 6380     		strh	r3, [r4, #2]
 4514 0048 034B     		ldr	r3, .L736
 4515 004a 1B68     		ldr	r3, [r3]
ARM GAS  /tmp/ccFPSyWO.s 			page 80


 4516 004c B342     		cmp	r3, r6
 4517 004e 01D0     		beq	.L731
 4518 0050 2000     		movs	r0, r4
 4519 0052 9847     		blx	r3
 4520              	.L731:
 4521 0054 05B0     		add	sp, sp, #20
 4522              		@ sp needed
 4523 0056 F0BD     		pop	{r4, r5, r6, r7, pc}
 4524              	.L737:
 4525              		.align	2
 4526              	.L736:
 4527 0058 00000000 		.word	user_end_task_callback_0
 4529              		.section	.text.callback_rp_user_radio_access_1,"ax",%progbits
 4530              		.align	1
 4531              		.global	callback_rp_user_radio_access_1
 4532              		.syntax unified
 4533              		.code	16
 4534              		.thumb_func
 4536              	callback_rp_user_radio_access_1:
 4537              		@ args = 0, pretend = 0, frame = 16
 4538              		@ frame_needed = 0, uses_anonymous_args = 0
 4539 0000 7FB5     		push	{r0, r1, r2, r3, r4, r5, r6, lr}
 4540 0002 02AC     		add	r4, sp, #8
 4541 0004 0500     		movs	r5, r0
 4542 0006 0822     		movs	r2, #8
 4543 0008 0021     		movs	r1, #0
 4544 000a 2000     		movs	r0, r4
 4545 000c FFF7FEFF 		bl	memset
 4546 0010 6A46     		mov	r2, sp
 4547 0012 0023     		movs	r3, #0
 4548 0014 561C     		adds	r6, r2, #1
 4549 0016 5380     		strh	r3, [r2, #2]
 4550 0018 0821     		movs	r1, #8
 4551 001a 2800     		movs	r0, r5
 4552 001c 0193     		str	r3, [sp, #4]
 4553 001e 01AA     		add	r2, sp, #4
 4554 0020 3300     		movs	r3, r6
 4555 0022 FFF7FEFF 		bl	rp_get_status
 4556 0026 6B46     		mov	r3, sp
 4557 0028 0821     		movs	r1, #8
 4558 002a 9A1C     		adds	r2, r3, #2
 4559 002c 2800     		movs	r0, r5
 4560 002e FFF7FEFF 		bl	rp_get_and_clear_raw_radio_irq
 4561 0032 0123     		movs	r3, #1
 4562 0034 2370     		strb	r3, [r4]
 4563 0036 019B     		ldr	r3, [sp, #4]
 4564 0038 3078     		ldrb	r0, [r6]
 4565 003a 0393     		str	r3, [sp, #12]
 4566 003c FFF7FEFF 		bl	convert_rp_to_user_radio_access_rp_status
 4567 0040 6B46     		mov	r3, sp
 4568 0042 5B88     		ldrh	r3, [r3, #2]
 4569 0044 6070     		strb	r0, [r4, #1]
 4570 0046 6380     		strh	r3, [r4, #2]
 4571 0048 034B     		ldr	r3, .L743
 4572 004a 1B68     		ldr	r3, [r3]
 4573 004c 002B     		cmp	r3, #0
 4574 004e 01D0     		beq	.L738
ARM GAS  /tmp/ccFPSyWO.s 			page 81


 4575 0050 2000     		movs	r0, r4
 4576 0052 9847     		blx	r3
 4577              	.L738:
 4578              		@ sp needed
 4579 0054 7FBD     		pop	{r0, r1, r2, r3, r4, r5, r6, pc}
 4580              	.L744:
 4581 0056 C046     		.align	2
 4582              	.L743:
 4583 0058 00000000 		.word	user_end_task_callback_1
 4585              		.section	.text.callback_rp_user_radio_access_2,"ax",%progbits
 4586              		.align	1
 4587              		.global	callback_rp_user_radio_access_2
 4588              		.syntax unified
 4589              		.code	16
 4590              		.thumb_func
 4592              	callback_rp_user_radio_access_2:
 4593              		@ args = 0, pretend = 0, frame = 16
 4594              		@ frame_needed = 0, uses_anonymous_args = 0
 4595 0000 7FB5     		push	{r0, r1, r2, r3, r4, r5, r6, lr}
 4596 0002 02AC     		add	r4, sp, #8
 4597 0004 0500     		movs	r5, r0
 4598 0006 0822     		movs	r2, #8
 4599 0008 0021     		movs	r1, #0
 4600 000a 2000     		movs	r0, r4
 4601 000c FFF7FEFF 		bl	memset
 4602 0010 6A46     		mov	r2, sp
 4603 0012 0023     		movs	r3, #0
 4604 0014 561C     		adds	r6, r2, #1
 4605 0016 5380     		strh	r3, [r2, #2]
 4606 0018 0921     		movs	r1, #9
 4607 001a 2800     		movs	r0, r5
 4608 001c 0193     		str	r3, [sp, #4]
 4609 001e 01AA     		add	r2, sp, #4
 4610 0020 3300     		movs	r3, r6
 4611 0022 FFF7FEFF 		bl	rp_get_status
 4612 0026 6B46     		mov	r3, sp
 4613 0028 0921     		movs	r1, #9
 4614 002a 9A1C     		adds	r2, r3, #2
 4615 002c 2800     		movs	r0, r5
 4616 002e FFF7FEFF 		bl	rp_get_and_clear_raw_radio_irq
 4617 0032 0223     		movs	r3, #2
 4618 0034 2370     		strb	r3, [r4]
 4619 0036 019B     		ldr	r3, [sp, #4]
 4620 0038 3078     		ldrb	r0, [r6]
 4621 003a 0393     		str	r3, [sp, #12]
 4622 003c FFF7FEFF 		bl	convert_rp_to_user_radio_access_rp_status
 4623 0040 6B46     		mov	r3, sp
 4624 0042 5B88     		ldrh	r3, [r3, #2]
 4625 0044 6070     		strb	r0, [r4, #1]
 4626 0046 6380     		strh	r3, [r4, #2]
 4627 0048 034B     		ldr	r3, .L750
 4628 004a 1B68     		ldr	r3, [r3]
 4629 004c 002B     		cmp	r3, #0
 4630 004e 01D0     		beq	.L745
 4631 0050 2000     		movs	r0, r4
 4632 0052 9847     		blx	r3
 4633              	.L745:
ARM GAS  /tmp/ccFPSyWO.s 			page 82


 4634              		@ sp needed
 4635 0054 7FBD     		pop	{r0, r1, r2, r3, r4, r5, r6, pc}
 4636              	.L751:
 4637 0056 C046     		.align	2
 4638              	.L750:
 4639 0058 00000000 		.word	user_end_task_callback_2
 4641              		.section	.rodata.CSWTCH.144,"a"
 4644              	CSWTCH.144:
 4645 0000 00       		.byte	0
 4646 0001 01       		.byte	1
 4647 0002 02       		.byte	2
 4648 0003 03       		.byte	3
 4649 0004 04       		.byte	4
 4650 0005 05       		.byte	5
 4651 0006 09       		.byte	9
 4652 0007 09       		.byte	9
 4653 0008 06       		.byte	6
 4654 0009 07       		.byte	7
 4655 000a 08       		.byte	8
 4656              		.set	CSWTCH.147,CSWTCH.144
 4657              		.section	.rodata.__func__.0,"a"
 4660              	__func__.0:
 4661 0000 736D7463 		.ascii	"smtc_modem_file_upload_init\000"
 4661      5F6D6F64 
 4661      656D5F66 
 4661      696C655F 
 4661      75706C6F 
 4662              		.section	.rodata.__func__.1,"a"
 4665              	__func__.1:
 4666 0000 736D7463 		.ascii	"smtc_modem_send_empty_tx\000"
 4666      5F6D6F64 
 4666      656D5F73 
 4666      656E645F 
 4666      656D7074 
 4667              		.section	.rodata.__func__.2,"a"
 4670              	__func__.2:
 4671 0000 736D7463 		.ascii	"smtc_modem_send_tx\000"
 4671      5F6D6F64 
 4671      656D5F73 
 4671      656E645F 
 4671      747800
 4672              		.section	.rodata.__func__.3,"a"
 4675              	__func__.3:
 4676 0000 736D7463 		.ascii	"smtc_modem_get_next_tx_max_payload\000"
 4676      5F6D6F64 
 4676      656D5F67 
 4676      65745F6E 
 4676      6578745F 
 4677              		.section	.rodata.__func__.4,"a"
 4680              	__func__.4:
 4681 0000 736D7463 		.ascii	"smtc_modem_suspend_radio_communications\000"
 4681      5F6D6F64 
 4681      656D5F73 
 4681      75737065 
 4681      6E645F72 
 4682              		.section	.rodata.__func__.5,"a"
 4685              	__func__.5:
ARM GAS  /tmp/ccFPSyWO.s 			page 83


 4686 0000 736D7463 		.ascii	"smtc_modem_join_network\000"
 4686      5F6D6F64 
 4686      656D5F6A 
 4686      6F696E5F 
 4686      6E657477 
 4687              		.section	.rodata.__func__.6,"a"
 4690              	__func__.6:
 4691 0000 736D7463 		.ascii	"smtc_modem_dm_set_info_interval\000"
 4691      5F6D6F64 
 4691      656D5F64 
 4691      6D5F7365 
 4691      745F696E 
 4692              		.section	.rodata.__func__.7,"a"
 4695              	__func__.7:
 4696 0000 736D7463 		.ascii	"smtc_modem_dm_set_fport\000"
 4696      5F6D6F64 
 4696      656D5F64 
 4696      6D5F7365 
 4696      745F6670 
 4697              		.section	.rodata.__func__.8,"a"
 4700              	__func__.8:
 4701 0000 736D7463 		.ascii	"smtc_modem_adr_set_profile\000"
 4701      5F6D6F64 
 4701      656D5F61 
 4701      64725F73 
 4701      65745F70 
 4702              		.section	.rodata.__func__.9,"a"
 4705              	__func__.9:
 4706 0000 736D7463 		.ascii	"smtc_modem_set_region\000"
 4706      5F6D6F64 
 4706      656D5F73 
 4706      65745F72 
 4706      6567696F 
 4707              		.section	.rodata.__func__.10,"a"
 4710              	__func__.10:
 4711 0000 736D7463 		.ascii	"smtc_modem_set_nwkkey\000"
 4711      5F6D6F64 
 4711      656D5F73 
 4711      65745F6E 
 4711      776B6B65 
 4712              		.section	.rodata.__func__.11,"a"
 4715              	__func__.11:
 4716 0000 736D7463 		.ascii	"smtc_modem_set_deveui\000"
 4716      5F6D6F64 
 4716      656D5F73 
 4716      65745F64 
 4716      65766575 
 4717              		.section	.rodata.__func__.12,"a"
 4720              	__func__.12:
 4721 0000 736D7463 		.ascii	"smtc_modem_set_joineui\000"
 4721      5F6D6F64 
 4721      656D5F73 
 4721      65745F6A 
 4721      6F696E65 
 4722              		.section	.rodata.__func__.13,"a"
 4725              	__func__.13:
 4726 0000 69735F6D 		.ascii	"is_modem_connected\000"
ARM GAS  /tmp/ccFPSyWO.s 			page 84


 4726      6F64656D 
 4726      5F636F6E 
 4726      6E656374 
 4726      656400
 4727              		.section	.rodata.__func__.14,"a"
 4730              	__func__.14:
 4731 0000 736D7463 		.ascii	"smtc_modem_get_event\000"
 4731      5F6D6F64 
 4731      656D5F67 
 4731      65745F65 
 4731      76656E74 
 4732              		.section	.bss.user_end_task_callback_2,"aw",%nobits
 4733              		.align	2
 4736              	user_end_task_callback_2:
 4737 0000 00000000 		.space	4
 4738              		.section	.bss.user_end_task_callback_1,"aw",%nobits
 4739              		.align	2
 4742              	user_end_task_callback_1:
 4743 0000 00000000 		.space	4
 4744              		.section	.bss.user_end_task_callback_0,"aw",%nobits
 4745              		.align	2
 4748              	user_end_task_callback_0:
 4749 0000 00000000 		.space	4
 4750              		.section	.bss.user_radio_irq_timestamp,"aw",%nobits
 4751              		.align	2
 4754              	user_radio_irq_timestamp:
 4755 0000 00000000 		.space	4
 4756              		.section	.bss.user_radio_irq_status,"aw",%nobits
 4759              	user_radio_irq_status:
 4760 0000 00       		.space	1
 4761              		.section	.bss.lbt_config_available,"aw",%nobits
 4764              	lbt_config_available:
 4765 0000 00       		.space	1
 4766              		.global	smtc_modem_services_ctx
 4767              		.section	.bss.smtc_modem_services_ctx,"aw",%nobits
 4768              		.align	2
 4771              	smtc_modem_services_ctx:
 4772 0000 00000000 		.space	1228
 4772      00000000 
 4772      00000000 
 4772      00000000 
 4772      00000000 
 4773              		.section	.bss.modem_radio_planner,"aw",%nobits
 4774              		.align	2
 4777              	modem_radio_planner:
 4778 0000 00000000 		.space	2504
 4778      00000000 
 4778      00000000 
 4778      00000000 
 4778      00000000 
 4779              		.section	.bss.modem_buffer,"aw",%nobits
 4780              		.align	2
 4783              	modem_buffer:
 4784 0000 00000000 		.space	242
 4784      00000000 
 4784      00000000 
 4784      00000000 
ARM GAS  /tmp/ccFPSyWO.s 			page 85


 4784      00000000 
 4785              		.ident	"GCC: (Arch Repository) 13.2.0"
ARM GAS  /tmp/ccFPSyWO.s 			page 86

