ARM GAS  /tmp/ccy0OHfo.s 			page 1


   1              		.cpu cortex-m0
   2              		.arch armv6s-m
   3              		.fpu softvfp
   4              		.eabi_attribute 23, 1
   5              		.eabi_attribute 24, 1
   6              		.eabi_attribute 25, 1
   7              		.eabi_attribute 26, 1
   8              		.eabi_attribute 30, 4
   9              		.eabi_attribute 34, 0
  10              		.eabi_attribute 18, 4
  11              		.file	"smtc_modem_services_hal.c"
  12              		.text
  13              		.section	.rodata.smtc_modem_services_aes_encrypt.str1.1,"aMS",%progbits,1
  14              	.LC1:
  15 0000 1B5B303B 		.ascii	"\033[0;31mERROR: crash log :%s\012\000"
  15      33316D45 
  15      52524F52 
  15      3A206372 
  15      61736820 
  16              	.LC3:
  17 001d 1B5B306D 		.ascii	"\033[0m\000"
  17      00
  18              	.LC5:
  19 0022 1B5B303B 		.ascii	"\033[0;31mERROR: -> Encryption of lfu failed\012\015"
  19      33316D45 
  19      52524F52 
  19      3A202D3E 
  19      20456E63 
  20 004d 00       		.ascii	"\000"
  21              		.section	.text.smtc_modem_services_aes_encrypt,"ax",%progbits
  22              		.align	1
  23              		.global	smtc_modem_services_aes_encrypt
  24              		.syntax unified
  25              		.code	16
  26              		.thumb_func
  28              	smtc_modem_services_aes_encrypt:
  29              		@ args = 0, pretend = 0, frame = 0
  30              		@ frame_needed = 0, uses_anonymous_args = 0
  31 0000 10B5     		push	{r4, lr}
  32 0002 FFF7FEFF 		bl	smtc_modem_crypto_service_encrypt
  33 0006 0028     		cmp	r0, #0
  34 0008 16D0     		beq	.L1
  35 000a 0C4C     		ldr	r4, .L6
  36 000c 2000     		movs	r0, r4
  37 000e FFF7FEFF 		bl	smtc_modem_hal_store_crashlog
  38 0012 0120     		movs	r0, #1
  39 0014 FFF7FEFF 		bl	smtc_modem_hal_set_crashlog_status
  40 0018 2100     		movs	r1, r4
  41 001a 0948     		ldr	r0, .L6+4
  42 001c FFF7FEFF 		bl	smtc_modem_hal_print_trace
  43 0020 084C     		ldr	r4, .L6+8
  44 0022 2000     		movs	r0, r4
  45 0024 FFF7FEFF 		bl	smtc_modem_hal_print_trace
  46 0028 0748     		ldr	r0, .L6+12
  47 002a FFF7FEFF 		bl	smtc_modem_hal_print_trace
  48 002e 2000     		movs	r0, r4
  49 0030 FFF7FEFF 		bl	smtc_modem_hal_print_trace
ARM GAS  /tmp/ccy0OHfo.s 			page 2


  50 0034 FFF7FEFF 		bl	smtc_modem_hal_reset_mcu
  51              	.L1:
  52              		@ sp needed
  53 0038 10BD     		pop	{r4, pc}
  54              	.L7:
  55 003a C046     		.align	2
  56              	.L6:
  57 003c 00000000 		.word	__func__.0
  58 0040 00000000 		.word	.LC1
  59 0044 1D000000 		.word	.LC3
  60 0048 22000000 		.word	.LC5
  62              		.section	.text.smtc_modem_services_get_time_s,"ax",%progbits
  63              		.align	1
  64              		.global	smtc_modem_services_get_time_s
  65              		.syntax unified
  66              		.code	16
  67              		.thumb_func
  69              	smtc_modem_services_get_time_s:
  70              		@ args = 0, pretend = 0, frame = 0
  71              		@ frame_needed = 0, uses_anonymous_args = 0
  72 0000 10B5     		push	{r4, lr}
  73 0002 FFF7FEFF 		bl	smtc_modem_hal_get_compensated_time_in_s
  74              		@ sp needed
  75 0006 10BD     		pop	{r4, pc}
  77              		.section	.text.smtc_modem_services_lr11xx_gnss_get_context_status,"ax",%progbits
  78              		.align	1
  79              		.global	smtc_modem_services_lr11xx_gnss_get_context_status
  80              		.syntax unified
  81              		.code	16
  82              		.thumb_func
  84              	smtc_modem_services_lr11xx_gnss_get_context_status:
  85              		@ args = 0, pretend = 0, frame = 0
  86              		@ frame_needed = 0, uses_anonymous_args = 0
  87 0000 70B5     		push	{r4, r5, r6, lr}
  88 0002 0D00     		movs	r5, r1
  89              		@ sp needed
  90 0004 0400     		movs	r4, r0
  91 0006 0E20     		movs	r0, #14
  92 0008 FFF7FEFF 		bl	modem_context_suspend_radio_access
  93 000c 2900     		movs	r1, r5
  94 000e 2000     		movs	r0, r4
  95 0010 FFF7FEFF 		bl	lr11xx_gnss_get_context_status
  96 0014 0400     		movs	r4, r0
  97 0016 631E     		subs	r3, r4, #1
  98 0018 9C41     		sbcs	r4, r4, r3
  99 001a FFF7FEFF 		bl	modem_context_resume_radio_access
 100 001e E0B2     		uxtb	r0, r4
 101 0020 70BD     		pop	{r4, r5, r6, pc}
 103              		.section	.text.smtc_modem_services_lr11xx_gnss_push_dmc_msg,"ax",%progbits
 104              		.align	1
 105              		.global	smtc_modem_services_lr11xx_gnss_push_dmc_msg
 106              		.syntax unified
 107              		.code	16
 108              		.thumb_func
 110              	smtc_modem_services_lr11xx_gnss_push_dmc_msg:
 111              		@ args = 0, pretend = 0, frame = 0
 112              		@ frame_needed = 0, uses_anonymous_args = 0
ARM GAS  /tmp/ccy0OHfo.s 			page 3


 113 0000 70B5     		push	{r4, r5, r6, lr}
 114 0002 0D00     		movs	r5, r1
 115              		@ sp needed
 116 0004 1600     		movs	r6, r2
 117 0006 0400     		movs	r4, r0
 118 0008 0E20     		movs	r0, #14
 119 000a FFF7FEFF 		bl	modem_context_suspend_radio_access
 120 000e 3200     		movs	r2, r6
 121 0010 2900     		movs	r1, r5
 122 0012 2000     		movs	r0, r4
 123 0014 FFF7FEFF 		bl	lr11xx_gnss_push_dmc_msg
 124 0018 0400     		movs	r4, r0
 125 001a 631E     		subs	r3, r4, #1
 126 001c 9C41     		sbcs	r4, r4, r3
 127 001e FFF7FEFF 		bl	modem_context_resume_radio_access
 128 0022 E0B2     		uxtb	r0, r4
 129 0024 70BD     		pop	{r4, r5, r6, pc}
 131              		.section	.rodata.__func__.0,"a"
 134              	__func__.0:
 135 0000 736D7463 		.ascii	"smtc_modem_services_aes_encrypt\000"
 135      5F6D6F64 
 135      656D5F73 
 135      65727669 
 135      6365735F 
 136              		.ident	"GCC: (Arch Repository) 13.2.0"
ARM GAS  /tmp/ccy0OHfo.s 			page 4

