ARM GAS  /tmp/ccW7IBLs.s 			page 1


   1              		.cpu cortex-m0
   2              		.arch armv6s-m
   3              		.fpu softvfp
   4              		.eabi_attribute 23, 1
   5              		.eabi_attribute 24, 1
   6              		.eabi_attribute 25, 1
   7              		.eabi_attribute 26, 1
   8              		.eabi_attribute 30, 4
   9              		.eabi_attribute 34, 0
  10              		.eabi_attribute 18, 4
  11              		.file	"soft_se.c"
  12              		.text
  13              		.section	.text.compute_cmac,"ax",%progbits
  14              		.align	1
  15              		.syntax unified
  16              		.code	16
  17              		.thumb_func
  19              	compute_cmac:
  20              		@ args = 4, pretend = 0, frame = 296
  21              		@ frame_needed = 0, uses_anonymous_args = 0
  22 0000 F0B5     		push	{r4, r5, r6, r7, lr}
  23 0002 0500     		movs	r5, r0
  24 0004 0C00     		movs	r4, r1
  25 0006 1600     		movs	r6, r2
  26 0008 1F00     		movs	r7, r3
  27 000a 0220     		movs	r0, #2
  28 000c CBB0     		sub	sp, sp, #300
  29 000e 0029     		cmp	r1, #0
  30 0010 27D0     		beq	.L2
  31 0012 509B     		ldr	r3, [sp, #320]
  32 0014 002B     		cmp	r3, #0
  33 0016 24D0     		beq	.L2
  34 0018 04A8     		add	r0, sp, #16
  35 001a FFF7FEFF 		bl	AES_CMAC_Init
  36 001e 1549     		ldr	r1, .L10
  37 0020 0023     		movs	r3, #0
  38 0022 0A00     		movs	r2, r1
  39              	.L6:
  40 0024 087D     		ldrb	r0, [r1, #20]
  41 0026 B842     		cmp	r0, r7
  42 0028 16D1     		bne	.L3
  43 002a 1121     		movs	r1, #17
  44 002c 5943     		muls	r1, r3
  45 002e 1531     		adds	r1, r1, #21
  46 0030 5118     		adds	r1, r2, r1
  47 0032 04A8     		add	r0, sp, #16
  48 0034 FFF7FEFF 		bl	AES_CMAC_SetKey
  49 0038 002D     		cmp	r5, #0
  50 003a 14D1     		bne	.L4
  51              	.L5:
  52 003c 3200     		movs	r2, r6
  53 003e 2100     		movs	r1, r4
  54 0040 04A8     		add	r0, sp, #16
  55 0042 FFF7FEFF 		bl	AES_CMAC_Update
  56 0046 6846     		mov	r0, sp
  57 0048 04A9     		add	r1, sp, #16
  58 004a FFF7FEFF 		bl	AES_CMAC_Final
ARM GAS  /tmp/ccW7IBLs.s 			page 2


  59 004e 009B     		ldr	r3, [sp]
  60 0050 509A     		ldr	r2, [sp, #320]
  61 0052 0020     		movs	r0, #0
  62 0054 1360     		str	r3, [r2]
  63 0056 04E0     		b	.L2
  64              	.L3:
  65 0058 0133     		adds	r3, r3, #1
  66 005a 1131     		adds	r1, r1, #17
  67 005c 172B     		cmp	r3, #23
  68 005e E1D1     		bne	.L6
  69 0060 0320     		movs	r0, #3
  70              	.L2:
  71 0062 4BB0     		add	sp, sp, #300
  72              		@ sp needed
  73 0064 F0BD     		pop	{r4, r5, r6, r7, pc}
  74              	.L4:
  75 0066 1022     		movs	r2, #16
  76 0068 2900     		movs	r1, r5
  77 006a 04A8     		add	r0, sp, #16
  78 006c FFF7FEFF 		bl	AES_CMAC_Update
  79 0070 E4E7     		b	.L5
  80              	.L11:
  81 0072 C046     		.align	2
  82              	.L10:
  83 0074 00000000 		.word	soft_se_data
  85              		.section	.rodata.smtc_secure_element_init.str1.1,"aMS",%progbits,1
  86              	.LC4:
  87 0000 1B5B303B 		.ascii	"\033[0;32mINFO: Use soft secure element for cryptog"
  87      33326D49 
  87      4E464F3A 
  87      20557365 
  87      20736F66 
  88 0030 72617068 		.ascii	"raphic functionalities\012\000"
  88      69632066 
  88      756E6374 
  88      696F6E61 
  88      6C697469 
  89              	.LC6:
  90 0048 1B5B306D 		.ascii	"\033[0m\000"
  90      00
  91              		.section	.text.smtc_secure_element_init,"ax",%progbits
  92              		.align	1
  93              		.global	smtc_secure_element_init
  94              		.syntax unified
  95              		.code	16
  96              		.thumb_func
  98              	smtc_secure_element_init:
  99              		@ args = 0, pretend = 0, frame = 416
 100              		@ frame_needed = 0, uses_anonymous_args = 0
 101 0000 10B5     		push	{r4, lr}
 102 0002 9C24     		movs	r4, #156
 103 0004 E8B0     		sub	sp, sp, #416
 104 0006 FF34     		adds	r4, r4, #255
 105 0008 2200     		movs	r2, r4
 106 000a 0949     		ldr	r1, .L13
 107 000c 01A8     		add	r0, sp, #4
 108 000e FFF7FEFF 		bl	memcpy
ARM GAS  /tmp/ccW7IBLs.s 			page 3


 109 0012 2200     		movs	r2, r4
 110 0014 01A9     		add	r1, sp, #4
 111 0016 0748     		ldr	r0, .L13+4
 112 0018 FFF7FEFF 		bl	memcpy
 113 001c 0648     		ldr	r0, .L13+8
 114 001e FFF7FEFF 		bl	smtc_modem_hal_print_trace
 115 0022 0648     		ldr	r0, .L13+12
 116 0024 FFF7FEFF 		bl	smtc_modem_hal_print_trace
 117 0028 0020     		movs	r0, #0
 118 002a 68B0     		add	sp, sp, #416
 119              		@ sp needed
 120 002c 10BD     		pop	{r4, pc}
 121              	.L14:
 122 002e C046     		.align	2
 123              	.L13:
 124 0030 00000000 		.word	.LC0
 125 0034 00000000 		.word	soft_se_data
 126 0038 00000000 		.word	.LC4
 127 003c 48000000 		.word	.LC6
 129              		.section	.text.smtc_secure_element_compute_aes_cmac,"ax",%progbits
 130              		.align	1
 131              		.global	smtc_secure_element_compute_aes_cmac
 132              		.syntax unified
 133              		.code	16
 134              		.thumb_func
 136              	smtc_secure_element_compute_aes_cmac:
 137              		@ args = 4, pretend = 0, frame = 0
 138              		@ frame_needed = 0, uses_anonymous_args = 0
 139 0000 13B5     		push	{r0, r1, r4, lr}
 140 0002 0400     		movs	r4, r0
 141 0004 0320     		movs	r0, #3
 142 0006 8B2B     		cmp	r3, #139
 143 0008 04D8     		bhi	.L16
 144 000a 0498     		ldr	r0, [sp, #16]
 145 000c 0090     		str	r0, [sp]
 146 000e 2000     		movs	r0, r4
 147 0010 FFF7FEFF 		bl	compute_cmac
 148              	.L16:
 149              		@ sp needed
 150 0014 16BD     		pop	{r1, r2, r4, pc}
 152              		.section	.text.smtc_secure_element_verify_aes_cmac,"ax",%progbits
 153              		.align	1
 154              		.global	smtc_secure_element_verify_aes_cmac
 155              		.syntax unified
 156              		.code	16
 157              		.thumb_func
 159              	smtc_secure_element_verify_aes_cmac:
 160              		@ args = 0, pretend = 0, frame = 8
 161              		@ frame_needed = 0, uses_anonymous_args = 0
 162 0000 30B5     		push	{r4, r5, lr}
 163 0002 0500     		movs	r5, r0
 164 0004 1400     		movs	r4, r2
 165 0006 0220     		movs	r0, #2
 166 0008 85B0     		sub	sp, sp, #20
 167 000a 002D     		cmp	r5, #0
 168 000c 0ED0     		beq	.L19
 169 000e 0020     		movs	r0, #0
ARM GAS  /tmp/ccW7IBLs.s 			page 4


 170 0010 03AA     		add	r2, sp, #12
 171 0012 0092     		str	r2, [sp]
 172 0014 0A00     		movs	r2, r1
 173 0016 2900     		movs	r1, r5
 174 0018 0390     		str	r0, [sp, #12]
 175 001a FFF7FEFF 		bl	compute_cmac
 176 001e 0028     		cmp	r0, #0
 177 0020 04D1     		bne	.L19
 178 0022 0398     		ldr	r0, [sp, #12]
 179 0024 001B     		subs	r0, r0, r4
 180 0026 431E     		subs	r3, r0, #1
 181 0028 9841     		sbcs	r0, r0, r3
 182 002a C0B2     		uxtb	r0, r0
 183              	.L19:
 184 002c 05B0     		add	sp, sp, #20
 185              		@ sp needed
 186 002e 30BD     		pop	{r4, r5, pc}
 188              		.section	.text.smtc_secure_element_aes_encrypt,"ax",%progbits
 189              		.align	1
 190              		.global	smtc_secure_element_aes_encrypt
 191              		.syntax unified
 192              		.code	16
 193              		.thumb_func
 195              	smtc_secure_element_aes_encrypt:
 196              		@ args = 0, pretend = 0, frame = 256
 197              		@ frame_needed = 0, uses_anonymous_args = 0
 198 0000 F0B5     		push	{r4, r5, r6, r7, lr}
 199 0002 C1B0     		sub	sp, sp, #260
 200 0004 0600     		movs	r6, r0
 201 0006 0D00     		movs	r5, r1
 202 0008 1F00     		movs	r7, r3
 203 000a 0220     		movs	r0, #2
 204 000c 0192     		str	r2, [sp, #4]
 205 000e 002E     		cmp	r6, #0
 206 0010 26D0     		beq	.L22
 207 0012 002B     		cmp	r3, #0
 208 0014 24D0     		beq	.L22
 209 0016 0F23     		movs	r3, #15
 210 0018 0C00     		movs	r4, r1
 211 001a 0330     		adds	r0, r0, #3
 212 001c 1C40     		ands	r4, r3
 213 001e 1942     		tst	r1, r3
 214 0020 1ED1     		bne	.L22
 215 0022 F122     		movs	r2, #241
 216 0024 2100     		movs	r1, r4
 217 0026 03A8     		add	r0, sp, #12
 218 0028 FFF7FEFF 		bl	memset
 219 002c 114A     		ldr	r2, .L32
 220 002e 1300     		movs	r3, r2
 221              	.L25:
 222 0030 117D     		ldrb	r1, [r2, #20]
 223 0032 0198     		ldr	r0, [sp, #4]
 224 0034 8142     		cmp	r1, r0
 225 0036 0ED1     		bne	.L23
 226 0038 1120     		movs	r0, #17
 227 003a 6043     		muls	r0, r4
 228 003c 1530     		adds	r0, r0, #21
ARM GAS  /tmp/ccW7IBLs.s 			page 5


 229 003e 1021     		movs	r1, #16
 230 0040 1818     		adds	r0, r3, r0
 231 0042 03AA     		add	r2, sp, #12
 232 0044 FFF7FEFF 		bl	aes_set_key
 233 0048 2C00     		movs	r4, r5
 234              	.L24:
 235 004a 281B     		subs	r0, r5, r4
 236 004c C0B2     		uxtb	r0, r0
 237 004e 002C     		cmp	r4, #0
 238 0050 08D1     		bne	.L27
 239 0052 2000     		movs	r0, r4
 240 0054 04E0     		b	.L22
 241              	.L23:
 242 0056 0134     		adds	r4, r4, #1
 243 0058 1132     		adds	r2, r2, #17
 244 005a 172C     		cmp	r4, #23
 245 005c E8D1     		bne	.L25
 246 005e 0320     		movs	r0, #3
 247              	.L22:
 248 0060 41B0     		add	sp, sp, #260
 249              		@ sp needed
 250 0062 F0BD     		pop	{r4, r5, r6, r7, pc}
 251              	.L27:
 252 0064 3918     		adds	r1, r7, r0
 253 0066 03AA     		add	r2, sp, #12
 254 0068 3018     		adds	r0, r6, r0
 255 006a 103C     		subs	r4, r4, #16
 256 006c FFF7FEFF 		bl	aes_encrypt
 257 0070 A4B2     		uxth	r4, r4
 258 0072 EAE7     		b	.L24
 259              	.L33:
 260              		.align	2
 261              	.L32:
 262 0074 00000000 		.word	soft_se_data
 264              		.section	.text.smtc_secure_element_set_key.part.0,"ax",%progbits
 265              		.align	1
 266              		.syntax unified
 267              		.code	16
 268              		.thumb_func
 270              	smtc_secure_element_set_key.part.0:
 271              		@ args = 0, pretend = 0, frame = 16
 272              		@ frame_needed = 0, uses_anonymous_args = 0
 273 0000 1A4B     		ldr	r3, .L44
 274 0002 30B5     		push	{r4, r5, lr}
 275 0004 0022     		movs	r2, #0
 276 0006 0C00     		movs	r4, r1
 277 0008 1D00     		movs	r5, r3
 278 000a 85B0     		sub	sp, sp, #20
 279              	.L38:
 280 000c 197D     		ldrb	r1, [r3, #20]
 281 000e 8142     		cmp	r1, r0
 282 0010 25D1     		bne	.L35
 283 0012 1123     		movs	r3, #17
 284 0014 5343     		muls	r3, r2
 285 0016 8038     		subs	r0, r0, #128
 286 0018 1533     		adds	r3, r3, #21
 287 001a C0B2     		uxtb	r0, r0
ARM GAS  /tmp/ccW7IBLs.s 			page 6


 288 001c 1022     		movs	r2, #16
 289 001e ED18     		adds	r5, r5, r3
 290 0020 0928     		cmp	r0, #9
 291 0022 16D8     		bhi	.L36
 292 0024 124B     		ldr	r3, .L44+4
 293 0026 C340     		lsrs	r3, r3, r0
 294 0028 DB07     		lsls	r3, r3, #31
 295 002a 12D5     		bpl	.L36
 296 002c 0021     		movs	r1, #0
 297 002e 6846     		mov	r0, sp
 298 0030 FFF7FEFF 		bl	memset
 299 0034 7F22     		movs	r2, #127
 300 0036 1021     		movs	r1, #16
 301 0038 2000     		movs	r0, r4
 302 003a 6B46     		mov	r3, sp
 303 003c FFF7FEFF 		bl	smtc_secure_element_aes_encrypt
 304 0040 1022     		movs	r2, #16
 305 0042 0400     		movs	r4, r0
 306 0044 6946     		mov	r1, sp
 307 0046 2800     		movs	r0, r5
 308 0048 FFF7FEFF 		bl	memcpy
 309              	.L37:
 310 004c 2000     		movs	r0, r4
 311 004e 05B0     		add	sp, sp, #20
 312              		@ sp needed
 313 0050 30BD     		pop	{r4, r5, pc}
 314              	.L36:
 315 0052 2100     		movs	r1, r4
 316 0054 2800     		movs	r0, r5
 317 0056 FFF7FEFF 		bl	memcpy
 318 005a 0024     		movs	r4, #0
 319 005c F6E7     		b	.L37
 320              	.L35:
 321 005e 0132     		adds	r2, r2, #1
 322 0060 1133     		adds	r3, r3, #17
 323 0062 172A     		cmp	r2, #23
 324 0064 D2D1     		bne	.L38
 325 0066 0324     		movs	r4, #3
 326 0068 F0E7     		b	.L37
 327              	.L45:
 328 006a C046     		.align	2
 329              	.L44:
 330 006c 00000000 		.word	soft_se_data
 331 0070 49020000 		.word	585
 333              		.section	.text.smtc_secure_element_set_key,"ax",%progbits
 334              		.align	1
 335              		.global	smtc_secure_element_set_key
 336              		.syntax unified
 337              		.code	16
 338              		.thumb_func
 340              	smtc_secure_element_set_key:
 341              		@ args = 0, pretend = 0, frame = 0
 342              		@ frame_needed = 0, uses_anonymous_args = 0
 343 0000 0223     		movs	r3, #2
 344 0002 10B5     		push	{r4, lr}
 345 0004 0029     		cmp	r1, #0
 346 0006 02D0     		beq	.L47
ARM GAS  /tmp/ccW7IBLs.s 			page 7


 347 0008 FFF7FEFF 		bl	smtc_secure_element_set_key.part.0
 348 000c 0300     		movs	r3, r0
 349              	.L47:
 350              		@ sp needed
 351 000e 1800     		movs	r0, r3
 352 0010 10BD     		pop	{r4, pc}
 354              		.section	.text.smtc_secure_element_derive_and_store_key,"ax",%progbits
 355              		.align	1
 356              		.global	smtc_secure_element_derive_and_store_key
 357              		.syntax unified
 358              		.code	16
 359              		.thumb_func
 361              	smtc_secure_element_derive_and_store_key:
 362              		@ args = 0, pretend = 0, frame = 16
 363              		@ frame_needed = 0, uses_anonymous_args = 0
 364 0000 7FB5     		push	{r0, r1, r2, r3, r4, r5, r6, lr}
 365 0002 0500     		movs	r5, r0
 366 0004 0E00     		movs	r6, r1
 367 0006 1400     		movs	r4, r2
 368 0008 0220     		movs	r0, #2
 369 000a 002D     		cmp	r5, #0
 370 000c 15D0     		beq	.L50
 371 000e 1022     		movs	r2, #16
 372 0010 0021     		movs	r1, #0
 373 0012 6846     		mov	r0, sp
 374 0014 FFF7FEFF 		bl	memset
 375 0018 7F2C     		cmp	r4, #127
 376 001a 02D1     		bne	.L51
 377 001c 0320     		movs	r0, #3
 378 001e 082E     		cmp	r6, #8
 379 0020 0BD1     		bne	.L50
 380              	.L51:
 381 0022 6B46     		mov	r3, sp
 382 0024 3200     		movs	r2, r6
 383 0026 1021     		movs	r1, #16
 384 0028 2800     		movs	r0, r5
 385 002a FFF7FEFF 		bl	smtc_secure_element_aes_encrypt
 386 002e 0028     		cmp	r0, #0
 387 0030 03D1     		bne	.L50
 388 0032 6946     		mov	r1, sp
 389 0034 2000     		movs	r0, r4
 390 0036 FFF7FEFF 		bl	smtc_secure_element_set_key.part.0
 391              	.L50:
 392 003a 04B0     		add	sp, sp, #16
 393              		@ sp needed
 394 003c 70BD     		pop	{r4, r5, r6, pc}
 396              		.section	.text.smtc_secure_element_process_join_accept,"ax",%progbits
 397              		.align	1
 398              		.global	smtc_secure_element_process_join_accept
 399              		.syntax unified
 400              		.code	16
 401              		.thumb_func
 403              	smtc_secure_element_process_join_accept:
 404              		@ args = 12, pretend = 0, frame = 0
 405              		@ frame_needed = 0, uses_anonymous_args = 0
 406 0000 F8B5     		push	{r3, r4, r5, r6, r7, lr}
 407 0002 1D00     		movs	r5, r3
ARM GAS  /tmp/ccW7IBLs.s 			page 8


 408 0004 06AB     		add	r3, sp, #24
 409 0006 1C78     		ldrb	r4, [r3]
 410 0008 079E     		ldr	r6, [sp, #28]
 411 000a 0223     		movs	r3, #2
 412 000c 002D     		cmp	r5, #0
 413 000e 39D0     		beq	.L55
 414 0010 002E     		cmp	r6, #0
 415 0012 37D0     		beq	.L55
 416 0014 089A     		ldr	r2, [sp, #32]
 417 0016 002A     		cmp	r2, #0
 418 0018 34D0     		beq	.L55
 419 001a 0333     		adds	r3, r3, #3
 420 001c 212C     		cmp	r4, #33
 421 001e 31D8     		bhi	.L55
 422 0020 0327     		movs	r7, #3
 423 0022 FF28     		cmp	r0, #255
 424 0024 00D1     		bne	.L56
 425 0026 023F     		subs	r7, r7, #2
 426              	.L56:
 427 0028 2200     		movs	r2, r4
 428 002a 2900     		movs	r1, r5
 429 002c 3000     		movs	r0, r6
 430 002e FFF7FEFF 		bl	memcpy
 431 0032 611E     		subs	r1, r4, #1
 432 0034 731C     		adds	r3, r6, #1
 433 0036 3A00     		movs	r2, r7
 434 0038 89B2     		uxth	r1, r1
 435 003a 681C     		adds	r0, r5, #1
 436 003c FFF7FEFF 		bl	smtc_secure_element_aes_encrypt
 437 0040 0723     		movs	r3, #7
 438 0042 0028     		cmp	r0, #0
 439 0044 1ED1     		bne	.L55
 440 0046 F27A     		ldrb	r2, [r6, #11]
 441 0048 DA40     		lsrs	r2, r2, r3
 442 004a 089B     		ldr	r3, [sp, #32]
 443 004c 1A70     		strb	r2, [r3]
 444 004e 0423     		movs	r3, #4
 445 0050 002A     		cmp	r2, #0
 446 0052 17D1     		bne	.L55
 447 0054 3219     		adds	r2, r6, r4
 448 0056 931E     		subs	r3, r2, #2
 449 0058 511E     		subs	r1, r2, #1
 450 005a 1B78     		ldrb	r3, [r3]
 451 005c 0978     		ldrb	r1, [r1]
 452 005e 1B04     		lsls	r3, r3, #16
 453 0060 0906     		lsls	r1, r1, #24
 454 0062 0B43     		orrs	r3, r1
 455 0064 111F     		subs	r1, r2, #4
 456 0066 033A     		subs	r2, r2, #3
 457 0068 0978     		ldrb	r1, [r1]
 458 006a 1278     		ldrb	r2, [r2]
 459 006c 0B43     		orrs	r3, r1
 460 006e 1202     		lsls	r2, r2, #8
 461 0070 043C     		subs	r4, r4, #4
 462 0072 1A43     		orrs	r2, r3
 463 0074 3000     		movs	r0, r6
 464 0076 0123     		movs	r3, #1
ARM GAS  /tmp/ccW7IBLs.s 			page 9


 465 0078 A1B2     		uxth	r1, r4
 466 007a FFF7FEFF 		bl	smtc_secure_element_verify_aes_cmac
 467 007e 431E     		subs	r3, r0, #1
 468 0080 9841     		sbcs	r0, r0, r3
 469 0082 C3B2     		uxtb	r3, r0
 470              	.L55:
 471 0084 1800     		movs	r0, r3
 472              		@ sp needed
 473 0086 F8BD     		pop	{r3, r4, r5, r6, r7, pc}
 475              		.section	.text.smtc_secure_element_set_deveui,"ax",%progbits
 476              		.align	1
 477              		.global	smtc_secure_element_set_deveui
 478              		.syntax unified
 479              		.code	16
 480              		.thumb_func
 482              	smtc_secure_element_set_deveui:
 483              		@ args = 0, pretend = 0, frame = 0
 484              		@ frame_needed = 0, uses_anonymous_args = 0
 485 0000 0100     		movs	r1, r0
 486 0002 10B5     		push	{r4, lr}
 487 0004 0220     		movs	r0, #2
 488 0006 0029     		cmp	r1, #0
 489 0008 04D0     		beq	.L65
 490 000a 0822     		movs	r2, #8
 491 000c 0248     		ldr	r0, .L67
 492 000e FFF7FEFF 		bl	memcpy
 493 0012 0020     		movs	r0, #0
 494              	.L65:
 495              		@ sp needed
 496 0014 10BD     		pop	{r4, pc}
 497              	.L68:
 498 0016 C046     		.align	2
 499              	.L67:
 500 0018 00000000 		.word	soft_se_data
 502              		.section	.text.smtc_secure_element_get_deveui,"ax",%progbits
 503              		.align	1
 504              		.global	smtc_secure_element_get_deveui
 505              		.syntax unified
 506              		.code	16
 507              		.thumb_func
 509              	smtc_secure_element_get_deveui:
 510              		@ args = 0, pretend = 0, frame = 0
 511              		@ frame_needed = 0, uses_anonymous_args = 0
 512 0000 0223     		movs	r3, #2
 513 0002 10B5     		push	{r4, lr}
 514 0004 0028     		cmp	r0, #0
 515 0006 04D0     		beq	.L70
 516 0008 0822     		movs	r2, #8
 517 000a 0349     		ldr	r1, .L72
 518 000c FFF7FEFF 		bl	memcpy
 519 0010 0023     		movs	r3, #0
 520              	.L70:
 521              		@ sp needed
 522 0012 1800     		movs	r0, r3
 523 0014 10BD     		pop	{r4, pc}
 524              	.L73:
 525 0016 C046     		.align	2
ARM GAS  /tmp/ccW7IBLs.s 			page 10


 526              	.L72:
 527 0018 00000000 		.word	soft_se_data
 529              		.section	.text.smtc_secure_element_set_joineui,"ax",%progbits
 530              		.align	1
 531              		.global	smtc_secure_element_set_joineui
 532              		.syntax unified
 533              		.code	16
 534              		.thumb_func
 536              	smtc_secure_element_set_joineui:
 537              		@ args = 0, pretend = 0, frame = 0
 538              		@ frame_needed = 0, uses_anonymous_args = 0
 539 0000 0100     		movs	r1, r0
 540 0002 10B5     		push	{r4, lr}
 541 0004 0220     		movs	r0, #2
 542 0006 0029     		cmp	r1, #0
 543 0008 04D0     		beq	.L75
 544 000a 0822     		movs	r2, #8
 545 000c 0248     		ldr	r0, .L77
 546 000e FFF7FEFF 		bl	memcpy
 547 0012 0020     		movs	r0, #0
 548              	.L75:
 549              		@ sp needed
 550 0014 10BD     		pop	{r4, pc}
 551              	.L78:
 552 0016 C046     		.align	2
 553              	.L77:
 554 0018 08000000 		.word	soft_se_data+8
 556              		.section	.text.smtc_secure_element_get_joineui,"ax",%progbits
 557              		.align	1
 558              		.global	smtc_secure_element_get_joineui
 559              		.syntax unified
 560              		.code	16
 561              		.thumb_func
 563              	smtc_secure_element_get_joineui:
 564              		@ args = 0, pretend = 0, frame = 0
 565              		@ frame_needed = 0, uses_anonymous_args = 0
 566 0000 0223     		movs	r3, #2
 567 0002 10B5     		push	{r4, lr}
 568 0004 0028     		cmp	r0, #0
 569 0006 04D0     		beq	.L80
 570 0008 0822     		movs	r2, #8
 571 000a 0349     		ldr	r1, .L82
 572 000c FFF7FEFF 		bl	memcpy
 573 0010 0023     		movs	r3, #0
 574              	.L80:
 575              		@ sp needed
 576 0012 1800     		movs	r0, r3
 577 0014 10BD     		pop	{r4, pc}
 578              	.L83:
 579 0016 C046     		.align	2
 580              	.L82:
 581 0018 08000000 		.word	soft_se_data+8
 583              		.section	.text.smtc_secure_element_set_pin,"ax",%progbits
 584              		.align	1
 585              		.global	smtc_secure_element_set_pin
 586              		.syntax unified
 587              		.code	16
ARM GAS  /tmp/ccW7IBLs.s 			page 11


 588              		.thumb_func
 590              	smtc_secure_element_set_pin:
 591              		@ args = 0, pretend = 0, frame = 0
 592              		@ frame_needed = 0, uses_anonymous_args = 0
 593 0000 0100     		movs	r1, r0
 594 0002 10B5     		push	{r4, lr}
 595 0004 0220     		movs	r0, #2
 596 0006 0029     		cmp	r1, #0
 597 0008 04D0     		beq	.L85
 598 000a 0422     		movs	r2, #4
 599 000c 0248     		ldr	r0, .L87
 600 000e FFF7FEFF 		bl	memcpy
 601 0012 0020     		movs	r0, #0
 602              	.L85:
 603              		@ sp needed
 604 0014 10BD     		pop	{r4, pc}
 605              	.L88:
 606 0016 C046     		.align	2
 607              	.L87:
 608 0018 10000000 		.word	soft_se_data+16
 610              		.section	.text.smtc_secure_element_get_pin,"ax",%progbits
 611              		.align	1
 612              		.global	smtc_secure_element_get_pin
 613              		.syntax unified
 614              		.code	16
 615              		.thumb_func
 617              	smtc_secure_element_get_pin:
 618              		@ args = 0, pretend = 0, frame = 0
 619              		@ frame_needed = 0, uses_anonymous_args = 0
 620 0000 0223     		movs	r3, #2
 621 0002 10B5     		push	{r4, lr}
 622 0004 0028     		cmp	r0, #0
 623 0006 04D0     		beq	.L90
 624 0008 0822     		movs	r2, #8
 625 000a 0349     		ldr	r1, .L92
 626 000c FFF7FEFF 		bl	memcpy
 627 0010 0023     		movs	r3, #0
 628              	.L90:
 629              		@ sp needed
 630 0012 1800     		movs	r0, r3
 631 0014 10BD     		pop	{r4, pc}
 632              	.L93:
 633 0016 C046     		.align	2
 634              	.L92:
 635 0018 10000000 		.word	soft_se_data+16
 637              		.section	.text.soft_ce_crc,"ax",%progbits
 638              		.align	1
 639              		.global	soft_ce_crc
 640              		.syntax unified
 641              		.code	16
 642              		.thumb_func
 644              	soft_ce_crc:
 645              		@ args = 0, pretend = 0, frame = 0
 646              		@ frame_needed = 0, uses_anonymous_args = 0
 647 0000 0123     		movs	r3, #1
 648 0002 F0B5     		push	{r4, r5, r6, r7, lr}
 649 0004 0200     		movs	r2, r0
ARM GAS  /tmp/ccW7IBLs.s 			page 12


 650 0006 0125     		movs	r5, #1
 651 0008 0A4E     		ldr	r6, .L99
 652 000a 5B42     		rsbs	r3, r3, #0
 653 000c 4118     		adds	r1, r0, r1
 654              	.L95:
 655 000e 881A     		subs	r0, r1, r2
 656 0010 0028     		cmp	r0, #0
 657 0012 01DC     		bgt	.L97
 658              		@ sp needed
 659 0014 D843     		mvns	r0, r3
 660 0016 F0BD     		pop	{r4, r5, r6, r7, pc}
 661              	.L97:
 662 0018 0824     		movs	r4, #8
 663 001a 1078     		ldrb	r0, [r2]
 664 001c 4340     		eors	r3, r0
 665              	.L96:
 666 001e 5F08     		lsrs	r7, r3, #1
 667 0020 2B40     		ands	r3, r5
 668 0022 5B42     		rsbs	r3, r3, #0
 669 0024 3340     		ands	r3, r6
 670 0026 013C     		subs	r4, r4, #1
 671 0028 7B40     		eors	r3, r7
 672 002a 002C     		cmp	r4, #0
 673 002c F7D1     		bne	.L96
 674 002e 0132     		adds	r2, r2, #1
 675 0030 EDE7     		b	.L95
 676              	.L100:
 677 0032 C046     		.align	2
 678              	.L99:
 679 0034 2083B8ED 		.word	-306674912
 681              		.section	.rodata.smtc_secure_element_restore_context.str1.1,"aMS",%progbits,1
 682              	.LC17:
 683 0000 1B5B303B 		.ascii	"\033[0;31mERROR: Restore of Secure Element context "
 683      33316D45 
 683      52524F52 
 683      3A205265 
 683      73746F72 
 684 0030 6661696C 		.ascii	"fails => Return to init values\012\000"
 684      73203D3E 
 684      20526574 
 684      75726E20 
 684      746F2069 
 685              		.section	.text.smtc_secure_element_restore_context,"ax",%progbits
 686              		.align	1
 687              		.global	smtc_secure_element_restore_context
 688              		.syntax unified
 689              		.code	16
 690              		.thumb_func
 692              	smtc_secure_element_restore_context:
 693              		@ args = 0, pretend = 0, frame = 832
 694              		@ frame_needed = 0, uses_anonymous_args = 0
 695 0000 10B5     		push	{r4, lr}
 696 0002 1A4C     		ldr	r4, .L104
 697 0004 D022     		movs	r2, #208
 698 0006 A544     		add	sp, sp, r4
 699 0008 CE24     		movs	r4, #206
 700 000a 5200     		lsls	r2, r2, #1
ARM GAS  /tmp/ccW7IBLs.s 			page 13


 701 000c 6400     		lsls	r4, r4, #1
 702 000e 0320     		movs	r0, #3
 703 0010 68A9     		add	r1, sp, #416
 704 0012 FFF7FEFF 		bl	smtc_modem_hal_context_restore
 705 0016 2100     		movs	r1, r4
 706 0018 68A8     		add	r0, sp, #416
 707 001a FFF7FEFF 		bl	soft_ce_crc
 708 001e D022     		movs	r2, #208
 709 0020 6B46     		mov	r3, sp
 710 0022 5200     		lsls	r2, r2, #1
 711 0024 9B18     		adds	r3, r3, r2
 712 0026 1B59     		ldr	r3, [r3, r4]
 713 0028 114C     		ldr	r4, .L104+4
 714 002a 9842     		cmp	r0, r3
 715 002c 0AD1     		bne	.L102
 716 002e 9C22     		movs	r2, #156
 717 0030 2000     		movs	r0, r4
 718 0032 FF32     		adds	r2, r2, #255
 719 0034 68A9     		add	r1, sp, #416
 720 0036 FFF7FEFF 		bl	memcpy
 721 003a 0020     		movs	r0, #0
 722              	.L103:
 723 003c D023     		movs	r3, #208
 724 003e 9B00     		lsls	r3, r3, #2
 725 0040 9D44     		add	sp, sp, r3
 726              		@ sp needed
 727 0042 10BD     		pop	{r4, pc}
 728              	.L102:
 729 0044 0B48     		ldr	r0, .L104+8
 730 0046 FFF7FEFF 		bl	smtc_modem_hal_print_trace
 731 004a 0B48     		ldr	r0, .L104+12
 732 004c FFF7FEFF 		bl	smtc_modem_hal_print_trace
 733 0050 9C22     		movs	r2, #156
 734 0052 0A49     		ldr	r1, .L104+16
 735 0054 FF32     		adds	r2, r2, #255
 736 0056 01A8     		add	r0, sp, #4
 737 0058 FFF7FEFF 		bl	memcpy
 738 005c 9C22     		movs	r2, #156
 739 005e 2000     		movs	r0, r4
 740 0060 FF32     		adds	r2, r2, #255
 741 0062 01A9     		add	r1, sp, #4
 742 0064 FFF7FEFF 		bl	memcpy
 743 0068 0620     		movs	r0, #6
 744 006a E7E7     		b	.L103
 745              	.L105:
 746              		.align	2
 747              	.L104:
 748 006c C0FCFFFF 		.word	-832
 749 0070 00000000 		.word	soft_se_data
 750 0074 00000000 		.word	.LC17
 751 0078 48000000 		.word	.LC6
 752 007c 00000000 		.word	.LC0
 754              		.section	.text.smtc_secure_element_store_context,"ax",%progbits
 755              		.align	1
 756              		.global	smtc_secure_element_store_context
 757              		.syntax unified
 758              		.code	16
ARM GAS  /tmp/ccW7IBLs.s 			page 14


 759              		.thumb_func
 761              	smtc_secure_element_store_context:
 762              		@ args = 0, pretend = 0, frame = 416
 763              		@ frame_needed = 0, uses_anonymous_args = 0
 764 0000 30B5     		push	{r4, r5, lr}
 765 0002 D024     		movs	r4, #208
 766 0004 E9B0     		sub	sp, sp, #420
 767 0006 6400     		lsls	r4, r4, #1
 768 0008 2200     		movs	r2, r4
 769 000a 0021     		movs	r1, #0
 770 000c 6846     		mov	r0, sp
 771 000e FFF7FEFF 		bl	memset
 772 0012 CE25     		movs	r5, #206
 773 0014 9C22     		movs	r2, #156
 774 0016 6D00     		lsls	r5, r5, #1
 775 0018 FF32     		adds	r2, r2, #255
 776 001a 6846     		mov	r0, sp
 777 001c 0949     		ldr	r1, .L107
 778 001e FFF7FEFF 		bl	memcpy
 779 0022 2900     		movs	r1, r5
 780 0024 6846     		mov	r0, sp
 781 0026 FFF7FEFF 		bl	soft_ce_crc
 782 002a 6B46     		mov	r3, sp
 783 002c 2200     		movs	r2, r4
 784 002e 5851     		str	r0, [r3, r5]
 785 0030 6946     		mov	r1, sp
 786 0032 0320     		movs	r0, #3
 787 0034 FFF7FEFF 		bl	smtc_modem_hal_context_store
 788 0038 FFF7FEFF 		bl	smtc_secure_element_restore_context
 789 003c 0020     		movs	r0, #0
 790 003e 69B0     		add	sp, sp, #420
 791              		@ sp needed
 792 0040 30BD     		pop	{r4, r5, pc}
 793              	.L108:
 794 0042 C046     		.align	2
 795              	.L107:
 796 0044 00000000 		.word	soft_se_data
 798              		.section	.bss.soft_se_data,"aw",%nobits
 799              		.align	2
 802              	soft_se_data:
 803 0000 00000000 		.space	411
 803      00000000 
 803      00000000 
 803      00000000 
 803      00000000 
 804              		.section	.rodata
 805              	.LC0:
 806 0000 00000000 		.ascii	"\000\000\000\000\000\000\000\000"
 806      00000000 
 807 0008 00000000 		.ascii	"\000\000\000\000\000\000\000\000"
 807      00000000 
 808 0010 00000000 		.ascii	"\000\000\000\000"
 809 0014 00       		.byte	0
 810 0015 00000000 		.ascii	"\000\000\000\000\000\000\000\000\000\000\000\000\000"
 810      00000000 
 810      00000000 
 810      00
ARM GAS  /tmp/ccW7IBLs.s 			page 15


 811 0022 000000   		.ascii	"\000\000\000"
 812 0025 01       		.byte	1
 813 0026 00000000 		.ascii	"\000\000\000\000\000\000\000\000\000\000\000\000\000"
 813      00000000 
 813      00000000 
 813      00
 814 0033 000000   		.ascii	"\000\000\000"
 815 0036 02       		.byte	2
 816 0037 00000000 		.ascii	"\000\000\000\000\000\000\000\000\000\000\000\000\000"
 816      00000000 
 816      00000000 
 816      00
 817 0044 000000   		.ascii	"\000\000\000"
 818 0047 03       		.byte	3
 819 0048 00000000 		.ascii	"\000\000\000\000\000\000\000\000\000\000\000\000\000"
 819      00000000 
 819      00000000 
 819      00
 820 0055 000000   		.ascii	"\000\000\000"
 821 0058 04       		.byte	4
 822 0059 00000000 		.ascii	"\000\000\000\000\000\000\000\000\000\000\000\000\000"
 822      00000000 
 822      00000000 
 822      00
 823 0066 000000   		.ascii	"\000\000\000"
 824 0069 05       		.byte	5
 825 006a 00000000 		.ascii	"\000\000\000\000\000\000\000\000\000\000\000\000\000"
 825      00000000 
 825      00000000 
 825      00
 826 0077 000000   		.ascii	"\000\000\000"
 827 007a 06       		.byte	6
 828 007b 00000000 		.ascii	"\000\000\000\000\000\000\000\000\000\000\000\000\000"
 828      00000000 
 828      00000000 
 828      00
 829 0088 000000   		.ascii	"\000\000\000"
 830 008b 07       		.byte	7
 831 008c 00000000 		.ascii	"\000\000\000\000\000\000\000\000\000\000\000\000\000"
 831      00000000 
 831      00000000 
 831      00
 832 0099 000000   		.ascii	"\000\000\000"
 833 009c 08       		.byte	8
 834 009d 00000000 		.ascii	"\000\000\000\000\000\000\000\000\000\000\000\000\000"
 834      00000000 
 834      00000000 
 834      00
 835 00aa 000000   		.ascii	"\000\000\000"
 836 00ad 7F       		.byte	127
 837 00ae 00000000 		.ascii	"\000\000\000\000\000\000\000\000\000\000\000\000\000"
 837      00000000 
 837      00000000 
 837      00
 838 00bb 000000   		.ascii	"\000\000\000"
 839 00be 80       		.byte	-128
 840 00bf 00000000 		.ascii	"\000\000\000\000\000\000\000\000\000\000\000\000\000"
ARM GAS  /tmp/ccW7IBLs.s 			page 16


 840      00000000 
 840      00000000 
 840      00
 841 00cc 000000   		.ascii	"\000\000\000"
 842 00cf 81       		.byte	-127
 843 00d0 00000000 		.ascii	"\000\000\000\000\000\000\000\000\000\000\000\000\000"
 843      00000000 
 843      00000000 
 843      00
 844 00dd 000000   		.ascii	"\000\000\000"
 845 00e0 82       		.byte	-126
 846 00e1 00000000 		.ascii	"\000\000\000\000\000\000\000\000\000\000\000\000\000"
 846      00000000 
 846      00000000 
 846      00
 847 00ee 000000   		.ascii	"\000\000\000"
 848 00f1 83       		.byte	-125
 849 00f2 00000000 		.ascii	"\000\000\000\000\000\000\000\000\000\000\000\000\000"
 849      00000000 
 849      00000000 
 849      00
 850 00ff 000000   		.ascii	"\000\000\000"
 851 0102 84       		.byte	-124
 852 0103 00000000 		.ascii	"\000\000\000\000\000\000\000\000\000\000\000\000\000"
 852      00000000 
 852      00000000 
 852      00
 853 0110 000000   		.ascii	"\000\000\000"
 854 0113 85       		.byte	-123
 855 0114 00000000 		.ascii	"\000\000\000\000\000\000\000\000\000\000\000\000\000"
 855      00000000 
 855      00000000 
 855      00
 856 0121 000000   		.ascii	"\000\000\000"
 857 0124 86       		.byte	-122
 858 0125 00000000 		.ascii	"\000\000\000\000\000\000\000\000\000\000\000\000\000"
 858      00000000 
 858      00000000 
 858      00
 859 0132 000000   		.ascii	"\000\000\000"
 860 0135 87       		.byte	-121
 861 0136 00000000 		.ascii	"\000\000\000\000\000\000\000\000\000\000\000\000\000"
 861      00000000 
 861      00000000 
 861      00
 862 0143 000000   		.ascii	"\000\000\000"
 863 0146 88       		.byte	-120
 864 0147 00000000 		.ascii	"\000\000\000\000\000\000\000\000\000\000\000\000\000"
 864      00000000 
 864      00000000 
 864      00
 865 0154 000000   		.ascii	"\000\000\000"
 866 0157 89       		.byte	-119
 867 0158 00000000 		.ascii	"\000\000\000\000\000\000\000\000\000\000\000\000\000"
 867      00000000 
 867      00000000 
 867      00
ARM GAS  /tmp/ccW7IBLs.s 			page 17


 868 0165 000000   		.ascii	"\000\000\000"
 869 0168 8A       		.byte	-118
 870 0169 00000000 		.ascii	"\000\000\000\000\000\000\000\000\000\000\000\000\000"
 870      00000000 
 870      00000000 
 870      00
 871 0176 000000   		.ascii	"\000\000\000"
 872 0179 8B       		.byte	-117
 873 017a 00000000 		.ascii	"\000\000\000\000\000\000\000\000\000\000\000\000\000"
 873      00000000 
 873      00000000 
 873      00
 874 0187 000000   		.ascii	"\000\000\000"
 875 018a 8C       		.byte	-116
 876 018b 00000000 		.ascii	"\000\000\000\000\000\000\000\000\000\000\000\000\000"
 876      00000000 
 876      00000000 
 876      00
 877 0198 000000   		.ascii	"\000\000\000"
 878              		.ident	"GCC: (Arch Repository) 13.2.0"
ARM GAS  /tmp/ccW7IBLs.s 			page 18

