ARM GAS  /tmp/ccoeK5EM.s 			page 1


   1              		.cpu cortex-m0
   2              		.arch armv6s-m
   3              		.fpu softvfp
   4              		.eabi_attribute 23, 1
   5              		.eabi_attribute 24, 1
   6              		.eabi_attribute 25, 1
   7              		.eabi_attribute 26, 1
   8              		.eabi_attribute 30, 4
   9              		.eabi_attribute 34, 0
  10              		.eabi_attribute 18, 4
  11              		.file	"led.c"
  12              		.text
  13              		.section	.text.led_set,"ax",%progbits
  14              		.align	1
  15              		.global	led_set
  16              		.syntax unified
  17              		.code	16
  18              		.thumb_func
  20              	led_set:
  21              		@ args = 0, pretend = 0, frame = 0
  22              		@ frame_needed = 0, uses_anonymous_args = 0
  23 0000 70B5     		push	{r4, r5, r6, lr}
  24 0002 0400     		movs	r4, r0
  25 0004 0020     		movs	r0, #0
  26 0006 6378     		ldrb	r3, [r4, #1]
  27 0008 0D00     		movs	r5, r1
  28 000a 2056     		ldrsb	r0, [r4, r0]
  29 000c 002B     		cmp	r3, #0
  30 000e 01D1     		bne	.L3
  31 0010 0121     		movs	r1, #1
  32 0012 6940     		eors	r1, r5
  33              	.L3:
  34 0014 FFF7FEFF 		bl	hal_gpio_set_value
  35              		@ sp needed
  36 0018 A570     		strb	r5, [r4, #2]
  37 001a 70BD     		pop	{r4, r5, r6, pc}
  39              		.section	.text.led_init,"ax",%progbits
  40              		.align	1
  41              		.global	led_init
  42              		.syntax unified
  43              		.code	16
  44              		.thumb_func
  46              	led_init:
  47              		@ args = 0, pretend = 0, frame = 0
  48              		@ frame_needed = 0, uses_anonymous_args = 0
  49 0000 10B5     		push	{r4, lr}
  50 0002 0400     		movs	r4, r0
  51              		@ sp needed
  52 0004 0800     		movs	r0, r1
  53 0006 2170     		strb	r1, [r4]
  54 0008 0121     		movs	r1, #1
  55 000a 6270     		strb	r2, [r4, #1]
  56 000c 5140     		eors	r1, r2
  57 000e FFF7FEFF 		bl	hal_gpio_init_out
  58 0012 0021     		movs	r1, #0
  59 0014 2000     		movs	r0, r4
  60 0016 FFF7FEFF 		bl	led_set
ARM GAS  /tmp/ccoeK5EM.s 			page 2


  61 001a 10BD     		pop	{r4, pc}
  63              		.section	.text.led_toggle,"ax",%progbits
  64              		.align	1
  65              		.global	led_toggle
  66              		.syntax unified
  67              		.code	16
  68              		.thumb_func
  70              	led_toggle:
  71              		@ args = 0, pretend = 0, frame = 0
  72              		@ frame_needed = 0, uses_anonymous_args = 0
  73 0000 0121     		movs	r1, #1
  74 0002 10B5     		push	{r4, lr}
  75 0004 8378     		ldrb	r3, [r0, #2]
  76              		@ sp needed
  77 0006 5940     		eors	r1, r3
  78 0008 FFF7FEFF 		bl	led_set
  79 000c 10BD     		pop	{r4, pc}
  81              		.section	.text.blink_timer_cb,"ax",%progbits
  82              		.align	1
  83              		.syntax unified
  84              		.code	16
  85              		.thumb_func
  87              	blink_timer_cb:
  88              		@ args = 0, pretend = 0, frame = 0
  89              		@ frame_needed = 0, uses_anonymous_args = 0
  90 0000 4368     		ldr	r3, [r0, #4]
  91 0002 10B5     		push	{r4, lr}
  92 0004 0400     		movs	r4, r0
  93 0006 002B     		cmp	r3, #0
  94 0008 03DC     		bgt	.L7
  95 000a 0021     		movs	r1, #0
  96 000c FFF7FEFF 		bl	led_set
  97              	.L6:
  98              		@ sp needed
  99 0010 10BD     		pop	{r4, pc}
 100              	.L7:
 101 0012 8268     		ldr	r2, [r0, #8]
 102 0014 9B1A     		subs	r3, r3, r2
 103 0016 4360     		str	r3, [r0, #4]
 104 0018 FFF7FEFF 		bl	led_toggle
 105 001c 2000     		movs	r0, r4
 106 001e 0C30     		adds	r0, r0, #12
 107 0020 FFF7FEFF 		bl	TimerStart
 108 0024 F4E7     		b	.L6
 110              		.section	.text.led_blink,"ax",%progbits
 111              		.align	1
 112              		.global	led_blink
 113              		.syntax unified
 114              		.code	16
 115              		.thumb_func
 117              	led_blink:
 118              		@ args = 0, pretend = 0, frame = 0
 119              		@ frame_needed = 0, uses_anonymous_args = 0
 120 0000 70B5     		push	{r4, r5, r6, lr}
 121 0002 0600     		movs	r6, r0
 122              		@ sp needed
 123 0004 0D00     		movs	r5, r1
ARM GAS  /tmp/ccoeK5EM.s 			page 3


 124 0006 0400     		movs	r4, r0
 125 0008 0C36     		adds	r6, r6, #12
 126 000a 4260     		str	r2, [r0, #4]
 127 000c 8160     		str	r1, [r0, #8]
 128 000e 3000     		movs	r0, r6
 129 0010 0949     		ldr	r1, .L10
 130 0012 FFF7FEFF 		bl	TimerInit
 131 0016 2900     		movs	r1, r5
 132 0018 3000     		movs	r0, r6
 133 001a FFF7FEFF 		bl	TimerSetValue
 134 001e 3000     		movs	r0, r6
 135 0020 2100     		movs	r1, r4
 136 0022 FFF7FEFF 		bl	TimerSetContext
 137 0026 0121     		movs	r1, #1
 138 0028 2000     		movs	r0, r4
 139 002a FFF7FEFF 		bl	led_set
 140 002e 2000     		movs	r0, r4
 141 0030 FFF7FEFF 		bl	blink_timer_cb
 142 0034 70BD     		pop	{r4, r5, r6, pc}
 143              	.L11:
 144 0036 C046     		.align	2
 145              	.L10:
 146 0038 00000000 		.word	blink_timer_cb
 148              		.ident	"GCC: (Arch Repository) 13.2.0"
ARM GAS  /tmp/ccoeK5EM.s 			page 4

