ARM GAS  /tmp/ccpnZT0c.s 			page 1


   1              		.cpu cortex-m0
   2              		.arch armv6s-m
   3              		.fpu softvfp
   4              		.eabi_attribute 23, 1
   5              		.eabi_attribute 24, 1
   6              		.eabi_attribute 25, 1
   7              		.eabi_attribute 26, 1
   8              		.eabi_attribute 30, 4
   9              		.eabi_attribute 34, 0
  10              		.eabi_attribute 18, 4
  11              		.file	"main.c"
  12              		.text
  13              		.section	.rodata.periodic_timer_cb.str1.1,"aMS",%progbits,1
  14              	.LC0:
  15 0000 70657269 		.ascii	"periodic_timer_cb\012\015\000"
  15      6F646963 
  15      5F74696D 
  15      65725F63 
  15      620A0D00 
  16              		.section	.text.periodic_timer_cb,"ax",%progbits
  17              		.align	1
  18              		.syntax unified
  19              		.code	16
  20              		.thumb_func
  22              	periodic_timer_cb:
  23              		@ args = 0, pretend = 0, frame = 0
  24              		@ frame_needed = 0, uses_anonymous_args = 0
  25 0000 10B5     		push	{r4, lr}
  26 0002 0548     		ldr	r0, .L2
  27 0004 FFF7FEFF 		bl	hal_trace_print_var
  28              		@ sp needed
  29 0008 0122     		movs	r2, #1
  30 000a 044B     		ldr	r3, .L2+4
  31 000c 0448     		ldr	r0, .L2+8
  32 000e 1A70     		strb	r2, [r3]
  33 0010 FFF7FEFF 		bl	TimerStart
  34 0014 10BD     		pop	{r4, pc}
  35              	.L3:
  36 0016 C046     		.align	2
  37              	.L2:
  38 0018 00000000 		.word	.LC0
  39 001c 00000000 		.word	periodic_message_flag
  40 0020 00000000 		.word	periodic_timer
  42              		.section	.rodata.get_event.str1.1,"aMS",%progbits,1
  43              	.LC4:
  44 0000 494E464F 		.ascii	"INFO: Event received: RESET\012\015\000"
  44      3A204576 
  44      656E7420 
  44      72656365 
  44      69766564 
  45              	.LC6:
  46 001e 00       		.ascii	"\000"
  47              	.LC11:
  48 001f 494E464F 		.ascii	"INFO: Event received: ALARM\012\015\000"
  48      3A204576 
  48      656E7420 
  48      72656365 
ARM GAS  /tmp/ccpnZT0c.s 			page 2


  48      69766564 
  49              	.LC13:
  50 003d 494E464F 		.ascii	"INFO: Event received: JOINED\012\015\000"
  50      3A204576 
  50      656E7420 
  50      72656365 
  50      69766564 
  51              	.LC15:
  52 005c 494E464F 		.ascii	"INFO: Modem is now joined \012\015\000"
  52      3A204D6F 
  52      64656D20 
  52      6973206E 
  52      6F77206A 
  53              	.LC17:
  54 0079 494E464F 		.ascii	"INFO: Send hello_world message \012\015\000"
  54      3A205365 
  54      6E642068 
  54      656C6C6F 
  54      5F776F72 
  55              	.LC22:
  56 009b 2D2D2D2D 		.ascii	"------------<sending first data>------------\012\015"
  56      2D2D2D2D 
  56      2D2D2D2D 
  56      3C73656E 
  56      64696E67 
  57 00c9 00       		.ascii	"\000"
  58              	.LC28:
  59 00ca 494E464F 		.ascii	"INFO: Event received: TXDONE\012\015\000"
  59      3A204576 
  59      656E7420 
  59      72656365 
  59      69766564 
  60              	.LC30:
  61 00e9 494E464F 		.ascii	"INFO: Transmission done \012\015\000"
  61      3A205472 
  61      616E736D 
  61      69737369 
  61      6F6E2064 
  62              	.LC32:
  63 0104 494E464F 		.ascii	"INFO: Event received: DOWNDATA\012\015\000"
  63      3A204576 
  63      656E7420 
  63      72656365 
  63      69766564 
  64              	.LC36:
  65 0125 44617461 		.ascii	"Data received on port %u \012\015\000"
  65      20726563 
  65      65697665 
  65      64206F6E 
  65      20706F72 
  66              	.LC38:
  67 0141 52656365 		.ascii	"Received payload \012\015\000"
  67      69766564 
  67      20706179 
  67      6C6F6164 
  67      200A0D00 
  68              	.LC40:
ARM GAS  /tmp/ccpnZT0c.s 			page 3


  69 0155 2573202D 		.ascii	"%s - (%lu bytes):\012\015\000"
  69      2028256C 
  69      75206279 
  69      74657329 
  69      3A0A0D00 
  70              	.LC42:
  71 0169 0A0D00   		.ascii	"\012\015\000"
  72              	.LC44:
  73 016c 20253032 		.ascii	" %02X\000"
  73      5800
  74              	.LC46:
  75 0172 494E464F 		.ascii	"INFO: Event received: UPLOADDONE\012\015\000"
  75      3A204576 
  75      656E7420 
  75      72656365 
  75      69766564 
  76              	.LC48:
  77 0195 494E464F 		.ascii	"INFO: Event received: SETCONF\012\015\000"
  77      3A204576 
  77      656E7420 
  77      72656365 
  77      69766564 
  78              	.LC50:
  79 01b5 494E464F 		.ascii	"INFO: Event received: MUTE\012\015\000"
  79      3A204576 
  79      656E7420 
  79      72656365 
  79      69766564 
  80              	.LC52:
  81 01d2 494E464F 		.ascii	"INFO: Event received: STREAMDONE\012\015\000"
  81      3A204576 
  81      656E7420 
  81      72656365 
  81      69766564 
  82              	.LC54:
  83 01f5 494E464F 		.ascii	"INFO: Event received: JOINFAIL\012\015\000"
  83      3A204576 
  83      656E7420 
  83      72656365 
  83      69766564 
  84              	.LC56:
  85 0216 5741524E 		.ascii	"WARN: Join request failed \012\015\000"
  85      3A204A6F 
  85      696E2072 
  85      65717565 
  85      73742066 
  86              	.LC58:
  87 0233 494E464F 		.ascii	"INFO: Event received: TIME\012\015\000"
  87      3A204576 
  87      656E7420 
  87      72656365 
  87      69766564 
  88              	.LC60:
  89 0250 494E464F 		.ascii	"INFO: Event received: TIMEOUT_ADR_CHANGED\012\015\000"
  89      3A204576 
  89      656E7420 
  89      72656365 
ARM GAS  /tmp/ccpnZT0c.s 			page 4


  89      69766564 
  90              	.LC62:
  91 027c 494E464F 		.ascii	"INFO: Event received: NEW_LINK_ADR\012\015\000"
  91      3A204576 
  91      656E7420 
  91      72656365 
  91      69766564 
  92              	.LC64:
  93 02a1 494E464F 		.ascii	"INFO: Event received: LINK_CHECK\012\015\000"
  93      3A204576 
  93      656E7420 
  93      72656365 
  93      69766564 
  94              	.LC66:
  95 02c4 494E464F 		.ascii	"INFO: Link check successfull\012\015\000"
  95      3A204C69 
  95      6E6B2063 
  95      6865636B 
  95      20737563 
  96              	.LC69:
  97 02e3 494E464F 		.ascii	"INFO: Link check failed\012\000"
  97      3A204C69 
  97      6E6B2063 
  97      6865636B 
  97      20666169 
  98              	.LC71:
  99 02fc 494E464F 		.ascii	"INFO: Link check failed %d times, rejoin network\012"
  99      3A204C69 
  99      6E6B2063 
  99      6865636B 
  99      20666169 
 100 032d 0D00     		.ascii	"\015\000"
 101              	.LC73:
 102 032f 494E464F 		.ascii	"INFO: Event received: ALMANAC_UPDATE\012\015\000"
 102      3A204576 
 102      656E7420 
 102      72656365 
 102      69766564 
 103              	.LC75:
 104 0356 494E464F 		.ascii	"INFO: Event received: USER_RADIO_ACCESS\012\015\000"
 104      3A204576 
 104      656E7420 
 104      72656365 
 104      69766564 
 105              	.LC77:
 106 0380 494E464F 		.ascii	"INFO: Event received: CLASS_B_PING_SLOT_INFO\012\015"
 106      3A204576 
 106      656E7420 
 106      72656365 
 106      69766564 
 107 03ae 00       		.ascii	"\000"
 108              	.LC79:
 109 03af 494E464F 		.ascii	"INFO: Event received: CLASS_B_STATUS\012\015\000"
 109      3A204576 
 109      656E7420 
 109      72656365 
 109      69766564 
ARM GAS  /tmp/ccpnZT0c.s 			page 5


 110              	.LC81:
 111 03d6 4552524F 		.ascii	"ERROR: Unknown event %u\012\015\000"
 111      523A2055 
 111      6E6B6E6F 
 111      776E2065 
 111      76656E74 
 112              	.LC19:
 113 03f0 68656C6C 		.ascii	"hello_world\000"
 113      6F5F776F 
 113      726C6400 
 114              		.section	.text.get_event,"ax",%progbits
 115              		.align	1
 116              		.syntax unified
 117              		.code	16
 118              		.thumb_func
 120              	get_event:
 121              		@ args = 0, pretend = 0, frame = 280
 122              		@ frame_needed = 0, uses_anonymous_args = 0
 123 0000 F0B5     		push	{r4, r5, r6, r7, lr}
 124 0002 C9B0     		sub	sp, sp, #292
 125              	.L32:
 126 0004 0B26     		movs	r6, #11
 127 0006 06AC     		add	r4, sp, #24
 128 0008 6E44     		add	r6, r6, sp
 129 000a 3100     		movs	r1, r6
 130 000c 2000     		movs	r0, r4
 131 000e FFF7FEFF 		bl	smtc_modem_get_event
 132 0012 6178     		ldrb	r1, [r4, #1]
 133 0014 794D     		ldr	r5, .L41
 134 0016 1429     		cmp	r1, #20
 135 0018 00D9     		bls	.LCB42
 136 001a EAE0     		b	.L5	@long jump
 137              	.LCB42:
 138 001c 0800     		movs	r0, r1
 139 001e FFF7FEFF 		bl	__gnu_thumb1_case_uqi
 140              	.L7:
 141 0022 0B       		.byte	(.L24-.L7)/2
 142 0023 27       		.byte	(.L23-.L7)/2
 143 0024 2C       		.byte	(.L22-.L7)/2
 144 0025 69       		.byte	(.L21-.L7)/2
 145 0026 71       		.byte	(.L20-.L7)/2
 146 0027 A1       		.byte	(.L19-.L7)/2
 147 0028 A3       		.byte	(.L18-.L7)/2
 148 0029 A5       		.byte	(.L17-.L7)/2
 149 002a A7       		.byte	(.L16-.L7)/2
 150 002b E8       		.byte	(.L5-.L7)/2
 151 002c A9       		.byte	(.L15-.L7)/2
 152 002d E8       		.byte	(.L5-.L7)/2
 153 002e E8       		.byte	(.L5-.L7)/2
 154 002f B1       		.byte	(.L14-.L7)/2
 155 0030 B3       		.byte	(.L13-.L7)/2
 156 0031 B5       		.byte	(.L12-.L7)/2
 157 0032 B7       		.byte	(.L11-.L7)/2
 158 0033 E0       		.byte	(.L10-.L7)/2
 159 0034 E2       		.byte	(.L9-.L7)/2
 160 0035 E4       		.byte	(.L8-.L7)/2
 161 0036 E6       		.byte	(.L6-.L7)/2
ARM GAS  /tmp/ccpnZT0c.s 			page 6


 162 0037 00       		.p2align 1
 163              	.L24:
 164 0038 7148     		ldr	r0, .L41+4
 165 003a FFF7FEFF 		bl	hal_trace_print_var
 166 003e 2800     		movs	r0, r5
 167 0040 FFF7FEFF 		bl	hal_trace_print_var
 168 0044 6F4C     		ldr	r4, .L41+8
 169 0046 0020     		movs	r0, #0
 170 0048 2100     		movs	r1, r4
 171 004a FFF7FEFF 		bl	smtc_modem_set_deveui
 172 004e 6E49     		ldr	r1, .L41+12
 173 0050 0020     		movs	r0, #0
 174 0052 FFF7FEFF 		bl	smtc_modem_set_joineui
 175 0056 0134     		adds	r4, r4, #1
 176 0058 6C49     		ldr	r1, .L41+16
 177 005a 0020     		movs	r0, #0
 178 005c FFF7FEFF 		bl	smtc_modem_set_nwkkey
 179 0060 0020     		movs	r0, #0
 180 0062 E17F     		ldrb	r1, [r4, #31]
 181 0064 FFF7FEFF 		bl	smtc_modem_set_region
 182              	.L37:
 183 0068 0020     		movs	r0, #0
 184 006a FFF7FEFF 		bl	smtc_modem_join_network
 185 006e 3CE0     		b	.L25
 186              	.L23:
 187 0070 6748     		ldr	r0, .L41+20
 188              	.L40:
 189 0072 FFF7FEFF 		bl	hal_trace_print_var
 190              	.L38:
 191 0076 2800     		movs	r0, r5
 192 0078 63E0     		b	.L39
 193              	.L22:
 194 007a 0C24     		movs	r4, #12
 195 007c 6548     		ldr	r0, .L41+24
 196 007e FFF7FEFF 		bl	hal_trace_print_var
 197 0082 2800     		movs	r0, r5
 198 0084 FFF7FEFF 		bl	hal_trace_print_var
 199 0088 6348     		ldr	r0, .L41+28
 200 008a FFF7FEFF 		bl	hal_trace_print_var
 201 008e 2800     		movs	r0, r5
 202 0090 FFF7FEFF 		bl	hal_trace_print_var
 203 0094 6148     		ldr	r0, .L41+32
 204 0096 FFF7FEFF 		bl	hal_trace_print_var
 205 009a 2800     		movs	r0, r5
 206 009c FFF7FEFF 		bl	hal_trace_print_var
 207 00a0 2200     		movs	r2, r4
 208 00a2 5F49     		ldr	r1, .L41+36
 209 00a4 03A8     		add	r0, sp, #12
 210 00a6 FFF7FEFF 		bl	memcpy
 211 00aa 0022     		movs	r2, #0
 212 00ac 0094     		str	r4, [sp]
 213 00ae 03AB     		add	r3, sp, #12
 214 00b0 6621     		movs	r1, #102
 215 00b2 1000     		movs	r0, r2
 216 00b4 FFF7FEFF 		bl	smtc_modem_request_uplink
 217 00b8 5A4C     		ldr	r4, .L41+40
 218 00ba 2378     		ldrb	r3, [r4]
ARM GAS  /tmp/ccpnZT0c.s 			page 7


 219 00bc 002B     		cmp	r3, #0
 220 00be 14D0     		beq	.L25
 221 00c0 5948     		ldr	r0, .L41+44
 222 00c2 FFF7FEFF 		bl	hal_trace_print_var
 223 00c6 594B     		ldr	r3, .L41+48
 224 00c8 5948     		ldr	r0, .L41+52
 225 00ca 1B68     		ldr	r3, [r3]
 226 00cc 0068     		ldr	r0, [r0]
 227 00ce 5A1E     		subs	r2, r3, #1
 228 00d0 9341     		sbcs	r3, r3, r2
 229 00d2 584A     		ldr	r2, .L41+56
 230 00d4 DBB2     		uxtb	r3, r3
 231 00d6 1268     		ldr	r2, [r2]
 232 00d8 511E     		subs	r1, r2, #1
 233 00da 8A41     		sbcs	r2, r2, r1
 234 00dc 5649     		ldr	r1, .L41+60
 235 00de D2B2     		uxtb	r2, r2
 236 00e0 0968     		ldr	r1, [r1]
 237 00e2 FFF7FEFF 		bl	sendData
 238 00e6 0023     		movs	r3, #0
 239 00e8 2370     		strb	r3, [r4]
 240              	.L25:
 241 00ea 3378     		ldrb	r3, [r6]
 242 00ec 002B     		cmp	r3, #0
 243 00ee 89D1     		bne	.L32
 244 00f0 49B0     		add	sp, sp, #292
 245              		@ sp needed
 246 00f2 F0BD     		pop	{r4, r5, r6, r7, pc}
 247              	.L21:
 248 00f4 5148     		ldr	r0, .L41+64
 249 00f6 FFF7FEFF 		bl	hal_trace_print_var
 250 00fa 2800     		movs	r0, r5
 251 00fc FFF7FEFF 		bl	hal_trace_print_var
 252 0100 4F48     		ldr	r0, .L41+68
 253 0102 B6E7     		b	.L40
 254              	.L20:
 255 0104 4F48     		ldr	r0, .L41+72
 256 0106 FFF7FEFF 		bl	hal_trace_print_var
 257 010a 2800     		movs	r0, r5
 258 010c FFF7FEFF 		bl	hal_trace_print_var
 259 0110 8923     		movs	r3, #137
 260 0112 5B00     		lsls	r3, r3, #1
 261 0114 6B44     		add	r3, r3, sp
 262 0116 4C4F     		ldr	r7, .L41+76
 263 0118 1A78     		ldrb	r2, [r3]
 264 011a 4C4D     		ldr	r5, .L41+80
 265 011c 08A9     		add	r1, sp, #32
 266 011e 3800     		movs	r0, r7
 267 0120 2A70     		strb	r2, [r5]
 268 0122 FFF7FEFF 		bl	memcpy
 269 0126 E179     		ldrb	r1, [r4, #7]
 270 0128 4948     		ldr	r0, .L41+84
 271 012a FFF7FEFF 		bl	hal_trace_print_var
 272 012e 2A78     		ldrb	r2, [r5]
 273 0130 4849     		ldr	r1, .L41+88
 274 0132 4948     		ldr	r0, .L41+92
 275 0134 FFF7FEFF 		bl	hal_trace_print_var
ARM GAS  /tmp/ccpnZT0c.s 			page 8


 276 0138 0024     		movs	r4, #0
 277              	.L27:
 278 013a 2B78     		ldrb	r3, [r5]
 279 013c A342     		cmp	r3, r4
 280 013e 03D8     		bhi	.L29
 281 0140 4648     		ldr	r0, .L41+96
 282              	.L39:
 283 0142 FFF7FEFF 		bl	hal_trace_print_var
 284 0146 D0E7     		b	.L25
 285              	.L29:
 286 0148 0F23     		movs	r3, #15
 287 014a 1C42     		tst	r4, r3
 288 014c 04D1     		bne	.L28
 289 014e 002C     		cmp	r4, #0
 290 0150 02D0     		beq	.L28
 291 0152 4248     		ldr	r0, .L41+96
 292 0154 FFF7FEFF 		bl	hal_trace_print_var
 293              	.L28:
 294 0158 395D     		ldrb	r1, [r7, r4]
 295 015a 4148     		ldr	r0, .L41+100
 296 015c FFF7FEFF 		bl	hal_trace_print_var
 297 0160 0134     		adds	r4, r4, #1
 298 0162 EAE7     		b	.L27
 299              	.L19:
 300 0164 3F48     		ldr	r0, .L41+104
 301 0166 84E7     		b	.L40
 302              	.L18:
 303 0168 3F48     		ldr	r0, .L41+108
 304 016a 82E7     		b	.L40
 305              	.L17:
 306 016c 3F48     		ldr	r0, .L41+112
 307 016e 80E7     		b	.L40
 308              	.L16:
 309 0170 3F48     		ldr	r0, .L41+116
 310 0172 7EE7     		b	.L40
 311              	.L15:
 312 0174 3F48     		ldr	r0, .L41+120
 313 0176 FFF7FEFF 		bl	hal_trace_print_var
 314 017a 2800     		movs	r0, r5
 315 017c FFF7FEFF 		bl	hal_trace_print_var
 316 0180 3D48     		ldr	r0, .L41+124
 317 0182 76E7     		b	.L40
 318              	.L14:
 319 0184 3D48     		ldr	r0, .L41+128
 320 0186 74E7     		b	.L40
 321              	.L13:
 322 0188 3D48     		ldr	r0, .L41+132
 323 018a 72E7     		b	.L40
 324              	.L12:
 325 018c 3D48     		ldr	r0, .L41+136
 326 018e 70E7     		b	.L40
 327              	.L11:
 328 0190 3D48     		ldr	r0, .L41+140
 329 0192 FFF7FEFF 		bl	hal_trace_print_var
 330 0196 2800     		movs	r0, r5
 331 0198 FFF7FEFF 		bl	hal_trace_print_var
 332 019c 2379     		ldrb	r3, [r4, #4]
ARM GAS  /tmp/ccpnZT0c.s 			page 9


 333 019e 3B4C     		ldr	r4, .L41+144
 334 01a0 012B     		cmp	r3, #1
 335 01a2 08D1     		bne	.L30
 336 01a4 3A48     		ldr	r0, .L41+148
 337 01a6 FFF7FEFF 		bl	hal_trace_print_var
 338 01aa 2800     		movs	r0, r5
 339 01ac FFF7FEFF 		bl	hal_trace_print_var
 340 01b0 0023     		movs	r3, #0
 341 01b2 2360     		str	r3, [r4]
 342 01b4 99E7     		b	.L25
 343              	.L30:
 344 01b6 3748     		ldr	r0, .L41+152
 345 01b8 FFF7FEFF 		bl	hal_trace_print_var
 346 01bc 2800     		movs	r0, r5
 347 01be FFF7FEFF 		bl	hal_trace_print_var
 348 01c2 2168     		ldr	r1, [r4]
 349 01c4 0131     		adds	r1, r1, #1
 350 01c6 2160     		str	r1, [r4]
 351 01c8 0929     		cmp	r1, #9
 352 01ca 00D8     		bhi	.LCB284
 353 01cc 8DE7     		b	.L25	@long jump
 354              	.LCB284:
 355 01ce 3248     		ldr	r0, .L41+156
 356 01d0 FFF7FEFF 		bl	hal_trace_print_var
 357 01d4 2800     		movs	r0, r5
 358 01d6 FFF7FEFF 		bl	hal_trace_print_var
 359 01da 0020     		movs	r0, #0
 360 01dc FFF7FEFF 		bl	smtc_modem_leave_network
 361 01e0 42E7     		b	.L37
 362              	.L10:
 363 01e2 2E48     		ldr	r0, .L41+160
 364 01e4 45E7     		b	.L40
 365              	.L9:
 366 01e6 2E48     		ldr	r0, .L41+164
 367 01e8 43E7     		b	.L40
 368              	.L8:
 369 01ea 2E48     		ldr	r0, .L41+168
 370 01ec 41E7     		b	.L40
 371              	.L6:
 372 01ee 2E48     		ldr	r0, .L41+172
 373 01f0 3FE7     		b	.L40
 374              	.L5:
 375 01f2 2E4B     		ldr	r3, .L41+176
 376 01f4 1800     		movs	r0, r3
 377 01f6 FFF7FEFF 		bl	hal_trace_print_var
 378 01fa 3CE7     		b	.L38
 379              	.L42:
 380              		.align	2
 381              	.L41:
 382 01fc 1E000000 		.word	.LC6
 383 0200 00000000 		.word	.LC4
 384 0204 00000000 		.word	settings
 385 0208 08000000 		.word	settings+8
 386 020c 10000000 		.word	settings+16
 387 0210 1F000000 		.word	.LC11
 388 0214 3D000000 		.word	.LC13
 389 0218 5C000000 		.word	.LC15
ARM GAS  /tmp/ccpnZT0c.s 			page 10


 390 021c 79000000 		.word	.LC17
 391 0220 F0030000 		.word	.LC19
 392 0224 00000000 		.word	firstflag
 393 0228 9B000000 		.word	.LC22
 394 022c 00000000 		.word	water
 395 0230 00000000 		.word	temp
 396 0234 00000000 		.word	door
 397 0238 00000000 		.word	Voltage
 398 023c CA000000 		.word	.LC28
 399 0240 E9000000 		.word	.LC30
 400 0244 04010000 		.word	.LC32
 401 0248 00000000 		.word	rx_payload
 402 024c 00000000 		.word	rx_payload_size
 403 0250 25010000 		.word	.LC36
 404 0254 41010000 		.word	.LC38
 405 0258 55010000 		.word	.LC40
 406 025c 69010000 		.word	.LC42
 407 0260 6C010000 		.word	.LC44
 408 0264 72010000 		.word	.LC46
 409 0268 95010000 		.word	.LC48
 410 026c B5010000 		.word	.LC50
 411 0270 D2010000 		.word	.LC52
 412 0274 F5010000 		.word	.LC54
 413 0278 16020000 		.word	.LC56
 414 027c 33020000 		.word	.LC58
 415 0280 50020000 		.word	.LC60
 416 0284 7C020000 		.word	.LC62
 417 0288 A1020000 		.word	.LC64
 418 028c 00000000 		.word	link_check_attempts
 419 0290 C4020000 		.word	.LC66
 420 0294 E3020000 		.word	.LC69
 421 0298 FC020000 		.word	.LC71
 422 029c 2F030000 		.word	.LC73
 423 02a0 56030000 		.word	.LC75
 424 02a4 80030000 		.word	.LC77
 425 02a8 AF030000 		.word	.LC79
 426 02ac D6030000 		.word	.LC81
 428              		.section	.rodata.gps_snap.str1.1,"aMS",%progbits,1
 429              	.LC84:
 430 0000 0A2D2D2D 		.ascii	"\012-----------------GPS snap----------------\012\015"
 430      2D2D2D2D 
 430      2D2D2D2D 
 430      2D2D2D2D 
 430      2D2D4750 
 431 002c 00       		.ascii	"\000"
 432              	.LC86:
 433 002d 6C723131 		.ascii	"lr11xx_gnss_scan_autonomous...\012\015\000"
 433      78785F67 
 433      6E73735F 
 433      7363616E 
 433      5F617574 
 434              	.LC88:
 435 004e 6E756D62 		.ascii	"number of satellites found: %d\012\012\015\000"
 435      6572206F 
 435      66207361 
 435      74656C6C 
 435      69746573 
ARM GAS  /tmp/ccpnZT0c.s 			page 11


 436              	.LC90:
 437 0070 4C523131 		.ascii	"LR1110 ERROR \012\015\000"
 437      31302045 
 437      52524F52 
 437      200A0D00 
 438              		.section	.text.gps_snap,"ax",%progbits
 439              		.align	1
 440              		.global	gps_snap
 441              		.syntax unified
 442              		.code	16
 443              		.thumb_func
 445              	gps_snap:
 446              		@ args = 0, pretend = 0, frame = 8
 447              		@ frame_needed = 0, uses_anonymous_args = 0
 448 0000 30B5     		push	{r4, r5, lr}
 449 0002 1248     		ldr	r0, .L48
 450 0004 85B0     		sub	sp, sp, #20
 451 0006 FFF7FEFF 		bl	hal_trace_print_var
 452 000a 1148     		ldr	r0, .L48+4
 453 000c FFF7FEFF 		bl	hal_trace_print_var
 454 0010 0623     		movs	r3, #6
 455 0012 0F25     		movs	r5, #15
 456 0014 0093     		str	r3, [sp]
 457 0016 053B     		subs	r3, r3, #5
 458 0018 1A00     		movs	r2, r3
 459 001a 0E49     		ldr	r1, .L48+8
 460 001c 0020     		movs	r0, #0
 461 001e FFF7FEFF 		bl	lr11xx_gnss_scan_autonomous
 462 0022 6D44     		add	r5, r5, sp
 463 0024 0C48     		ldr	r0, .L48+12
 464 0026 FFF7FEFF 		bl	hal_mcu_delay_ms
 465 002a 2900     		movs	r1, r5
 466 002c 0020     		movs	r0, #0
 467 002e FFF7FEFF 		bl	lr11xx_gnss_get_nb_detected_satellites
 468 0032 2978     		ldrb	r1, [r5]
 469 0034 0400     		movs	r4, r0
 470 0036 0948     		ldr	r0, .L48+16
 471 0038 FFF7FEFF 		bl	hal_trace_print_var
 472 003c 002C     		cmp	r4, #0
 473 003e 02D0     		beq	.L43
 474 0040 0748     		ldr	r0, .L48+20
 475 0042 FFF7FEFF 		bl	hal_trace_print_var
 476              	.L43:
 477 0046 05B0     		add	sp, sp, #20
 478              		@ sp needed
 479 0048 30BD     		pop	{r4, r5, pc}
 480              	.L49:
 481 004a C046     		.align	2
 482              	.L48:
 483 004c 00000000 		.word	.LC84
 484 0050 2D000000 		.word	.LC86
 485 0054 8057C94F 		.word	1338595200
 486 0058 88130000 		.word	5000
 487 005c 4E000000 		.word	.LC88
 488 0060 70000000 		.word	.LC90
 490              		.section	.text.PC10Callback,"ax",%progbits
 491              		.align	1
ARM GAS  /tmp/ccpnZT0c.s 			page 12


 492              		.global	PC10Callback
 493              		.syntax unified
 494              		.code	16
 495              		.thumb_func
 497              	PC10Callback:
 498              		@ args = 0, pretend = 0, frame = 0
 499              		@ frame_needed = 0, uses_anonymous_args = 0
 500 0000 70B5     		push	{r4, r5, r6, lr}
 501 0002 2A20     		movs	r0, #42
 502 0004 FFF7FEFF 		bl	hal_gpio_get_value
 503 0008 0D4C     		ldr	r4, .L57
 504 000a 2378     		ldrb	r3, [r4]
 505 000c 0128     		cmp	r0, #1
 506 000e 11D1     		bne	.L51
 507 0010 002B     		cmp	r3, #0
 508 0012 0ED1     		bne	.L50
 509 0014 0B4D     		ldr	r5, .L57+4
 510 0016 0C4E     		ldr	r6, .L57+8
 511 0018 2B68     		ldr	r3, [r5]
 512 001a 3060     		str	r0, [r6]
 513 001c 012B     		cmp	r3, #1
 514 001e 03D0     		beq	.L53
 515 0020 FFF7FEFF 		bl	wateralarm
 516 0024 3368     		ldr	r3, [r6]
 517 0026 2B60     		str	r3, [r5]
 518              	.L53:
 519 0028 0848     		ldr	r0, .L57+12
 520 002a FFF7FEFF 		bl	TimerStart
 521 002e 0123     		movs	r3, #1
 522 0030 2370     		strb	r3, [r4]
 523              	.L50:
 524              		@ sp needed
 525 0032 70BD     		pop	{r4, r5, r6, pc}
 526              	.L51:
 527 0034 002B     		cmp	r3, #0
 528 0036 FCD1     		bne	.L50
 529 0038 034A     		ldr	r2, .L57+8
 530 003a 1360     		str	r3, [r2]
 531 003c F9E7     		b	.L50
 532              	.L58:
 533 003e C046     		.align	2
 534              	.L57:
 535 0040 00000000 		.word	hastydata1
 536 0044 00000000 		.word	prev_water
 537 0048 00000000 		.word	water
 538 004c 00000000 		.word	water_timer
 540              		.section	.rodata.water_timer_cb.str1.1,"aMS",%progbits,1
 541              	.LC96:
 542 0000 77617465 		.ascii	"water_timer_cb\012\015\000"
 542      725F7469 
 542      6D65725F 
 542      63620A0D 
 542      00
 543              		.section	.text.water_timer_cb,"ax",%progbits
 544              		.align	1
 545              		.syntax unified
 546              		.code	16
ARM GAS  /tmp/ccpnZT0c.s 			page 13


 547              		.thumb_func
 549              	water_timer_cb:
 550              		@ args = 0, pretend = 0, frame = 0
 551              		@ frame_needed = 0, uses_anonymous_args = 0
 552 0000 10B5     		push	{r4, lr}
 553 0002 0448     		ldr	r0, .L60
 554 0004 FFF7FEFF 		bl	hal_trace_print_var
 555              		@ sp needed
 556 0008 0020     		movs	r0, #0
 557 000a 034B     		ldr	r3, .L60+4
 558 000c 1870     		strb	r0, [r3]
 559 000e FFF7FEFF 		bl	PC10Callback
 560 0012 10BD     		pop	{r4, pc}
 561              	.L61:
 562              		.align	2
 563              	.L60:
 564 0014 00000000 		.word	.LC96
 565 0018 00000000 		.word	hastydata1
 567              		.section	.text.PC11Callback,"ax",%progbits
 568              		.align	1
 569              		.global	PC11Callback
 570              		.syntax unified
 571              		.code	16
 572              		.thumb_func
 574              	PC11Callback:
 575              		@ args = 0, pretend = 0, frame = 0
 576              		@ frame_needed = 0, uses_anonymous_args = 0
 577 0000 70B5     		push	{r4, r5, r6, lr}
 578 0002 2B20     		movs	r0, #43
 579 0004 FFF7FEFF 		bl	hal_gpio_get_value
 580 0008 0128     		cmp	r0, #1
 581 000a 13D1     		bne	.L63
 582 000c 0F4C     		ldr	r4, .L71
 583 000e 2378     		ldrb	r3, [r4]
 584 0010 002B     		cmp	r3, #0
 585 0012 0ED1     		bne	.L62
 586 0014 0E4D     		ldr	r5, .L71+4
 587 0016 0F4E     		ldr	r6, .L71+8
 588 0018 2B68     		ldr	r3, [r5]
 589 001a 3060     		str	r0, [r6]
 590 001c 012B     		cmp	r3, #1
 591 001e 03D0     		beq	.L66
 592 0020 FFF7FEFF 		bl	dooralarm
 593 0024 3368     		ldr	r3, [r6]
 594 0026 2B60     		str	r3, [r5]
 595              	.L66:
 596 0028 0B48     		ldr	r0, .L71+12
 597 002a FFF7FEFF 		bl	TimerStart
 598 002e 0123     		movs	r3, #1
 599 0030 2370     		strb	r3, [r4]
 600              	.L62:
 601              		@ sp needed
 602 0032 70BD     		pop	{r4, r5, r6, pc}
 603              	.L63:
 604 0034 2B20     		movs	r0, #43
 605 0036 FFF7FEFF 		bl	hal_gpio_get_value
 606 003a 0028     		cmp	r0, #0
ARM GAS  /tmp/ccpnZT0c.s 			page 14


 607 003c F9D1     		bne	.L62
 608 003e 034B     		ldr	r3, .L71
 609 0040 1B78     		ldrb	r3, [r3]
 610 0042 002B     		cmp	r3, #0
 611 0044 F5D1     		bne	.L62
 612 0046 034A     		ldr	r2, .L71+8
 613 0048 1360     		str	r3, [r2]
 614 004a F2E7     		b	.L62
 615              	.L72:
 616              		.align	2
 617              	.L71:
 618 004c 00000000 		.word	hastydata2
 619 0050 00000000 		.word	prev_door
 620 0054 00000000 		.word	door
 621 0058 00000000 		.word	door_timer
 623              		.section	.rodata.door_timer_cb.str1.1,"aMS",%progbits,1
 624              	.LC103:
 625 0000 646F6F72 		.ascii	"door_timer_cb\012\015\000"
 625      5F74696D 
 625      65725F63 
 625      620A0D00 
 626              		.section	.text.door_timer_cb,"ax",%progbits
 627              		.align	1
 628              		.syntax unified
 629              		.code	16
 630              		.thumb_func
 632              	door_timer_cb:
 633              		@ args = 0, pretend = 0, frame = 0
 634              		@ frame_needed = 0, uses_anonymous_args = 0
 635 0000 10B5     		push	{r4, lr}
 636 0002 0448     		ldr	r0, .L74
 637 0004 FFF7FEFF 		bl	hal_trace_print_var
 638              		@ sp needed
 639 0008 0020     		movs	r0, #0
 640 000a 034B     		ldr	r3, .L74+4
 641 000c 1870     		strb	r0, [r3]
 642 000e FFF7FEFF 		bl	PC11Callback
 643 0012 10BD     		pop	{r4, pc}
 644              	.L75:
 645              		.align	2
 646              	.L74:
 647 0014 00000000 		.word	.LC103
 648 0018 00000000 		.word	hastydata2
 650              		.section	.rodata.PA15Callback.str1.1,"aMS",%progbits,1
 651              	.LC109:
 652 0000 583A2025 		.ascii	"X: %d, Y: %d, Z: %d\012\000"
 652      642C2059 
 652      3A202564 
 652      2C205A3A 
 652      2025640A 
 653              		.section	.text.PA15Callback,"ax",%progbits
 654              		.align	1
 655              		.global	PA15Callback
 656              		.syntax unified
 657              		.code	16
 658              		.thumb_func
 660              	PA15Callback:
ARM GAS  /tmp/ccpnZT0c.s 			page 15


 661              		@ args = 0, pretend = 0, frame = 0
 662              		@ frame_needed = 0, uses_anonymous_args = 0
 663 0000 70B5     		push	{r4, r5, r6, lr}
 664 0002 0F20     		movs	r0, #15
 665 0004 FFF7FEFF 		bl	hal_gpio_get_value
 666 0008 0128     		cmp	r0, #1
 667 000a 12D1     		bne	.L76
 668 000c 094E     		ldr	r6, .L83
 669 000e 0A4D     		ldr	r5, .L83+4
 670 0010 0A4C     		ldr	r4, .L83+8
 671 0012 3200     		movs	r2, r6
 672 0014 2900     		movs	r1, r5
 673 0016 2000     		movs	r0, r4
 674 0018 FFF7FEFF 		bl	adxl343_read_xyz
 675 001c 0028     		cmp	r0, #0
 676 001e 08D0     		beq	.L76
 677 0020 0022     		movs	r2, #0
 678 0022 B35E     		ldrsh	r3, [r6, r2]
 679 0024 0021     		movs	r1, #0
 680 0026 6A5E     		ldrsh	r2, [r5, r1]
 681 0028 0020     		movs	r0, #0
 682 002a 215E     		ldrsh	r1, [r4, r0]
 683 002c 0448     		ldr	r0, .L83+12
 684 002e FFF7FEFF 		bl	hal_trace_print_var
 685              	.L76:
 686              		@ sp needed
 687 0032 70BD     		pop	{r4, r5, r6, pc}
 688              	.L84:
 689              		.align	2
 690              	.L83:
 691 0034 00000000 		.word	z
 692 0038 00000000 		.word	y
 693 003c 00000000 		.word	x
 694 0040 00000000 		.word	.LC109
 696              		.section	.rodata.main.str1.1,"aMS",%progbits,1
 697              	.LC111:
 698 0000 68696768 		.ascii	"high\000"
 698      00
 699              	.LC113:
 700 0005 6C6F7700 		.ascii	"low\000"
 701              	.LC115:
 702 0009 5F5F5F5F 		.ascii	"___________________________________________________"
 702      5F5F5F5F 
 702      5F5F5F5F 
 702      5F5F5F5F 
 702      5F5F5F5F 
 703 003c 5F5F5F5F 		.ascii	"____________________________\012\015\000"
 703      5F5F5F5F 
 703      5F5F5F5F 
 703      5F5F5F5F 
 703      5F5F5F5F 
 704              	.LC117:
 705 005b 4D69726F 		.ascii	"Miromico-FMLR1110\012\012\015\000"
 705      6D69636F 
 705      2D464D4C 
 705      52313131 
 705      300A0A0D 
ARM GAS  /tmp/ccpnZT0c.s 			page 16


 706              	.LC119:
 707 0070 4C523131 		.ascii	"LR11XX\000"
 707      585800
 708              	.LC121:
 709 0077 52616469 		.ascii	"Radio:%s\012\015\000"
 709      6F3A2573 
 709      0A0D00
 710              	.LC125:
 711 0082 494E464F 		.ascii	"INFO: Modem driver version: %d.%d.%d\012\015\000"
 711      3A204D6F 
 711      64656D20 
 711      64726976 
 711      65722076 
 712              	.LC134:
 713 00a9 4C523131 		.ascii	"LR11xx Version: HW: %x, type: %x, fw: %x\012\015\000"
 713      78782056 
 713      65727369 
 713      6F6E3A20 
 713      48573A20 
 714              		.global	__aeabi_f2d
 715              	.LC141:
 716 00d4 54656D70 		.ascii	"Temp: %.2f\302\260C Voltage: %.2fV door: %s water: "
 716      3A20252E 
 716      3266C2B0 
 716      4320566F 
 716      6C746167 
 717 0101 25732063 		.ascii	"%s cnutp: %d hasty1: %d hasty2: %d X:%d,  Y:%d, Z:%"
 717      6E757470 
 717      3A202564 
 717      20686173 
 717      7479313A 
 718 0134 640A0D00 		.ascii	"d\012\015\000"
 719              	.LC150:
 720 0138 494E464F 		.ascii	"INFO: Send link check\012\015\000"
 720      3A205365 
 720      6E64206C 
 720      696E6B20 
 720      63686563 
 721              		.section	.text.startup.main,"ax",%progbits
 722              		.align	1
 723              		.global	main
 724              		.syntax unified
 725              		.code	16
 726              		.thumb_func
 728              	main:
 729              		@ args = 0, pretend = 0, frame = 24
 730              		@ frame_needed = 0, uses_anonymous_args = 0
 731 0000 F0B5     		push	{r4, r5, r6, r7, lr}
 732 0002 91B0     		sub	sp, sp, #68
 733 0004 FFF7FEFF 		bl	hal_mcu_disable_irq
 734 0008 FFF7FEFF 		bl	hal_mcu_init
 735 000c 6E48     		ldr	r0, .L97
 736 000e FFF7FEFF 		bl	hal_trace_print_var
 737 0012 6E48     		ldr	r0, .L97+4
 738 0014 FFF7FEFF 		bl	hal_trace_print_var
 739 0018 6D49     		ldr	r1, .L97+8
 740 001a 6E48     		ldr	r0, .L97+12
ARM GAS  /tmp/ccpnZT0c.s 			page 17


 741 001c FFF7FEFF 		bl	hal_trace_print_var
 742 0020 0EAC     		add	r4, sp, #56
 743 0022 6D49     		ldr	r1, .L97+16
 744 0024 6D48     		ldr	r0, .L97+20
 745 0026 FFF7FEFF 		bl	smtc_modem_init
 746 002a 2000     		movs	r0, r4
 747 002c FFF7FEFF 		bl	smtc_modem_get_modem_version
 748 0030 FFF7FEFF 		bl	settings_init
 749 0034 6278     		ldrb	r2, [r4, #1]
 750 0036 2178     		ldrb	r1, [r4]
 751 0038 A378     		ldrb	r3, [r4, #2]
 752 003a 6948     		ldr	r0, .L97+24
 753 003c FFF7FEFF 		bl	hal_trace_print_var
 754 0040 684B     		ldr	r3, .L97+28
 755 0042 1800     		movs	r0, r3
 756 0044 0B93     		str	r3, [sp, #44]
 757 0046 FFF7FEFF 		bl	hal_trace_print_var
 758 004a FFF7FEFF 		bl	GPIO_Init
 759 004e FFF7FEFF 		bl	adxl343_init
 760 0052 FFF7FEFF 		bl	hal_mcu_enable_irq
 761 0056 FFF7FEFF 		bl	hal_gpio_irq_enable
 762 005a 634C     		ldr	r4, .L97+32
 763 005c 6349     		ldr	r1, .L97+36
 764 005e 2000     		movs	r0, r4
 765 0060 FFF7FEFF 		bl	TimerInit
 766 0064 2000     		movs	r0, r4
 767 0066 6249     		ldr	r1, .L97+40
 768 0068 FFF7FEFF 		bl	TimerSetValue
 769 006c 0021     		movs	r1, #0
 770 006e 2000     		movs	r0, r4
 771 0070 FFF7FEFF 		bl	TimerSetContext
 772 0074 2000     		movs	r0, r4
 773 0076 FFF7FEFF 		bl	TimerStart
 774 007a 5E4C     		ldr	r4, .L97+44
 775 007c 5E49     		ldr	r1, .L97+48
 776 007e 2000     		movs	r0, r4
 777 0080 FFF7FEFF 		bl	TimerInit
 778 0084 2000     		movs	r0, r4
 779 0086 5A49     		ldr	r1, .L97+40
 780 0088 FFF7FEFF 		bl	TimerSetValue
 781 008c 2000     		movs	r0, r4
 782 008e 0021     		movs	r1, #0
 783 0090 FFF7FEFF 		bl	TimerSetContext
 784 0094 594C     		ldr	r4, .L97+52
 785 0096 5A49     		ldr	r1, .L97+56
 786 0098 2000     		movs	r0, r4
 787 009a FFF7FEFF 		bl	TimerInit
 788 009e 2000     		movs	r0, r4
 789 00a0 5349     		ldr	r1, .L97+40
 790 00a2 FFF7FEFF 		bl	TimerSetValue
 791 00a6 2000     		movs	r0, r4
 792 00a8 0021     		movs	r1, #0
 793 00aa 0FAC     		add	r4, sp, #60
 794 00ac FFF7FEFF 		bl	TimerSetContext
 795 00b0 2100     		movs	r1, r4
 796 00b2 0020     		movs	r0, #0
 797 00b4 FFF7FEFF 		bl	lr11xx_system_get_version
ARM GAS  /tmp/ccpnZT0c.s 			page 18


 798 00b8 6388     		ldrh	r3, [r4, #2]
 799 00ba 6278     		ldrb	r2, [r4, #1]
 800 00bc 2178     		ldrb	r1, [r4]
 801 00be 5148     		ldr	r0, .L97+60
 802 00c0 FFF7FEFF 		bl	hal_trace_print_var
 803              	.L86:
 804 00c4 FFF7FEFF 		bl	hal_rtc_get_time_ms
 805 00c8 FFF7FEFF 		bl	smtc_modem_run_engine
 806 00cc FFF7FEFF 		bl	smtc_modem_run_engine
 807 00d0 FFF7FEFF 		bl	hal_mcu_set_sleep_for_ms
 808 00d4 4C4B     		ldr	r3, .L97+64
 809 00d6 1B78     		ldrb	r3, [r3]
 810 00d8 002B     		cmp	r3, #0
 811 00da 60D0     		beq	.L88
 812 00dc FFF7FEFF 		bl	sensor_read
 813 00e0 1420     		movs	r0, #20
 814 00e2 FFF7FEFF 		bl	hal_mcu_delay_ms
 815 00e6 494F     		ldr	r7, .L97+68
 816 00e8 494D     		ldr	r5, .L97+72
 817 00ea 3B68     		ldr	r3, [r7]
 818 00ec 494C     		ldr	r4, .L97+76
 819 00ee 5A1E     		subs	r2, r3, #1
 820 00f0 9341     		sbcs	r3, r3, r2
 821 00f2 2A68     		ldr	r2, [r5]
 822 00f4 484E     		ldr	r6, .L97+80
 823 00f6 511E     		subs	r1, r2, #1
 824 00f8 8A41     		sbcs	r2, r2, r1
 825 00fa DBB2     		uxtb	r3, r3
 826 00fc D2B2     		uxtb	r2, r2
 827 00fe 2168     		ldr	r1, [r4]
 828 0100 3068     		ldr	r0, [r6]
 829 0102 FFF7FEFF 		bl	sendData
 830 0106 3068     		ldr	r0, [r6]
 831 0108 FFF7FEFF 		bl	__aeabi_f2d
 832 010c 0C90     		str	r0, [sp, #48]
 833 010e 0D91     		str	r1, [sp, #52]
 834 0110 2068     		ldr	r0, [r4]
 835 0112 FFF7FEFF 		bl	__aeabi_f2d
 836 0116 0200     		movs	r2, r0
 837 0118 2868     		ldr	r0, [r5]
 838 011a 0B00     		movs	r3, r1
 839 011c 3F49     		ldr	r1, .L97+84
 840 011e 0128     		cmp	r0, #1
 841 0120 00D1     		bne	.L89
 842 0122 3F49     		ldr	r1, .L97+88
 843              	.L89:
 844 0124 3868     		ldr	r0, [r7]
 845 0126 3D4C     		ldr	r4, .L97+84
 846 0128 0128     		cmp	r0, #1
 847 012a 00D1     		bne	.L90
 848 012c 3C4C     		ldr	r4, .L97+88
 849              	.L90:
 850 012e 3D4D     		ldr	r5, .L97+92
 851 0130 3D48     		ldr	r0, .L97+96
 852 0132 0026     		movs	r6, #0
 853 0134 AD5F     		ldrsh	r5, [r5, r6]
 854 0136 0995     		str	r5, [sp, #36]
ARM GAS  /tmp/ccpnZT0c.s 			page 19


 855 0138 3C4D     		ldr	r5, .L97+100
 856 013a 0026     		movs	r6, #0
 857 013c AD5F     		ldrsh	r5, [r5, r6]
 858 013e 0895     		str	r5, [sp, #32]
 859 0140 3B4D     		ldr	r5, .L97+104
 860 0142 0026     		movs	r6, #0
 861 0144 AD5F     		ldrsh	r5, [r5, r6]
 862 0146 0795     		str	r5, [sp, #28]
 863 0148 3A4D     		ldr	r5, .L97+108
 864 014a 2D78     		ldrb	r5, [r5]
 865 014c 0695     		str	r5, [sp, #24]
 866 014e 3A4D     		ldr	r5, .L97+112
 867 0150 2D78     		ldrb	r5, [r5]
 868 0152 0595     		str	r5, [sp, #20]
 869 0154 394D     		ldr	r5, .L97+116
 870 0156 2D68     		ldr	r5, [r5]
 871 0158 0394     		str	r4, [sp, #12]
 872 015a 0024     		movs	r4, #0
 873 015c 0291     		str	r1, [sp, #8]
 874 015e 0092     		str	r2, [sp]
 875 0160 0193     		str	r3, [sp, #4]
 876 0162 0C9A     		ldr	r2, [sp, #48]
 877 0164 0D9B     		ldr	r3, [sp, #52]
 878 0166 0495     		str	r5, [sp, #16]
 879 0168 FFF7FEFF 		bl	hal_trace_print_var
 880 016c 0020     		movs	r0, #0
 881 016e FFF7FEFF 		bl	PC10Callback
 882 0172 0020     		movs	r0, #0
 883 0174 FFF7FEFF 		bl	PC11Callback
 884 0178 0020     		movs	r0, #0
 885 017a FFF7FEFF 		bl	PA15Callback
 886 017e 224B     		ldr	r3, .L97+64
 887 0180 1C70     		strb	r4, [r3]
 888 0182 2F4B     		ldr	r3, .L97+120
 889 0184 1A68     		ldr	r2, [r3]
 890 0186 312A     		cmp	r2, #49
 891 0188 09D9     		bls	.L88
 892 018a 2E48     		ldr	r0, .L97+124
 893 018c 1C60     		str	r4, [r3]
 894 018e FFF7FEFF 		bl	hal_trace_print_var
 895 0192 0B98     		ldr	r0, [sp, #44]
 896 0194 FFF7FEFF 		bl	hal_trace_print_var
 897 0198 2000     		movs	r0, r4
 898 019a FFF7FEFF 		bl	smtc_modem_lorawan_request_link_check
 899              	.L88:
 900 019e 2720     		movs	r0, #39
 901 01a0 FFF7FEFF 		bl	hal_gpio_get_value
 902 01a4 0100     		movs	r1, r0
 903 01a6 0128     		cmp	r0, #1
 904 01a8 07D1     		bne	.L92
 905 01aa 2120     		movs	r0, #33
 906 01ac FFF7FEFF 		bl	hal_gpio_set_value
 907 01b0 0021     		movs	r1, #0
 908              	.L96:
 909 01b2 2720     		movs	r0, #39
 910 01b4 FFF7FEFF 		bl	hal_gpio_set_value
 911 01b8 84E7     		b	.L86
ARM GAS  /tmp/ccpnZT0c.s 			page 20


 912              	.L92:
 913 01ba 0021     		movs	r1, #0
 914 01bc 2120     		movs	r0, #33
 915 01be FFF7FEFF 		bl	hal_gpio_set_value
 916 01c2 0121     		movs	r1, #1
 917 01c4 F5E7     		b	.L96
 918              	.L98:
 919 01c6 C046     		.align	2
 920              	.L97:
 921 01c8 09000000 		.word	.LC115
 922 01cc 5B000000 		.word	.LC117
 923 01d0 70000000 		.word	.LC119
 924 01d4 77000000 		.word	.LC121
 925 01d8 00000000 		.word	get_event
 926 01dc 00000000 		.word	modem_radio
 927 01e0 82000000 		.word	.LC125
 928 01e4 1E000000 		.word	.LC6
 929 01e8 00000000 		.word	periodic_timer
 930 01ec 00000000 		.word	periodic_timer_cb
 931 01f0 60EA0000 		.word	60000
 932 01f4 00000000 		.word	water_timer
 933 01f8 00000000 		.word	water_timer_cb
 934 01fc 00000000 		.word	door_timer
 935 0200 00000000 		.word	door_timer_cb
 936 0204 A9000000 		.word	.LC134
 937 0208 00000000 		.word	periodic_message_flag
 938 020c 00000000 		.word	water
 939 0210 00000000 		.word	door
 940 0214 00000000 		.word	Voltage
 941 0218 00000000 		.word	temp
 942 021c 05000000 		.word	.LC113
 943 0220 00000000 		.word	.LC111
 944 0224 00000000 		.word	z
 945 0228 D4000000 		.word	.LC141
 946 022c 00000000 		.word	y
 947 0230 00000000 		.word	x
 948 0234 00000000 		.word	hastydata2
 949 0238 00000000 		.word	hastydata1
 950 023c 00000000 		.word	cntup
 951 0240 00000000 		.word	txdone_counter
 952 0244 38010000 		.word	.LC150
 954              		.global	door_timer
 955              		.section	.bss.door_timer,"aw",%nobits
 956              		.align	2
 959              	door_timer:
 960 0000 00000000 		.space	24
 960      00000000 
 960      00000000 
 960      00000000 
 960      00000000 
 961              		.global	water_timer
 962              		.section	.bss.water_timer,"aw",%nobits
 963              		.align	2
 966              	water_timer:
 967 0000 00000000 		.space	24
 967      00000000 
 967      00000000 
ARM GAS  /tmp/ccpnZT0c.s 			page 21


 967      00000000 
 967      00000000 
 968              		.section	.bss.periodic_timer,"aw",%nobits
 969              		.align	2
 972              	periodic_timer:
 973 0000 00000000 		.space	24
 973      00000000 
 973      00000000 
 973      00000000 
 973      00000000 
 974              		.global	z
 975              		.section	.bss.z,"aw",%nobits
 976              		.align	1
 979              	z:
 980 0000 0000     		.space	2
 981              		.global	y
 982              		.section	.bss.y,"aw",%nobits
 983              		.align	1
 986              	y:
 987 0000 0000     		.space	2
 988              		.global	x
 989              		.section	.bss.x,"aw",%nobits
 990              		.align	1
 993              	x:
 994 0000 0000     		.space	2
 995              		.global	link_check_attempts
 996              		.section	.bss.link_check_attempts,"aw",%nobits
 997              		.align	2
 1000              	link_check_attempts:
 1001 0000 00000000 		.space	4
 1002              		.global	txdone_counter
 1003              		.section	.bss.txdone_counter,"aw",%nobits
 1004              		.align	2
 1007              	txdone_counter:
 1008 0000 00000000 		.space	4
 1009              		.section	.bss.rx_payload_size,"aw",%nobits
 1012              	rx_payload_size:
 1013 0000 00       		.space	1
 1014              		.section	.bss.rx_payload,"aw",%nobits
 1015              		.align	2
 1018              	rx_payload:
 1019 0000 00000000 		.space	255
 1019      00000000 
 1019      00000000 
 1019      00000000 
 1019      00000000 
 1020              		.global	cntup
 1021              		.section	.bss.cntup,"aw",%nobits
 1022              		.align	2
 1025              	cntup:
 1026 0000 00000000 		.space	4
 1027              		.global	prev_water
 1028              		.section	.data.prev_water,"aw"
 1029              		.align	2
 1032              	prev_water:
 1033 0000 FFFFFFFF 		.word	-1
 1034              		.global	water
ARM GAS  /tmp/ccpnZT0c.s 			page 22


 1035              		.section	.bss.water,"aw",%nobits
 1036              		.align	2
 1039              	water:
 1040 0000 00000000 		.space	4
 1041              		.global	prev_door
 1042              		.section	.data.prev_door,"aw"
 1043              		.align	2
 1046              	prev_door:
 1047 0000 FFFFFFFF 		.word	-1
 1048              		.global	door
 1049              		.section	.bss.door,"aw",%nobits
 1050              		.align	2
 1053              	door:
 1054 0000 00000000 		.space	4
 1055              		.global	VDR
 1056              		.section	.data.VDR,"aw"
 1057              		.align	2
 1060              	VDR:
 1061 0000 CA269B40 		.word	1083909834
 1062              		.global	Voltage
 1063              		.section	.bss.Voltage,"aw",%nobits
 1064              		.align	2
 1067              	Voltage:
 1068 0000 00000000 		.space	4
 1069              		.global	temp
 1070              		.section	.bss.temp,"aw",%nobits
 1071              		.align	2
 1074              	temp:
 1075 0000 00000000 		.space	4
 1076              		.section	.data.firstflag,"aw"
 1079              	firstflag:
 1080 0000 01       		.byte	1
 1081              		.global	hastydata2
 1082              		.section	.bss.hastydata2,"aw",%nobits
 1085              	hastydata2:
 1086 0000 00       		.space	1
 1087              		.global	hastydata1
 1088              		.section	.bss.hastydata1,"aw",%nobits
 1091              	hastydata1:
 1092 0000 00       		.space	1
 1093              		.section	.bss.periodic_message_flag,"aw",%nobits
 1096              	periodic_message_flag:
 1097 0000 00       		.space	1
 1098              		.global	hadc
 1099              		.section	.bss.hadc,"aw",%nobits
 1100              		.align	2
 1103              	hadc:
 1104 0000 00000000 		.space	92
 1104      00000000 
 1104      00000000 
 1104      00000000 
 1104      00000000 
 1105              		.global	modem_radio
 1106              		.section	.rodata.modem_radio,"a"
 1107              		.align	2
 1110              	modem_radio:
 1111 0000 00000000 		.word	0
ARM GAS  /tmp/ccpnZT0c.s 			page 23


 1112 0004 00000000 		.word	ral_lr11xx_handles_part
 1113 0008 00000000 		.word	ral_lr11xx_reset
 1114 000c 00000000 		.word	ral_lr11xx_init
 1115 0010 00000000 		.word	ral_lr11xx_wakeup
 1116 0014 00000000 		.word	ral_lr11xx_set_sleep
 1117 0018 00000000 		.word	ral_lr11xx_set_standby
 1118 001c 00000000 		.word	ral_lr11xx_set_fs
 1119 0020 00000000 		.word	ral_lr11xx_set_tx
 1120 0024 00000000 		.word	ral_lr11xx_set_rx
 1121 0028 00000000 		.word	ral_lr11xx_cfg_rx_boosted
 1122 002c 00000000 		.word	ral_lr11xx_set_rx_tx_fallback_mode
 1123 0030 00000000 		.word	ral_lr11xx_stop_timer_on_preamble
 1124 0034 00000000 		.word	ral_lr11xx_set_rx_duty_cycle
 1125 0038 00000000 		.word	ral_lr11xx_set_lora_cad
 1126 003c 00000000 		.word	ral_lr11xx_set_tx_cw
 1127 0040 00000000 		.word	ral_lr11xx_set_tx_infinite_preamble
 1128 0044 00000000 		.word	ral_lr11xx_cal_img
 1129 0048 00000000 		.word	ral_lr11xx_set_tx_cfg
 1130 004c 00000000 		.word	ral_lr11xx_set_pkt_payload
 1131 0050 00000000 		.word	ral_lr11xx_get_pkt_payload
 1132 0054 00000000 		.word	ral_lr11xx_get_irq_status
 1133 0058 00000000 		.word	ral_lr11xx_clear_irq_status
 1134 005c 00000000 		.word	ral_lr11xx_get_and_clear_irq_status
 1135 0060 00000000 		.word	ral_lr11xx_set_dio_irq_params
 1136 0064 00000000 		.word	ral_lr11xx_set_rf_freq
 1137 0068 00000000 		.word	ral_lr11xx_set_pkt_type
 1138 006c 00000000 		.word	ral_lr11xx_get_pkt_type
 1139 0070 00000000 		.word	ral_lr11xx_set_gfsk_mod_params
 1140 0074 00000000 		.word	ral_lr11xx_set_gfsk_pkt_params
 1141 0078 00000000 		.word	ral_lr11xx_set_lora_mod_params
 1142 007c 00000000 		.word	ral_lr11xx_set_lora_pkt_params
 1143 0080 00000000 		.word	ral_lr11xx_set_lora_cad_params
 1144 0084 00000000 		.word	ral_lr11xx_set_lora_symb_nb_timeout
 1145 0088 00000000 		.word	ral_lr11xx_set_flrc_mod_params
 1146 008c 00000000 		.word	ral_lr11xx_set_flrc_pkt_params
 1147 0090 00000000 		.word	ral_lr11xx_get_gfsk_rx_pkt_status
 1148 0094 00000000 		.word	ral_lr11xx_get_lora_rx_pkt_status
 1149 0098 00000000 		.word	ral_lr11xx_get_flrc_rx_pkt_status
 1150 009c 00000000 		.word	ral_lr11xx_get_rssi_inst
 1151 00a0 00000000 		.word	ral_lr11xx_get_lora_time_on_air_in_ms
 1152 00a4 00000000 		.word	ral_lr11xx_get_gfsk_time_on_air_in_ms
 1153 00a8 00000000 		.word	ral_lr11xx_get_flrc_time_on_air_in_ms
 1154 00ac 00000000 		.word	ral_lr11xx_set_gfsk_sync_word
 1155 00b0 00000000 		.word	ral_lr11xx_set_lora_sync_word
 1156 00b4 00000000 		.word	ral_lr11xx_set_flrc_sync_word
 1157 00b8 00000000 		.word	ral_lr11xx_set_gfsk_crc_params
 1158 00bc 00000000 		.word	ral_lr11xx_set_flrc_crc_params
 1159 00c0 00000000 		.word	ral_lr11xx_set_gfsk_whitening_seed
 1160 00c4 00000000 		.word	ral_lr11xx_lr_fhss_init
 1161 00c8 00000000 		.word	ral_lr11xx_lr_fhss_build_frame
 1162 00cc 00000000 		.word	ral_lr11xx_lr_fhss_handle_hop
 1163 00d0 00000000 		.word	ral_lr11xx_lr_fhss_handle_tx_done
 1164 00d4 00000000 		.word	ral_lr11xx_lr_fhss_get_time_on_air_in_ms
 1165 00d8 00000000 		.word	ral_lr11xx_lr_fhss_get_hop_sequence_count
 1166 00dc 00000000 		.word	ral_lr11xx_get_lora_rx_pkt_cr_crc
 1167 00e0 00000000 		.word	ral_lr11xx_get_tx_consumption_in_ua
 1168 00e4 00000000 		.word	ral_lr11xx_get_gfsk_rx_consumption_in_ua
ARM GAS  /tmp/ccpnZT0c.s 			page 24


 1169 00e8 00000000 		.word	ral_lr11xx_get_lora_rx_consumption_in_ua
 1170 00ec 00000000 		.word	ral_lr11xx_get_random_numbers
 1171 00f0 00000000 		.word	ralf_lr11xx_setup_gfsk
 1172 00f4 00000000 		.word	ralf_lr11xx_setup_lora
 1173 00f8 00000000 		.word	ralf_lr11xx_setup_flrc
 1174              		.ident	"GCC: (Arch Repository) 13.2.0"
ARM GAS  /tmp/ccpnZT0c.s 			page 25


DEFINED SYMBOLS
                            *ABS*:00000000 main.c
     /tmp/ccpnZT0c.s:17     .text.periodic_timer_cb:00000000 $t
     /tmp/ccpnZT0c.s:22     .text.periodic_timer_cb:00000000 periodic_timer_cb
     /tmp/ccpnZT0c.s:38     .text.periodic_timer_cb:00000018 $d
     /tmp/ccpnZT0c.s:1096   .bss.periodic_message_flag:00000000 periodic_message_flag
     /tmp/ccpnZT0c.s:972    .bss.periodic_timer:00000000 periodic_timer
     /tmp/ccpnZT0c.s:115    .text.get_event:00000000 $t
     /tmp/ccpnZT0c.s:120    .text.get_event:00000000 get_event
     /tmp/ccpnZT0c.s:141    .text.get_event:00000022 $d
     /tmp/ccpnZT0c.s:382    .text.get_event:000001fc $d
     /tmp/ccpnZT0c.s:1079   .data.firstflag:00000000 firstflag
     /tmp/ccpnZT0c.s:1039   .bss.water:00000000 water
     /tmp/ccpnZT0c.s:1074   .bss.temp:00000000 temp
     /tmp/ccpnZT0c.s:1053   .bss.door:00000000 door
     /tmp/ccpnZT0c.s:1067   .bss.Voltage:00000000 Voltage
     /tmp/ccpnZT0c.s:1018   .bss.rx_payload:00000000 rx_payload
     /tmp/ccpnZT0c.s:1012   .bss.rx_payload_size:00000000 rx_payload_size
     /tmp/ccpnZT0c.s:1000   .bss.link_check_attempts:00000000 link_check_attempts
     /tmp/ccpnZT0c.s:439    .text.gps_snap:00000000 $t
     /tmp/ccpnZT0c.s:445    .text.gps_snap:00000000 gps_snap
     /tmp/ccpnZT0c.s:483    .text.gps_snap:0000004c $d
     /tmp/ccpnZT0c.s:491    .text.PC10Callback:00000000 $t
     /tmp/ccpnZT0c.s:497    .text.PC10Callback:00000000 PC10Callback
     /tmp/ccpnZT0c.s:535    .text.PC10Callback:00000040 $d
     /tmp/ccpnZT0c.s:1091   .bss.hastydata1:00000000 hastydata1
     /tmp/ccpnZT0c.s:1032   .data.prev_water:00000000 prev_water
     /tmp/ccpnZT0c.s:966    .bss.water_timer:00000000 water_timer
     /tmp/ccpnZT0c.s:544    .text.water_timer_cb:00000000 $t
     /tmp/ccpnZT0c.s:549    .text.water_timer_cb:00000000 water_timer_cb
     /tmp/ccpnZT0c.s:564    .text.water_timer_cb:00000014 $d
     /tmp/ccpnZT0c.s:568    .text.PC11Callback:00000000 $t
     /tmp/ccpnZT0c.s:574    .text.PC11Callback:00000000 PC11Callback
     /tmp/ccpnZT0c.s:618    .text.PC11Callback:0000004c $d
     /tmp/ccpnZT0c.s:1085   .bss.hastydata2:00000000 hastydata2
     /tmp/ccpnZT0c.s:1046   .data.prev_door:00000000 prev_door
     /tmp/ccpnZT0c.s:959    .bss.door_timer:00000000 door_timer
     /tmp/ccpnZT0c.s:627    .text.door_timer_cb:00000000 $t
     /tmp/ccpnZT0c.s:632    .text.door_timer_cb:00000000 door_timer_cb
     /tmp/ccpnZT0c.s:647    .text.door_timer_cb:00000014 $d
     /tmp/ccpnZT0c.s:654    .text.PA15Callback:00000000 $t
     /tmp/ccpnZT0c.s:660    .text.PA15Callback:00000000 PA15Callback
     /tmp/ccpnZT0c.s:691    .text.PA15Callback:00000034 $d
     /tmp/ccpnZT0c.s:979    .bss.z:00000000 z
     /tmp/ccpnZT0c.s:986    .bss.y:00000000 y
     /tmp/ccpnZT0c.s:993    .bss.x:00000000 x
     /tmp/ccpnZT0c.s:722    .text.startup.main:00000000 $t
     /tmp/ccpnZT0c.s:728    .text.startup.main:00000000 main
     /tmp/ccpnZT0c.s:921    .text.startup.main:000001c8 $d
     /tmp/ccpnZT0c.s:1110   .rodata.modem_radio:00000000 modem_radio
     /tmp/ccpnZT0c.s:1025   .bss.cntup:00000000 cntup
     /tmp/ccpnZT0c.s:1007   .bss.txdone_counter:00000000 txdone_counter
     /tmp/ccpnZT0c.s:956    .bss.door_timer:00000000 $d
     /tmp/ccpnZT0c.s:963    .bss.water_timer:00000000 $d
     /tmp/ccpnZT0c.s:969    .bss.periodic_timer:00000000 $d
     /tmp/ccpnZT0c.s:976    .bss.z:00000000 $d
     /tmp/ccpnZT0c.s:983    .bss.y:00000000 $d
ARM GAS  /tmp/ccpnZT0c.s 			page 26


     /tmp/ccpnZT0c.s:990    .bss.x:00000000 $d
     /tmp/ccpnZT0c.s:997    .bss.link_check_attempts:00000000 $d
     /tmp/ccpnZT0c.s:1004   .bss.txdone_counter:00000000 $d
     /tmp/ccpnZT0c.s:1013   .bss.rx_payload_size:00000000 $d
     /tmp/ccpnZT0c.s:1015   .bss.rx_payload:00000000 $d
     /tmp/ccpnZT0c.s:1022   .bss.cntup:00000000 $d
     /tmp/ccpnZT0c.s:1029   .data.prev_water:00000000 $d
     /tmp/ccpnZT0c.s:1036   .bss.water:00000000 $d
     /tmp/ccpnZT0c.s:1043   .data.prev_door:00000000 $d
     /tmp/ccpnZT0c.s:1050   .bss.door:00000000 $d
     /tmp/ccpnZT0c.s:1060   .data.VDR:00000000 VDR
     /tmp/ccpnZT0c.s:1057   .data.VDR:00000000 $d
     /tmp/ccpnZT0c.s:1064   .bss.Voltage:00000000 $d
     /tmp/ccpnZT0c.s:1071   .bss.temp:00000000 $d
     /tmp/ccpnZT0c.s:1086   .bss.hastydata2:00000000 $d
     /tmp/ccpnZT0c.s:1092   .bss.hastydata1:00000000 $d
     /tmp/ccpnZT0c.s:1097   .bss.periodic_message_flag:00000000 $d
     /tmp/ccpnZT0c.s:1103   .bss.hadc:00000000 hadc
     /tmp/ccpnZT0c.s:1100   .bss.hadc:00000000 $d
     /tmp/ccpnZT0c.s:1107   .rodata.modem_radio:00000000 $d
     /tmp/ccpnZT0c.s:162    .text.get_event:00000037 $d
     /tmp/ccpnZT0c.s:162    .text.get_event:00000038 $t

UNDEFINED SYMBOLS
hal_trace_print_var
TimerStart
smtc_modem_get_event
__gnu_thumb1_case_uqi
smtc_modem_set_deveui
smtc_modem_set_joineui
smtc_modem_set_nwkkey
smtc_modem_set_region
smtc_modem_join_network
memcpy
smtc_modem_request_uplink
sendData
smtc_modem_leave_network
settings
lr11xx_gnss_scan_autonomous
hal_mcu_delay_ms
lr11xx_gnss_get_nb_detected_satellites
hal_gpio_get_value
wateralarm
dooralarm
adxl343_read_xyz
__aeabi_f2d
hal_mcu_disable_irq
hal_mcu_init
smtc_modem_init
smtc_modem_get_modem_version
settings_init
GPIO_Init
adxl343_init
hal_mcu_enable_irq
hal_gpio_irq_enable
TimerInit
TimerSetValue
ARM GAS  /tmp/ccpnZT0c.s 			page 27


TimerSetContext
lr11xx_system_get_version
hal_rtc_get_time_ms
smtc_modem_run_engine
hal_mcu_set_sleep_for_ms
sensor_read
smtc_modem_lorawan_request_link_check
hal_gpio_set_value
ral_lr11xx_handles_part
ral_lr11xx_reset
ral_lr11xx_init
ral_lr11xx_wakeup
ral_lr11xx_set_sleep
ral_lr11xx_set_standby
ral_lr11xx_set_fs
ral_lr11xx_set_tx
ral_lr11xx_set_rx
ral_lr11xx_cfg_rx_boosted
ral_lr11xx_set_rx_tx_fallback_mode
ral_lr11xx_stop_timer_on_preamble
ral_lr11xx_set_rx_duty_cycle
ral_lr11xx_set_lora_cad
ral_lr11xx_set_tx_cw
ral_lr11xx_set_tx_infinite_preamble
ral_lr11xx_cal_img
ral_lr11xx_set_tx_cfg
ral_lr11xx_set_pkt_payload
ral_lr11xx_get_pkt_payload
ral_lr11xx_get_irq_status
ral_lr11xx_clear_irq_status
ral_lr11xx_get_and_clear_irq_status
ral_lr11xx_set_dio_irq_params
ral_lr11xx_set_rf_freq
ral_lr11xx_set_pkt_type
ral_lr11xx_get_pkt_type
ral_lr11xx_set_gfsk_mod_params
ral_lr11xx_set_gfsk_pkt_params
ral_lr11xx_set_lora_mod_params
ral_lr11xx_set_lora_pkt_params
ral_lr11xx_set_lora_cad_params
ral_lr11xx_set_lora_symb_nb_timeout
ral_lr11xx_set_flrc_mod_params
ral_lr11xx_set_flrc_pkt_params
ral_lr11xx_get_gfsk_rx_pkt_status
ral_lr11xx_get_lora_rx_pkt_status
ral_lr11xx_get_flrc_rx_pkt_status
ral_lr11xx_get_rssi_inst
ral_lr11xx_get_lora_time_on_air_in_ms
ral_lr11xx_get_gfsk_time_on_air_in_ms
ral_lr11xx_get_flrc_time_on_air_in_ms
ral_lr11xx_set_gfsk_sync_word
ral_lr11xx_set_lora_sync_word
ral_lr11xx_set_flrc_sync_word
ral_lr11xx_set_gfsk_crc_params
ral_lr11xx_set_flrc_crc_params
ral_lr11xx_set_gfsk_whitening_seed
ral_lr11xx_lr_fhss_init
ARM GAS  /tmp/ccpnZT0c.s 			page 28


ral_lr11xx_lr_fhss_build_frame
ral_lr11xx_lr_fhss_handle_hop
ral_lr11xx_lr_fhss_handle_tx_done
ral_lr11xx_lr_fhss_get_time_on_air_in_ms
ral_lr11xx_lr_fhss_get_hop_sequence_count
ral_lr11xx_get_lora_rx_pkt_cr_crc
ral_lr11xx_get_tx_consumption_in_ua
ral_lr11xx_get_gfsk_rx_consumption_in_ua
ral_lr11xx_get_lora_rx_consumption_in_ua
ral_lr11xx_get_random_numbers
ralf_lr11xx_setup_gfsk
ralf_lr11xx_setup_lora
ralf_lr11xx_setup_flrc
