ARM GAS  /tmp/cc0nrffp.s 			page 1


   1              		.cpu cortex-m0
   2              		.arch armv6s-m
   3              		.fpu softvfp
   4              		.eabi_attribute 23, 1
   5              		.eabi_attribute 24, 1
   6              		.eabi_attribute 25, 1
   7              		.eabi_attribute 26, 1
   8              		.eabi_attribute 30, 4
   9              		.eabi_attribute 34, 0
  10              		.eabi_attribute 18, 4
  11              		.file	"main.c"
  12              		.text
  13              		.section	.rodata.door_timer_cb.str1.1,"aMS",%progbits,1
  14              	.LC0:
  15 0000 646F6F72 		.ascii	"door_timer_cb\012\015\000"
  15      5F74696D 
  15      65725F63 
  15      620A0D00 
  16              		.section	.text.door_timer_cb,"ax",%progbits
  17              		.align	1
  18              		.syntax unified
  19              		.code	16
  20              		.thumb_func
  22              	door_timer_cb:
  23              		@ args = 0, pretend = 0, frame = 0
  24              		@ frame_needed = 0, uses_anonymous_args = 0
  25 0000 10B5     		push	{r4, lr}
  26 0002 0348     		ldr	r0, .L2
  27 0004 FFF7FEFF 		bl	hal_trace_print_var
  28              		@ sp needed
  29 0008 0122     		movs	r2, #1
  30 000a 024B     		ldr	r3, .L2+4
  31 000c 1A70     		strb	r2, [r3]
  32 000e 10BD     		pop	{r4, pc}
  33              	.L3:
  34              		.align	2
  35              	.L2:
  36 0010 00000000 		.word	.LC0
  37 0014 00000000 		.word	door_alarm_flag
  39              		.section	.rodata.water_timer_cb.str1.1,"aMS",%progbits,1
  40              	.LC3:
  41 0000 77617465 		.ascii	"water_timer_cb\012\015\000"
  41      725F7469 
  41      6D65725F 
  41      63620A0D 
  41      00
  42              		.section	.text.water_timer_cb,"ax",%progbits
  43              		.align	1
  44              		.syntax unified
  45              		.code	16
  46              		.thumb_func
  48              	water_timer_cb:
  49              		@ args = 0, pretend = 0, frame = 0
  50              		@ frame_needed = 0, uses_anonymous_args = 0
  51 0000 10B5     		push	{r4, lr}
  52 0002 0348     		ldr	r0, .L5
  53 0004 FFF7FEFF 		bl	hal_trace_print_var
ARM GAS  /tmp/cc0nrffp.s 			page 2


  54              		@ sp needed
  55 0008 0122     		movs	r2, #1
  56 000a 024B     		ldr	r3, .L5+4
  57 000c 1A70     		strb	r2, [r3]
  58 000e 10BD     		pop	{r4, pc}
  59              	.L6:
  60              		.align	2
  61              	.L5:
  62 0010 00000000 		.word	.LC3
  63 0014 00000000 		.word	water_alarm_flag
  65              		.section	.rodata.periodic_timer_cb.str1.1,"aMS",%progbits,1
  66              	.LC6:
  67 0000 70657269 		.ascii	"periodic_timer_cb\012\015\000"
  67      6F646963 
  67      5F74696D 
  67      65725F63 
  67      620A0D00 
  68              		.section	.text.periodic_timer_cb,"ax",%progbits
  69              		.align	1
  70              		.syntax unified
  71              		.code	16
  72              		.thumb_func
  74              	periodic_timer_cb:
  75              		@ args = 0, pretend = 0, frame = 0
  76              		@ frame_needed = 0, uses_anonymous_args = 0
  77 0000 10B5     		push	{r4, lr}
  78 0002 0548     		ldr	r0, .L8
  79 0004 FFF7FEFF 		bl	hal_trace_print_var
  80              		@ sp needed
  81 0008 0122     		movs	r2, #1
  82 000a 044B     		ldr	r3, .L8+4
  83 000c 0448     		ldr	r0, .L8+8
  84 000e 1A70     		strb	r2, [r3]
  85 0010 FFF7FEFF 		bl	TimerStart
  86 0014 10BD     		pop	{r4, pc}
  87              	.L9:
  88 0016 C046     		.align	2
  89              	.L8:
  90 0018 00000000 		.word	.LC6
  91 001c 00000000 		.word	periodic_message_flag
  92 0020 00000000 		.word	periodic_timer
  94              		.section	.rodata.get_event.str1.1,"aMS",%progbits,1
  95              	.LC10:
  96 0000 494E464F 		.ascii	"INFO: Event received: RESET\012\015\000"
  96      3A204576 
  96      656E7420 
  96      72656365 
  96      69766564 
  97              	.LC12:
  98 001e 00       		.ascii	"\000"
  99              	.LC17:
 100 001f 494E464F 		.ascii	"INFO: Event received: ALARM\012\015\000"
 100      3A204576 
 100      656E7420 
 100      72656365 
 100      69766564 
 101              	.LC19:
ARM GAS  /tmp/cc0nrffp.s 			page 3


 102 003d 494E464F 		.ascii	"INFO: Event received: JOINED\012\015\000"
 102      3A204576 
 102      656E7420 
 102      72656365 
 102      69766564 
 103              	.LC21:
 104 005c 494E464F 		.ascii	"INFO: Modem is now joined \012\015\000"
 104      3A204D6F 
 104      64656D20 
 104      6973206E 
 104      6F77206A 
 105              	.LC23:
 106 0079 494E464F 		.ascii	"INFO: Send hello_world message \012\015\000"
 106      3A205365 
 106      6E642068 
 106      656C6C6F 
 106      5F776F72 
 107              	.LC28:
 108 009b 2D2D2D2D 		.ascii	"------------<sending first data>------------\012\015"
 108      2D2D2D2D 
 108      2D2D2D2D 
 108      3C73656E 
 108      64696E67 
 109 00c9 00       		.ascii	"\000"
 110              	.LC33:
 111 00ca 494E464F 		.ascii	"INFO: Event received: TXDONE\012\015\000"
 111      3A204576 
 111      656E7420 
 111      72656365 
 111      69766564 
 112              	.LC35:
 113 00e9 494E464F 		.ascii	"INFO: Transmission done \012\015\000"
 113      3A205472 
 113      616E736D 
 113      69737369 
 113      6F6E2064 
 114              	.LC38:
 115 0104 494E464F 		.ascii	"INFO: Event received: DOWNDATA\012\015\000"
 115      3A204576 
 115      656E7420 
 115      72656365 
 115      69766564 
 116              	.LC42:
 117 0125 44617461 		.ascii	"Data received on port %u \012\015\000"
 117      20726563 
 117      65697665 
 117      64206F6E 
 117      20706F72 
 118              	.LC44:
 119 0141 52656365 		.ascii	"Received payload \012\015\000"
 119      69766564 
 119      20706179 
 119      6C6F6164 
 119      200A0D00 
 120              	.LC46:
 121 0155 2573202D 		.ascii	"%s - (%lu bytes):\012\015\000"
 121      2028256C 
ARM GAS  /tmp/cc0nrffp.s 			page 4


 121      75206279 
 121      74657329 
 121      3A0A0D00 
 122              	.LC48:
 123 0169 0A0D00   		.ascii	"\012\015\000"
 124              	.LC50:
 125 016c 20253032 		.ascii	" %02X\000"
 125      5800
 126              	.LC52:
 127 0172 494E464F 		.ascii	"INFO: Event received: UPLOADDONE\012\015\000"
 127      3A204576 
 127      656E7420 
 127      72656365 
 127      69766564 
 128              	.LC54:
 129 0195 494E464F 		.ascii	"INFO: Event received: SETCONF\012\015\000"
 129      3A204576 
 129      656E7420 
 129      72656365 
 129      69766564 
 130              	.LC56:
 131 01b5 494E464F 		.ascii	"INFO: Event received: MUTE\012\015\000"
 131      3A204576 
 131      656E7420 
 131      72656365 
 131      69766564 
 132              	.LC58:
 133 01d2 494E464F 		.ascii	"INFO: Event received: STREAMDONE\012\015\000"
 133      3A204576 
 133      656E7420 
 133      72656365 
 133      69766564 
 134              	.LC60:
 135 01f5 494E464F 		.ascii	"INFO: Event received: JOINFAIL\012\015\000"
 135      3A204576 
 135      656E7420 
 135      72656365 
 135      69766564 
 136              	.LC62:
 137 0216 5741524E 		.ascii	"WARN: Join request failed \012\015\000"
 137      3A204A6F 
 137      696E2072 
 137      65717565 
 137      73742066 
 138              	.LC64:
 139 0233 494E464F 		.ascii	"INFO: Event received: TIME\012\015\000"
 139      3A204576 
 139      656E7420 
 139      72656365 
 139      69766564 
 140              	.LC66:
 141 0250 494E464F 		.ascii	"INFO: Event received: TIMEOUT_ADR_CHANGED\012\015\000"
 141      3A204576 
 141      656E7420 
 141      72656365 
 141      69766564 
 142              	.LC68:
ARM GAS  /tmp/cc0nrffp.s 			page 5


 143 027c 494E464F 		.ascii	"INFO: Event received: NEW_LINK_ADR\012\015\000"
 143      3A204576 
 143      656E7420 
 143      72656365 
 143      69766564 
 144              	.LC70:
 145 02a1 494E464F 		.ascii	"INFO: Event received: LINK_CHECK\012\015\000"
 145      3A204576 
 145      656E7420 
 145      72656365 
 145      69766564 
 146              	.LC72:
 147 02c4 494E464F 		.ascii	"INFO: Link check successfull\012\015\000"
 147      3A204C69 
 147      6E6B2063 
 147      6865636B 
 147      20737563 
 148              	.LC75:
 149 02e3 494E464F 		.ascii	"INFO: Link check failed\012\000"
 149      3A204C69 
 149      6E6B2063 
 149      6865636B 
 149      20666169 
 150              	.LC77:
 151 02fc 494E464F 		.ascii	"INFO: Link check failed %d times, rejoin network\012"
 151      3A204C69 
 151      6E6B2063 
 151      6865636B 
 151      20666169 
 152 032d 0D00     		.ascii	"\015\000"
 153              	.LC79:
 154 032f 494E464F 		.ascii	"INFO: Event received: ALMANAC_UPDATE\012\015\000"
 154      3A204576 
 154      656E7420 
 154      72656365 
 154      69766564 
 155              	.LC81:
 156 0356 494E464F 		.ascii	"INFO: Event received: USER_RADIO_ACCESS\012\015\000"
 156      3A204576 
 156      656E7420 
 156      72656365 
 156      69766564 
 157              	.LC83:
 158 0380 494E464F 		.ascii	"INFO: Event received: CLASS_B_PING_SLOT_INFO\012\015"
 158      3A204576 
 158      656E7420 
 158      72656365 
 158      69766564 
 159 03ae 00       		.ascii	"\000"
 160              	.LC85:
 161 03af 494E464F 		.ascii	"INFO: Event received: CLASS_B_STATUS\012\015\000"
 161      3A204576 
 161      656E7420 
 161      72656365 
 161      69766564 
 162              	.LC87:
 163 03d6 4552524F 		.ascii	"ERROR: Unknown event %u\012\015\000"
ARM GAS  /tmp/cc0nrffp.s 			page 6


 163      523A2055 
 163      6E6B6E6F 
 163      776E2065 
 163      76656E74 
 164              	.LC25:
 165 03f0 68656C6C 		.ascii	"hello_world\000"
 165      6F5F776F 
 165      726C6400 
 166              		.section	.text.get_event,"ax",%progbits
 167              		.align	1
 168              		.syntax unified
 169              		.code	16
 170              		.thumb_func
 172              	get_event:
 173              		@ args = 0, pretend = 0, frame = 280
 174              		@ frame_needed = 0, uses_anonymous_args = 0
 175 0000 F0B5     		push	{r4, r5, r6, r7, lr}
 176 0002 C9B0     		sub	sp, sp, #292
 177              	.L38:
 178 0004 0B26     		movs	r6, #11
 179 0006 06AC     		add	r4, sp, #24
 180 0008 6E44     		add	r6, r6, sp
 181 000a 3100     		movs	r1, r6
 182 000c 2000     		movs	r0, r4
 183 000e FFF7FEFF 		bl	smtc_modem_get_event
 184 0012 6178     		ldrb	r1, [r4, #1]
 185 0014 8D4D     		ldr	r5, .L50
 186 0016 1429     		cmp	r1, #20
 187 0018 00D9     		bls	.LCB86
 188 001a 11E1     		b	.L11	@long jump
 189              	.LCB86:
 190 001c 0800     		movs	r0, r1
 191 001e FFF7FEFF 		bl	__gnu_thumb1_case_uhi
 192              	.L13:
 193 0022 1500     		.2byte	(.L30-.L13)/2
 194 0024 3100     		.2byte	(.L29-.L13)/2
 195 0026 3600     		.2byte	(.L28-.L13)/2
 196 0028 8300     		.2byte	(.L27-.L13)/2
 197 002a 9800     		.2byte	(.L26-.L13)/2
 198 002c C800     		.2byte	(.L25-.L13)/2
 199 002e CA00     		.2byte	(.L24-.L13)/2
 200 0030 CC00     		.2byte	(.L23-.L13)/2
 201 0032 CE00     		.2byte	(.L22-.L13)/2
 202 0034 0F01     		.2byte	(.L11-.L13)/2
 203 0036 D000     		.2byte	(.L21-.L13)/2
 204 0038 0F01     		.2byte	(.L11-.L13)/2
 205 003a 0F01     		.2byte	(.L11-.L13)/2
 206 003c D800     		.2byte	(.L20-.L13)/2
 207 003e DA00     		.2byte	(.L19-.L13)/2
 208 0040 DC00     		.2byte	(.L18-.L13)/2
 209 0042 DE00     		.2byte	(.L17-.L13)/2
 210 0044 0701     		.2byte	(.L16-.L13)/2
 211 0046 0901     		.2byte	(.L15-.L13)/2
 212 0048 0B01     		.2byte	(.L14-.L13)/2
 213 004a 0D01     		.2byte	(.L12-.L13)/2
 214              		.p2align 1
 215              	.L30:
ARM GAS  /tmp/cc0nrffp.s 			page 7


 216 004c 8048     		ldr	r0, .L50+4
 217 004e FFF7FEFF 		bl	hal_trace_print_var
 218 0052 2800     		movs	r0, r5
 219 0054 FFF7FEFF 		bl	hal_trace_print_var
 220 0058 7E4C     		ldr	r4, .L50+8
 221 005a 0020     		movs	r0, #0
 222 005c 2100     		movs	r1, r4
 223 005e FFF7FEFF 		bl	smtc_modem_set_deveui
 224 0062 7D49     		ldr	r1, .L50+12
 225 0064 0020     		movs	r0, #0
 226 0066 FFF7FEFF 		bl	smtc_modem_set_joineui
 227 006a 0134     		adds	r4, r4, #1
 228 006c 7B49     		ldr	r1, .L50+16
 229 006e 0020     		movs	r0, #0
 230 0070 FFF7FEFF 		bl	smtc_modem_set_nwkkey
 231 0074 0020     		movs	r0, #0
 232 0076 E17F     		ldrb	r1, [r4, #31]
 233 0078 FFF7FEFF 		bl	smtc_modem_set_region
 234              	.L46:
 235 007c 0020     		movs	r0, #0
 236 007e FFF7FEFF 		bl	smtc_modem_join_network
 237 0082 4BE0     		b	.L31
 238              	.L29:
 239 0084 7648     		ldr	r0, .L50+20
 240              	.L49:
 241 0086 FFF7FEFF 		bl	hal_trace_print_var
 242              	.L47:
 243 008a 2800     		movs	r0, r5
 244 008c 80E0     		b	.L48
 245              	.L28:
 246 008e 0C24     		movs	r4, #12
 247 0090 7448     		ldr	r0, .L50+24
 248 0092 FFF7FEFF 		bl	hal_trace_print_var
 249 0096 2800     		movs	r0, r5
 250 0098 FFF7FEFF 		bl	hal_trace_print_var
 251 009c 7248     		ldr	r0, .L50+28
 252 009e FFF7FEFF 		bl	hal_trace_print_var
 253 00a2 2800     		movs	r0, r5
 254 00a4 FFF7FEFF 		bl	hal_trace_print_var
 255 00a8 7048     		ldr	r0, .L50+32
 256 00aa FFF7FEFF 		bl	hal_trace_print_var
 257 00ae 2800     		movs	r0, r5
 258 00b0 FFF7FEFF 		bl	hal_trace_print_var
 259 00b4 2200     		movs	r2, r4
 260 00b6 6E49     		ldr	r1, .L50+36
 261 00b8 03A8     		add	r0, sp, #12
 262 00ba FFF7FEFF 		bl	memcpy
 263 00be 0022     		movs	r2, #0
 264 00c0 0094     		str	r4, [sp]
 265 00c2 03AB     		add	r3, sp, #12
 266 00c4 6621     		movs	r1, #102
 267 00c6 1000     		movs	r0, r2
 268 00c8 FFF7FEFF 		bl	smtc_modem_request_uplink
 269 00cc 694C     		ldr	r4, .L50+40
 270 00ce 2378     		ldrb	r3, [r4]
 271 00d0 002B     		cmp	r3, #0
 272 00d2 23D0     		beq	.L31
ARM GAS  /tmp/cc0nrffp.s 			page 8


 273 00d4 6848     		ldr	r0, .L50+44
 274 00d6 FFF7FEFF 		bl	hal_trace_print_var
 275 00da 684B     		ldr	r3, .L50+48
 276 00dc 684A     		ldr	r2, .L50+52
 277 00de 1868     		ldr	r0, [r3]
 278 00e0 1168     		ldr	r1, [r2]
 279 00e2 FFF7FEFF 		bl	sendData
 280 00e6 FA20     		movs	r0, #250
 281 00e8 8000     		lsls	r0, r0, #2
 282 00ea FFF7FEFF 		bl	HAL_Delay
 283 00ee 654D     		ldr	r5, .L50+56
 284 00f0 2868     		ldr	r0, [r5]
 285 00f2 431E     		subs	r3, r0, #1
 286 00f4 9841     		sbcs	r0, r0, r3
 287 00f6 C0B2     		uxtb	r0, r0
 288 00f8 FFF7FEFF 		bl	wateralarm
 289 00fc FA20     		movs	r0, #250
 290 00fe 8000     		lsls	r0, r0, #2
 291 0100 FFF7FEFF 		bl	HAL_Delay
 292 0104 2868     		ldr	r0, [r5]
 293 0106 431E     		subs	r3, r0, #1
 294 0108 9841     		sbcs	r0, r0, r3
 295 010a C0B2     		uxtb	r0, r0
 296 010c FFF7FEFF 		bl	wateralarm
 297 0110 FA20     		movs	r0, #250
 298 0112 8000     		lsls	r0, r0, #2
 299 0114 FFF7FEFF 		bl	HAL_Delay
 300 0118 0023     		movs	r3, #0
 301 011a 2370     		strb	r3, [r4]
 302              	.L31:
 303 011c 3378     		ldrb	r3, [r6]
 304 011e 002B     		cmp	r3, #0
 305 0120 00D0     		beq	.LCB190
 306 0122 6FE7     		b	.L38	@long jump
 307              	.LCB190:
 308 0124 49B0     		add	sp, sp, #292
 309              		@ sp needed
 310 0126 F0BD     		pop	{r4, r5, r6, r7, pc}
 311              	.L27:
 312 0128 5748     		ldr	r0, .L50+60
 313 012a FFF7FEFF 		bl	hal_trace_print_var
 314 012e 2800     		movs	r0, r5
 315 0130 FFF7FEFF 		bl	hal_trace_print_var
 316 0134 5548     		ldr	r0, .L50+64
 317 0136 FFF7FEFF 		bl	hal_trace_print_var
 318 013a 2800     		movs	r0, r5
 319 013c FFF7FEFF 		bl	hal_trace_print_var
 320 0140 4C4B     		ldr	r3, .L50+40
 321 0142 1B78     		ldrb	r3, [r3]
 322 0144 002B     		cmp	r3, #0
 323 0146 E9D0     		beq	.L31
 324 0148 514A     		ldr	r2, .L50+68
 325 014a 1368     		ldr	r3, [r2]
 326 014c 0133     		adds	r3, r3, #1
 327 014e 1360     		str	r3, [r2]
 328 0150 E4E7     		b	.L31
 329              	.L26:
ARM GAS  /tmp/cc0nrffp.s 			page 9


 330 0152 5048     		ldr	r0, .L50+72
 331 0154 FFF7FEFF 		bl	hal_trace_print_var
 332 0158 2800     		movs	r0, r5
 333 015a FFF7FEFF 		bl	hal_trace_print_var
 334 015e 8923     		movs	r3, #137
 335 0160 5B00     		lsls	r3, r3, #1
 336 0162 6B44     		add	r3, r3, sp
 337 0164 4C4F     		ldr	r7, .L50+76
 338 0166 1A78     		ldrb	r2, [r3]
 339 0168 4C4D     		ldr	r5, .L50+80
 340 016a 08A9     		add	r1, sp, #32
 341 016c 3800     		movs	r0, r7
 342 016e 2A70     		strb	r2, [r5]
 343 0170 FFF7FEFF 		bl	memcpy
 344 0174 E179     		ldrb	r1, [r4, #7]
 345 0176 4A48     		ldr	r0, .L50+84
 346 0178 FFF7FEFF 		bl	hal_trace_print_var
 347 017c 2A78     		ldrb	r2, [r5]
 348 017e 4949     		ldr	r1, .L50+88
 349 0180 4948     		ldr	r0, .L50+92
 350 0182 FFF7FEFF 		bl	hal_trace_print_var
 351 0186 0024     		movs	r4, #0
 352              	.L34:
 353 0188 2B78     		ldrb	r3, [r5]
 354 018a A342     		cmp	r3, r4
 355 018c 03D8     		bhi	.L36
 356 018e 4748     		ldr	r0, .L50+96
 357              	.L48:
 358 0190 FFF7FEFF 		bl	hal_trace_print_var
 359 0194 C2E7     		b	.L31
 360              	.L36:
 361 0196 0F23     		movs	r3, #15
 362 0198 1C42     		tst	r4, r3
 363 019a 04D1     		bne	.L35
 364 019c 002C     		cmp	r4, #0
 365 019e 02D0     		beq	.L35
 366 01a0 4248     		ldr	r0, .L50+96
 367 01a2 FFF7FEFF 		bl	hal_trace_print_var
 368              	.L35:
 369 01a6 395D     		ldrb	r1, [r7, r4]
 370 01a8 4148     		ldr	r0, .L50+100
 371 01aa FFF7FEFF 		bl	hal_trace_print_var
 372 01ae 0134     		adds	r4, r4, #1
 373 01b0 EAE7     		b	.L34
 374              	.L25:
 375 01b2 4048     		ldr	r0, .L50+104
 376 01b4 67E7     		b	.L49
 377              	.L24:
 378 01b6 4048     		ldr	r0, .L50+108
 379 01b8 65E7     		b	.L49
 380              	.L23:
 381 01ba 4048     		ldr	r0, .L50+112
 382 01bc 63E7     		b	.L49
 383              	.L22:
 384 01be 4048     		ldr	r0, .L50+116
 385 01c0 61E7     		b	.L49
 386              	.L21:
ARM GAS  /tmp/cc0nrffp.s 			page 10


 387 01c2 4048     		ldr	r0, .L50+120
 388 01c4 FFF7FEFF 		bl	hal_trace_print_var
 389 01c8 2800     		movs	r0, r5
 390 01ca FFF7FEFF 		bl	hal_trace_print_var
 391 01ce 3E48     		ldr	r0, .L50+124
 392 01d0 59E7     		b	.L49
 393              	.L20:
 394 01d2 3E48     		ldr	r0, .L50+128
 395 01d4 57E7     		b	.L49
 396              	.L19:
 397 01d6 3E48     		ldr	r0, .L50+132
 398 01d8 55E7     		b	.L49
 399              	.L18:
 400 01da 3E48     		ldr	r0, .L50+136
 401 01dc 53E7     		b	.L49
 402              	.L17:
 403 01de 3E48     		ldr	r0, .L50+140
 404 01e0 FFF7FEFF 		bl	hal_trace_print_var
 405 01e4 2800     		movs	r0, r5
 406 01e6 FFF7FEFF 		bl	hal_trace_print_var
 407 01ea 2379     		ldrb	r3, [r4, #4]
 408 01ec 3B4C     		ldr	r4, .L50+144
 409 01ee 012B     		cmp	r3, #1
 410 01f0 08D1     		bne	.L37
 411 01f2 3B48     		ldr	r0, .L50+148
 412 01f4 FFF7FEFF 		bl	hal_trace_print_var
 413 01f8 2800     		movs	r0, r5
 414 01fa FFF7FEFF 		bl	hal_trace_print_var
 415 01fe 0023     		movs	r3, #0
 416 0200 2360     		str	r3, [r4]
 417 0202 8BE7     		b	.L31
 418              	.L37:
 419 0204 3748     		ldr	r0, .L50+152
 420 0206 FFF7FEFF 		bl	hal_trace_print_var
 421 020a 2800     		movs	r0, r5
 422 020c FFF7FEFF 		bl	hal_trace_print_var
 423 0210 2168     		ldr	r1, [r4]
 424 0212 0131     		adds	r1, r1, #1
 425 0214 2160     		str	r1, [r4]
 426 0216 0929     		cmp	r1, #9
 427 0218 00D8     		bhi	.LCB349
 428 021a 7FE7     		b	.L31	@long jump
 429              	.LCB349:
 430 021c 3248     		ldr	r0, .L50+156
 431 021e FFF7FEFF 		bl	hal_trace_print_var
 432 0222 2800     		movs	r0, r5
 433 0224 FFF7FEFF 		bl	hal_trace_print_var
 434 0228 0020     		movs	r0, #0
 435 022a FFF7FEFF 		bl	smtc_modem_leave_network
 436 022e 25E7     		b	.L46
 437              	.L16:
 438 0230 2E48     		ldr	r0, .L50+160
 439 0232 28E7     		b	.L49
 440              	.L15:
 441 0234 2E48     		ldr	r0, .L50+164
 442 0236 26E7     		b	.L49
 443              	.L14:
ARM GAS  /tmp/cc0nrffp.s 			page 11


 444 0238 2E48     		ldr	r0, .L50+168
 445 023a 24E7     		b	.L49
 446              	.L12:
 447 023c 2E48     		ldr	r0, .L50+172
 448 023e 22E7     		b	.L49
 449              	.L11:
 450 0240 2E4B     		ldr	r3, .L50+176
 451 0242 1800     		movs	r0, r3
 452 0244 FFF7FEFF 		bl	hal_trace_print_var
 453 0248 1FE7     		b	.L47
 454              	.L51:
 455 024a C046     		.align	2
 456              	.L50:
 457 024c 1E000000 		.word	.LC12
 458 0250 00000000 		.word	.LC10
 459 0254 00000000 		.word	settings
 460 0258 08000000 		.word	settings+8
 461 025c 10000000 		.word	settings+16
 462 0260 1F000000 		.word	.LC17
 463 0264 3D000000 		.word	.LC19
 464 0268 5C000000 		.word	.LC21
 465 026c 79000000 		.word	.LC23
 466 0270 F0030000 		.word	.LC25
 467 0274 00000000 		.word	firstflag
 468 0278 9B000000 		.word	.LC28
 469 027c 00000000 		.word	temp
 470 0280 00000000 		.word	Voltage
 471 0284 00000000 		.word	water
 472 0288 CA000000 		.word	.LC33
 473 028c E9000000 		.word	.LC35
 474 0290 00000000 		.word	tx_mine
 475 0294 04010000 		.word	.LC38
 476 0298 00000000 		.word	rx_payload
 477 029c 00000000 		.word	rx_payload_size
 478 02a0 25010000 		.word	.LC42
 479 02a4 41010000 		.word	.LC44
 480 02a8 55010000 		.word	.LC46
 481 02ac 69010000 		.word	.LC48
 482 02b0 6C010000 		.word	.LC50
 483 02b4 72010000 		.word	.LC52
 484 02b8 95010000 		.word	.LC54
 485 02bc B5010000 		.word	.LC56
 486 02c0 D2010000 		.word	.LC58
 487 02c4 F5010000 		.word	.LC60
 488 02c8 16020000 		.word	.LC62
 489 02cc 33020000 		.word	.LC64
 490 02d0 50020000 		.word	.LC66
 491 02d4 7C020000 		.word	.LC68
 492 02d8 A1020000 		.word	.LC70
 493 02dc 00000000 		.word	link_check_attempts
 494 02e0 C4020000 		.word	.LC72
 495 02e4 E3020000 		.word	.LC75
 496 02e8 FC020000 		.word	.LC77
 497 02ec 2F030000 		.word	.LC79
 498 02f0 56030000 		.word	.LC81
 499 02f4 80030000 		.word	.LC83
 500 02f8 AF030000 		.word	.LC85
ARM GAS  /tmp/cc0nrffp.s 			page 12


 501 02fc D6030000 		.word	.LC87
 503              		.section	.rodata.main.str1.1,"aMS",%progbits,1
 504              	.LC90:
 505 0000 68696768 		.ascii	"high\000"
 505      00
 506              	.LC92:
 507 0005 6C6F7700 		.ascii	"low\000"
 508              	.LC94:
 509 0009 5F5F5F5F 		.ascii	"___________________________________________________"
 509      5F5F5F5F 
 509      5F5F5F5F 
 509      5F5F5F5F 
 509      5F5F5F5F 
 510 003c 5F5F5F5F 		.ascii	"____________________________\012\015\000"
 510      5F5F5F5F 
 510      5F5F5F5F 
 510      5F5F5F5F 
 510      5F5F5F5F 
 511              	.LC96:
 512 005b 4D69726F 		.ascii	"Miromico-FMLR1110\012\012\015\000"
 512      6D69636F 
 512      2D464D4C 
 512      52313131 
 512      300A0A0D 
 513              	.LC98:
 514 0070 4C523131 		.ascii	"LR11XX\000"
 514      585800
 515              	.LC100:
 516 0077 52616469 		.ascii	"Radio:%s\012\015\000"
 516      6F3A2573 
 516      0A0D00
 517              	.LC104:
 518 0082 494E464F 		.ascii	"INFO: Modem driver version: %d.%d.%d\012\015\000"
 518      3A204D6F 
 518      64656D20 
 518      64726976 
 518      65722076 
 519              	.LC113:
 520 00a9 4C523131 		.ascii	"LR11xx Version: HW: %x, type: %x, fw: %x\012\015\000"
 520      78782056 
 520      65727369 
 520      6F6E3A20 
 520      48573A20 
 521              	.LC115:
 522 00d4 2D2D2D2D 		.ascii	"------------<first sensor read>------------\000"
 522      2D2D2D2D 
 522      2D2D2D2D 
 522      3C666972 
 522      73742073 
 523              		.global	__aeabi_f2d
 524              	.LC123:
 525 0100 54656D70 		.ascii	"Temp: %.2f\302\260C ADC: %.2fV Voltage: %.2fV Door:"
 525      3A20252E 
 525      3266C2B0 
 525      43204144 
 525      433A2025 
 526 012d 20257320 		.ascii	" %s water: %s cnutp: %d hasty1: %d hasty2: %d\012\015"
ARM GAS  /tmp/cc0nrffp.s 			page 13


 526      77617465 
 526      723A2025 
 526      7320636E 
 526      7574703A 
 527 015c 00       		.ascii	"\000"
 528              	.LC129:
 529 015d 494E464F 		.ascii	"INFO: Send link check\012\015\000"
 529      3A205365 
 529      6E64206C 
 529      696E6B20 
 529      63686563 
 530              		.section	.text.startup.main,"ax",%progbits
 531              		.align	1
 532              		.global	main
 533              		.syntax unified
 534              		.code	16
 535              		.thumb_func
 537              	main:
 538              		@ args = 0, pretend = 0, frame = 32
 539              		@ frame_needed = 0, uses_anonymous_args = 0
 540 0000 F0B5     		push	{r4, r5, r6, r7, lr}
 541 0002 93B0     		sub	sp, sp, #76
 542 0004 FFF7FEFF 		bl	hal_mcu_disable_irq
 543 0008 FFF7FEFF 		bl	hal_mcu_init
 544 000c 8E48     		ldr	r0, .L81
 545 000e FFF7FEFF 		bl	hal_trace_print_var
 546 0012 8E48     		ldr	r0, .L81+4
 547 0014 FFF7FEFF 		bl	hal_trace_print_var
 548 0018 8D49     		ldr	r1, .L81+8
 549 001a 8E48     		ldr	r0, .L81+12
 550 001c FFF7FEFF 		bl	hal_trace_print_var
 551 0020 0FAC     		add	r4, sp, #60
 552 0022 8D49     		ldr	r1, .L81+16
 553 0024 8D48     		ldr	r0, .L81+20
 554 0026 FFF7FEFF 		bl	smtc_modem_init
 555 002a 2000     		movs	r0, r4
 556 002c FFF7FEFF 		bl	smtc_modem_get_modem_version
 557 0030 FFF7FEFF 		bl	settings_init
 558 0034 A378     		ldrb	r3, [r4, #2]
 559 0036 6278     		ldrb	r2, [r4, #1]
 560 0038 2178     		ldrb	r1, [r4]
 561 003a 8948     		ldr	r0, .L81+24
 562 003c FFF7FEFF 		bl	hal_trace_print_var
 563 0040 8848     		ldr	r0, .L81+28
 564 0042 FFF7FEFF 		bl	hal_trace_print_var
 565 0046 FFF7FEFF 		bl	GPIO_Init
 566 004a FFF7FEFF 		bl	hal_mcu_enable_irq
 567 004e 864C     		ldr	r4, .L81+32
 568 0050 8649     		ldr	r1, .L81+36
 569 0052 2000     		movs	r0, r4
 570 0054 FFF7FEFF 		bl	TimerInit
 571 0058 2000     		movs	r0, r4
 572 005a 8549     		ldr	r1, .L81+40
 573 005c FFF7FEFF 		bl	TimerSetValue
 574 0060 0021     		movs	r1, #0
 575 0062 2000     		movs	r0, r4
 576 0064 FFF7FEFF 		bl	TimerSetContext
ARM GAS  /tmp/cc0nrffp.s 			page 14


 577 0068 2000     		movs	r0, r4
 578 006a FFF7FEFF 		bl	TimerStart
 579 006e 814C     		ldr	r4, .L81+44
 580 0070 8149     		ldr	r1, .L81+48
 581 0072 2000     		movs	r0, r4
 582 0074 FFF7FEFF 		bl	TimerInit
 583 0078 2000     		movs	r0, r4
 584 007a 8049     		ldr	r1, .L81+52
 585 007c FFF7FEFF 		bl	TimerSetValue
 586 0080 2000     		movs	r0, r4
 587 0082 0021     		movs	r1, #0
 588 0084 FFF7FEFF 		bl	TimerSetContext
 589 0088 7D4C     		ldr	r4, .L81+56
 590 008a 7E49     		ldr	r1, .L81+60
 591 008c 2000     		movs	r0, r4
 592 008e FFF7FEFF 		bl	TimerInit
 593 0092 2000     		movs	r0, r4
 594 0094 7949     		ldr	r1, .L81+52
 595 0096 FFF7FEFF 		bl	TimerSetValue
 596 009a 2000     		movs	r0, r4
 597 009c 0021     		movs	r1, #0
 598 009e 10AC     		add	r4, sp, #64
 599 00a0 FFF7FEFF 		bl	TimerSetContext
 600 00a4 2100     		movs	r1, r4
 601 00a6 0020     		movs	r0, #0
 602 00a8 FFF7FEFF 		bl	lr11xx_system_get_version
 603 00ac 6388     		ldrh	r3, [r4, #2]
 604 00ae 6278     		ldrb	r2, [r4, #1]
 605 00b0 2178     		ldrb	r1, [r4]
 606 00b2 7548     		ldr	r0, .L81+64
 607 00b4 FFF7FEFF 		bl	hal_trace_print_var
 608 00b8 7448     		ldr	r0, .L81+68
 609 00ba FFF7FEFF 		bl	hal_trace_print_var
 610 00be FFF7FEFF 		bl	sensor_read
 611              	.L66:
 612 00c2 FFF7FEFF 		bl	hal_rtc_get_time_ms
 613 00c6 FFF7FEFF 		bl	smtc_modem_run_engine
 614 00ca 714B     		ldr	r3, .L81+72
 615 00cc 1B78     		ldrb	r3, [r3]
 616 00ce 002B     		cmp	r3, #0
 617 00d0 49D0     		beq	.L54
 618 00d2 FFF7FEFF 		bl	sensor_read
 619 00d6 6F4B     		ldr	r3, .L81+76
 620 00d8 1868     		ldr	r0, [r3]
 621 00da FFF7FEFF 		bl	__aeabi_f2d
 622 00de 6E4B     		ldr	r3, .L81+80
 623 00e0 0A90     		str	r0, [sp, #40]
 624 00e2 0B91     		str	r1, [sp, #44]
 625 00e4 1868     		ldr	r0, [r3]
 626 00e6 FFF7FEFF 		bl	__aeabi_f2d
 627 00ea 6C4B     		ldr	r3, .L81+84
 628 00ec 0600     		movs	r6, r0
 629 00ee 1868     		ldr	r0, [r3]
 630 00f0 0F00     		movs	r7, r1
 631 00f2 FFF7FEFF 		bl	__aeabi_f2d
 632 00f6 0C90     		str	r0, [sp, #48]
 633 00f8 0D91     		str	r1, [sp, #52]
ARM GAS  /tmp/cc0nrffp.s 			page 15


 634 00fa 6949     		ldr	r1, .L81+88
 635 00fc 0868     		ldr	r0, [r1]
 636 00fe 6949     		ldr	r1, .L81+92
 637 0100 0128     		cmp	r0, #1
 638 0102 00D1     		bne	.L55
 639 0104 6849     		ldr	r1, .L81+96
 640              	.L55:
 641 0106 6948     		ldr	r0, .L81+100
 642 0108 664D     		ldr	r5, .L81+92
 643 010a 0068     		ldr	r0, [r0]
 644 010c 0128     		cmp	r0, #1
 645 010e 00D1     		bne	.L56
 646 0110 654D     		ldr	r5, .L81+96
 647              	.L56:
 648 0112 674C     		ldr	r4, .L81+104
 649 0114 6748     		ldr	r0, .L81+108
 650 0116 2478     		ldrb	r4, [r4]
 651 0118 0894     		str	r4, [sp, #32]
 652 011a 674C     		ldr	r4, .L81+112
 653 011c 2478     		ldrb	r4, [r4]
 654 011e 0794     		str	r4, [sp, #28]
 655 0120 664C     		ldr	r4, .L81+116
 656 0122 2368     		ldr	r3, [r4]
 657 0124 0096     		str	r6, [sp]
 658 0126 0197     		str	r7, [sp, #4]
 659 0128 0693     		str	r3, [sp, #24]
 660 012a 0595     		str	r5, [sp, #20]
 661 012c 0C9A     		ldr	r2, [sp, #48]
 662 012e 0D9B     		ldr	r3, [sp, #52]
 663 0130 0491     		str	r1, [sp, #16]
 664 0132 0292     		str	r2, [sp, #8]
 665 0134 0393     		str	r3, [sp, #12]
 666 0136 0A9A     		ldr	r2, [sp, #40]
 667 0138 0B9B     		ldr	r3, [sp, #44]
 668 013a FFF7FEFF 		bl	hal_trace_print_var
 669 013e 2368     		ldr	r3, [r4]
 670 0140 0133     		adds	r3, r3, #1
 671 0142 2360     		str	r3, [r4]
 672 0144 0024     		movs	r4, #0
 673 0146 524B     		ldr	r3, .L81+72
 674 0148 1C70     		strb	r4, [r3]
 675 014a 5D4B     		ldr	r3, .L81+120
 676 014c 1A68     		ldr	r2, [r3]
 677 014e 312A     		cmp	r2, #49
 678 0150 09D9     		bls	.L54
 679 0152 5C48     		ldr	r0, .L81+124
 680 0154 1C60     		str	r4, [r3]
 681 0156 FFF7FEFF 		bl	hal_trace_print_var
 682 015a 4248     		ldr	r0, .L81+28
 683 015c FFF7FEFF 		bl	hal_trace_print_var
 684 0160 2000     		movs	r0, r4
 685 0162 FFF7FEFF 		bl	smtc_modem_lorawan_request_link_check
 686              	.L54:
 687 0166 FFF7FEFF 		bl	smtc_modem_run_engine
 688 016a FFF7FEFF 		bl	hal_mcu_set_sleep_for_ms
 689 016e 534F     		ldr	r7, .L81+116
 690 0170 3B68     		ldr	r3, [r7]
ARM GAS  /tmp/cc0nrffp.s 			page 16


 691 0172 032B     		cmp	r3, #3
 692 0174 40D1     		bne	.L58
 693 0176 0025     		movs	r5, #0
 694 0178 11A9     		add	r1, sp, #68
 695 017a 2800     		movs	r0, r5
 696 017c 1195     		str	r5, [sp, #68]
 697 017e FFF7FEFF 		bl	smtc_modem_get_status
 698 0182 0822     		movs	r2, #8
 699 0184 119B     		ldr	r3, [sp, #68]
 700 0186 1342     		tst	r3, r2
 701 0188 36D0     		beq	.L58
 702 018a FFF7FEFF 		bl	sensor_read
 703 018e 434E     		ldr	r6, .L81+84
 704 0190 404C     		ldr	r4, .L81+76
 705 0192 3168     		ldr	r1, [r6]
 706 0194 2068     		ldr	r0, [r4]
 707 0196 FFF7FEFF 		bl	sendData
 708 019a 414B     		ldr	r3, .L81+88
 709 019c 414A     		ldr	r2, .L81+92
 710 019e 1B68     		ldr	r3, [r3]
 711 01a0 3D60     		str	r5, [r7]
 712 01a2 0A92     		str	r2, [sp, #40]
 713 01a4 012B     		cmp	r3, #1
 714 01a6 01D1     		bne	.L60
 715 01a8 3F4B     		ldr	r3, .L81+96
 716 01aa 0A93     		str	r3, [sp, #40]
 717              	.L60:
 718 01ac 3F4B     		ldr	r3, .L81+100
 719 01ae 3D4F     		ldr	r7, .L81+92
 720 01b0 1B68     		ldr	r3, [r3]
 721 01b2 012B     		cmp	r3, #1
 722 01b4 00D1     		bne	.L61
 723 01b6 3C4F     		ldr	r7, .L81+96
 724              	.L61:
 725 01b8 2068     		ldr	r0, [r4]
 726 01ba FFF7FEFF 		bl	__aeabi_f2d
 727 01be 3C4B     		ldr	r3, .L81+104
 728 01c0 0400     		movs	r4, r0
 729 01c2 1B78     		ldrb	r3, [r3]
 730 01c4 0D00     		movs	r5, r1
 731 01c6 0893     		str	r3, [sp, #32]
 732 01c8 3B4B     		ldr	r3, .L81+112
 733 01ca 1B78     		ldrb	r3, [r3]
 734 01cc 0597     		str	r7, [sp, #20]
 735 01ce 0793     		str	r3, [sp, #28]
 736 01d0 0023     		movs	r3, #0
 737 01d2 0693     		str	r3, [sp, #24]
 738 01d4 0A9B     		ldr	r3, [sp, #40]
 739 01d6 0493     		str	r3, [sp, #16]
 740 01d8 3068     		ldr	r0, [r6]
 741 01da FFF7FEFF 		bl	__aeabi_f2d
 742 01de 0290     		str	r0, [sp, #8]
 743 01e0 0391     		str	r1, [sp, #12]
 744 01e2 2D4B     		ldr	r3, .L81+80
 745 01e4 1868     		ldr	r0, [r3]
 746 01e6 FFF7FEFF 		bl	__aeabi_f2d
 747 01ea 2200     		movs	r2, r4
ARM GAS  /tmp/cc0nrffp.s 			page 17


 748 01ec 0090     		str	r0, [sp]
 749 01ee 0191     		str	r1, [sp, #4]
 750 01f0 2B00     		movs	r3, r5
 751 01f2 3048     		ldr	r0, .L81+108
 752 01f4 FFF7FEFF 		bl	hal_trace_print_var
 753              	.L58:
 754 01f8 334A     		ldr	r2, .L81+128
 755 01fa 1378     		ldrb	r3, [r2]
 756 01fc 002B     		cmp	r3, #0
 757 01fe 03D0     		beq	.L62
 758 0200 0021     		movs	r1, #0
 759 0202 2D4B     		ldr	r3, .L81+112
 760 0204 1170     		strb	r1, [r2]
 761 0206 1970     		strb	r1, [r3]
 762              	.L62:
 763 0208 304A     		ldr	r2, .L81+132
 764 020a 1378     		ldrb	r3, [r2]
 765 020c 002B     		cmp	r3, #0
 766 020e 03D0     		beq	.L63
 767 0210 0021     		movs	r1, #0
 768 0212 274B     		ldr	r3, .L81+104
 769 0214 1170     		strb	r1, [r2]
 770 0216 1970     		strb	r1, [r3]
 771              	.L63:
 772 0218 2720     		movs	r0, #39
 773 021a FFF7FEFF 		bl	hal_gpio_get_value
 774 021e 0100     		movs	r1, r0
 775 0220 0128     		cmp	r0, #1
 776 0222 0BD1     		bne	.L64
 777 0224 2120     		movs	r0, #33
 778 0226 FFF7FEFF 		bl	hal_gpio_set_value
 779 022a 0021     		movs	r1, #0
 780              	.L80:
 781 022c 2720     		movs	r0, #39
 782 022e FFF7FEFF 		bl	hal_gpio_set_value
 783 0232 FA20     		movs	r0, #250
 784 0234 8000     		lsls	r0, r0, #2
 785 0236 FFF7FEFF 		bl	hal_mcu_delay_ms
 786 023a 42E7     		b	.L66
 787              	.L64:
 788 023c 0021     		movs	r1, #0
 789 023e 2120     		movs	r0, #33
 790 0240 FFF7FEFF 		bl	hal_gpio_set_value
 791 0244 0121     		movs	r1, #1
 792 0246 F1E7     		b	.L80
 793              	.L82:
 794              		.align	2
 795              	.L81:
 796 0248 09000000 		.word	.LC94
 797 024c 5B000000 		.word	.LC96
 798 0250 70000000 		.word	.LC98
 799 0254 77000000 		.word	.LC100
 800 0258 00000000 		.word	get_event
 801 025c 00000000 		.word	modem_radio
 802 0260 82000000 		.word	.LC104
 803 0264 1E000000 		.word	.LC12
 804 0268 00000000 		.word	periodic_timer
ARM GAS  /tmp/cc0nrffp.s 			page 18


 805 026c 00000000 		.word	periodic_timer_cb
 806 0270 204E0000 		.word	20000
 807 0274 00000000 		.word	water_timer
 808 0278 00000000 		.word	water_timer_cb
 809 027c 60EA0000 		.word	60000
 810 0280 00000000 		.word	door_timer
 811 0284 00000000 		.word	door_timer_cb
 812 0288 A9000000 		.word	.LC113
 813 028c D4000000 		.word	.LC115
 814 0290 00000000 		.word	periodic_message_flag
 815 0294 00000000 		.word	temp
 816 0298 00000000 		.word	ADCmeas
 817 029c 00000000 		.word	Voltage
 818 02a0 00000000 		.word	Door
 819 02a4 05000000 		.word	.LC92
 820 02a8 00000000 		.word	.LC90
 821 02ac 00000000 		.word	water
 822 02b0 00000000 		.word	hastydata2
 823 02b4 00010000 		.word	.LC123
 824 02b8 00000000 		.word	hastydata1
 825 02bc 00000000 		.word	cntup
 826 02c0 00000000 		.word	txdone_counter
 827 02c4 5D010000 		.word	.LC129
 828 02c8 00000000 		.word	water_alarm_flag
 829 02cc 00000000 		.word	door_alarm_flag
 831              		.section	.text.HAL_GPIO_EXTI_Callback,"ax",%progbits
 832              		.align	1
 833              		.global	HAL_GPIO_EXTI_Callback
 834              		.syntax unified
 835              		.code	16
 836              		.thumb_func
 838              	HAL_GPIO_EXTI_Callback:
 839              		@ args = 0, pretend = 0, frame = 0
 840              		@ frame_needed = 0, uses_anonymous_args = 0
 841 0000 10B5     		push	{r4, lr}
 842 0002 0228     		cmp	r0, #2
 843 0004 02D1     		bne	.L84
 844 0006 FFF7FEFF 		bl	PB1_Callback
 845              	.L83:
 846              		@ sp needed
 847 000a 10BD     		pop	{r4, pc}
 848              	.L84:
 849 000c 0428     		cmp	r0, #4
 850 000e FCD1     		bne	.L83
 851 0010 FFF7FEFF 		bl	PB2_Callback
 852 0014 F9E7     		b	.L83
 854              		.global	door_timer
 855              		.section	.bss.door_timer,"aw",%nobits
 856              		.align	2
 859              	door_timer:
 860 0000 00000000 		.space	24
 860      00000000 
 860      00000000 
 860      00000000 
 860      00000000 
 861              		.global	water_timer
 862              		.section	.bss.water_timer,"aw",%nobits
ARM GAS  /tmp/cc0nrffp.s 			page 19


 863              		.align	2
 866              	water_timer:
 867 0000 00000000 		.space	24
 867      00000000 
 867      00000000 
 867      00000000 
 867      00000000 
 868              		.section	.bss.periodic_timer,"aw",%nobits
 869              		.align	2
 872              	periodic_timer:
 873 0000 00000000 		.space	24
 873      00000000 
 873      00000000 
 873      00000000 
 873      00000000 
 874              		.section	.bss.tx_mine,"aw",%nobits
 875              		.align	2
 878              	tx_mine:
 879 0000 00000000 		.space	4
 880              		.global	link_check_attempts
 881              		.section	.bss.link_check_attempts,"aw",%nobits
 882              		.align	2
 885              	link_check_attempts:
 886 0000 00000000 		.space	4
 887              		.global	txdone_counter
 888              		.section	.bss.txdone_counter,"aw",%nobits
 889              		.align	2
 892              	txdone_counter:
 893 0000 00000000 		.space	4
 894              		.section	.bss.rx_payload_size,"aw",%nobits
 897              	rx_payload_size:
 898 0000 00       		.space	1
 899              		.section	.bss.rx_payload,"aw",%nobits
 900              		.align	2
 903              	rx_payload:
 904 0000 00000000 		.space	255
 904      00000000 
 904      00000000 
 904      00000000 
 904      00000000 
 905              		.global	cntup
 906              		.section	.bss.cntup,"aw",%nobits
 907              		.align	2
 910              	cntup:
 911 0000 00000000 		.space	4
 912              		.global	water
 913              		.section	.bss.water,"aw",%nobits
 914              		.align	2
 917              	water:
 918 0000 00000000 		.space	4
 919              		.global	Door
 920              		.section	.bss.Door,"aw",%nobits
 921              		.align	2
 924              	Door:
 925 0000 00000000 		.space	4
 926              		.global	ADCmeas
 927              		.section	.bss.ADCmeas,"aw",%nobits
ARM GAS  /tmp/cc0nrffp.s 			page 20


 928              		.align	2
 931              	ADCmeas:
 932 0000 00000000 		.space	4
 933              		.global	VDR
 934              		.section	.data.VDR,"aw"
 935              		.align	2
 938              	VDR:
 939 0000 CA269B40 		.word	1083909834
 940              		.global	Voltage
 941              		.section	.bss.Voltage,"aw",%nobits
 942              		.align	2
 945              	Voltage:
 946 0000 00000000 		.space	4
 947              		.global	temp
 948              		.section	.bss.temp,"aw",%nobits
 949              		.align	2
 952              	temp:
 953 0000 00000000 		.space	4
 954              		.section	.data.firstflag,"aw"
 957              	firstflag:
 958 0000 01       		.byte	1
 959              		.global	hastydata2
 960              		.section	.bss.hastydata2,"aw",%nobits
 963              	hastydata2:
 964 0000 00       		.space	1
 965              		.global	hastydata1
 966              		.section	.bss.hastydata1,"aw",%nobits
 969              	hastydata1:
 970 0000 00       		.space	1
 971              		.section	.bss.door_alarm_flag,"aw",%nobits
 974              	door_alarm_flag:
 975 0000 00       		.space	1
 976              		.section	.bss.water_alarm_flag,"aw",%nobits
 979              	water_alarm_flag:
 980 0000 00       		.space	1
 981              		.section	.bss.periodic_message_flag,"aw",%nobits
 984              	periodic_message_flag:
 985 0000 00       		.space	1
 986              		.global	hadc
 987              		.section	.bss.hadc,"aw",%nobits
 988              		.align	2
 991              	hadc:
 992 0000 00000000 		.space	92
 992      00000000 
 992      00000000 
 992      00000000 
 992      00000000 
 993              		.global	modem_radio
 994              		.section	.rodata.modem_radio,"a"
 995              		.align	2
 998              	modem_radio:
 999 0000 00000000 		.word	0
 1000 0004 00000000 		.word	ral_lr11xx_handles_part
 1001 0008 00000000 		.word	ral_lr11xx_reset
 1002 000c 00000000 		.word	ral_lr11xx_init
 1003 0010 00000000 		.word	ral_lr11xx_wakeup
 1004 0014 00000000 		.word	ral_lr11xx_set_sleep
ARM GAS  /tmp/cc0nrffp.s 			page 21


 1005 0018 00000000 		.word	ral_lr11xx_set_standby
 1006 001c 00000000 		.word	ral_lr11xx_set_fs
 1007 0020 00000000 		.word	ral_lr11xx_set_tx
 1008 0024 00000000 		.word	ral_lr11xx_set_rx
 1009 0028 00000000 		.word	ral_lr11xx_cfg_rx_boosted
 1010 002c 00000000 		.word	ral_lr11xx_set_rx_tx_fallback_mode
 1011 0030 00000000 		.word	ral_lr11xx_stop_timer_on_preamble
 1012 0034 00000000 		.word	ral_lr11xx_set_rx_duty_cycle
 1013 0038 00000000 		.word	ral_lr11xx_set_lora_cad
 1014 003c 00000000 		.word	ral_lr11xx_set_tx_cw
 1015 0040 00000000 		.word	ral_lr11xx_set_tx_infinite_preamble
 1016 0044 00000000 		.word	ral_lr11xx_cal_img
 1017 0048 00000000 		.word	ral_lr11xx_set_tx_cfg
 1018 004c 00000000 		.word	ral_lr11xx_set_pkt_payload
 1019 0050 00000000 		.word	ral_lr11xx_get_pkt_payload
 1020 0054 00000000 		.word	ral_lr11xx_get_irq_status
 1021 0058 00000000 		.word	ral_lr11xx_clear_irq_status
 1022 005c 00000000 		.word	ral_lr11xx_get_and_clear_irq_status
 1023 0060 00000000 		.word	ral_lr11xx_set_dio_irq_params
 1024 0064 00000000 		.word	ral_lr11xx_set_rf_freq
 1025 0068 00000000 		.word	ral_lr11xx_set_pkt_type
 1026 006c 00000000 		.word	ral_lr11xx_get_pkt_type
 1027 0070 00000000 		.word	ral_lr11xx_set_gfsk_mod_params
 1028 0074 00000000 		.word	ral_lr11xx_set_gfsk_pkt_params
 1029 0078 00000000 		.word	ral_lr11xx_set_lora_mod_params
 1030 007c 00000000 		.word	ral_lr11xx_set_lora_pkt_params
 1031 0080 00000000 		.word	ral_lr11xx_set_lora_cad_params
 1032 0084 00000000 		.word	ral_lr11xx_set_lora_symb_nb_timeout
 1033 0088 00000000 		.word	ral_lr11xx_set_flrc_mod_params
 1034 008c 00000000 		.word	ral_lr11xx_set_flrc_pkt_params
 1035 0090 00000000 		.word	ral_lr11xx_get_gfsk_rx_pkt_status
 1036 0094 00000000 		.word	ral_lr11xx_get_lora_rx_pkt_status
 1037 0098 00000000 		.word	ral_lr11xx_get_flrc_rx_pkt_status
 1038 009c 00000000 		.word	ral_lr11xx_get_rssi_inst
 1039 00a0 00000000 		.word	ral_lr11xx_get_lora_time_on_air_in_ms
 1040 00a4 00000000 		.word	ral_lr11xx_get_gfsk_time_on_air_in_ms
 1041 00a8 00000000 		.word	ral_lr11xx_get_flrc_time_on_air_in_ms
 1042 00ac 00000000 		.word	ral_lr11xx_set_gfsk_sync_word
 1043 00b0 00000000 		.word	ral_lr11xx_set_lora_sync_word
 1044 00b4 00000000 		.word	ral_lr11xx_set_flrc_sync_word
 1045 00b8 00000000 		.word	ral_lr11xx_set_gfsk_crc_params
 1046 00bc 00000000 		.word	ral_lr11xx_set_flrc_crc_params
 1047 00c0 00000000 		.word	ral_lr11xx_set_gfsk_whitening_seed
 1048 00c4 00000000 		.word	ral_lr11xx_lr_fhss_init
 1049 00c8 00000000 		.word	ral_lr11xx_lr_fhss_build_frame
 1050 00cc 00000000 		.word	ral_lr11xx_lr_fhss_handle_hop
 1051 00d0 00000000 		.word	ral_lr11xx_lr_fhss_handle_tx_done
 1052 00d4 00000000 		.word	ral_lr11xx_lr_fhss_get_time_on_air_in_ms
 1053 00d8 00000000 		.word	ral_lr11xx_lr_fhss_get_hop_sequence_count
 1054 00dc 00000000 		.word	ral_lr11xx_get_lora_rx_pkt_cr_crc
 1055 00e0 00000000 		.word	ral_lr11xx_get_tx_consumption_in_ua
 1056 00e4 00000000 		.word	ral_lr11xx_get_gfsk_rx_consumption_in_ua
 1057 00e8 00000000 		.word	ral_lr11xx_get_lora_rx_consumption_in_ua
 1058 00ec 00000000 		.word	ral_lr11xx_get_random_numbers
 1059 00f0 00000000 		.word	ralf_lr11xx_setup_gfsk
 1060 00f4 00000000 		.word	ralf_lr11xx_setup_lora
 1061 00f8 00000000 		.word	ralf_lr11xx_setup_flrc
ARM GAS  /tmp/cc0nrffp.s 			page 22


 1062              		.ident	"GCC: (Arch Repository) 13.2.0"
ARM GAS  /tmp/cc0nrffp.s 			page 23


DEFINED SYMBOLS
                            *ABS*:00000000 main.c
     /tmp/cc0nrffp.s:17     .text.door_timer_cb:00000000 $t
     /tmp/cc0nrffp.s:22     .text.door_timer_cb:00000000 door_timer_cb
     /tmp/cc0nrffp.s:36     .text.door_timer_cb:00000010 $d
     /tmp/cc0nrffp.s:974    .bss.door_alarm_flag:00000000 door_alarm_flag
     /tmp/cc0nrffp.s:43     .text.water_timer_cb:00000000 $t
     /tmp/cc0nrffp.s:48     .text.water_timer_cb:00000000 water_timer_cb
     /tmp/cc0nrffp.s:62     .text.water_timer_cb:00000010 $d
     /tmp/cc0nrffp.s:979    .bss.water_alarm_flag:00000000 water_alarm_flag
     /tmp/cc0nrffp.s:69     .text.periodic_timer_cb:00000000 $t
     /tmp/cc0nrffp.s:74     .text.periodic_timer_cb:00000000 periodic_timer_cb
     /tmp/cc0nrffp.s:90     .text.periodic_timer_cb:00000018 $d
     /tmp/cc0nrffp.s:984    .bss.periodic_message_flag:00000000 periodic_message_flag
     /tmp/cc0nrffp.s:872    .bss.periodic_timer:00000000 periodic_timer
     /tmp/cc0nrffp.s:167    .text.get_event:00000000 $t
     /tmp/cc0nrffp.s:172    .text.get_event:00000000 get_event
     /tmp/cc0nrffp.s:193    .text.get_event:00000022 $d
     /tmp/cc0nrffp.s:214    .text.get_event:0000004c $t
     /tmp/cc0nrffp.s:457    .text.get_event:0000024c $d
     /tmp/cc0nrffp.s:957    .data.firstflag:00000000 firstflag
     /tmp/cc0nrffp.s:952    .bss.temp:00000000 temp
     /tmp/cc0nrffp.s:945    .bss.Voltage:00000000 Voltage
     /tmp/cc0nrffp.s:917    .bss.water:00000000 water
     /tmp/cc0nrffp.s:878    .bss.tx_mine:00000000 tx_mine
     /tmp/cc0nrffp.s:903    .bss.rx_payload:00000000 rx_payload
     /tmp/cc0nrffp.s:897    .bss.rx_payload_size:00000000 rx_payload_size
     /tmp/cc0nrffp.s:885    .bss.link_check_attempts:00000000 link_check_attempts
     /tmp/cc0nrffp.s:531    .text.startup.main:00000000 $t
     /tmp/cc0nrffp.s:537    .text.startup.main:00000000 main
     /tmp/cc0nrffp.s:796    .text.startup.main:00000248 $d
     /tmp/cc0nrffp.s:998    .rodata.modem_radio:00000000 modem_radio
     /tmp/cc0nrffp.s:866    .bss.water_timer:00000000 water_timer
     /tmp/cc0nrffp.s:859    .bss.door_timer:00000000 door_timer
     /tmp/cc0nrffp.s:931    .bss.ADCmeas:00000000 ADCmeas
     /tmp/cc0nrffp.s:924    .bss.Door:00000000 Door
     /tmp/cc0nrffp.s:963    .bss.hastydata2:00000000 hastydata2
     /tmp/cc0nrffp.s:969    .bss.hastydata1:00000000 hastydata1
     /tmp/cc0nrffp.s:910    .bss.cntup:00000000 cntup
     /tmp/cc0nrffp.s:892    .bss.txdone_counter:00000000 txdone_counter
     /tmp/cc0nrffp.s:832    .text.HAL_GPIO_EXTI_Callback:00000000 $t
     /tmp/cc0nrffp.s:838    .text.HAL_GPIO_EXTI_Callback:00000000 HAL_GPIO_EXTI_Callback
     /tmp/cc0nrffp.s:856    .bss.door_timer:00000000 $d
     /tmp/cc0nrffp.s:863    .bss.water_timer:00000000 $d
     /tmp/cc0nrffp.s:869    .bss.periodic_timer:00000000 $d
     /tmp/cc0nrffp.s:875    .bss.tx_mine:00000000 $d
     /tmp/cc0nrffp.s:882    .bss.link_check_attempts:00000000 $d
     /tmp/cc0nrffp.s:889    .bss.txdone_counter:00000000 $d
     /tmp/cc0nrffp.s:898    .bss.rx_payload_size:00000000 $d
     /tmp/cc0nrffp.s:900    .bss.rx_payload:00000000 $d
     /tmp/cc0nrffp.s:907    .bss.cntup:00000000 $d
     /tmp/cc0nrffp.s:914    .bss.water:00000000 $d
     /tmp/cc0nrffp.s:921    .bss.Door:00000000 $d
     /tmp/cc0nrffp.s:928    .bss.ADCmeas:00000000 $d
     /tmp/cc0nrffp.s:938    .data.VDR:00000000 VDR
     /tmp/cc0nrffp.s:935    .data.VDR:00000000 $d
     /tmp/cc0nrffp.s:942    .bss.Voltage:00000000 $d
ARM GAS  /tmp/cc0nrffp.s 			page 24


     /tmp/cc0nrffp.s:949    .bss.temp:00000000 $d
     /tmp/cc0nrffp.s:964    .bss.hastydata2:00000000 $d
     /tmp/cc0nrffp.s:970    .bss.hastydata1:00000000 $d
     /tmp/cc0nrffp.s:975    .bss.door_alarm_flag:00000000 $d
     /tmp/cc0nrffp.s:980    .bss.water_alarm_flag:00000000 $d
     /tmp/cc0nrffp.s:985    .bss.periodic_message_flag:00000000 $d
     /tmp/cc0nrffp.s:991    .bss.hadc:00000000 hadc
     /tmp/cc0nrffp.s:988    .bss.hadc:00000000 $d
     /tmp/cc0nrffp.s:995    .rodata.modem_radio:00000000 $d

UNDEFINED SYMBOLS
hal_trace_print_var
TimerStart
smtc_modem_get_event
__gnu_thumb1_case_uhi
smtc_modem_set_deveui
smtc_modem_set_joineui
smtc_modem_set_nwkkey
smtc_modem_set_region
smtc_modem_join_network
memcpy
smtc_modem_request_uplink
sendData
HAL_Delay
wateralarm
smtc_modem_leave_network
settings
__aeabi_f2d
hal_mcu_disable_irq
hal_mcu_init
smtc_modem_init
smtc_modem_get_modem_version
settings_init
GPIO_Init
hal_mcu_enable_irq
TimerInit
TimerSetValue
TimerSetContext
lr11xx_system_get_version
sensor_read
hal_rtc_get_time_ms
smtc_modem_run_engine
smtc_modem_lorawan_request_link_check
hal_mcu_set_sleep_for_ms
smtc_modem_get_status
hal_gpio_get_value
hal_gpio_set_value
hal_mcu_delay_ms
PB1_Callback
PB2_Callback
ral_lr11xx_handles_part
ral_lr11xx_reset
ral_lr11xx_init
ral_lr11xx_wakeup
ral_lr11xx_set_sleep
ral_lr11xx_set_standby
ral_lr11xx_set_fs
ARM GAS  /tmp/cc0nrffp.s 			page 25


ral_lr11xx_set_tx
ral_lr11xx_set_rx
ral_lr11xx_cfg_rx_boosted
ral_lr11xx_set_rx_tx_fallback_mode
ral_lr11xx_stop_timer_on_preamble
ral_lr11xx_set_rx_duty_cycle
ral_lr11xx_set_lora_cad
ral_lr11xx_set_tx_cw
ral_lr11xx_set_tx_infinite_preamble
ral_lr11xx_cal_img
ral_lr11xx_set_tx_cfg
ral_lr11xx_set_pkt_payload
ral_lr11xx_get_pkt_payload
ral_lr11xx_get_irq_status
ral_lr11xx_clear_irq_status
ral_lr11xx_get_and_clear_irq_status
ral_lr11xx_set_dio_irq_params
ral_lr11xx_set_rf_freq
ral_lr11xx_set_pkt_type
ral_lr11xx_get_pkt_type
ral_lr11xx_set_gfsk_mod_params
ral_lr11xx_set_gfsk_pkt_params
ral_lr11xx_set_lora_mod_params
ral_lr11xx_set_lora_pkt_params
ral_lr11xx_set_lora_cad_params
ral_lr11xx_set_lora_symb_nb_timeout
ral_lr11xx_set_flrc_mod_params
ral_lr11xx_set_flrc_pkt_params
ral_lr11xx_get_gfsk_rx_pkt_status
ral_lr11xx_get_lora_rx_pkt_status
ral_lr11xx_get_flrc_rx_pkt_status
ral_lr11xx_get_rssi_inst
ral_lr11xx_get_lora_time_on_air_in_ms
ral_lr11xx_get_gfsk_time_on_air_in_ms
ral_lr11xx_get_flrc_time_on_air_in_ms
ral_lr11xx_set_gfsk_sync_word
ral_lr11xx_set_lora_sync_word
ral_lr11xx_set_flrc_sync_word
ral_lr11xx_set_gfsk_crc_params
ral_lr11xx_set_flrc_crc_params
ral_lr11xx_set_gfsk_whitening_seed
ral_lr11xx_lr_fhss_init
ral_lr11xx_lr_fhss_build_frame
ral_lr11xx_lr_fhss_handle_hop
ral_lr11xx_lr_fhss_handle_tx_done
ral_lr11xx_lr_fhss_get_time_on_air_in_ms
ral_lr11xx_lr_fhss_get_hop_sequence_count
ral_lr11xx_get_lora_rx_pkt_cr_crc
ral_lr11xx_get_tx_consumption_in_ua
ral_lr11xx_get_gfsk_rx_consumption_in_ua
ral_lr11xx_get_lora_rx_consumption_in_ua
ral_lr11xx_get_random_numbers
ralf_lr11xx_setup_gfsk
ralf_lr11xx_setup_lora
ralf_lr11xx_setup_flrc
