ARM GAS  /tmp/ccdhfimg.s 			page 1


   1              		.cpu cortex-m0
   2              		.arch armv6s-m
   3              		.fpu softvfp
   4              		.eabi_attribute 23, 1
   5              		.eabi_attribute 24, 1
   6              		.eabi_attribute 25, 1
   7              		.eabi_attribute 26, 1
   8              		.eabi_attribute 30, 4
   9              		.eabi_attribute 34, 0
  10              		.eabi_attribute 18, 4
  11              		.file	"main.c"
  12              		.text
  13              		.section	.rodata.periodic_timer_cb.str1.1,"aMS",%progbits,1
  14              	.LC0:
  15 0000 70657269 		.ascii	"periodic_timer_cb\012\015\000"
  15      6F646963 
  15      5F74696D 
  15      65725F63 
  15      620A0D00 
  16              		.section	.text.periodic_timer_cb,"ax",%progbits
  17              		.align	1
  18              		.syntax unified
  19              		.code	16
  20              		.thumb_func
  22              	periodic_timer_cb:
  23              		@ args = 0, pretend = 0, frame = 0
  24              		@ frame_needed = 0, uses_anonymous_args = 0
  25 0000 10B5     		push	{r4, lr}
  26 0002 0548     		ldr	r0, .L2
  27 0004 FFF7FEFF 		bl	hal_trace_print_var
  28              		@ sp needed
  29 0008 0122     		movs	r2, #1
  30 000a 044B     		ldr	r3, .L2+4
  31 000c 0448     		ldr	r0, .L2+8
  32 000e 1A70     		strb	r2, [r3]
  33 0010 FFF7FEFF 		bl	TimerStart
  34 0014 10BD     		pop	{r4, pc}
  35              	.L3:
  36 0016 C046     		.align	2
  37              	.L2:
  38 0018 00000000 		.word	.LC0
  39 001c 00000000 		.word	periodic_message_flag
  40 0020 00000000 		.word	periodic_timer
  42              		.section	.rodata.get_event.str1.1,"aMS",%progbits,1
  43              	.LC4:
  44 0000 494E464F 		.ascii	"INFO: Event received: RESET\012\015\000"
  44      3A204576 
  44      656E7420 
  44      72656365 
  44      69766564 
  45              	.LC6:
  46 001e 00       		.ascii	"\000"
  47              	.LC11:
  48 001f 494E464F 		.ascii	"INFO: Event received: ALARM\012\015\000"
  48      3A204576 
  48      656E7420 
  48      72656365 
ARM GAS  /tmp/ccdhfimg.s 			page 2


  48      69766564 
  49              	.LC13:
  50 003d 494E464F 		.ascii	"INFO: Event received: JOINED\012\015\000"
  50      3A204576 
  50      656E7420 
  50      72656365 
  50      69766564 
  51              	.LC15:
  52 005c 494E464F 		.ascii	"INFO: Modem is now joined \012\015\000"
  52      3A204D6F 
  52      64656D20 
  52      6973206E 
  52      6F77206A 
  53              	.LC17:
  54 0079 494E464F 		.ascii	"INFO: Send hello_world message \012\015\000"
  54      3A205365 
  54      6E642068 
  54      656C6C6F 
  54      5F776F72 
  55              	.LC21:
  56 009b 494E464F 		.ascii	"INFO: Event received: TXDONE\012\015\000"
  56      3A204576 
  56      656E7420 
  56      72656365 
  56      69766564 
  57              	.LC23:
  58 00ba 494E464F 		.ascii	"INFO: Transmission done \012\015\000"
  58      3A205472 
  58      616E736D 
  58      69737369 
  58      6F6E2064 
  59              	.LC25:
  60 00d5 494E464F 		.ascii	"INFO: Event received: DOWNDATA\012\015\000"
  60      3A204576 
  60      656E7420 
  60      72656365 
  60      69766564 
  61              	.LC29:
  62 00f6 44617461 		.ascii	"Data received on port %u \012\015\000"
  62      20726563 
  62      65697665 
  62      64206F6E 
  62      20706F72 
  63              	.LC31:
  64 0112 52656365 		.ascii	"Received payload \012\015\000"
  64      69766564 
  64      20706179 
  64      6C6F6164 
  64      200A0D00 
  65              	.LC33:
  66 0126 2573202D 		.ascii	"%s - (%lu bytes):\012\015\000"
  66      2028256C 
  66      75206279 
  66      74657329 
  66      3A0A0D00 
  67              	.LC35:
  68 013a 0A0D00   		.ascii	"\012\015\000"
ARM GAS  /tmp/ccdhfimg.s 			page 3


  69              	.LC37:
  70 013d 20253032 		.ascii	" %02X\000"
  70      5800
  71              	.LC39:
  72 0143 494E464F 		.ascii	"INFO: Event received: UPLOADDONE\012\015\000"
  72      3A204576 
  72      656E7420 
  72      72656365 
  72      69766564 
  73              	.LC41:
  74 0166 494E464F 		.ascii	"INFO: Event received: SETCONF\012\015\000"
  74      3A204576 
  74      656E7420 
  74      72656365 
  74      69766564 
  75              	.LC43:
  76 0186 494E464F 		.ascii	"INFO: Event received: MUTE\012\015\000"
  76      3A204576 
  76      656E7420 
  76      72656365 
  76      69766564 
  77              	.LC45:
  78 01a3 494E464F 		.ascii	"INFO: Event received: STREAMDONE\012\015\000"
  78      3A204576 
  78      656E7420 
  78      72656365 
  78      69766564 
  79              	.LC47:
  80 01c6 494E464F 		.ascii	"INFO: Event received: JOINFAIL\012\015\000"
  80      3A204576 
  80      656E7420 
  80      72656365 
  80      69766564 
  81              	.LC49:
  82 01e7 5741524E 		.ascii	"WARN: Join request failed \012\015\000"
  82      3A204A6F 
  82      696E2072 
  82      65717565 
  82      73742066 
  83              	.LC51:
  84 0204 494E464F 		.ascii	"INFO: Event received: TIME\012\015\000"
  84      3A204576 
  84      656E7420 
  84      72656365 
  84      69766564 
  85              	.LC53:
  86 0221 494E464F 		.ascii	"INFO: Event received: TIMEOUT_ADR_CHANGED\012\015\000"
  86      3A204576 
  86      656E7420 
  86      72656365 
  86      69766564 
  87              	.LC55:
  88 024d 494E464F 		.ascii	"INFO: Event received: NEW_LINK_ADR\012\015\000"
  88      3A204576 
  88      656E7420 
  88      72656365 
  88      69766564 
ARM GAS  /tmp/ccdhfimg.s 			page 4


  89              	.LC57:
  90 0272 494E464F 		.ascii	"INFO: Event received: LINK_CHECK\012\015\000"
  90      3A204576 
  90      656E7420 
  90      72656365 
  90      69766564 
  91              	.LC59:
  92 0295 494E464F 		.ascii	"INFO: Link check successfull\012\015\000"
  92      3A204C69 
  92      6E6B2063 
  92      6865636B 
  92      20737563 
  93              	.LC62:
  94 02b4 494E464F 		.ascii	"INFO: Link check failed\012\000"
  94      3A204C69 
  94      6E6B2063 
  94      6865636B 
  94      20666169 
  95              	.LC64:
  96 02cd 494E464F 		.ascii	"INFO: Link check failed %d times, rejoin network\012"
  96      3A204C69 
  96      6E6B2063 
  96      6865636B 
  96      20666169 
  97 02fe 0D00     		.ascii	"\015\000"
  98              	.LC66:
  99 0300 494E464F 		.ascii	"INFO: Event received: ALMANAC_UPDATE\012\015\000"
  99      3A204576 
  99      656E7420 
  99      72656365 
  99      69766564 
 100              	.LC68:
 101 0327 494E464F 		.ascii	"INFO: Event received: USER_RADIO_ACCESS\012\015\000"
 101      3A204576 
 101      656E7420 
 101      72656365 
 101      69766564 
 102              	.LC70:
 103 0351 494E464F 		.ascii	"INFO: Event received: CLASS_B_PING_SLOT_INFO\012\015"
 103      3A204576 
 103      656E7420 
 103      72656365 
 103      69766564 
 104 037f 00       		.ascii	"\000"
 105              	.LC72:
 106 0380 494E464F 		.ascii	"INFO: Event received: CLASS_B_STATUS\012\015\000"
 106      3A204576 
 106      656E7420 
 106      72656365 
 106      69766564 
 107              	.LC74:
 108 03a7 4552524F 		.ascii	"ERROR: Unknown event %u\012\015\000"
 108      523A2055 
 108      6E6B6E6F 
 108      776E2065 
 108      76656E74 
 109              	.LC19:
ARM GAS  /tmp/ccdhfimg.s 			page 5


 110 03c1 68656C6C 		.ascii	"hello_world\000"
 110      6F5F776F 
 110      726C6400 
 111              		.section	.text.get_event,"ax",%progbits
 112              		.align	1
 113              		.syntax unified
 114              		.code	16
 115              		.thumb_func
 117              	get_event:
 118              		@ args = 0, pretend = 0, frame = 280
 119              		@ frame_needed = 0, uses_anonymous_args = 0
 120 0000 F0B5     		push	{r4, r5, r6, r7, lr}
 121 0002 C9B0     		sub	sp, sp, #292
 122              	.L30:
 123 0004 0B26     		movs	r6, #11
 124 0006 06AC     		add	r4, sp, #24
 125 0008 6E44     		add	r6, r6, sp
 126 000a 3100     		movs	r1, r6
 127 000c 2000     		movs	r0, r4
 128 000e FFF7FEFF 		bl	smtc_modem_get_event
 129 0012 6178     		ldrb	r1, [r4, #1]
 130 0014 6D4D     		ldr	r5, .L39
 131 0016 1429     		cmp	r1, #20
 132 0018 00D9     		bls	.LCB42
 133 001a D1E0     		b	.L5	@long jump
 134              	.LCB42:
 135 001c 0800     		movs	r0, r1
 136 001e FFF7FEFF 		bl	__gnu_thumb1_case_uqi
 137              	.L7:
 138 0022 0B       		.byte	(.L24-.L7)/2
 139 0023 27       		.byte	(.L23-.L7)/2
 140 0024 2C       		.byte	(.L22-.L7)/2
 141 0025 50       		.byte	(.L21-.L7)/2
 142 0026 58       		.byte	(.L20-.L7)/2
 143 0027 88       		.byte	(.L19-.L7)/2
 144 0028 8A       		.byte	(.L18-.L7)/2
 145 0029 8C       		.byte	(.L17-.L7)/2
 146 002a 8E       		.byte	(.L16-.L7)/2
 147 002b CF       		.byte	(.L5-.L7)/2
 148 002c 90       		.byte	(.L15-.L7)/2
 149 002d CF       		.byte	(.L5-.L7)/2
 150 002e CF       		.byte	(.L5-.L7)/2
 151 002f 98       		.byte	(.L14-.L7)/2
 152 0030 9A       		.byte	(.L13-.L7)/2
 153 0031 9C       		.byte	(.L12-.L7)/2
 154 0032 9E       		.byte	(.L11-.L7)/2
 155 0033 C7       		.byte	(.L10-.L7)/2
 156 0034 C9       		.byte	(.L9-.L7)/2
 157 0035 CB       		.byte	(.L8-.L7)/2
 158 0036 CD       		.byte	(.L6-.L7)/2
 159 0037 00       		.p2align 1
 160              	.L24:
 161 0038 6548     		ldr	r0, .L39+4
 162 003a FFF7FEFF 		bl	hal_trace_print_var
 163 003e 2800     		movs	r0, r5
 164 0040 FFF7FEFF 		bl	hal_trace_print_var
 165 0044 634C     		ldr	r4, .L39+8
ARM GAS  /tmp/ccdhfimg.s 			page 6


 166 0046 0020     		movs	r0, #0
 167 0048 2100     		movs	r1, r4
 168 004a FFF7FEFF 		bl	smtc_modem_set_deveui
 169 004e 6249     		ldr	r1, .L39+12
 170 0050 0020     		movs	r0, #0
 171 0052 FFF7FEFF 		bl	smtc_modem_set_joineui
 172 0056 0134     		adds	r4, r4, #1
 173 0058 6049     		ldr	r1, .L39+16
 174 005a 0020     		movs	r0, #0
 175 005c FFF7FEFF 		bl	smtc_modem_set_nwkkey
 176 0060 0020     		movs	r0, #0
 177 0062 E17F     		ldrb	r1, [r4, #31]
 178 0064 FFF7FEFF 		bl	smtc_modem_set_region
 179              	.L35:
 180 0068 0020     		movs	r0, #0
 181 006a FFF7FEFF 		bl	smtc_modem_join_network
 182 006e 23E0     		b	.L25
 183              	.L23:
 184 0070 5B48     		ldr	r0, .L39+20
 185              	.L38:
 186 0072 FFF7FEFF 		bl	hal_trace_print_var
 187              	.L36:
 188 0076 2800     		movs	r0, r5
 189 0078 4AE0     		b	.L37
 190              	.L22:
 191 007a 0C24     		movs	r4, #12
 192 007c 5948     		ldr	r0, .L39+24
 193 007e FFF7FEFF 		bl	hal_trace_print_var
 194 0082 2800     		movs	r0, r5
 195 0084 FFF7FEFF 		bl	hal_trace_print_var
 196 0088 5748     		ldr	r0, .L39+28
 197 008a FFF7FEFF 		bl	hal_trace_print_var
 198 008e 2800     		movs	r0, r5
 199 0090 FFF7FEFF 		bl	hal_trace_print_var
 200 0094 5548     		ldr	r0, .L39+32
 201 0096 FFF7FEFF 		bl	hal_trace_print_var
 202 009a 2800     		movs	r0, r5
 203 009c FFF7FEFF 		bl	hal_trace_print_var
 204 00a0 2200     		movs	r2, r4
 205 00a2 5349     		ldr	r1, .L39+36
 206 00a4 03A8     		add	r0, sp, #12
 207 00a6 FFF7FEFF 		bl	memcpy
 208 00aa 0022     		movs	r2, #0
 209 00ac 6621     		movs	r1, #102
 210 00ae 1000     		movs	r0, r2
 211 00b0 0094     		str	r4, [sp]
 212 00b2 03AB     		add	r3, sp, #12
 213 00b4 FFF7FEFF 		bl	smtc_modem_request_uplink
 214              	.L25:
 215 00b8 3378     		ldrb	r3, [r6]
 216 00ba 002B     		cmp	r3, #0
 217 00bc A2D1     		bne	.L30
 218 00be 49B0     		add	sp, sp, #292
 219              		@ sp needed
 220 00c0 F0BD     		pop	{r4, r5, r6, r7, pc}
 221              	.L21:
 222 00c2 4C48     		ldr	r0, .L39+40
ARM GAS  /tmp/ccdhfimg.s 			page 7


 223 00c4 FFF7FEFF 		bl	hal_trace_print_var
 224 00c8 2800     		movs	r0, r5
 225 00ca FFF7FEFF 		bl	hal_trace_print_var
 226 00ce 4A48     		ldr	r0, .L39+44
 227 00d0 CFE7     		b	.L38
 228              	.L20:
 229 00d2 4A48     		ldr	r0, .L39+48
 230 00d4 FFF7FEFF 		bl	hal_trace_print_var
 231 00d8 2800     		movs	r0, r5
 232 00da FFF7FEFF 		bl	hal_trace_print_var
 233 00de 8923     		movs	r3, #137
 234 00e0 5B00     		lsls	r3, r3, #1
 235 00e2 6B44     		add	r3, r3, sp
 236 00e4 464F     		ldr	r7, .L39+52
 237 00e6 1A78     		ldrb	r2, [r3]
 238 00e8 464D     		ldr	r5, .L39+56
 239 00ea 08A9     		add	r1, sp, #32
 240 00ec 3800     		movs	r0, r7
 241 00ee 2A70     		strb	r2, [r5]
 242 00f0 FFF7FEFF 		bl	memcpy
 243 00f4 E179     		ldrb	r1, [r4, #7]
 244 00f6 4448     		ldr	r0, .L39+60
 245 00f8 FFF7FEFF 		bl	hal_trace_print_var
 246 00fc 2A78     		ldrb	r2, [r5]
 247 00fe 4349     		ldr	r1, .L39+64
 248 0100 4348     		ldr	r0, .L39+68
 249 0102 FFF7FEFF 		bl	hal_trace_print_var
 250 0106 0024     		movs	r4, #0
 251              	.L26:
 252 0108 2B78     		ldrb	r3, [r5]
 253 010a A342     		cmp	r3, r4
 254 010c 03D8     		bhi	.L28
 255 010e 4148     		ldr	r0, .L39+72
 256              	.L37:
 257 0110 FFF7FEFF 		bl	hal_trace_print_var
 258 0114 D0E7     		b	.L25
 259              	.L28:
 260 0116 0F23     		movs	r3, #15
 261 0118 1C42     		tst	r4, r3
 262 011a 04D1     		bne	.L27
 263 011c 002C     		cmp	r4, #0
 264 011e 02D0     		beq	.L27
 265 0120 3C48     		ldr	r0, .L39+72
 266 0122 FFF7FEFF 		bl	hal_trace_print_var
 267              	.L27:
 268 0126 395D     		ldrb	r1, [r7, r4]
 269 0128 3B48     		ldr	r0, .L39+76
 270 012a FFF7FEFF 		bl	hal_trace_print_var
 271 012e 0134     		adds	r4, r4, #1
 272 0130 EAE7     		b	.L26
 273              	.L19:
 274 0132 3A48     		ldr	r0, .L39+80
 275 0134 9DE7     		b	.L38
 276              	.L18:
 277 0136 3A48     		ldr	r0, .L39+84
 278 0138 9BE7     		b	.L38
 279              	.L17:
ARM GAS  /tmp/ccdhfimg.s 			page 8


 280 013a 3A48     		ldr	r0, .L39+88
 281 013c 99E7     		b	.L38
 282              	.L16:
 283 013e 3A48     		ldr	r0, .L39+92
 284 0140 97E7     		b	.L38
 285              	.L15:
 286 0142 3A48     		ldr	r0, .L39+96
 287 0144 FFF7FEFF 		bl	hal_trace_print_var
 288 0148 2800     		movs	r0, r5
 289 014a FFF7FEFF 		bl	hal_trace_print_var
 290 014e 3848     		ldr	r0, .L39+100
 291 0150 8FE7     		b	.L38
 292              	.L14:
 293 0152 3848     		ldr	r0, .L39+104
 294 0154 8DE7     		b	.L38
 295              	.L13:
 296 0156 3848     		ldr	r0, .L39+108
 297 0158 8BE7     		b	.L38
 298              	.L12:
 299 015a 3848     		ldr	r0, .L39+112
 300 015c 89E7     		b	.L38
 301              	.L11:
 302 015e 3848     		ldr	r0, .L39+116
 303 0160 FFF7FEFF 		bl	hal_trace_print_var
 304 0164 2800     		movs	r0, r5
 305 0166 FFF7FEFF 		bl	hal_trace_print_var
 306 016a 2379     		ldrb	r3, [r4, #4]
 307 016c 354C     		ldr	r4, .L39+120
 308 016e 012B     		cmp	r3, #1
 309 0170 08D1     		bne	.L29
 310 0172 3548     		ldr	r0, .L39+124
 311 0174 FFF7FEFF 		bl	hal_trace_print_var
 312 0178 2800     		movs	r0, r5
 313 017a FFF7FEFF 		bl	hal_trace_print_var
 314 017e 0023     		movs	r3, #0
 315 0180 2360     		str	r3, [r4]
 316 0182 99E7     		b	.L25
 317              	.L29:
 318 0184 3148     		ldr	r0, .L39+128
 319 0186 FFF7FEFF 		bl	hal_trace_print_var
 320 018a 2800     		movs	r0, r5
 321 018c FFF7FEFF 		bl	hal_trace_print_var
 322 0190 2168     		ldr	r1, [r4]
 323 0192 0131     		adds	r1, r1, #1
 324 0194 2160     		str	r1, [r4]
 325 0196 0929     		cmp	r1, #9
 326 0198 00D8     		bhi	.LCB263
 327 019a 8DE7     		b	.L25	@long jump
 328              	.LCB263:
 329 019c 2C48     		ldr	r0, .L39+132
 330 019e FFF7FEFF 		bl	hal_trace_print_var
 331 01a2 2800     		movs	r0, r5
 332 01a4 FFF7FEFF 		bl	hal_trace_print_var
 333 01a8 0020     		movs	r0, #0
 334 01aa FFF7FEFF 		bl	smtc_modem_leave_network
 335 01ae 5BE7     		b	.L35
 336              	.L10:
ARM GAS  /tmp/ccdhfimg.s 			page 9


 337 01b0 2848     		ldr	r0, .L39+136
 338 01b2 5EE7     		b	.L38
 339              	.L9:
 340 01b4 2848     		ldr	r0, .L39+140
 341 01b6 5CE7     		b	.L38
 342              	.L8:
 343 01b8 2848     		ldr	r0, .L39+144
 344 01ba 5AE7     		b	.L38
 345              	.L6:
 346 01bc 2848     		ldr	r0, .L39+148
 347 01be 58E7     		b	.L38
 348              	.L5:
 349 01c0 284B     		ldr	r3, .L39+152
 350 01c2 1800     		movs	r0, r3
 351 01c4 FFF7FEFF 		bl	hal_trace_print_var
 352 01c8 55E7     		b	.L36
 353              	.L40:
 354 01ca C046     		.align	2
 355              	.L39:
 356 01cc 1E000000 		.word	.LC6
 357 01d0 00000000 		.word	.LC4
 358 01d4 00000000 		.word	settings
 359 01d8 08000000 		.word	settings+8
 360 01dc 10000000 		.word	settings+16
 361 01e0 1F000000 		.word	.LC11
 362 01e4 3D000000 		.word	.LC13
 363 01e8 5C000000 		.word	.LC15
 364 01ec 79000000 		.word	.LC17
 365 01f0 C1030000 		.word	.LC19
 366 01f4 9B000000 		.word	.LC21
 367 01f8 BA000000 		.word	.LC23
 368 01fc D5000000 		.word	.LC25
 369 0200 00000000 		.word	rx_payload
 370 0204 00000000 		.word	rx_payload_size
 371 0208 F6000000 		.word	.LC29
 372 020c 12010000 		.word	.LC31
 373 0210 26010000 		.word	.LC33
 374 0214 3A010000 		.word	.LC35
 375 0218 3D010000 		.word	.LC37
 376 021c 43010000 		.word	.LC39
 377 0220 66010000 		.word	.LC41
 378 0224 86010000 		.word	.LC43
 379 0228 A3010000 		.word	.LC45
 380 022c C6010000 		.word	.LC47
 381 0230 E7010000 		.word	.LC49
 382 0234 04020000 		.word	.LC51
 383 0238 21020000 		.word	.LC53
 384 023c 4D020000 		.word	.LC55
 385 0240 72020000 		.word	.LC57
 386 0244 00000000 		.word	link_check_attempts
 387 0248 95020000 		.word	.LC59
 388 024c B4020000 		.word	.LC62
 389 0250 CD020000 		.word	.LC64
 390 0254 00030000 		.word	.LC66
 391 0258 27030000 		.word	.LC68
 392 025c 51030000 		.word	.LC70
 393 0260 80030000 		.word	.LC72
ARM GAS  /tmp/ccdhfimg.s 			page 10


 394 0264 A7030000 		.word	.LC74
 396              		.section	.rodata.gps_snap.str1.1,"aMS",%progbits,1
 397              	.LC77:
 398 0000 0A2D2D2D 		.ascii	"\012-----------------GPS snap----------------\012\015"
 398      2D2D2D2D 
 398      2D2D2D2D 
 398      2D2D2D2D 
 398      2D2D4750 
 399 002c 00       		.ascii	"\000"
 400              	.LC79:
 401 002d 53746172 		.ascii	"Starting GNSS scan with time: %u\012\015\000"
 401      74696E67 
 401      20474E53 
 401      53207363 
 401      616E2077 
 402              	.LC81:
 403 0050 4C523131 		.ascii	"LR11XX ERROR: Failed to set constellations\012\015\000"
 403      58582045 
 403      52524F52 
 403      3A204661 
 403      696C6564 
 404              	.LC83:
 405 007d 4C523131 		.ascii	"LR11XX ERROR: Failed to set scan mode\012\015\000"
 405      58582045 
 405      52524F52 
 405      3A204661 
 405      696C6564 
 406              	.LC86:
 407 00a5 4C523131 		.ascii	"LR11XX ERROR: Failed to set assistance position\012"
 407      58582045 
 407      52524F52 
 407      3A204661 
 407      696C6564 
 408 00d5 0D00     		.ascii	"\015\000"
 409              	.LC88:
 410 00d7 4C523131 		.ascii	"LR11XX ERROR: Failed to start autonomous scan\012\015"
 410      58582045 
 410      52524F52 
 410      3A204661 
 410      696C6564 
 411 0106 00       		.ascii	"\000"
 412              	.LC90:
 413 0107 4C523131 		.ascii	"LR11XX ERROR: Failed to get number of detected sate"
 413      58582045 
 413      52524F52 
 413      3A204661 
 413      696C6564 
 414 013a 6C6C6974 		.ascii	"llites\012\015\000"
 414      65730A0D 
 414      00
 415              	.LC92:
 416 0143 4E756D62 		.ascii	"Number of satellites found: %d\012\015\000"
 416      6572206F 
 416      66207361 
 416      74656C6C 
 416      69746573 
 417              	.LC94:
ARM GAS  /tmp/ccdhfimg.s 			page 11


 418 0164 52617720 		.ascii	"Raw GNSS result buffer: \000"
 418      474E5353 
 418      20726573 
 418      756C7420 
 418      62756666 
 419              	.LC96:
 420 017d 25303258 		.ascii	"%02X \000"
 420      2000
 421              	.LC100:
 422 0183 50617273 		.ascii	"Parsed Data - Satellite ID: %d, CNR: %d, Doppler: %"
 422      65642044 
 422      61746120 
 422      2D205361 
 422      74656C6C 
 423 01b6 640A0D00 		.ascii	"d\012\015\000"
 424              	.LC104:
 425 01ba 50617273 		.ascii	"Parsed GNSS context status\012\015\000"
 425      65642047 
 425      4E535320 
 425      636F6E74 
 425      65787420 
 426              	.LC106:
 427 01d7 4C523131 		.ascii	"LR11XX ERROR: Failed to parse GNSS context status\012"
 427      58582045 
 427      52524F52 
 427      3A204661 
 427      696C6564 
 428 0209 0D00     		.ascii	"\015\000"
 429              	.LC108:
 430 020b 4C523131 		.ascii	"LR11XX ERROR: Failed to get GNSS context status\012"
 430      58582045 
 430      52524F52 
 430      3A204661 
 430      696C6564 
 431 023b 0D00     		.ascii	"\015\000"
 432              	.LC111:
 433 023d 474E5353 		.ascii	"GNSS scan timings - Acquisition: %u ms, Analysis: %"
 433      20736361 
 433      6E207469 
 433      6D696E67 
 433      73202D20 
 434 0270 75206D73 		.ascii	"u ms\012\015\000"
 434      0A0D00
 435              	.LC113:
 436 0277 4C523131 		.ascii	"LR11XX ERROR: Failed to get GNSS scan timings\012\015"
 436      58582045 
 436      52524F52 
 436      3A204661 
 436      696C6564 
 437 02a6 00       		.ascii	"\000"
 438              	.LC115:
 439 02a7 4C523131 		.ascii	"LR11XX ERROR: Failed to read GNSS results\012\015\000"
 439      58582045 
 439      52524F52 
 439      3A204661 
 439      696C6564 
 440              	.LC117:
ARM GAS  /tmp/ccdhfimg.s 			page 12


 441 02d3 4C523131 		.ascii	"LR11XX ERROR: Invalid result size\012\015\000"
 441      58582045 
 441      52524F52 
 441      3A20496E 
 441      76616C69 
 442              		.section	.text.gps_snap,"ax",%progbits
 443              		.align	1
 444              		.global	gps_snap
 445              		.syntax unified
 446              		.code	16
 447              		.thumb_func
 449              	gps_snap:
 450              		@ args = 0, pretend = 0, frame = 272
 451              		@ frame_needed = 0, uses_anonymous_args = 0
 452 0000 F0B5     		push	{r4, r5, r6, r7, lr}
 453 0002 0D26     		movs	r6, #13
 454 0004 0E27     		movs	r7, #14
 455 0006 0025     		movs	r5, #0
 456 0008 C7B0     		sub	sp, sp, #284
 457 000a 6048     		ldr	r0, .L63
 458 000c FFF7FEFF 		bl	hal_trace_print_var
 459 0010 0121     		movs	r1, #1
 460 0012 1020     		movs	r0, #16
 461 0014 FFF7FEFF 		bl	hal_gpio_set_value
 462 0018 6420     		movs	r0, #100
 463 001a FFF7FEFF 		bl	hal_mcu_delay_ms
 464 001e 02AB     		add	r3, sp, #8
 465 0020 F618     		adds	r6, r6, r3
 466 0022 FF18     		adds	r7, r7, r3
 467 0024 3570     		strb	r5, [r6]
 468 0026 3D80     		strh	r5, [r7]
 469 0028 FFF7FEFF 		bl	get_current_gnss_time
 470 002c 0390     		str	r0, [sp, #12]
 471 002e 0399     		ldr	r1, [sp, #12]
 472 0030 5748     		ldr	r0, .L63+4
 473 0032 FFF7FEFF 		bl	hal_trace_print_var
 474 0036 0321     		movs	r1, #3
 475 0038 2800     		movs	r0, r5
 476 003a FFF7FEFF 		bl	lr11xx_gnss_set_constellations_to_use
 477 003e 0400     		movs	r4, r0
 478 0040 5448     		ldr	r0, .L63+8
 479 0042 AC42     		cmp	r4, r5
 480 0044 00D0     		beq	.LCB376
 481 0046 99E0     		b	.L62	@long jump
 482              	.LCB376:
 483 0048 2100     		movs	r1, r4
 484 004a 2000     		movs	r0, r4
 485 004c FFF7FEFF 		bl	lr11xx_gnss_set_scan_mode
 486 0050 051E     		subs	r5, r0, #0
 487 0052 5148     		ldr	r0, .L63+12
 488 0054 00D0     		beq	.LCB383
 489 0056 91E0     		b	.L62	@long jump
 490              	.LCB383:
 491 0058 5049     		ldr	r1, .L63+16
 492 005a 514B     		ldr	r3, .L63+20
 493 005c 2800     		movs	r0, r5
 494 005e 0B60     		str	r3, [r1]
ARM GAS  /tmp/ccdhfimg.s 			page 13


 495 0060 504B     		ldr	r3, .L63+24
 496 0062 4B60     		str	r3, [r1, #4]
 497 0064 FFF7FEFF 		bl	lr11xx_gnss_set_assistance_position
 498 0068 041E     		subs	r4, r0, #0
 499 006a 4F48     		ldr	r0, .L63+28
 500 006c 00D0     		beq	.LCB394
 501 006e 85E0     		b	.L62	@long jump
 502              	.LCB394:
 503 0070 0623     		movs	r3, #6
 504 0072 0093     		str	r3, [sp]
 505 0074 053B     		subs	r3, r3, #5
 506 0076 1A00     		movs	r2, r3
 507 0078 2000     		movs	r0, r4
 508 007a 0399     		ldr	r1, [sp, #12]
 509 007c FFF7FEFF 		bl	lr11xx_gnss_scan_autonomous
 510 0080 051E     		subs	r5, r0, #0
 511 0082 4A48     		ldr	r0, .L63+32
 512 0084 00D0     		beq	.LCB405
 513 0086 79E0     		b	.L62	@long jump
 514              	.LCB405:
 515 0088 4948     		ldr	r0, .L63+36
 516 008a FFF7FEFF 		bl	hal_mcu_delay_ms
 517 008e 3100     		movs	r1, r6
 518 0090 2800     		movs	r0, r5
 519 0092 FFF7FEFF 		bl	lr11xx_gnss_get_nb_detected_satellites
 520 0096 0028     		cmp	r0, #0
 521 0098 41D0     		beq	.L47
 522 009a 4648     		ldr	r0, .L63+40
 523 009c FFF7FEFF 		bl	hal_trace_print_var
 524              	.L48:
 525 00a0 3900     		movs	r1, r7
 526 00a2 0020     		movs	r0, #0
 527 00a4 FFF7FEFF 		bl	lr11xx_gnss_get_result_size
 528 00a8 0028     		cmp	r0, #0
 529 00aa 00D0     		beq	.LCB422
 530 00ac 6BE0     		b	.L49	@long jump
 531              	.LCB422:
 532 00ae 8023     		movs	r3, #128
 533 00b0 3A88     		ldrh	r2, [r7]
 534 00b2 5B00     		lsls	r3, r3, #1
 535 00b4 9A42     		cmp	r2, r3
 536 00b6 66D8     		bhi	.L49
 537 00b8 06A9     		add	r1, sp, #24
 538 00ba FFF7FEFF 		bl	lr11xx_gnss_read_results
 539 00be 041E     		subs	r4, r0, #0
 540 00c0 5FD1     		bne	.L50
 541 00c2 3D48     		ldr	r0, .L63+44
 542 00c4 FFF7FEFF 		bl	hal_trace_print_var
 543 00c8 2500     		movs	r5, r4
 544              	.L51:
 545 00ca 3B88     		ldrh	r3, [r7]
 546 00cc AB42     		cmp	r3, r5
 547 00ce 2BD8     		bhi	.L52
 548 00d0 3A48     		ldr	r0, .L63+48
 549 00d2 FFF7FEFF 		bl	hal_trace_print_var
 550              	.L53:
 551 00d6 3378     		ldrb	r3, [r6]
ARM GAS  /tmp/ccdhfimg.s 			page 14


 552 00d8 A342     		cmp	r3, r4
 553 00da 2FD8     		bhi	.L54
 554 00dc 384C     		ldr	r4, .L63+52
 555 00de 0020     		movs	r0, #0
 556 00e0 2100     		movs	r1, r4
 557 00e2 FFF7FEFF 		bl	lr11xx_gnss_get_context_status
 558 00e6 0028     		cmp	r0, #0
 559 00e8 45D1     		bne	.L55
 560 00ea 2000     		movs	r0, r4
 561 00ec 3549     		ldr	r1, .L63+56
 562 00ee FFF7FEFF 		bl	lr11xx_gnss_parse_context_status_buffer
 563 00f2 0028     		cmp	r0, #0
 564 00f4 3DD1     		bne	.L56
 565 00f6 3448     		ldr	r0, .L63+60
 566              	.L61:
 567 00f8 FFF7FEFF 		bl	hal_trace_print_var
 568 00fc 334C     		ldr	r4, .L63+64
 569 00fe 0020     		movs	r0, #0
 570 0100 2100     		movs	r1, r4
 571 0102 FFF7FEFF 		bl	lr11xx_gnss_get_timings
 572 0106 0028     		cmp	r0, #0
 573 0108 37D1     		bne	.L58
 574 010a 06CC     		ldmia	r4!, {r1, r2}
 575 010c 3048     		ldr	r0, .L63+68
 576 010e FFF7FEFF 		bl	hal_trace_print_var
 577              	.L59:
 578 0112 0021     		movs	r1, #0
 579 0114 1020     		movs	r0, #16
 580 0116 FFF7FEFF 		bl	hal_gpio_set_value
 581 011a 47B0     		add	sp, sp, #284
 582              		@ sp needed
 583 011c F0BD     		pop	{r4, r5, r6, r7, pc}
 584              	.L47:
 585 011e 3178     		ldrb	r1, [r6]
 586 0120 2C48     		ldr	r0, .L63+72
 587 0122 FFF7FEFF 		bl	hal_trace_print_var
 588 0126 BBE7     		b	.L48
 589              	.L52:
 590 0128 1022     		movs	r2, #16
 591 012a 02AB     		add	r3, sp, #8
 592 012c 9B18     		adds	r3, r3, r2
 593 012e 595D     		ldrb	r1, [r3, r5]
 594 0130 2948     		ldr	r0, .L63+76
 595 0132 0135     		adds	r5, r5, #1
 596 0134 FFF7FEFF 		bl	hal_trace_print_var
 597 0138 ADB2     		uxth	r5, r5
 598 013a C6E7     		b	.L51
 599              	.L54:
 600 013c 1021     		movs	r1, #16
 601 013e 02AA     		add	r2, sp, #8
 602 0140 E300     		lsls	r3, r4, #3
 603 0142 5218     		adds	r2, r2, r1
 604 0144 D15C     		ldrb	r1, [r2, r3]
 605 0146 2548     		ldr	r0, .L63+80
 606 0148 06AA     		add	r2, sp, #24
 607 014a A500     		lsls	r5, r4, #2
 608 014c D318     		adds	r3, r2, r3
ARM GAS  /tmp/ccdhfimg.s 			page 15


 609 014e 2954     		strb	r1, [r5, r0]
 610 0150 4019     		adds	r0, r0, r5
 611 0152 9D78     		ldrb	r5, [r3, #2]
 612 0154 5A78     		ldrb	r2, [r3, #1]
 613 0156 DB78     		ldrb	r3, [r3, #3]
 614 0158 2D02     		lsls	r5, r5, #8
 615 015a 1F32     		adds	r2, r2, #31
 616 015c 2B43     		orrs	r3, r5
 617 015e 52B2     		sxtb	r2, r2
 618 0160 1BB2     		sxth	r3, r3
 619 0162 4270     		strb	r2, [r0, #1]
 620 0164 4380     		strh	r3, [r0, #2]
 621 0166 0134     		adds	r4, r4, #1
 622 0168 1D48     		ldr	r0, .L63+84
 623 016a FFF7FEFF 		bl	hal_trace_print_var
 624 016e E4B2     		uxtb	r4, r4
 625 0170 B1E7     		b	.L53
 626              	.L56:
 627 0172 1C48     		ldr	r0, .L63+88
 628 0174 C0E7     		b	.L61
 629              	.L55:
 630 0176 1C48     		ldr	r0, .L63+92
 631 0178 BEE7     		b	.L61
 632              	.L58:
 633 017a 1C48     		ldr	r0, .L63+96
 634              	.L62:
 635 017c FFF7FEFF 		bl	hal_trace_print_var
 636 0180 C7E7     		b	.L59
 637              	.L50:
 638 0182 1B48     		ldr	r0, .L63+100
 639 0184 FAE7     		b	.L62
 640              	.L49:
 641 0186 1B48     		ldr	r0, .L63+104
 642 0188 F8E7     		b	.L62
 643              	.L64:
 644 018a C046     		.align	2
 645              	.L63:
 646 018c 00000000 		.word	.LC77
 647 0190 2D000000 		.word	.LC79
 648 0194 50000000 		.word	.LC81
 649 0198 7D000000 		.word	.LC83
 650 019c 00000000 		.word	assistance_position
 651 01a0 A4DF6C42 		.word	1114431396
 652 01a4 98DD2E41 		.word	1093590424
 653 01a8 A5000000 		.word	.LC86
 654 01ac D7000000 		.word	.LC88
 655 01b0 88130000 		.word	5000
 656 01b4 07010000 		.word	.LC90
 657 01b8 64010000 		.word	.LC94
 658 01bc 3A010000 		.word	.LC35
 659 01c0 00000000 		.word	context_status_buffer
 660 01c4 00000000 		.word	context_status
 661 01c8 BA010000 		.word	.LC104
 662 01cc 00000000 		.word	gnss_timings
 663 01d0 3D020000 		.word	.LC111
 664 01d4 43010000 		.word	.LC92
 665 01d8 7D010000 		.word	.LC96
ARM GAS  /tmp/ccdhfimg.s 			page 16


 666 01dc 00000000 		.word	gnss_data_buffer
 667 01e0 83010000 		.word	.LC100
 668 01e4 D7010000 		.word	.LC106
 669 01e8 0B020000 		.word	.LC108
 670 01ec 77020000 		.word	.LC113
 671 01f0 A7020000 		.word	.LC115
 672 01f4 D3020000 		.word	.LC117
 674              		.section	.text.PC10Callback,"ax",%progbits
 675              		.align	1
 676              		.global	PC10Callback
 677              		.syntax unified
 678              		.code	16
 679              		.thumb_func
 681              	PC10Callback:
 682              		@ args = 0, pretend = 0, frame = 0
 683              		@ frame_needed = 0, uses_anonymous_args = 0
 684 0000 70B5     		push	{r4, r5, r6, lr}
 685 0002 2A20     		movs	r0, #42
 686 0004 FFF7FEFF 		bl	hal_gpio_get_value
 687 0008 0D4C     		ldr	r4, .L72
 688 000a 2378     		ldrb	r3, [r4]
 689 000c 0128     		cmp	r0, #1
 690 000e 11D1     		bne	.L66
 691 0010 002B     		cmp	r3, #0
 692 0012 0ED1     		bne	.L65
 693 0014 0B4D     		ldr	r5, .L72+4
 694 0016 0C4E     		ldr	r6, .L72+8
 695 0018 2B68     		ldr	r3, [r5]
 696 001a 3060     		str	r0, [r6]
 697 001c 012B     		cmp	r3, #1
 698 001e 03D0     		beq	.L68
 699 0020 FFF7FEFF 		bl	wateralarm
 700 0024 3368     		ldr	r3, [r6]
 701 0026 2B60     		str	r3, [r5]
 702              	.L68:
 703 0028 0848     		ldr	r0, .L72+12
 704 002a FFF7FEFF 		bl	TimerStart
 705 002e 0123     		movs	r3, #1
 706 0030 2370     		strb	r3, [r4]
 707              	.L65:
 708              		@ sp needed
 709 0032 70BD     		pop	{r4, r5, r6, pc}
 710              	.L66:
 711 0034 002B     		cmp	r3, #0
 712 0036 FCD1     		bne	.L65
 713 0038 034A     		ldr	r2, .L72+8
 714 003a 1360     		str	r3, [r2]
 715 003c F9E7     		b	.L65
 716              	.L73:
 717 003e C046     		.align	2
 718              	.L72:
 719 0040 00000000 		.word	hastydata1
 720 0044 00000000 		.word	prev_water
 721 0048 00000000 		.word	water
 722 004c 00000000 		.word	water_timer
 724              		.section	.rodata.water_timer_cb.str1.1,"aMS",%progbits,1
 725              	.LC125:
ARM GAS  /tmp/ccdhfimg.s 			page 17


 726 0000 77617465 		.ascii	"water_timer_cb\012\015\000"
 726      725F7469 
 726      6D65725F 
 726      63620A0D 
 726      00
 727              		.section	.text.water_timer_cb,"ax",%progbits
 728              		.align	1
 729              		.syntax unified
 730              		.code	16
 731              		.thumb_func
 733              	water_timer_cb:
 734              		@ args = 0, pretend = 0, frame = 0
 735              		@ frame_needed = 0, uses_anonymous_args = 0
 736 0000 10B5     		push	{r4, lr}
 737 0002 0448     		ldr	r0, .L75
 738 0004 FFF7FEFF 		bl	hal_trace_print_var
 739              		@ sp needed
 740 0008 0020     		movs	r0, #0
 741 000a 034B     		ldr	r3, .L75+4
 742 000c 1870     		strb	r0, [r3]
 743 000e FFF7FEFF 		bl	PC10Callback
 744 0012 10BD     		pop	{r4, pc}
 745              	.L76:
 746              		.align	2
 747              	.L75:
 748 0014 00000000 		.word	.LC125
 749 0018 00000000 		.word	hastydata1
 751              		.section	.text.PC11Callback,"ax",%progbits
 752              		.align	1
 753              		.global	PC11Callback
 754              		.syntax unified
 755              		.code	16
 756              		.thumb_func
 758              	PC11Callback:
 759              		@ args = 0, pretend = 0, frame = 0
 760              		@ frame_needed = 0, uses_anonymous_args = 0
 761 0000 70B5     		push	{r4, r5, r6, lr}
 762 0002 2B20     		movs	r0, #43
 763 0004 FFF7FEFF 		bl	hal_gpio_get_value
 764 0008 0128     		cmp	r0, #1
 765 000a 13D1     		bne	.L78
 766 000c 0F4C     		ldr	r4, .L86
 767 000e 2378     		ldrb	r3, [r4]
 768 0010 002B     		cmp	r3, #0
 769 0012 0ED1     		bne	.L77
 770 0014 0E4D     		ldr	r5, .L86+4
 771 0016 0F4E     		ldr	r6, .L86+8
 772 0018 2B68     		ldr	r3, [r5]
 773 001a 3060     		str	r0, [r6]
 774 001c 012B     		cmp	r3, #1
 775 001e 03D0     		beq	.L81
 776 0020 FFF7FEFF 		bl	dooralarm
 777 0024 3368     		ldr	r3, [r6]
 778 0026 2B60     		str	r3, [r5]
 779              	.L81:
 780 0028 0B48     		ldr	r0, .L86+12
 781 002a FFF7FEFF 		bl	TimerStart
ARM GAS  /tmp/ccdhfimg.s 			page 18


 782 002e 0123     		movs	r3, #1
 783 0030 2370     		strb	r3, [r4]
 784              	.L77:
 785              		@ sp needed
 786 0032 70BD     		pop	{r4, r5, r6, pc}
 787              	.L78:
 788 0034 2B20     		movs	r0, #43
 789 0036 FFF7FEFF 		bl	hal_gpio_get_value
 790 003a 0028     		cmp	r0, #0
 791 003c F9D1     		bne	.L77
 792 003e 034B     		ldr	r3, .L86
 793 0040 1B78     		ldrb	r3, [r3]
 794 0042 002B     		cmp	r3, #0
 795 0044 F5D1     		bne	.L77
 796 0046 034A     		ldr	r2, .L86+8
 797 0048 1360     		str	r3, [r2]
 798 004a F2E7     		b	.L77
 799              	.L87:
 800              		.align	2
 801              	.L86:
 802 004c 00000000 		.word	hastydata2
 803 0050 00000000 		.word	prev_door
 804 0054 00000000 		.word	door
 805 0058 00000000 		.word	door_timer
 807              		.section	.rodata.door_timer_cb.str1.1,"aMS",%progbits,1
 808              	.LC132:
 809 0000 646F6F72 		.ascii	"door_timer_cb\012\015\000"
 809      5F74696D 
 809      65725F63 
 809      620A0D00 
 810              		.section	.text.door_timer_cb,"ax",%progbits
 811              		.align	1
 812              		.syntax unified
 813              		.code	16
 814              		.thumb_func
 816              	door_timer_cb:
 817              		@ args = 0, pretend = 0, frame = 0
 818              		@ frame_needed = 0, uses_anonymous_args = 0
 819 0000 10B5     		push	{r4, lr}
 820 0002 0448     		ldr	r0, .L89
 821 0004 FFF7FEFF 		bl	hal_trace_print_var
 822              		@ sp needed
 823 0008 0020     		movs	r0, #0
 824 000a 034B     		ldr	r3, .L89+4
 825 000c 1870     		strb	r0, [r3]
 826 000e FFF7FEFF 		bl	PC11Callback
 827 0012 10BD     		pop	{r4, pc}
 828              	.L90:
 829              		.align	2
 830              	.L89:
 831 0014 00000000 		.word	.LC132
 832 0018 00000000 		.word	hastydata2
 834              		.section	.rodata.PA15Callback.str1.1,"aMS",%progbits,1
 835              	.LC135:
 836 0000 646F7562 		.ascii	"double tap detected\012\015\000"
 836      6C652074 
 836      61702064 
ARM GAS  /tmp/ccdhfimg.s 			page 19


 836      65746563 
 836      7465640A 
 837              	.LC141:
 838 0016 53696E67 		.ascii	"Single tap detected\012\015\000"
 838      6C652074 
 838      61702064 
 838      65746563 
 838      7465640A 
 839              		.section	.text.PA15Callback,"ax",%progbits
 840              		.align	1
 841              		.global	PA15Callback
 842              		.syntax unified
 843              		.code	16
 844              		.thumb_func
 846              	PA15Callback:
 847              		@ args = 0, pretend = 0, frame = 8
 848              		@ frame_needed = 0, uses_anonymous_args = 0
 849 0000 37B5     		push	{r0, r1, r2, r4, r5, lr}
 850 0002 6B46     		mov	r3, sp
 851 0004 DC1D     		adds	r4, r3, #7
 852 0006 2100     		movs	r1, r4
 853 0008 0122     		movs	r2, #1
 854 000a 3020     		movs	r0, #48
 855 000c FFF7FEFF 		bl	adxl_read
 856 0010 2378     		ldrb	r3, [r4]
 857 0012 104C     		ldr	r4, .L108
 858 0014 9A06     		lsls	r2, r3, #26
 859 0016 15D5     		bpl	.L92
 860 0018 0F48     		ldr	r0, .L108+4
 861              	.L107:
 862 001a FFF7FEFF 		bl	hal_trace_print_var
 863 001e 0120     		movs	r0, #1
 864 0020 0E4B     		ldr	r3, .L108+8
 865 0022 2070     		strb	r0, [r4]
 866 0024 1A78     		ldrb	r2, [r3]
 867 0026 002A     		cmp	r2, #0
 868 0028 0BD1     		bne	.L91
 869 002a 0D4D     		ldr	r5, .L108+12
 870 002c 1870     		strb	r0, [r3]
 871 002e 2B68     		ldr	r3, [r5]
 872 0030 8342     		cmp	r3, r0
 873 0032 03D0     		beq	.L96
 874 0034 FFF7FEFF 		bl	tapalarm
 875 0038 2378     		ldrb	r3, [r4]
 876 003a 2B60     		str	r3, [r5]
 877              	.L96:
 878 003c 0948     		ldr	r0, .L108+16
 879 003e FFF7FEFF 		bl	TimerStart
 880              	.L91:
 881              		@ sp needed
 882 0042 37BD     		pop	{r0, r1, r2, r4, r5, pc}
 883              	.L92:
 884 0044 4022     		movs	r2, #64
 885 0046 1900     		movs	r1, r3
 886 0048 0748     		ldr	r0, .L108+20
 887 004a 1140     		ands	r1, r2
 888 004c 1342     		tst	r3, r2
ARM GAS  /tmp/ccdhfimg.s 			page 20


 889 004e E4D1     		bne	.L107
 890 0050 2170     		strb	r1, [r4]
 891 0052 F6E7     		b	.L91
 892              	.L109:
 893              		.align	2
 894              	.L108:
 895 0054 00000000 		.word	tapflag
 896 0058 00000000 		.word	.LC135
 897 005c 00000000 		.word	hastydata3
 898 0060 00000000 		.word	prev_tap
 899 0064 00000000 		.word	tap_timer
 900 0068 16000000 		.word	.LC141
 902              		.section	.rodata.main.str1.1,"aMS",%progbits,1
 903              	.LC143:
 904 0000 68696768 		.ascii	"high\000"
 904      00
 905              	.LC145:
 906 0005 6C6F7700 		.ascii	"low\000"
 907              	.LC147:
 908 0009 5F5F5F5F 		.ascii	"___________________________________________________"
 908      5F5F5F5F 
 908      5F5F5F5F 
 908      5F5F5F5F 
 908      5F5F5F5F 
 909 003c 5F5F5F5F 		.ascii	"____________________________\012\015\000"
 909      5F5F5F5F 
 909      5F5F5F5F 
 909      5F5F5F5F 
 909      5F5F5F5F 
 910              	.LC149:
 911 005b 4D69726F 		.ascii	"Miromico-FMLR1110\012\012\015\000"
 911      6D69636F 
 911      2D464D4C 
 911      52313131 
 911      300A0A0D 
 912              	.LC151:
 913 0070 4C523131 		.ascii	"LR11XX\000"
 913      585800
 914              	.LC153:
 915 0077 52616469 		.ascii	"Radio:%s\012\015\000"
 915      6F3A2573 
 915      0A0D00
 916              	.LC157:
 917 0082 494E464F 		.ascii	"INFO: Modem driver version: %d.%d.%d\012\015\000"
 917      3A204D6F 
 917      64656D20 
 917      64726976 
 917      65722076 
 918              	.LC168:
 919 00a9 4C523131 		.ascii	"LR11xx Version: HW: %x, type: %x, fw: %x\012\015\000"
 919      78782056 
 919      65727369 
 919      6F6E3A20 
 919      48573A20 
 920              		.global	__aeabi_f2d
 921              	.LC176:
 922 00d4 54656D70 		.ascii	"Temp: %.2f\302\260C Voltage: %.2fV door: %s water: "
ARM GAS  /tmp/ccdhfimg.s 			page 21


 922      3A20252E 
 922      3266C2B0 
 922      4320566F 
 922      6C746167 
 923 0101 25732074 		.ascii	"%s tap: %s \012\015\000"
 923      61703A20 
 923      2573200A 
 923      0D00
 924              	.LC179:
 925 010f 494E464F 		.ascii	"INFO: Send link check\012\015\000"
 925      3A205365 
 925      6E64206C 
 925      696E6B20 
 925      63686563 
 926              		.section	.text.startup.main,"ax",%progbits
 927              		.align	1
 928              		.global	main
 929              		.syntax unified
 930              		.code	16
 931              		.thumb_func
 933              	main:
 934              		@ args = 0, pretend = 0, frame = 24
 935              		@ frame_needed = 0, uses_anonymous_args = 0
 936 0000 F0B5     		push	{r4, r5, r6, r7, lr}
 937 0002 8DB0     		sub	sp, sp, #52
 938 0004 FFF7FEFF 		bl	hal_mcu_disable_irq
 939 0008 FFF7FEFF 		bl	hal_mcu_init
 940 000c 6F48     		ldr	r0, .L124
 941 000e FFF7FEFF 		bl	hal_trace_print_var
 942 0012 6F48     		ldr	r0, .L124+4
 943 0014 FFF7FEFF 		bl	hal_trace_print_var
 944 0018 6E49     		ldr	r1, .L124+8
 945 001a 6F48     		ldr	r0, .L124+12
 946 001c FFF7FEFF 		bl	hal_trace_print_var
 947 0020 0AAC     		add	r4, sp, #40
 948 0022 FFF7FEFF 		bl	hal_rtc_init
 949 0026 6D49     		ldr	r1, .L124+16
 950 0028 6D48     		ldr	r0, .L124+20
 951 002a FFF7FEFF 		bl	smtc_modem_init
 952 002e 2000     		movs	r0, r4
 953 0030 FFF7FEFF 		bl	smtc_modem_get_modem_version
 954 0034 FFF7FEFF 		bl	settings_init
 955 0038 6278     		ldrb	r2, [r4, #1]
 956 003a 2178     		ldrb	r1, [r4]
 957 003c A378     		ldrb	r3, [r4, #2]
 958 003e 6948     		ldr	r0, .L124+24
 959 0040 FFF7FEFF 		bl	hal_trace_print_var
 960 0044 684B     		ldr	r3, .L124+28
 961 0046 1800     		movs	r0, r3
 962 0048 0693     		str	r3, [sp, #24]
 963 004a FFF7FEFF 		bl	hal_trace_print_var
 964 004e FFF7FEFF 		bl	GPIO_Init
 965 0052 1622     		movs	r2, #22
 966 0054 1921     		movs	r1, #25
 967 0056 0120     		movs	r0, #1
 968 0058 FFF7FEFF 		bl	hal_i2c_init
 969 005c FFF7FEFF 		bl	hal_mcu_enable_irq
ARM GAS  /tmp/ccdhfimg.s 			page 22


 970 0060 FFF7FEFF 		bl	hal_gpio_irq_enable
 971 0064 614C     		ldr	r4, .L124+32
 972 0066 6249     		ldr	r1, .L124+36
 973 0068 2000     		movs	r0, r4
 974 006a FFF7FEFF 		bl	TimerInit
 975 006e 2000     		movs	r0, r4
 976 0070 6049     		ldr	r1, .L124+40
 977 0072 FFF7FEFF 		bl	TimerSetValue
 978 0076 0021     		movs	r1, #0
 979 0078 2000     		movs	r0, r4
 980 007a FFF7FEFF 		bl	TimerSetContext
 981 007e 2000     		movs	r0, r4
 982 0080 FFF7FEFF 		bl	TimerStart
 983 0084 5C4C     		ldr	r4, .L124+44
 984 0086 5D49     		ldr	r1, .L124+48
 985 0088 2000     		movs	r0, r4
 986 008a FFF7FEFF 		bl	TimerInit
 987 008e 2000     		movs	r0, r4
 988 0090 5849     		ldr	r1, .L124+40
 989 0092 FFF7FEFF 		bl	TimerSetValue
 990 0096 2000     		movs	r0, r4
 991 0098 0021     		movs	r1, #0
 992 009a FFF7FEFF 		bl	TimerSetContext
 993 009e 584C     		ldr	r4, .L124+52
 994 00a0 5849     		ldr	r1, .L124+56
 995 00a2 2000     		movs	r0, r4
 996 00a4 FFF7FEFF 		bl	TimerInit
 997 00a8 2000     		movs	r0, r4
 998 00aa 5249     		ldr	r1, .L124+40
 999 00ac FFF7FEFF 		bl	TimerSetValue
 1000 00b0 2000     		movs	r0, r4
 1001 00b2 0021     		movs	r1, #0
 1002 00b4 FFF7FEFF 		bl	TimerSetContext
 1003 00b8 534C     		ldr	r4, .L124+60
 1004 00ba 5449     		ldr	r1, .L124+64
 1005 00bc 2000     		movs	r0, r4
 1006 00be FFF7FEFF 		bl	TimerInit
 1007 00c2 2000     		movs	r0, r4
 1008 00c4 4B49     		ldr	r1, .L124+40
 1009 00c6 FFF7FEFF 		bl	TimerSetValue
 1010 00ca 2000     		movs	r0, r4
 1011 00cc 0021     		movs	r1, #0
 1012 00ce 0BAC     		add	r4, sp, #44
 1013 00d0 FFF7FEFF 		bl	TimerSetContext
 1014 00d4 2100     		movs	r1, r4
 1015 00d6 0020     		movs	r0, #0
 1016 00d8 FFF7FEFF 		bl	lr11xx_system_get_version
 1017 00dc 6388     		ldrh	r3, [r4, #2]
 1018 00de 6278     		ldrb	r2, [r4, #1]
 1019 00e0 2178     		ldrb	r1, [r4]
 1020 00e2 4B48     		ldr	r0, .L124+68
 1021 00e4 FFF7FEFF 		bl	hal_trace_print_var
 1022 00e8 FA20     		movs	r0, #250
 1023 00ea 8000     		lsls	r0, r0, #2
 1024 00ec FFF7FEFF 		bl	hal_mcu_delay_ms
 1025 00f0 FFF7FEFF 		bl	adxl_init
 1026 00f4 FA20     		movs	r0, #250
ARM GAS  /tmp/ccdhfimg.s 			page 23


 1027 00f6 8000     		lsls	r0, r0, #2
 1028 00f8 FFF7FEFF 		bl	hal_mcu_delay_ms
 1029              	.L111:
 1030 00fc FFF7FEFF 		bl	hal_rtc_get_time_ms
 1031 0100 FFF7FEFF 		bl	smtc_modem_run_engine
 1032 0104 FFF7FEFF 		bl	smtc_modem_run_engine
 1033 0108 FFF7FEFF 		bl	hal_mcu_set_sleep_for_ms
 1034 010c 414B     		ldr	r3, .L124+72
 1035 010e 1B78     		ldrb	r3, [r3]
 1036 0110 002B     		cmp	r3, #0
 1037 0112 F3D0     		beq	.L111
 1038 0114 1420     		movs	r0, #20
 1039 0116 FFF7FEFF 		bl	hal_mcu_delay_ms
 1040 011a FFF7FEFF 		bl	sensor_read
 1041 011e 1420     		movs	r0, #20
 1042 0120 FFF7FEFF 		bl	hal_mcu_delay_ms
 1043 0124 3C4E     		ldr	r6, .L124+76
 1044 0126 3D4F     		ldr	r7, .L124+80
 1045 0128 3368     		ldr	r3, [r6]
 1046 012a 3D4C     		ldr	r4, .L124+84
 1047 012c 5A1E     		subs	r2, r3, #1
 1048 012e 9341     		sbcs	r3, r3, r2
 1049 0130 3A68     		ldr	r2, [r7]
 1050 0132 3C4D     		ldr	r5, .L124+88
 1051 0134 511E     		subs	r1, r2, #1
 1052 0136 8A41     		sbcs	r2, r2, r1
 1053 0138 3B49     		ldr	r1, .L124+92
 1054 013a DBB2     		uxtb	r3, r3
 1055 013c 0791     		str	r1, [sp, #28]
 1056 013e 0978     		ldrb	r1, [r1]
 1057 0140 D2B2     		uxtb	r2, r2
 1058 0142 0091     		str	r1, [sp]
 1059 0144 2168     		ldr	r1, [r4]
 1060 0146 2868     		ldr	r0, [r5]
 1061 0148 FFF7FEFF 		bl	sendData
 1062 014c 2868     		ldr	r0, [r5]
 1063 014e FFF7FEFF 		bl	__aeabi_f2d
 1064 0152 0890     		str	r0, [sp, #32]
 1065 0154 0991     		str	r1, [sp, #36]
 1066 0156 2068     		ldr	r0, [r4]
 1067 0158 FFF7FEFF 		bl	__aeabi_f2d
 1068 015c 0200     		movs	r2, r0
 1069 015e 3868     		ldr	r0, [r7]
 1070 0160 0B00     		movs	r3, r1
 1071 0162 3249     		ldr	r1, .L124+96
 1072 0164 0128     		cmp	r0, #1
 1073 0166 00D1     		bne	.L112
 1074 0168 3149     		ldr	r1, .L124+100
 1075              	.L112:
 1076 016a 3068     		ldr	r0, [r6]
 1077 016c 2F4C     		ldr	r4, .L124+96
 1078 016e 0128     		cmp	r0, #1
 1079 0170 00D1     		bne	.L113
 1080 0172 2F4C     		ldr	r4, .L124+100
 1081              	.L113:
 1082 0174 0798     		ldr	r0, [sp, #28]
 1083 0176 2D4D     		ldr	r5, .L124+96
ARM GAS  /tmp/ccdhfimg.s 			page 24


 1084 0178 0078     		ldrb	r0, [r0]
 1085 017a 0028     		cmp	r0, #0
 1086 017c 00D0     		beq	.L114
 1087 017e 2C4D     		ldr	r5, .L124+100
 1088              	.L114:
 1089 0180 0291     		str	r1, [sp, #8]
 1090 0182 0092     		str	r2, [sp]
 1091 0184 0193     		str	r3, [sp, #4]
 1092 0186 089A     		ldr	r2, [sp, #32]
 1093 0188 099B     		ldr	r3, [sp, #36]
 1094 018a 2A48     		ldr	r0, .L124+104
 1095 018c 0495     		str	r5, [sp, #16]
 1096 018e 0394     		str	r4, [sp, #12]
 1097 0190 FFF7FEFF 		bl	hal_trace_print_var
 1098 0194 0020     		movs	r0, #0
 1099 0196 FFF7FEFF 		bl	PC10Callback
 1100 019a 0020     		movs	r0, #0
 1101 019c FFF7FEFF 		bl	PC11Callback
 1102 01a0 0020     		movs	r0, #0
 1103 01a2 FFF7FEFF 		bl	PA15Callback
 1104 01a6 0022     		movs	r2, #0
 1105 01a8 1A4B     		ldr	r3, .L124+72
 1106 01aa 1A70     		strb	r2, [r3]
 1107 01ac 224B     		ldr	r3, .L124+108
 1108 01ae 1A68     		ldr	r2, [r3]
 1109 01b0 312A     		cmp	r2, #49
 1110 01b2 A3D9     		bls	.L111
 1111 01b4 0022     		movs	r2, #0
 1112 01b6 2148     		ldr	r0, .L124+112
 1113 01b8 1A60     		str	r2, [r3]
 1114 01ba FFF7FEFF 		bl	hal_trace_print_var
 1115 01be 0698     		ldr	r0, [sp, #24]
 1116 01c0 FFF7FEFF 		bl	hal_trace_print_var
 1117 01c4 0020     		movs	r0, #0
 1118 01c6 FFF7FEFF 		bl	smtc_modem_lorawan_request_link_check
 1119 01ca 97E7     		b	.L111
 1120              	.L125:
 1121              		.align	2
 1122              	.L124:
 1123 01cc 09000000 		.word	.LC147
 1124 01d0 5B000000 		.word	.LC149
 1125 01d4 70000000 		.word	.LC151
 1126 01d8 77000000 		.word	.LC153
 1127 01dc 00000000 		.word	get_event
 1128 01e0 00000000 		.word	modem_radio
 1129 01e4 82000000 		.word	.LC157
 1130 01e8 1E000000 		.word	.LC6
 1131 01ec 00000000 		.word	periodic_timer
 1132 01f0 00000000 		.word	periodic_timer_cb
 1133 01f4 60EA0000 		.word	60000
 1134 01f8 00000000 		.word	water_timer
 1135 01fc 00000000 		.word	water_timer_cb
 1136 0200 00000000 		.word	door_timer
 1137 0204 00000000 		.word	door_timer_cb
 1138 0208 00000000 		.word	tap_timer
 1139 020c 00000000 		.word	tap_timer_cb
 1140 0210 A9000000 		.word	.LC168
ARM GAS  /tmp/ccdhfimg.s 			page 25


 1141 0214 00000000 		.word	periodic_message_flag
 1142 0218 00000000 		.word	water
 1143 021c 00000000 		.word	door
 1144 0220 00000000 		.word	Voltage
 1145 0224 00000000 		.word	temp
 1146 0228 00000000 		.word	tapflag
 1147 022c 05000000 		.word	.LC145
 1148 0230 00000000 		.word	.LC143
 1149 0234 D4000000 		.word	.LC176
 1150 0238 00000000 		.word	txdone_counter
 1151 023c 0F010000 		.word	.LC179
 1153              		.section	.rodata.tap_timer_cb.str1.1,"aMS",%progbits,1
 1154              	.LC181:
 1155 0000 7461705F 		.ascii	"tap_timer_cb\012\015\000"
 1155      74696D65 
 1155      725F6362 
 1155      0A0D00
 1156              		.section	.text.tap_timer_cb,"ax",%progbits
 1157              		.align	1
 1158              		.syntax unified
 1159              		.code	16
 1160              		.thumb_func
 1162              	tap_timer_cb:
 1163              		@ args = 0, pretend = 0, frame = 0
 1164              		@ frame_needed = 0, uses_anonymous_args = 0
 1165 0000 10B5     		push	{r4, lr}
 1166 0002 0448     		ldr	r0, .L127
 1167 0004 FFF7FEFF 		bl	hal_trace_print_var
 1168              		@ sp needed
 1169 0008 0020     		movs	r0, #0
 1170 000a 034B     		ldr	r3, .L127+4
 1171 000c 1870     		strb	r0, [r3]
 1172 000e FFF7FEFF 		bl	PA15Callback
 1173 0012 10BD     		pop	{r4, pc}
 1174              	.L128:
 1175              		.align	2
 1176              	.L127:
 1177 0014 00000000 		.word	.LC181
 1178 0018 00000000 		.word	hastydata3
 1180              		.global	tap_timer
 1181              		.section	.bss.tap_timer,"aw",%nobits
 1182              		.align	2
 1185              	tap_timer:
 1186 0000 00000000 		.space	24
 1186      00000000 
 1186      00000000 
 1186      00000000 
 1186      00000000 
 1187              		.global	door_timer
 1188              		.section	.bss.door_timer,"aw",%nobits
 1189              		.align	2
 1192              	door_timer:
 1193 0000 00000000 		.space	24
 1193      00000000 
 1193      00000000 
 1193      00000000 
 1193      00000000 
ARM GAS  /tmp/ccdhfimg.s 			page 26


 1194              		.global	water_timer
 1195              		.section	.bss.water_timer,"aw",%nobits
 1196              		.align	2
 1199              	water_timer:
 1200 0000 00000000 		.space	24
 1200      00000000 
 1200      00000000 
 1200      00000000 
 1200      00000000 
 1201              		.section	.bss.periodic_timer,"aw",%nobits
 1202              		.align	2
 1205              	periodic_timer:
 1206 0000 00000000 		.space	24
 1206      00000000 
 1206      00000000 
 1206      00000000 
 1206      00000000 
 1207              		.global	assistance_position
 1208              		.section	.bss.assistance_position,"aw",%nobits
 1209              		.align	2
 1212              	assistance_position:
 1213 0000 00000000 		.space	8
 1213      00000000 
 1214              		.global	gnss_timings
 1215              		.section	.bss.gnss_timings,"aw",%nobits
 1216              		.align	2
 1219              	gnss_timings:
 1220 0000 00000000 		.space	8
 1220      00000000 
 1221              		.global	context_status
 1222              		.section	.bss.context_status,"aw",%nobits
 1223              		.align	2
 1226              	context_status:
 1227 0000 00000000 		.space	12
 1227      00000000 
 1227      00000000 
 1228              		.global	context_status_buffer
 1229              		.section	.bss.context_status_buffer,"aw",%nobits
 1230              		.align	2
 1233              	context_status_buffer:
 1234 0000 00000000 		.space	9
 1234      00000000 
 1234      00
 1235              		.global	gnss_data_buffer
 1236              		.section	.bss.gnss_data_buffer,"aw",%nobits
 1237              		.align	1
 1240              	gnss_data_buffer:
 1241 0000 00000000 		.space	1024
 1241      00000000 
 1241      00000000 
 1241      00000000 
 1241      00000000 
 1242              		.global	link_check_attempts
 1243              		.section	.bss.link_check_attempts,"aw",%nobits
 1244              		.align	2
 1247              	link_check_attempts:
 1248 0000 00000000 		.space	4
ARM GAS  /tmp/ccdhfimg.s 			page 27


 1249              		.global	txdone_counter
 1250              		.section	.bss.txdone_counter,"aw",%nobits
 1251              		.align	2
 1254              	txdone_counter:
 1255 0000 00000000 		.space	4
 1256              		.section	.bss.rx_payload_size,"aw",%nobits
 1259              	rx_payload_size:
 1260 0000 00       		.space	1
 1261              		.section	.bss.rx_payload,"aw",%nobits
 1262              		.align	2
 1265              	rx_payload:
 1266 0000 00000000 		.space	255
 1266      00000000 
 1266      00000000 
 1266      00000000 
 1266      00000000 
 1267              		.global	prev_tap
 1268              		.section	.data.prev_tap,"aw"
 1269              		.align	2
 1272              	prev_tap:
 1273 0000 03000000 		.word	3
 1274              		.global	prev_water
 1275              		.section	.data.prev_water,"aw"
 1276              		.align	2
 1279              	prev_water:
 1280 0000 FFFFFFFF 		.word	-1
 1281              		.global	water
 1282              		.section	.bss.water,"aw",%nobits
 1283              		.align	2
 1286              	water:
 1287 0000 00000000 		.space	4
 1288              		.global	prev_door
 1289              		.section	.data.prev_door,"aw"
 1290              		.align	2
 1293              	prev_door:
 1294 0000 FFFFFFFF 		.word	-1
 1295              		.global	door
 1296              		.section	.bss.door,"aw",%nobits
 1297              		.align	2
 1300              	door:
 1301 0000 00000000 		.space	4
 1302              		.global	VDR
 1303              		.section	.data.VDR,"aw"
 1304              		.align	2
 1307              	VDR:
 1308 0000 CA269B40 		.word	1083909834
 1309              		.global	Voltage
 1310              		.section	.bss.Voltage,"aw",%nobits
 1311              		.align	2
 1314              	Voltage:
 1315 0000 00000000 		.space	4
 1316              		.global	temp
 1317              		.section	.bss.temp,"aw",%nobits
 1318              		.align	2
 1321              	temp:
 1322 0000 00000000 		.space	4
 1323              		.global	tapflag
ARM GAS  /tmp/ccdhfimg.s 			page 28


 1324              		.section	.bss.tapflag,"aw",%nobits
 1327              	tapflag:
 1328 0000 00       		.space	1
 1329              		.global	hastydata3
 1330              		.section	.bss.hastydata3,"aw",%nobits
 1333              	hastydata3:
 1334 0000 00       		.space	1
 1335              		.global	hastydata2
 1336              		.section	.bss.hastydata2,"aw",%nobits
 1339              	hastydata2:
 1340 0000 00       		.space	1
 1341              		.global	hastydata1
 1342              		.section	.bss.hastydata1,"aw",%nobits
 1345              	hastydata1:
 1346 0000 00       		.space	1
 1347              		.section	.bss.periodic_message_flag,"aw",%nobits
 1350              	periodic_message_flag:
 1351 0000 00       		.space	1
 1352              		.global	hadc
 1353              		.section	.bss.hadc,"aw",%nobits
 1354              		.align	2
 1357              	hadc:
 1358 0000 00000000 		.space	92
 1358      00000000 
 1358      00000000 
 1358      00000000 
 1358      00000000 
 1359              		.global	modem_radio
 1360              		.section	.rodata.modem_radio,"a"
 1361              		.align	2
 1364              	modem_radio:
 1365 0000 00000000 		.word	0
 1366 0004 00000000 		.word	ral_lr11xx_handles_part
 1367 0008 00000000 		.word	ral_lr11xx_reset
 1368 000c 00000000 		.word	ral_lr11xx_init
 1369 0010 00000000 		.word	ral_lr11xx_wakeup
 1370 0014 00000000 		.word	ral_lr11xx_set_sleep
 1371 0018 00000000 		.word	ral_lr11xx_set_standby
 1372 001c 00000000 		.word	ral_lr11xx_set_fs
 1373 0020 00000000 		.word	ral_lr11xx_set_tx
 1374 0024 00000000 		.word	ral_lr11xx_set_rx
 1375 0028 00000000 		.word	ral_lr11xx_cfg_rx_boosted
 1376 002c 00000000 		.word	ral_lr11xx_set_rx_tx_fallback_mode
 1377 0030 00000000 		.word	ral_lr11xx_stop_timer_on_preamble
 1378 0034 00000000 		.word	ral_lr11xx_set_rx_duty_cycle
 1379 0038 00000000 		.word	ral_lr11xx_set_lora_cad
 1380 003c 00000000 		.word	ral_lr11xx_set_tx_cw
 1381 0040 00000000 		.word	ral_lr11xx_set_tx_infinite_preamble
 1382 0044 00000000 		.word	ral_lr11xx_cal_img
 1383 0048 00000000 		.word	ral_lr11xx_set_tx_cfg
 1384 004c 00000000 		.word	ral_lr11xx_set_pkt_payload
 1385 0050 00000000 		.word	ral_lr11xx_get_pkt_payload
 1386 0054 00000000 		.word	ral_lr11xx_get_irq_status
 1387 0058 00000000 		.word	ral_lr11xx_clear_irq_status
 1388 005c 00000000 		.word	ral_lr11xx_get_and_clear_irq_status
 1389 0060 00000000 		.word	ral_lr11xx_set_dio_irq_params
 1390 0064 00000000 		.word	ral_lr11xx_set_rf_freq
ARM GAS  /tmp/ccdhfimg.s 			page 29


 1391 0068 00000000 		.word	ral_lr11xx_set_pkt_type
 1392 006c 00000000 		.word	ral_lr11xx_get_pkt_type
 1393 0070 00000000 		.word	ral_lr11xx_set_gfsk_mod_params
 1394 0074 00000000 		.word	ral_lr11xx_set_gfsk_pkt_params
 1395 0078 00000000 		.word	ral_lr11xx_set_lora_mod_params
 1396 007c 00000000 		.word	ral_lr11xx_set_lora_pkt_params
 1397 0080 00000000 		.word	ral_lr11xx_set_lora_cad_params
 1398 0084 00000000 		.word	ral_lr11xx_set_lora_symb_nb_timeout
 1399 0088 00000000 		.word	ral_lr11xx_set_flrc_mod_params
 1400 008c 00000000 		.word	ral_lr11xx_set_flrc_pkt_params
 1401 0090 00000000 		.word	ral_lr11xx_get_gfsk_rx_pkt_status
 1402 0094 00000000 		.word	ral_lr11xx_get_lora_rx_pkt_status
 1403 0098 00000000 		.word	ral_lr11xx_get_flrc_rx_pkt_status
 1404 009c 00000000 		.word	ral_lr11xx_get_rssi_inst
 1405 00a0 00000000 		.word	ral_lr11xx_get_lora_time_on_air_in_ms
 1406 00a4 00000000 		.word	ral_lr11xx_get_gfsk_time_on_air_in_ms
 1407 00a8 00000000 		.word	ral_lr11xx_get_flrc_time_on_air_in_ms
 1408 00ac 00000000 		.word	ral_lr11xx_set_gfsk_sync_word
 1409 00b0 00000000 		.word	ral_lr11xx_set_lora_sync_word
 1410 00b4 00000000 		.word	ral_lr11xx_set_flrc_sync_word
 1411 00b8 00000000 		.word	ral_lr11xx_set_gfsk_crc_params
 1412 00bc 00000000 		.word	ral_lr11xx_set_flrc_crc_params
 1413 00c0 00000000 		.word	ral_lr11xx_set_gfsk_whitening_seed
 1414 00c4 00000000 		.word	ral_lr11xx_lr_fhss_init
 1415 00c8 00000000 		.word	ral_lr11xx_lr_fhss_build_frame
 1416 00cc 00000000 		.word	ral_lr11xx_lr_fhss_handle_hop
 1417 00d0 00000000 		.word	ral_lr11xx_lr_fhss_handle_tx_done
 1418 00d4 00000000 		.word	ral_lr11xx_lr_fhss_get_time_on_air_in_ms
 1419 00d8 00000000 		.word	ral_lr11xx_lr_fhss_get_hop_sequence_count
 1420 00dc 00000000 		.word	ral_lr11xx_get_lora_rx_pkt_cr_crc
 1421 00e0 00000000 		.word	ral_lr11xx_get_tx_consumption_in_ua
 1422 00e4 00000000 		.word	ral_lr11xx_get_gfsk_rx_consumption_in_ua
 1423 00e8 00000000 		.word	ral_lr11xx_get_lora_rx_consumption_in_ua
 1424 00ec 00000000 		.word	ral_lr11xx_get_random_numbers
 1425 00f0 00000000 		.word	ralf_lr11xx_setup_gfsk
 1426 00f4 00000000 		.word	ralf_lr11xx_setup_lora
 1427 00f8 00000000 		.word	ralf_lr11xx_setup_flrc
 1428              		.ident	"GCC: (Arch Repository) 13.2.0"
ARM GAS  /tmp/ccdhfimg.s 			page 30


DEFINED SYMBOLS
                            *ABS*:00000000 main.c
     /tmp/ccdhfimg.s:17     .text.periodic_timer_cb:00000000 $t
     /tmp/ccdhfimg.s:22     .text.periodic_timer_cb:00000000 periodic_timer_cb
     /tmp/ccdhfimg.s:38     .text.periodic_timer_cb:00000018 $d
     /tmp/ccdhfimg.s:1350   .bss.periodic_message_flag:00000000 periodic_message_flag
     /tmp/ccdhfimg.s:1205   .bss.periodic_timer:00000000 periodic_timer
     /tmp/ccdhfimg.s:112    .text.get_event:00000000 $t
     /tmp/ccdhfimg.s:117    .text.get_event:00000000 get_event
     /tmp/ccdhfimg.s:138    .text.get_event:00000022 $d
     /tmp/ccdhfimg.s:356    .text.get_event:000001cc $d
     /tmp/ccdhfimg.s:1265   .bss.rx_payload:00000000 rx_payload
     /tmp/ccdhfimg.s:1259   .bss.rx_payload_size:00000000 rx_payload_size
     /tmp/ccdhfimg.s:1247   .bss.link_check_attempts:00000000 link_check_attempts
     /tmp/ccdhfimg.s:443    .text.gps_snap:00000000 $t
     /tmp/ccdhfimg.s:449    .text.gps_snap:00000000 gps_snap
     /tmp/ccdhfimg.s:646    .text.gps_snap:0000018c $d
     /tmp/ccdhfimg.s:1212   .bss.assistance_position:00000000 assistance_position
     /tmp/ccdhfimg.s:1233   .bss.context_status_buffer:00000000 context_status_buffer
     /tmp/ccdhfimg.s:1226   .bss.context_status:00000000 context_status
     /tmp/ccdhfimg.s:1219   .bss.gnss_timings:00000000 gnss_timings
     /tmp/ccdhfimg.s:1240   .bss.gnss_data_buffer:00000000 gnss_data_buffer
     /tmp/ccdhfimg.s:675    .text.PC10Callback:00000000 $t
     /tmp/ccdhfimg.s:681    .text.PC10Callback:00000000 PC10Callback
     /tmp/ccdhfimg.s:719    .text.PC10Callback:00000040 $d
     /tmp/ccdhfimg.s:1345   .bss.hastydata1:00000000 hastydata1
     /tmp/ccdhfimg.s:1279   .data.prev_water:00000000 prev_water
     /tmp/ccdhfimg.s:1286   .bss.water:00000000 water
     /tmp/ccdhfimg.s:1199   .bss.water_timer:00000000 water_timer
     /tmp/ccdhfimg.s:728    .text.water_timer_cb:00000000 $t
     /tmp/ccdhfimg.s:733    .text.water_timer_cb:00000000 water_timer_cb
     /tmp/ccdhfimg.s:748    .text.water_timer_cb:00000014 $d
     /tmp/ccdhfimg.s:752    .text.PC11Callback:00000000 $t
     /tmp/ccdhfimg.s:758    .text.PC11Callback:00000000 PC11Callback
     /tmp/ccdhfimg.s:802    .text.PC11Callback:0000004c $d
     /tmp/ccdhfimg.s:1339   .bss.hastydata2:00000000 hastydata2
     /tmp/ccdhfimg.s:1293   .data.prev_door:00000000 prev_door
     /tmp/ccdhfimg.s:1300   .bss.door:00000000 door
     /tmp/ccdhfimg.s:1192   .bss.door_timer:00000000 door_timer
     /tmp/ccdhfimg.s:811    .text.door_timer_cb:00000000 $t
     /tmp/ccdhfimg.s:816    .text.door_timer_cb:00000000 door_timer_cb
     /tmp/ccdhfimg.s:831    .text.door_timer_cb:00000014 $d
     /tmp/ccdhfimg.s:840    .text.PA15Callback:00000000 $t
     /tmp/ccdhfimg.s:846    .text.PA15Callback:00000000 PA15Callback
     /tmp/ccdhfimg.s:895    .text.PA15Callback:00000054 $d
     /tmp/ccdhfimg.s:1327   .bss.tapflag:00000000 tapflag
     /tmp/ccdhfimg.s:1333   .bss.hastydata3:00000000 hastydata3
     /tmp/ccdhfimg.s:1272   .data.prev_tap:00000000 prev_tap
     /tmp/ccdhfimg.s:1185   .bss.tap_timer:00000000 tap_timer
     /tmp/ccdhfimg.s:927    .text.startup.main:00000000 $t
     /tmp/ccdhfimg.s:933    .text.startup.main:00000000 main
     /tmp/ccdhfimg.s:1123   .text.startup.main:000001cc $d
     /tmp/ccdhfimg.s:1364   .rodata.modem_radio:00000000 modem_radio
     /tmp/ccdhfimg.s:1162   .text.tap_timer_cb:00000000 tap_timer_cb
     /tmp/ccdhfimg.s:1314   .bss.Voltage:00000000 Voltage
     /tmp/ccdhfimg.s:1321   .bss.temp:00000000 temp
     /tmp/ccdhfimg.s:1254   .bss.txdone_counter:00000000 txdone_counter
ARM GAS  /tmp/ccdhfimg.s 			page 31


     /tmp/ccdhfimg.s:1157   .text.tap_timer_cb:00000000 $t
     /tmp/ccdhfimg.s:1177   .text.tap_timer_cb:00000014 $d
     /tmp/ccdhfimg.s:1182   .bss.tap_timer:00000000 $d
     /tmp/ccdhfimg.s:1189   .bss.door_timer:00000000 $d
     /tmp/ccdhfimg.s:1196   .bss.water_timer:00000000 $d
     /tmp/ccdhfimg.s:1202   .bss.periodic_timer:00000000 $d
     /tmp/ccdhfimg.s:1209   .bss.assistance_position:00000000 $d
     /tmp/ccdhfimg.s:1216   .bss.gnss_timings:00000000 $d
     /tmp/ccdhfimg.s:1223   .bss.context_status:00000000 $d
     /tmp/ccdhfimg.s:1230   .bss.context_status_buffer:00000000 $d
     /tmp/ccdhfimg.s:1237   .bss.gnss_data_buffer:00000000 $d
     /tmp/ccdhfimg.s:1244   .bss.link_check_attempts:00000000 $d
     /tmp/ccdhfimg.s:1251   .bss.txdone_counter:00000000 $d
     /tmp/ccdhfimg.s:1260   .bss.rx_payload_size:00000000 $d
     /tmp/ccdhfimg.s:1262   .bss.rx_payload:00000000 $d
     /tmp/ccdhfimg.s:1269   .data.prev_tap:00000000 $d
     /tmp/ccdhfimg.s:1276   .data.prev_water:00000000 $d
     /tmp/ccdhfimg.s:1283   .bss.water:00000000 $d
     /tmp/ccdhfimg.s:1290   .data.prev_door:00000000 $d
     /tmp/ccdhfimg.s:1297   .bss.door:00000000 $d
     /tmp/ccdhfimg.s:1307   .data.VDR:00000000 VDR
     /tmp/ccdhfimg.s:1304   .data.VDR:00000000 $d
     /tmp/ccdhfimg.s:1311   .bss.Voltage:00000000 $d
     /tmp/ccdhfimg.s:1318   .bss.temp:00000000 $d
     /tmp/ccdhfimg.s:1328   .bss.tapflag:00000000 $d
     /tmp/ccdhfimg.s:1334   .bss.hastydata3:00000000 $d
     /tmp/ccdhfimg.s:1340   .bss.hastydata2:00000000 $d
     /tmp/ccdhfimg.s:1346   .bss.hastydata1:00000000 $d
     /tmp/ccdhfimg.s:1351   .bss.periodic_message_flag:00000000 $d
     /tmp/ccdhfimg.s:1357   .bss.hadc:00000000 hadc
     /tmp/ccdhfimg.s:1354   .bss.hadc:00000000 $d
     /tmp/ccdhfimg.s:1361   .rodata.modem_radio:00000000 $d
     /tmp/ccdhfimg.s:159    .text.get_event:00000037 $d
     /tmp/ccdhfimg.s:159    .text.get_event:00000038 $t

UNDEFINED SYMBOLS
hal_trace_print_var
TimerStart
smtc_modem_get_event
__gnu_thumb1_case_uqi
smtc_modem_set_deveui
smtc_modem_set_joineui
smtc_modem_set_nwkkey
smtc_modem_set_region
smtc_modem_join_network
memcpy
smtc_modem_request_uplink
smtc_modem_leave_network
settings
hal_gpio_set_value
hal_mcu_delay_ms
get_current_gnss_time
lr11xx_gnss_set_constellations_to_use
lr11xx_gnss_set_scan_mode
lr11xx_gnss_set_assistance_position
lr11xx_gnss_scan_autonomous
lr11xx_gnss_get_nb_detected_satellites
ARM GAS  /tmp/ccdhfimg.s 			page 32


lr11xx_gnss_get_result_size
lr11xx_gnss_read_results
lr11xx_gnss_get_context_status
lr11xx_gnss_parse_context_status_buffer
lr11xx_gnss_get_timings
hal_gpio_get_value
wateralarm
dooralarm
adxl_read
tapalarm
__aeabi_f2d
hal_mcu_disable_irq
hal_mcu_init
hal_rtc_init
smtc_modem_init
smtc_modem_get_modem_version
settings_init
GPIO_Init
hal_i2c_init
hal_mcu_enable_irq
hal_gpio_irq_enable
TimerInit
TimerSetValue
TimerSetContext
lr11xx_system_get_version
adxl_init
hal_rtc_get_time_ms
smtc_modem_run_engine
hal_mcu_set_sleep_for_ms
sensor_read
sendData
smtc_modem_lorawan_request_link_check
ral_lr11xx_handles_part
ral_lr11xx_reset
ral_lr11xx_init
ral_lr11xx_wakeup
ral_lr11xx_set_sleep
ral_lr11xx_set_standby
ral_lr11xx_set_fs
ral_lr11xx_set_tx
ral_lr11xx_set_rx
ral_lr11xx_cfg_rx_boosted
ral_lr11xx_set_rx_tx_fallback_mode
ral_lr11xx_stop_timer_on_preamble
ral_lr11xx_set_rx_duty_cycle
ral_lr11xx_set_lora_cad
ral_lr11xx_set_tx_cw
ral_lr11xx_set_tx_infinite_preamble
ral_lr11xx_cal_img
ral_lr11xx_set_tx_cfg
ral_lr11xx_set_pkt_payload
ral_lr11xx_get_pkt_payload
ral_lr11xx_get_irq_status
ral_lr11xx_clear_irq_status
ral_lr11xx_get_and_clear_irq_status
ral_lr11xx_set_dio_irq_params
ral_lr11xx_set_rf_freq
ARM GAS  /tmp/ccdhfimg.s 			page 33


ral_lr11xx_set_pkt_type
ral_lr11xx_get_pkt_type
ral_lr11xx_set_gfsk_mod_params
ral_lr11xx_set_gfsk_pkt_params
ral_lr11xx_set_lora_mod_params
ral_lr11xx_set_lora_pkt_params
ral_lr11xx_set_lora_cad_params
ral_lr11xx_set_lora_symb_nb_timeout
ral_lr11xx_set_flrc_mod_params
ral_lr11xx_set_flrc_pkt_params
ral_lr11xx_get_gfsk_rx_pkt_status
ral_lr11xx_get_lora_rx_pkt_status
ral_lr11xx_get_flrc_rx_pkt_status
ral_lr11xx_get_rssi_inst
ral_lr11xx_get_lora_time_on_air_in_ms
ral_lr11xx_get_gfsk_time_on_air_in_ms
ral_lr11xx_get_flrc_time_on_air_in_ms
ral_lr11xx_set_gfsk_sync_word
ral_lr11xx_set_lora_sync_word
ral_lr11xx_set_flrc_sync_word
ral_lr11xx_set_gfsk_crc_params
ral_lr11xx_set_flrc_crc_params
ral_lr11xx_set_gfsk_whitening_seed
ral_lr11xx_lr_fhss_init
ral_lr11xx_lr_fhss_build_frame
ral_lr11xx_lr_fhss_handle_hop
ral_lr11xx_lr_fhss_handle_tx_done
ral_lr11xx_lr_fhss_get_time_on_air_in_ms
ral_lr11xx_lr_fhss_get_hop_sequence_count
ral_lr11xx_get_lora_rx_pkt_cr_crc
ral_lr11xx_get_tx_consumption_in_ua
ral_lr11xx_get_gfsk_rx_consumption_in_ua
ral_lr11xx_get_lora_rx_consumption_in_ua
ral_lr11xx_get_random_numbers
ralf_lr11xx_setup_gfsk
ralf_lr11xx_setup_lora
ralf_lr11xx_setup_flrc
