ARM GAS  /tmp/ccyYhnPd.s 			page 1


   1              		.cpu cortex-m0
   2              		.arch armv6s-m
   3              		.fpu softvfp
   4              		.eabi_attribute 23, 1
   5              		.eabi_attribute 24, 1
   6              		.eabi_attribute 25, 1
   7              		.eabi_attribute 26, 1
   8              		.eabi_attribute 30, 4
   9              		.eabi_attribute 34, 0
  10              		.eabi_attribute 18, 4
  11              		.file	"main.c"
  12              		.text
  13              		.section	.rodata.periodic_timer_cb.str1.1,"aMS",%progbits,1
  14              	.LC0:
  15 0000 70657269 		.ascii	"periodic_timer_cb\012\000"
  15      6F646963 
  15      5F74696D 
  15      65725F63 
  15      620A00
  16              		.section	.text.periodic_timer_cb,"ax",%progbits
  17              		.align	1
  18              		.syntax unified
  19              		.code	16
  20              		.thumb_func
  22              	periodic_timer_cb:
  23              		@ args = 0, pretend = 0, frame = 0
  24              		@ frame_needed = 0, uses_anonymous_args = 0
  25 0000 10B5     		push	{r4, lr}
  26 0002 0548     		ldr	r0, .L2
  27 0004 FFF7FEFF 		bl	hal_trace_print_var
  28              		@ sp needed
  29 0008 0122     		movs	r2, #1
  30 000a 044B     		ldr	r3, .L2+4
  31 000c 0448     		ldr	r0, .L2+8
  32 000e 1A70     		strb	r2, [r3]
  33 0010 FFF7FEFF 		bl	TimerStart
  34 0014 10BD     		pop	{r4, pc}
  35              	.L3:
  36 0016 C046     		.align	2
  37              	.L2:
  38 0018 00000000 		.word	.LC0
  39 001c 00000000 		.word	periodic_message_flag
  40 0020 00000000 		.word	periodic_timer
  42              		.section	.rodata.get_event.str1.1,"aMS",%progbits,1
  43              	.LC4:
  44 0000 494E464F 		.ascii	"INFO: Event received: RESET\012\015\000"
  44      3A204576 
  44      656E7420 
  44      72656365 
  44      69766564 
  45              	.LC6:
  46 001e 00       		.ascii	"\000"
  47              	.LC11:
  48 001f 494E464F 		.ascii	"INFO: Event received: ALARM\012\015\000"
  48      3A204576 
  48      656E7420 
  48      72656365 
ARM GAS  /tmp/ccyYhnPd.s 			page 2


  48      69766564 
  49              	.LC13:
  50 003d 494E464F 		.ascii	"INFO: Event received: JOINED\012\015\000"
  50      3A204576 
  50      656E7420 
  50      72656365 
  50      69766564 
  51              	.LC15:
  52 005c 494E464F 		.ascii	"INFO: Modem is now joined \012\015\000"
  52      3A204D6F 
  52      64656D20 
  52      6973206E 
  52      6F77206A 
  53              	.LC17:
  54 0079 494E464F 		.ascii	"INFO: Send hello_world message \012\015\000"
  54      3A205365 
  54      6E642068 
  54      656C6C6F 
  54      5F776F72 
  55              	.LC21:
  56 009b 494E464F 		.ascii	"INFO: Event received: TXDONE\012\015\000"
  56      3A204576 
  56      656E7420 
  56      72656365 
  56      69766564 
  57              	.LC23:
  58 00ba 494E464F 		.ascii	"INFO: Transmission done \012\015\000"
  58      3A205472 
  58      616E736D 
  58      69737369 
  58      6F6E2064 
  59              	.LC25:
  60 00d5 494E464F 		.ascii	"INFO: Event received: DOWNDATA\012\015\000"
  60      3A204576 
  60      656E7420 
  60      72656365 
  60      69766564 
  61              	.LC29:
  62 00f6 44617461 		.ascii	"Data received on port %u\012\015\000"
  62      20726563 
  62      65697665 
  62      64206F6E 
  62      20706F72 
  63              	.LC31:
  64 0111 52656365 		.ascii	"Received payload\000"
  64      69766564 
  64      20706179 
  64      6C6F6164 
  64      00
  65              	.LC33:
  66 0122 2573202D 		.ascii	"%s - (%lu bytes):\012\000"
  66      2028256C 
  66      75206279 
  66      74657329 
  66      3A0A00
  67              	.LC35:
  68 0135 0A00     		.ascii	"\012\000"
ARM GAS  /tmp/ccyYhnPd.s 			page 3


  69              	.LC37:
  70 0137 20253032 		.ascii	" %02X\000"
  70      5800
  71              	.LC39:
  72 013d 494E464F 		.ascii	"INFO: Event received: UPLOADDONE\012\015\000"
  72      3A204576 
  72      656E7420 
  72      72656365 
  72      69766564 
  73              	.LC41:
  74 0160 494E464F 		.ascii	"INFO: Event received: SETCONF\012\015\000"
  74      3A204576 
  74      656E7420 
  74      72656365 
  74      69766564 
  75              	.LC43:
  76 0180 494E464F 		.ascii	"INFO: Event received: MUTE\012\015\000"
  76      3A204576 
  76      656E7420 
  76      72656365 
  76      69766564 
  77              	.LC45:
  78 019d 494E464F 		.ascii	"INFO: Event received: STREAMDONE\012\015\000"
  78      3A204576 
  78      656E7420 
  78      72656365 
  78      69766564 
  79              	.LC47:
  80 01c0 494E464F 		.ascii	"INFO: Event received: JOINFAIL\012\015\000"
  80      3A204576 
  80      656E7420 
  80      72656365 
  80      69766564 
  81              	.LC49:
  82 01e1 5741524E 		.ascii	"WARN: Join request failed \012\015\000"
  82      3A204A6F 
  82      696E2072 
  82      65717565 
  82      73742066 
  83              	.LC51:
  84 01fe 494E464F 		.ascii	"INFO: Event received: TIME\012\015\000"
  84      3A204576 
  84      656E7420 
  84      72656365 
  84      69766564 
  85              	.LC53:
  86 021b 494E464F 		.ascii	"INFO: Event received: TIMEOUT_ADR_CHANGED\012\015\000"
  86      3A204576 
  86      656E7420 
  86      72656365 
  86      69766564 
  87              	.LC55:
  88 0247 494E464F 		.ascii	"INFO: Event received: NEW_LINK_ADR\012\015\000"
  88      3A204576 
  88      656E7420 
  88      72656365 
  88      69766564 
ARM GAS  /tmp/ccyYhnPd.s 			page 4


  89              	.LC57:
  90 026c 494E464F 		.ascii	"INFO: Event received: LINK_CHECK\012\015\000"
  90      3A204576 
  90      656E7420 
  90      72656365 
  90      69766564 
  91              	.LC59:
  92 028f 494E464F 		.ascii	"INFO: Link check successfull\012\015\000"
  92      3A204C69 
  92      6E6B2063 
  92      6865636B 
  92      20737563 
  93              	.LC62:
  94 02ae 494E464F 		.ascii	"INFO: Link check failed\012\000"
  94      3A204C69 
  94      6E6B2063 
  94      6865636B 
  94      20666169 
  95              	.LC64:
  96 02c7 494E464F 		.ascii	"INFO: Link check failed %d times, rejoin network\012"
  96      3A204C69 
  96      6E6B2063 
  96      6865636B 
  96      20666169 
  97 02f8 0D00     		.ascii	"\015\000"
  98              	.LC66:
  99 02fa 494E464F 		.ascii	"INFO: Event received: ALMANAC_UPDATE\012\015\000"
  99      3A204576 
  99      656E7420 
  99      72656365 
  99      69766564 
 100              	.LC68:
 101 0321 494E464F 		.ascii	"INFO: Event received: USER_RADIO_ACCESS\012\015\000"
 101      3A204576 
 101      656E7420 
 101      72656365 
 101      69766564 
 102              	.LC70:
 103 034b 494E464F 		.ascii	"INFO: Event received: CLASS_B_PING_SLOT_INFO\012\015"
 103      3A204576 
 103      656E7420 
 103      72656365 
 103      69766564 
 104 0379 00       		.ascii	"\000"
 105              	.LC72:
 106 037a 494E464F 		.ascii	"INFO: Event received: CLASS_B_STATUS\012\015\000"
 106      3A204576 
 106      656E7420 
 106      72656365 
 106      69766564 
 107              	.LC74:
 108 03a1 4552524F 		.ascii	"ERROR: Unknown event %u\012\015\000"
 108      523A2055 
 108      6E6B6E6F 
 108      776E2065 
 108      76656E74 
 109              	.LC19:
ARM GAS  /tmp/ccyYhnPd.s 			page 5


 110 03bb 68656C6C 		.ascii	"hello_world\000"
 110      6F5F776F 
 110      726C6400 
 111              		.section	.text.get_event,"ax",%progbits
 112              		.align	1
 113              		.syntax unified
 114              		.code	16
 115              		.thumb_func
 117              	get_event:
 118              		@ args = 0, pretend = 0, frame = 280
 119              		@ frame_needed = 0, uses_anonymous_args = 0
 120 0000 F0B5     		push	{r4, r5, r6, r7, lr}
 121 0002 C9B0     		sub	sp, sp, #292
 122              	.L30:
 123 0004 0B26     		movs	r6, #11
 124 0006 06AC     		add	r4, sp, #24
 125 0008 6E44     		add	r6, r6, sp
 126 000a 3100     		movs	r1, r6
 127 000c 2000     		movs	r0, r4
 128 000e FFF7FEFF 		bl	smtc_modem_get_event
 129 0012 6178     		ldrb	r1, [r4, #1]
 130 0014 6D4D     		ldr	r5, .L39
 131 0016 1429     		cmp	r1, #20
 132 0018 00D9     		bls	.LCB42
 133 001a D1E0     		b	.L5	@long jump
 134              	.LCB42:
 135 001c 0800     		movs	r0, r1
 136 001e FFF7FEFF 		bl	__gnu_thumb1_case_uqi
 137              	.L7:
 138 0022 0B       		.byte	(.L24-.L7)/2
 139 0023 27       		.byte	(.L23-.L7)/2
 140 0024 2C       		.byte	(.L22-.L7)/2
 141 0025 50       		.byte	(.L21-.L7)/2
 142 0026 58       		.byte	(.L20-.L7)/2
 143 0027 88       		.byte	(.L19-.L7)/2
 144 0028 8A       		.byte	(.L18-.L7)/2
 145 0029 8C       		.byte	(.L17-.L7)/2
 146 002a 8E       		.byte	(.L16-.L7)/2
 147 002b CF       		.byte	(.L5-.L7)/2
 148 002c 90       		.byte	(.L15-.L7)/2
 149 002d CF       		.byte	(.L5-.L7)/2
 150 002e CF       		.byte	(.L5-.L7)/2
 151 002f 98       		.byte	(.L14-.L7)/2
 152 0030 9A       		.byte	(.L13-.L7)/2
 153 0031 9C       		.byte	(.L12-.L7)/2
 154 0032 9E       		.byte	(.L11-.L7)/2
 155 0033 C7       		.byte	(.L10-.L7)/2
 156 0034 C9       		.byte	(.L9-.L7)/2
 157 0035 CB       		.byte	(.L8-.L7)/2
 158 0036 CD       		.byte	(.L6-.L7)/2
 159 0037 00       		.p2align 1
 160              	.L24:
 161 0038 6548     		ldr	r0, .L39+4
 162 003a FFF7FEFF 		bl	hal_trace_print_var
 163 003e 2800     		movs	r0, r5
 164 0040 FFF7FEFF 		bl	hal_trace_print_var
 165 0044 634C     		ldr	r4, .L39+8
ARM GAS  /tmp/ccyYhnPd.s 			page 6


 166 0046 0020     		movs	r0, #0
 167 0048 2100     		movs	r1, r4
 168 004a FFF7FEFF 		bl	smtc_modem_set_deveui
 169 004e 6249     		ldr	r1, .L39+12
 170 0050 0020     		movs	r0, #0
 171 0052 FFF7FEFF 		bl	smtc_modem_set_joineui
 172 0056 0134     		adds	r4, r4, #1
 173 0058 6049     		ldr	r1, .L39+16
 174 005a 0020     		movs	r0, #0
 175 005c FFF7FEFF 		bl	smtc_modem_set_nwkkey
 176 0060 0020     		movs	r0, #0
 177 0062 E17F     		ldrb	r1, [r4, #31]
 178 0064 FFF7FEFF 		bl	smtc_modem_set_region
 179              	.L35:
 180 0068 0020     		movs	r0, #0
 181 006a FFF7FEFF 		bl	smtc_modem_join_network
 182 006e 23E0     		b	.L25
 183              	.L23:
 184 0070 5B48     		ldr	r0, .L39+20
 185              	.L38:
 186 0072 FFF7FEFF 		bl	hal_trace_print_var
 187              	.L36:
 188 0076 2800     		movs	r0, r5
 189 0078 4AE0     		b	.L37
 190              	.L22:
 191 007a 0C24     		movs	r4, #12
 192 007c 5948     		ldr	r0, .L39+24
 193 007e FFF7FEFF 		bl	hal_trace_print_var
 194 0082 2800     		movs	r0, r5
 195 0084 FFF7FEFF 		bl	hal_trace_print_var
 196 0088 5748     		ldr	r0, .L39+28
 197 008a FFF7FEFF 		bl	hal_trace_print_var
 198 008e 2800     		movs	r0, r5
 199 0090 FFF7FEFF 		bl	hal_trace_print_var
 200 0094 5548     		ldr	r0, .L39+32
 201 0096 FFF7FEFF 		bl	hal_trace_print_var
 202 009a 2800     		movs	r0, r5
 203 009c FFF7FEFF 		bl	hal_trace_print_var
 204 00a0 2200     		movs	r2, r4
 205 00a2 5349     		ldr	r1, .L39+36
 206 00a4 03A8     		add	r0, sp, #12
 207 00a6 FFF7FEFF 		bl	memcpy
 208 00aa 0022     		movs	r2, #0
 209 00ac 6621     		movs	r1, #102
 210 00ae 1000     		movs	r0, r2
 211 00b0 0094     		str	r4, [sp]
 212 00b2 03AB     		add	r3, sp, #12
 213 00b4 FFF7FEFF 		bl	smtc_modem_request_uplink
 214              	.L25:
 215 00b8 3378     		ldrb	r3, [r6]
 216 00ba 002B     		cmp	r3, #0
 217 00bc A2D1     		bne	.L30
 218 00be 49B0     		add	sp, sp, #292
 219              		@ sp needed
 220 00c0 F0BD     		pop	{r4, r5, r6, r7, pc}
 221              	.L21:
 222 00c2 4C48     		ldr	r0, .L39+40
ARM GAS  /tmp/ccyYhnPd.s 			page 7


 223 00c4 FFF7FEFF 		bl	hal_trace_print_var
 224 00c8 2800     		movs	r0, r5
 225 00ca FFF7FEFF 		bl	hal_trace_print_var
 226 00ce 4A48     		ldr	r0, .L39+44
 227 00d0 CFE7     		b	.L38
 228              	.L20:
 229 00d2 4A48     		ldr	r0, .L39+48
 230 00d4 FFF7FEFF 		bl	hal_trace_print_var
 231 00d8 2800     		movs	r0, r5
 232 00da FFF7FEFF 		bl	hal_trace_print_var
 233 00de 8923     		movs	r3, #137
 234 00e0 5B00     		lsls	r3, r3, #1
 235 00e2 6B44     		add	r3, r3, sp
 236 00e4 464F     		ldr	r7, .L39+52
 237 00e6 1A78     		ldrb	r2, [r3]
 238 00e8 464D     		ldr	r5, .L39+56
 239 00ea 08A9     		add	r1, sp, #32
 240 00ec 3800     		movs	r0, r7
 241 00ee 2A70     		strb	r2, [r5]
 242 00f0 FFF7FEFF 		bl	memcpy
 243 00f4 E179     		ldrb	r1, [r4, #7]
 244 00f6 4448     		ldr	r0, .L39+60
 245 00f8 FFF7FEFF 		bl	hal_trace_print_var
 246 00fc 2A78     		ldrb	r2, [r5]
 247 00fe 4349     		ldr	r1, .L39+64
 248 0100 4348     		ldr	r0, .L39+68
 249 0102 FFF7FEFF 		bl	hal_trace_print_var
 250 0106 0024     		movs	r4, #0
 251              	.L26:
 252 0108 2B78     		ldrb	r3, [r5]
 253 010a A342     		cmp	r3, r4
 254 010c 03D8     		bhi	.L28
 255 010e 4148     		ldr	r0, .L39+72
 256              	.L37:
 257 0110 FFF7FEFF 		bl	hal_trace_print_var
 258 0114 D0E7     		b	.L25
 259              	.L28:
 260 0116 0F23     		movs	r3, #15
 261 0118 1C42     		tst	r4, r3
 262 011a 04D1     		bne	.L27
 263 011c 002C     		cmp	r4, #0
 264 011e 02D0     		beq	.L27
 265 0120 3C48     		ldr	r0, .L39+72
 266 0122 FFF7FEFF 		bl	hal_trace_print_var
 267              	.L27:
 268 0126 395D     		ldrb	r1, [r7, r4]
 269 0128 3B48     		ldr	r0, .L39+76
 270 012a FFF7FEFF 		bl	hal_trace_print_var
 271 012e 0134     		adds	r4, r4, #1
 272 0130 EAE7     		b	.L26
 273              	.L19:
 274 0132 3A48     		ldr	r0, .L39+80
 275 0134 9DE7     		b	.L38
 276              	.L18:
 277 0136 3A48     		ldr	r0, .L39+84
 278 0138 9BE7     		b	.L38
 279              	.L17:
ARM GAS  /tmp/ccyYhnPd.s 			page 8


 280 013a 3A48     		ldr	r0, .L39+88
 281 013c 99E7     		b	.L38
 282              	.L16:
 283 013e 3A48     		ldr	r0, .L39+92
 284 0140 97E7     		b	.L38
 285              	.L15:
 286 0142 3A48     		ldr	r0, .L39+96
 287 0144 FFF7FEFF 		bl	hal_trace_print_var
 288 0148 2800     		movs	r0, r5
 289 014a FFF7FEFF 		bl	hal_trace_print_var
 290 014e 3848     		ldr	r0, .L39+100
 291 0150 8FE7     		b	.L38
 292              	.L14:
 293 0152 3848     		ldr	r0, .L39+104
 294 0154 8DE7     		b	.L38
 295              	.L13:
 296 0156 3848     		ldr	r0, .L39+108
 297 0158 8BE7     		b	.L38
 298              	.L12:
 299 015a 3848     		ldr	r0, .L39+112
 300 015c 89E7     		b	.L38
 301              	.L11:
 302 015e 3848     		ldr	r0, .L39+116
 303 0160 FFF7FEFF 		bl	hal_trace_print_var
 304 0164 2800     		movs	r0, r5
 305 0166 FFF7FEFF 		bl	hal_trace_print_var
 306 016a 2379     		ldrb	r3, [r4, #4]
 307 016c 354C     		ldr	r4, .L39+120
 308 016e 012B     		cmp	r3, #1
 309 0170 08D1     		bne	.L29
 310 0172 3548     		ldr	r0, .L39+124
 311 0174 FFF7FEFF 		bl	hal_trace_print_var
 312 0178 2800     		movs	r0, r5
 313 017a FFF7FEFF 		bl	hal_trace_print_var
 314 017e 0023     		movs	r3, #0
 315 0180 2360     		str	r3, [r4]
 316 0182 99E7     		b	.L25
 317              	.L29:
 318 0184 3148     		ldr	r0, .L39+128
 319 0186 FFF7FEFF 		bl	hal_trace_print_var
 320 018a 2800     		movs	r0, r5
 321 018c FFF7FEFF 		bl	hal_trace_print_var
 322 0190 2168     		ldr	r1, [r4]
 323 0192 0131     		adds	r1, r1, #1
 324 0194 2160     		str	r1, [r4]
 325 0196 0929     		cmp	r1, #9
 326 0198 00D8     		bhi	.LCB263
 327 019a 8DE7     		b	.L25	@long jump
 328              	.LCB263:
 329 019c 2C48     		ldr	r0, .L39+132
 330 019e FFF7FEFF 		bl	hal_trace_print_var
 331 01a2 2800     		movs	r0, r5
 332 01a4 FFF7FEFF 		bl	hal_trace_print_var
 333 01a8 0020     		movs	r0, #0
 334 01aa FFF7FEFF 		bl	smtc_modem_leave_network
 335 01ae 5BE7     		b	.L35
 336              	.L10:
ARM GAS  /tmp/ccyYhnPd.s 			page 9


 337 01b0 2848     		ldr	r0, .L39+136
 338 01b2 5EE7     		b	.L38
 339              	.L9:
 340 01b4 2848     		ldr	r0, .L39+140
 341 01b6 5CE7     		b	.L38
 342              	.L8:
 343 01b8 2848     		ldr	r0, .L39+144
 344 01ba 5AE7     		b	.L38
 345              	.L6:
 346 01bc 2848     		ldr	r0, .L39+148
 347 01be 58E7     		b	.L38
 348              	.L5:
 349 01c0 284B     		ldr	r3, .L39+152
 350 01c2 1800     		movs	r0, r3
 351 01c4 FFF7FEFF 		bl	hal_trace_print_var
 352 01c8 55E7     		b	.L36
 353              	.L40:
 354 01ca C046     		.align	2
 355              	.L39:
 356 01cc 1E000000 		.word	.LC6
 357 01d0 00000000 		.word	.LC4
 358 01d4 00000000 		.word	settings
 359 01d8 08000000 		.word	settings+8
 360 01dc 10000000 		.word	settings+16
 361 01e0 1F000000 		.word	.LC11
 362 01e4 3D000000 		.word	.LC13
 363 01e8 5C000000 		.word	.LC15
 364 01ec 79000000 		.word	.LC17
 365 01f0 BB030000 		.word	.LC19
 366 01f4 9B000000 		.word	.LC21
 367 01f8 BA000000 		.word	.LC23
 368 01fc D5000000 		.word	.LC25
 369 0200 00000000 		.word	rx_payload
 370 0204 00000000 		.word	rx_payload_size
 371 0208 F6000000 		.word	.LC29
 372 020c 11010000 		.word	.LC31
 373 0210 22010000 		.word	.LC33
 374 0214 35010000 		.word	.LC35
 375 0218 37010000 		.word	.LC37
 376 021c 3D010000 		.word	.LC39
 377 0220 60010000 		.word	.LC41
 378 0224 80010000 		.word	.LC43
 379 0228 9D010000 		.word	.LC45
 380 022c C0010000 		.word	.LC47
 381 0230 E1010000 		.word	.LC49
 382 0234 FE010000 		.word	.LC51
 383 0238 1B020000 		.word	.LC53
 384 023c 47020000 		.word	.LC55
 385 0240 6C020000 		.word	.LC57
 386 0244 00000000 		.word	link_check_attempts
 387 0248 8F020000 		.word	.LC59
 388 024c AE020000 		.word	.LC62
 389 0250 C7020000 		.word	.LC64
 390 0254 FA020000 		.word	.LC66
 391 0258 21030000 		.word	.LC68
 392 025c 4B030000 		.word	.LC70
 393 0260 7A030000 		.word	.LC72
ARM GAS  /tmp/ccyYhnPd.s 			page 10


 394 0264 A1030000 		.word	.LC74
 396              		.global	__aeabi_i2f
 397              		.section	.text.GETtemperature,"ax",%progbits
 398              		.align	1
 399              		.global	GETtemperature
 400              		.syntax unified
 401              		.code	16
 402              		.thumb_func
 404              	GETtemperature:
 405              		@ args = 0, pretend = 0, frame = 8
 406              		@ frame_needed = 0, uses_anonymous_args = 0
 407 0000 13B5     		push	{r0, r1, r4, lr}
 408 0002 6B46     		mov	r3, sp
 409 0004 DC1D     		adds	r4, r3, #7
 410 0006 2300     		movs	r3, r4
 411 0008 0022     		movs	r2, #0
 412 000a 9021     		movs	r1, #144
 413 000c FFF7FEFF 		bl	hal_i2c_read
 414 0010 0028     		cmp	r0, #0
 415 0012 04D1     		bne	.L43
 416 0014 0020     		movs	r0, #0
 417 0016 2056     		ldrsb	r0, [r4, r0]
 418 0018 FFF7FEFF 		bl	__aeabi_i2f
 419              	.L41:
 420              		@ sp needed
 421 001c 16BD     		pop	{r1, r2, r4, pc}
 422              	.L43:
 423 001e C320     		movs	r0, #195
 424 0020 0006     		lsls	r0, r0, #24
 425 0022 FBE7     		b	.L41
 427              		.global	__aeabi_ui2f
 428              		.global	__aeabi_fmul
 429              		.section	.text.GETvoltage,"ax",%progbits
 430              		.align	1
 431              		.global	GETvoltage
 432              		.syntax unified
 433              		.code	16
 434              		.thumb_func
 436              	GETvoltage:
 437              		@ args = 0, pretend = 0, frame = 0
 438              		@ frame_needed = 0, uses_anonymous_args = 0
 439 0000 70B5     		push	{r4, r5, r6, lr}
 440 0002 0400     		movs	r4, r0
 441 0004 0121     		movs	r1, #1
 442 0006 0320     		movs	r0, #3
 443 0008 FFF7FEFF 		bl	hal_gpio_set_value
 444 000c C820     		movs	r0, #200
 445 000e FFF7FEFF 		bl	hal_mcu_delay_ms
 446 0012 2000     		movs	r0, r4
 447 0014 FFF7FEFF 		bl	HAL_ADC_Start
 448 0018 0025     		movs	r5, #0
 449 001a 0028     		cmp	r0, #0
 450 001c 17D1     		bne	.L44
 451 001e 0121     		movs	r1, #1
 452 0020 2000     		movs	r0, r4
 453 0022 4942     		rsbs	r1, r1, #0
 454 0024 FFF7FEFF 		bl	HAL_ADC_PollForConversion
ARM GAS  /tmp/ccyYhnPd.s 			page 11


 455 0028 0025     		movs	r5, #0
 456 002a 0028     		cmp	r0, #0
 457 002c 08D1     		bne	.L46
 458 002e 2000     		movs	r0, r4
 459 0030 FFF7FEFF 		bl	HAL_ADC_GetValue
 460 0034 FFF7FEFF 		bl	__aeabi_ui2f
 461 0038 0649     		ldr	r1, .L49
 462 003a FFF7FEFF 		bl	__aeabi_fmul
 463 003e 051C     		adds	r5, r0, #0
 464              	.L46:
 465 0040 2000     		movs	r0, r4
 466 0042 FFF7FEFF 		bl	HAL_ADC_Stop
 467 0046 0021     		movs	r1, #0
 468 0048 0320     		movs	r0, #3
 469 004a FFF7FEFF 		bl	hal_gpio_set_value
 470              	.L44:
 471              		@ sp needed
 472 004e 281C     		adds	r0, r5, #0
 473 0050 70BD     		pop	{r4, r5, r6, pc}
 474              	.L50:
 475 0052 C046     		.align	2
 476              	.L49:
 477 0054 6840533A 		.word	978534504
 479              		.section	.text.sendLoRaWANPacket,"ax",%progbits
 480              		.align	1
 481              		.global	sendLoRaWANPacket
 482              		.syntax unified
 483              		.code	16
 484              		.thumb_func
 486              	sendLoRaWANPacket:
 487              		@ args = 0, pretend = 0, frame = 0
 488              		@ frame_needed = 0, uses_anonymous_args = 0
 489 0000 07B5     		push	{r0, r1, r2, lr}
 490 0002 0022     		movs	r2, #0
 491              		@ sp needed
 492 0004 0300     		movs	r3, r0
 493 0006 0091     		str	r1, [sp]
 494 0008 1000     		movs	r0, r2
 495 000a 5521     		movs	r1, #85
 496 000c FFF7FEFF 		bl	smtc_modem_request_uplink
 497 0010 07BD     		pop	{r0, r1, r2, pc}
 499              		.section	.rodata.printCayenneLPPBuffer.str1.1,"aMS",%progbits,1
 500              	.LC77:
 501 0000 43617965 		.ascii	"CayenneLPP Buffer Content (Hex): \000"
 501      6E6E654C 
 501      50502042 
 501      75666665 
 501      7220436F 
 502              	.LC79:
 503 0022 25303258 		.ascii	"%02X \000"
 503      2000
 504              		.section	.text.printCayenneLPPBuffer,"ax",%progbits
 505              		.align	1
 506              		.global	printCayenneLPPBuffer
 507              		.syntax unified
 508              		.code	16
 509              		.thumb_func
ARM GAS  /tmp/ccyYhnPd.s 			page 12


 511              	printCayenneLPPBuffer:
 512              		@ args = 0, pretend = 0, frame = 0
 513              		@ frame_needed = 0, uses_anonymous_args = 0
 514 0000 70B5     		push	{r4, r5, r6, lr}
 515 0002 0500     		movs	r5, r0
 516 0004 0948     		ldr	r0, .L55
 517 0006 FFF7FEFF 		bl	hal_trace_print_var
 518 000a 0024     		movs	r4, #0
 519              	.L53:
 520 000c 2B00     		movs	r3, r5
 521 000e 2A33     		adds	r3, r3, #42
 522 0010 1B78     		ldrb	r3, [r3]
 523 0012 A342     		cmp	r3, r4
 524 0014 03D8     		bhi	.L54
 525              		@ sp needed
 526 0016 0648     		ldr	r0, .L55+4
 527 0018 FFF7FEFF 		bl	hal_trace_print_var
 528 001c 70BD     		pop	{r4, r5, r6, pc}
 529              	.L54:
 530 001e 295D     		ldrb	r1, [r5, r4]
 531 0020 0448     		ldr	r0, .L55+8
 532 0022 0134     		adds	r4, r4, #1
 533 0024 FFF7FEFF 		bl	hal_trace_print_var
 534 0028 E4B2     		uxtb	r4, r4
 535 002a EFE7     		b	.L53
 536              	.L56:
 537              		.align	2
 538              	.L55:
 539 002c 00000000 		.word	.LC77
 540 0030 35010000 		.word	.LC35
 541 0034 22000000 		.word	.LC79
 543              		.section	.text.sendData,"ax",%progbits
 544              		.align	1
 545              		.global	sendData
 546              		.syntax unified
 547              		.code	16
 548              		.thumb_func
 550              	sendData:
 551              		@ args = 0, pretend = 0, frame = 48
 552              		@ frame_needed = 0, uses_anonymous_args = 0
 553 0000 F0B5     		push	{r4, r5, r6, r7, lr}
 554 0002 1500     		movs	r5, r2
 555 0004 1C00     		movs	r4, r3
 556 0006 8DB0     		sub	sp, sp, #52
 557 0008 071C     		adds	r7, r0, #0
 558 000a 01A8     		add	r0, sp, #4
 559 000c 0E1C     		adds	r6, r1, #0
 560 000e FFF7FEFF 		bl	cayenne_lpp_reset
 561 0012 3A1C     		adds	r2, r7, #0
 562 0014 01A8     		add	r0, sp, #4
 563 0016 0121     		movs	r1, #1
 564 0018 FFF7FEFF 		bl	cayenne_lpp_add_temperature
 565 001c 321C     		adds	r2, r6, #0
 566 001e 01A8     		add	r0, sp, #4
 567 0020 0221     		movs	r1, #2
 568 0022 FFF7FEFF 		bl	cayenne_lpp_add_analog_input
 569 0026 2A00     		movs	r2, r5
ARM GAS  /tmp/ccyYhnPd.s 			page 13


 570 0028 01A8     		add	r0, sp, #4
 571 002a 0321     		movs	r1, #3
 572 002c FFF7FEFF 		bl	cayenne_lpp_add_digital_input
 573 0030 2200     		movs	r2, r4
 574 0032 0421     		movs	r1, #4
 575 0034 01A8     		add	r0, sp, #4
 576 0036 FFF7FEFF 		bl	cayenne_lpp_add_digital_input
 577 003a 01A8     		add	r0, sp, #4
 578 003c FFF7FEFF 		bl	printCayenneLPPBuffer
 579 0040 0DB0     		add	sp, sp, #52
 580              		@ sp needed
 581 0042 F0BD     		pop	{r4, r5, r6, r7, pc}
 583              		.section	.rodata.main.str1.1,"aMS",%progbits,1
 584              	.LC82:
 585 0000 5F5F5F5F 		.ascii	"___________________________________________________"
 585      5F5F5F5F 
 585      5F5F5F5F 
 585      5F5F5F5F 
 585      5F5F5F5F 
 586 0033 5F5F5F5F 		.ascii	"____________________________\012\015\000"
 586      5F5F5F5F 
 586      5F5F5F5F 
 586      5F5F5F5F 
 586      5F5F5F5F 
 587              	.LC84:
 588 0052 4D69726F 		.ascii	"Miromico-FMLR1110\012\012\015\000"
 588      6D69636F 
 588      2D464D4C 
 588      52313131 
 588      300A0A0D 
 589              	.LC86:
 590 0067 4C523131 		.ascii	"LR11XX\000"
 590      585800
 591              	.LC88:
 592 006e 52616469 		.ascii	"Radio:%s\012\015\000"
 592      6F3A2573 
 592      0A0D00
 593              	.LC92:
 594 0079 494E464F 		.ascii	"INFO: Modem driver version: %d.%d.%d\012\015\000"
 594      3A204D6F 
 594      64656D20 
 594      64726976 
 594      65722076 
 595              	.LC97:
 596 00a0 4552524F 		.ascii	"ERROR: mcu_panic:%s\012\000"
 596      523A206D 
 596      63755F70 
 596      616E6963 
 596      3A25730A 
 597              	.LC99:
 598 00b5 4552524F 		.ascii	"ERROR: -> \000"
 598      523A202D 
 598      3E2000
 599              	.LC103:
 600 00c0 4C523131 		.ascii	"LR11xx Version: HW: %x, type: %x, fw: %x\012\015\000"
 600      78782056 
 600      65727369 
ARM GAS  /tmp/ccyYhnPd.s 			page 14


 600      6F6E3A20 
 600      48573A20 
 601              	.LC106:
 602 00eb 2D2D2D2D 		.ascii	"----- sensor_read -----\012\015\000"
 602      2D207365 
 602      6E736F72 
 602      5F726561 
 602      64202D2D 
 603              	.LC113:
 604 0105 494E464F 		.ascii	"INFO: Send link check\012\000"
 604      3A205365 
 604      6E64206C 
 604      696E6B20 
 604      63686563 
 605              		.section	.text.startup.main,"ax",%progbits
 606              		.align	1
 607              		.global	main
 608              		.syntax unified
 609              		.code	16
 610              		.thumb_func
 612              	main:
 613              		@ args = 0, pretend = 0, frame = 16
 614              		@ frame_needed = 0, uses_anonymous_args = 0
 615 0000 F0B5     		push	{r4, r5, r6, r7, lr}
 616 0002 85B0     		sub	sp, sp, #20
 617 0004 FFF7FEFF 		bl	hal_mcu_disable_irq
 618 0008 FFF7FEFF 		bl	hal_mcu_init
 619 000c 8C48     		ldr	r0, .L84
 620 000e FFF7FEFF 		bl	hal_trace_print_var
 621 0012 8C48     		ldr	r0, .L84+4
 622 0014 FFF7FEFF 		bl	hal_trace_print_var
 623 0018 8B49     		ldr	r1, .L84+8
 624 001a 8C48     		ldr	r0, .L84+12
 625 001c FFF7FEFF 		bl	hal_trace_print_var
 626 0020 8B49     		ldr	r1, .L84+16
 627 0022 8C48     		ldr	r0, .L84+20
 628 0024 FFF7FEFF 		bl	smtc_modem_init
 629 0028 6846     		mov	r0, sp
 630 002a FFF7FEFF 		bl	smtc_modem_get_modem_version
 631 002e FFF7FEFF 		bl	settings_init
 632 0032 6B46     		mov	r3, sp
 633 0034 6A46     		mov	r2, sp
 634 0036 6946     		mov	r1, sp
 635 0038 9B78     		ldrb	r3, [r3, #2]
 636 003a 5278     		ldrb	r2, [r2, #1]
 637 003c 0978     		ldrb	r1, [r1]
 638 003e 8648     		ldr	r0, .L84+24
 639 0040 FFF7FEFF 		bl	hal_trace_print_var
 640 0044 854D     		ldr	r5, .L84+28
 641 0046 2800     		movs	r0, r5
 642 0048 FFF7FEFF 		bl	hal_trace_print_var
 643 004c 0822     		movs	r2, #8
 644 004e 0021     		movs	r1, #0
 645 0050 02A8     		add	r0, sp, #8
 646 0052 FFF7FEFF 		bl	memset
 647 0056 C221     		movs	r1, #194
 648 0058 814C     		ldr	r4, .L84+32
ARM GAS  /tmp/ccyYhnPd.s 			page 15


 649 005a 824B     		ldr	r3, .L84+36
 650 005c FF31     		adds	r1, r1, #255
 651 005e C022     		movs	r2, #192
 652 0060 6162     		str	r1, [r4, #36]
 653 0062 2100     		movs	r1, r4
 654 0064 2360     		str	r3, [r4]
 655 0066 0023     		movs	r3, #0
 656 0068 1206     		lsls	r2, r2, #24
 657 006a 2C31     		adds	r1, r1, #44
 658 006c 6260     		str	r2, [r4, #4]
 659 006e 0B70     		strb	r3, [r1]
 660 0070 0122     		movs	r2, #1
 661 0072 0421     		movs	r1, #4
 662 0074 2000     		movs	r0, r4
 663 0076 E363     		str	r3, [r4, #60]
 664 0078 A360     		str	r3, [r4, #8]
 665 007a A363     		str	r3, [r4, #56]
 666 007c 2261     		str	r2, [r4, #16]
 667 007e E360     		str	r3, [r4, #12]
 668 0080 2384     		strh	r3, [r4, #32]
 669 0082 A362     		str	r3, [r4, #40]
 670 0084 6161     		str	r1, [r4, #20]
 671 0086 2363     		str	r3, [r4, #48]
 672 0088 A361     		str	r3, [r4, #24]
 673 008a 6263     		str	r2, [r4, #52]
 674 008c E361     		str	r3, [r4, #28]
 675 008e FFF7FEFF 		bl	HAL_ADC_Init
 676 0092 0028     		cmp	r0, #0
 677 0094 0ED0     		beq	.L59
 678 0096 7449     		ldr	r1, .L84+40
 679 0098 7448     		ldr	r0, .L84+44
 680 009a FFF7FEFF 		bl	hal_trace_print_var
 681 009e 2800     		movs	r0, r5
 682 00a0 FFF7FEFF 		bl	hal_trace_print_var
 683 00a4 7248     		ldr	r0, .L84+48
 684 00a6 FFF7FEFF 		bl	hal_trace_print_var
 685 00aa 2800     		movs	r0, r5
 686 00ac FFF7FEFF 		bl	hal_trace_print_var
 687 00b0 FFF7FEFF 		bl	hal_mcu_reset
 688              	.L59:
 689 00b4 6F4B     		ldr	r3, .L84+52
 690 00b6 2000     		movs	r0, r4
 691 00b8 0293     		str	r3, [sp, #8]
 692 00ba 8023     		movs	r3, #128
 693 00bc 02A9     		add	r1, sp, #8
 694 00be 5B01     		lsls	r3, r3, #5
 695 00c0 0393     		str	r3, [sp, #12]
 696 00c2 FFF7FEFF 		bl	HAL_ADC_ConfigChannel
 697 00c6 0028     		cmp	r0, #0
 698 00c8 0ED0     		beq	.L60
 699 00ca 6749     		ldr	r1, .L84+40
 700 00cc 6748     		ldr	r0, .L84+44
 701 00ce FFF7FEFF 		bl	hal_trace_print_var
 702 00d2 2800     		movs	r0, r5
 703 00d4 FFF7FEFF 		bl	hal_trace_print_var
 704 00d8 6548     		ldr	r0, .L84+48
 705 00da FFF7FEFF 		bl	hal_trace_print_var
ARM GAS  /tmp/ccyYhnPd.s 			page 16


 706 00de 2800     		movs	r0, r5
 707 00e0 FFF7FEFF 		bl	hal_trace_print_var
 708 00e4 FFF7FEFF 		bl	hal_mcu_reset
 709              	.L60:
 710 00e8 0021     		movs	r1, #0
 711 00ea 2720     		movs	r0, #39
 712 00ec FFF7FEFF 		bl	hal_gpio_init_out
 713 00f0 0121     		movs	r1, #1
 714 00f2 2120     		movs	r0, #33
 715 00f4 FFF7FEFF 		bl	hal_gpio_init_out
 716 00f8 0021     		movs	r1, #0
 717 00fa 1020     		movs	r0, #16
 718 00fc FFF7FEFF 		bl	hal_gpio_init_out
 719 0100 0021     		movs	r1, #0
 720 0102 0320     		movs	r0, #3
 721 0104 FFF7FEFF 		bl	hal_gpio_init_out
 722 0108 0123     		movs	r3, #1
 723 010a 0022     		movs	r2, #0
 724 010c 0221     		movs	r1, #2
 725 010e 1120     		movs	r0, #17
 726 0110 FFF7FEFF 		bl	hal_gpio_init_in
 727 0114 0123     		movs	r3, #1
 728 0116 0022     		movs	r2, #0
 729 0118 0221     		movs	r1, #2
 730 011a 1220     		movs	r0, #18
 731 011c FFF7FEFF 		bl	hal_gpio_init_in
 732 0120 FFF7FEFF 		bl	hal_mcu_enable_irq
 733 0124 544E     		ldr	r6, .L84+56
 734 0126 5549     		ldr	r1, .L84+60
 735 0128 3000     		movs	r0, r6
 736 012a FFF7FEFF 		bl	TimerInit
 737 012e 3000     		movs	r0, r6
 738 0130 5349     		ldr	r1, .L84+64
 739 0132 FFF7FEFF 		bl	TimerSetValue
 740 0136 0021     		movs	r1, #0
 741 0138 3000     		movs	r0, r6
 742 013a FFF7FEFF 		bl	TimerSetContext
 743 013e 3000     		movs	r0, r6
 744 0140 01AE     		add	r6, sp, #4
 745 0142 FFF7FEFF 		bl	TimerStart
 746 0146 3100     		movs	r1, r6
 747 0148 0020     		movs	r0, #0
 748 014a FFF7FEFF 		bl	lr11xx_system_get_version
 749 014e 7388     		ldrh	r3, [r6, #2]
 750 0150 7278     		ldrb	r2, [r6, #1]
 751 0152 3178     		ldrb	r1, [r6]
 752 0154 4B48     		ldr	r0, .L84+68
 753 0156 FFF7FEFF 		bl	hal_trace_print_var
 754              	.L70:
 755 015a FFF7FEFF 		bl	hal_rtc_get_time_ms
 756 015e FFF7FEFF 		bl	smtc_modem_run_engine
 757 0162 494B     		ldr	r3, .L84+72
 758 0164 1A78     		ldrb	r2, [r3]
 759 0166 002A     		cmp	r2, #0
 760 0168 3BD0     		beq	.L61
 761 016a 0022     		movs	r2, #0
 762 016c 4748     		ldr	r0, .L84+76
ARM GAS  /tmp/ccyYhnPd.s 			page 17


 763 016e 1A70     		strb	r2, [r3]
 764 0170 FFF7FEFF 		bl	hal_trace_print_var
 765 0174 2000     		movs	r0, r4
 766 0176 FFF7FEFF 		bl	GETvoltage
 767 017a 454B     		ldr	r3, .L84+80
 768 017c 011C     		adds	r1, r0, #0
 769 017e 1860     		str	r0, [r3]
 770 0180 444B     		ldr	r3, .L84+84
 771 0182 454F     		ldr	r7, .L84+88
 772 0184 1868     		ldr	r0, [r3]
 773 0186 FFF7FEFF 		bl	__aeabi_fmul
 774 018a 3860     		str	r0, [r7]
 775 018c 0120     		movs	r0, #1
 776 018e FFF7FEFF 		bl	GETtemperature
 777 0192 424B     		ldr	r3, .L84+92
 778 0194 424E     		ldr	r6, .L84+96
 779 0196 1A68     		ldr	r2, [r3]
 780 0198 3060     		str	r0, [r6]
 781 019a 312A     		cmp	r2, #49
 782 019c 0AD9     		bls	.L62
 783 019e 0022     		movs	r2, #0
 784 01a0 4048     		ldr	r0, .L84+100
 785 01a2 1A60     		str	r2, [r3]
 786 01a4 FFF7FEFF 		bl	hal_trace_print_var
 787 01a8 2800     		movs	r0, r5
 788 01aa FFF7FEFF 		bl	hal_trace_print_var
 789 01ae 0020     		movs	r0, #0
 790 01b0 FFF7FEFF 		bl	smtc_modem_lorawan_request_link_check
 791              	.L62:
 792 01b4 0020     		movs	r0, #0
 793 01b6 02A9     		add	r1, sp, #8
 794 01b8 0290     		str	r0, [sp, #8]
 795 01ba FFF7FEFF 		bl	smtc_modem_get_status
 796 01be 0822     		movs	r2, #8
 797 01c0 029B     		ldr	r3, [sp, #8]
 798 01c2 1342     		tst	r3, r2
 799 01c4 0DD0     		beq	.L61
 800 01c6 384B     		ldr	r3, .L84+104
 801 01c8 3068     		ldr	r0, [r6]
 802 01ca 1B68     		ldr	r3, [r3]
 803 01cc 5A1E     		subs	r2, r3, #1
 804 01ce 9341     		sbcs	r3, r3, r2
 805 01d0 364A     		ldr	r2, .L84+108
 806 01d2 DBB2     		uxtb	r3, r3
 807 01d4 1268     		ldr	r2, [r2]
 808 01d6 511E     		subs	r1, r2, #1
 809 01d8 8A41     		sbcs	r2, r2, r1
 810 01da 3968     		ldr	r1, [r7]
 811 01dc D2B2     		uxtb	r2, r2
 812 01de FFF7FEFF 		bl	sendData
 813              	.L61:
 814 01e2 FFF7FEFF 		bl	smtc_modem_run_engine
 815 01e6 FFF7FEFF 		bl	hal_mcu_set_sleep_for_ms
 816 01ea 2720     		movs	r0, #39
 817 01ec FFF7FEFF 		bl	hal_gpio_get_value
 818 01f0 0100     		movs	r1, r0
 819 01f2 0128     		cmp	r0, #1
ARM GAS  /tmp/ccyYhnPd.s 			page 18


 820 01f4 1DD1     		bne	.L64
 821 01f6 2120     		movs	r0, #33
 822 01f8 FFF7FEFF 		bl	hal_gpio_set_value
 823 01fc 0021     		movs	r1, #0
 824              	.L83:
 825 01fe 2720     		movs	r0, #39
 826 0200 FFF7FEFF 		bl	hal_gpio_set_value
 827 0204 1120     		movs	r0, #17
 828 0206 FFF7FEFF 		bl	hal_gpio_get_value
 829 020a 0028     		cmp	r0, #0
 830 020c 01D0     		beq	.L66
 831 020e 0128     		cmp	r0, #1
 832 0210 01D1     		bne	.L67
 833              	.L66:
 834 0212 254B     		ldr	r3, .L84+104
 835 0214 1860     		str	r0, [r3]
 836              	.L67:
 837 0216 1220     		movs	r0, #18
 838 0218 FFF7FEFF 		bl	hal_gpio_get_value
 839 021c 0028     		cmp	r0, #0
 840 021e 01D0     		beq	.L68
 841 0220 0128     		cmp	r0, #1
 842 0222 01D1     		bne	.L69
 843              	.L68:
 844 0224 214B     		ldr	r3, .L84+108
 845 0226 1860     		str	r0, [r3]
 846              	.L69:
 847 0228 FA20     		movs	r0, #250
 848 022a 8000     		lsls	r0, r0, #2
 849 022c FFF7FEFF 		bl	hal_mcu_delay_ms
 850 0230 93E7     		b	.L70
 851              	.L64:
 852 0232 0021     		movs	r1, #0
 853 0234 2120     		movs	r0, #33
 854 0236 FFF7FEFF 		bl	hal_gpio_set_value
 855 023a 0121     		movs	r1, #1
 856 023c DFE7     		b	.L83
 857              	.L85:
 858 023e C046     		.align	2
 859              	.L84:
 860 0240 00000000 		.word	.LC82
 861 0244 52000000 		.word	.LC84
 862 0248 67000000 		.word	.LC86
 863 024c 6E000000 		.word	.LC88
 864 0250 00000000 		.word	get_event
 865 0254 00000000 		.word	modem_radio
 866 0258 79000000 		.word	.LC92
 867 025c 1E000000 		.word	.LC6
 868 0260 00000000 		.word	hadc
 869 0264 00240140 		.word	1073816576
 870 0268 00000000 		.word	__func__.0
 871 026c A0000000 		.word	.LC97
 872 0270 B5000000 		.word	.LC99
 873 0274 20000014 		.word	335544352
 874 0278 00000000 		.word	periodic_timer
 875 027c 00000000 		.word	periodic_timer_cb
 876 0280 204E0000 		.word	20000
ARM GAS  /tmp/ccyYhnPd.s 			page 19


 877 0284 C0000000 		.word	.LC103
 878 0288 00000000 		.word	periodic_message_flag
 879 028c EB000000 		.word	.LC106
 880 0290 00000000 		.word	ADCmeas
 881 0294 00000000 		.word	VDR
 882 0298 00000000 		.word	Voltage
 883 029c 00000000 		.word	txdone_counter
 884 02a0 00000000 		.word	temperature
 885 02a4 05010000 		.word	.LC113
 886 02a8 00000000 		.word	Waterlevel
 887 02ac 00000000 		.word	Door
 889              		.section	.rodata.__func__.0,"a"
 892              	__func__.0:
 893 0000 4D585F41 		.ascii	"MX_ADC_Init\000"
 893      44435F49 
 893      6E697400 
 894              		.section	.bss.periodic_timer,"aw",%nobits
 895              		.align	2
 898              	periodic_timer:
 899 0000 00000000 		.space	24
 899      00000000 
 899      00000000 
 899      00000000 
 899      00000000 
 900              		.global	link_check_attempts
 901              		.section	.bss.link_check_attempts,"aw",%nobits
 902              		.align	2
 905              	link_check_attempts:
 906 0000 00000000 		.space	4
 907              		.global	txdone_counter
 908              		.section	.bss.txdone_counter,"aw",%nobits
 909              		.align	2
 912              	txdone_counter:
 913 0000 00000000 		.space	4
 914              		.section	.bss.rx_payload_size,"aw",%nobits
 917              	rx_payload_size:
 918 0000 00       		.space	1
 919              		.section	.bss.rx_payload,"aw",%nobits
 920              		.align	2
 923              	rx_payload:
 924 0000 00000000 		.space	255
 924      00000000 
 924      00000000 
 924      00000000 
 924      00000000 
 925              		.global	Waterlevel
 926              		.section	.bss.Waterlevel,"aw",%nobits
 927              		.align	2
 930              	Waterlevel:
 931 0000 00000000 		.space	4
 932              		.global	Door
 933              		.section	.bss.Door,"aw",%nobits
 934              		.align	2
 937              	Door:
 938 0000 00000000 		.space	4
 939              		.global	ADCmeas
 940              		.section	.bss.ADCmeas,"aw",%nobits
ARM GAS  /tmp/ccyYhnPd.s 			page 20


 941              		.align	2
 944              	ADCmeas:
 945 0000 00000000 		.space	4
 946              		.global	VDR
 947              		.section	.data.VDR,"aw"
 948              		.align	2
 951              	VDR:
 952 0000 CA269B40 		.word	1083909834
 953              		.global	Voltage
 954              		.section	.bss.Voltage,"aw",%nobits
 955              		.align	2
 958              	Voltage:
 959 0000 00000000 		.space	4
 960              		.global	temperature
 961              		.section	.bss.temperature,"aw",%nobits
 962              		.align	2
 965              	temperature:
 966 0000 00000000 		.space	4
 967              		.section	.bss.periodic_message_flag,"aw",%nobits
 970              	periodic_message_flag:
 971 0000 00       		.space	1
 972              		.global	hadc
 973              		.section	.bss.hadc,"aw",%nobits
 974              		.align	2
 977              	hadc:
 978 0000 00000000 		.space	92
 978      00000000 
 978      00000000 
 978      00000000 
 978      00000000 
 979              		.global	modem_radio
 980              		.section	.rodata.modem_radio,"a"
 981              		.align	2
 984              	modem_radio:
 985 0000 00000000 		.word	0
 986 0004 00000000 		.word	ral_lr11xx_handles_part
 987 0008 00000000 		.word	ral_lr11xx_reset
 988 000c 00000000 		.word	ral_lr11xx_init
 989 0010 00000000 		.word	ral_lr11xx_wakeup
 990 0014 00000000 		.word	ral_lr11xx_set_sleep
 991 0018 00000000 		.word	ral_lr11xx_set_standby
 992 001c 00000000 		.word	ral_lr11xx_set_fs
 993 0020 00000000 		.word	ral_lr11xx_set_tx
 994 0024 00000000 		.word	ral_lr11xx_set_rx
 995 0028 00000000 		.word	ral_lr11xx_cfg_rx_boosted
 996 002c 00000000 		.word	ral_lr11xx_set_rx_tx_fallback_mode
 997 0030 00000000 		.word	ral_lr11xx_stop_timer_on_preamble
 998 0034 00000000 		.word	ral_lr11xx_set_rx_duty_cycle
 999 0038 00000000 		.word	ral_lr11xx_set_lora_cad
 1000 003c 00000000 		.word	ral_lr11xx_set_tx_cw
 1001 0040 00000000 		.word	ral_lr11xx_set_tx_infinite_preamble
 1002 0044 00000000 		.word	ral_lr11xx_cal_img
 1003 0048 00000000 		.word	ral_lr11xx_set_tx_cfg
 1004 004c 00000000 		.word	ral_lr11xx_set_pkt_payload
 1005 0050 00000000 		.word	ral_lr11xx_get_pkt_payload
 1006 0054 00000000 		.word	ral_lr11xx_get_irq_status
 1007 0058 00000000 		.word	ral_lr11xx_clear_irq_status
ARM GAS  /tmp/ccyYhnPd.s 			page 21


 1008 005c 00000000 		.word	ral_lr11xx_get_and_clear_irq_status
 1009 0060 00000000 		.word	ral_lr11xx_set_dio_irq_params
 1010 0064 00000000 		.word	ral_lr11xx_set_rf_freq
 1011 0068 00000000 		.word	ral_lr11xx_set_pkt_type
 1012 006c 00000000 		.word	ral_lr11xx_get_pkt_type
 1013 0070 00000000 		.word	ral_lr11xx_set_gfsk_mod_params
 1014 0074 00000000 		.word	ral_lr11xx_set_gfsk_pkt_params
 1015 0078 00000000 		.word	ral_lr11xx_set_lora_mod_params
 1016 007c 00000000 		.word	ral_lr11xx_set_lora_pkt_params
 1017 0080 00000000 		.word	ral_lr11xx_set_lora_cad_params
 1018 0084 00000000 		.word	ral_lr11xx_set_lora_symb_nb_timeout
 1019 0088 00000000 		.word	ral_lr11xx_set_flrc_mod_params
 1020 008c 00000000 		.word	ral_lr11xx_set_flrc_pkt_params
 1021 0090 00000000 		.word	ral_lr11xx_get_gfsk_rx_pkt_status
 1022 0094 00000000 		.word	ral_lr11xx_get_lora_rx_pkt_status
 1023 0098 00000000 		.word	ral_lr11xx_get_flrc_rx_pkt_status
 1024 009c 00000000 		.word	ral_lr11xx_get_rssi_inst
 1025 00a0 00000000 		.word	ral_lr11xx_get_lora_time_on_air_in_ms
 1026 00a4 00000000 		.word	ral_lr11xx_get_gfsk_time_on_air_in_ms
 1027 00a8 00000000 		.word	ral_lr11xx_get_flrc_time_on_air_in_ms
 1028 00ac 00000000 		.word	ral_lr11xx_set_gfsk_sync_word
 1029 00b0 00000000 		.word	ral_lr11xx_set_lora_sync_word
 1030 00b4 00000000 		.word	ral_lr11xx_set_flrc_sync_word
 1031 00b8 00000000 		.word	ral_lr11xx_set_gfsk_crc_params
 1032 00bc 00000000 		.word	ral_lr11xx_set_flrc_crc_params
 1033 00c0 00000000 		.word	ral_lr11xx_set_gfsk_whitening_seed
 1034 00c4 00000000 		.word	ral_lr11xx_lr_fhss_init
 1035 00c8 00000000 		.word	ral_lr11xx_lr_fhss_build_frame
 1036 00cc 00000000 		.word	ral_lr11xx_lr_fhss_handle_hop
 1037 00d0 00000000 		.word	ral_lr11xx_lr_fhss_handle_tx_done
 1038 00d4 00000000 		.word	ral_lr11xx_lr_fhss_get_time_on_air_in_ms
 1039 00d8 00000000 		.word	ral_lr11xx_lr_fhss_get_hop_sequence_count
 1040 00dc 00000000 		.word	ral_lr11xx_get_lora_rx_pkt_cr_crc
 1041 00e0 00000000 		.word	ral_lr11xx_get_tx_consumption_in_ua
 1042 00e4 00000000 		.word	ral_lr11xx_get_gfsk_rx_consumption_in_ua
 1043 00e8 00000000 		.word	ral_lr11xx_get_lora_rx_consumption_in_ua
 1044 00ec 00000000 		.word	ral_lr11xx_get_random_numbers
 1045 00f0 00000000 		.word	ralf_lr11xx_setup_gfsk
 1046 00f4 00000000 		.word	ralf_lr11xx_setup_lora
 1047 00f8 00000000 		.word	ralf_lr11xx_setup_flrc
 1048              		.ident	"GCC: (Arch Repository) 13.2.0"
ARM GAS  /tmp/ccyYhnPd.s 			page 22


DEFINED SYMBOLS
                            *ABS*:00000000 main.c
     /tmp/ccyYhnPd.s:17     .text.periodic_timer_cb:00000000 $t
     /tmp/ccyYhnPd.s:22     .text.periodic_timer_cb:00000000 periodic_timer_cb
     /tmp/ccyYhnPd.s:38     .text.periodic_timer_cb:00000018 $d
     /tmp/ccyYhnPd.s:970    .bss.periodic_message_flag:00000000 periodic_message_flag
     /tmp/ccyYhnPd.s:898    .bss.periodic_timer:00000000 periodic_timer
     /tmp/ccyYhnPd.s:112    .text.get_event:00000000 $t
     /tmp/ccyYhnPd.s:117    .text.get_event:00000000 get_event
     /tmp/ccyYhnPd.s:138    .text.get_event:00000022 $d
     /tmp/ccyYhnPd.s:356    .text.get_event:000001cc $d
     /tmp/ccyYhnPd.s:923    .bss.rx_payload:00000000 rx_payload
     /tmp/ccyYhnPd.s:917    .bss.rx_payload_size:00000000 rx_payload_size
     /tmp/ccyYhnPd.s:905    .bss.link_check_attempts:00000000 link_check_attempts
     /tmp/ccyYhnPd.s:398    .text.GETtemperature:00000000 $t
     /tmp/ccyYhnPd.s:404    .text.GETtemperature:00000000 GETtemperature
     /tmp/ccyYhnPd.s:430    .text.GETvoltage:00000000 $t
     /tmp/ccyYhnPd.s:436    .text.GETvoltage:00000000 GETvoltage
     /tmp/ccyYhnPd.s:477    .text.GETvoltage:00000054 $d
     /tmp/ccyYhnPd.s:480    .text.sendLoRaWANPacket:00000000 $t
     /tmp/ccyYhnPd.s:486    .text.sendLoRaWANPacket:00000000 sendLoRaWANPacket
     /tmp/ccyYhnPd.s:505    .text.printCayenneLPPBuffer:00000000 $t
     /tmp/ccyYhnPd.s:511    .text.printCayenneLPPBuffer:00000000 printCayenneLPPBuffer
     /tmp/ccyYhnPd.s:539    .text.printCayenneLPPBuffer:0000002c $d
     /tmp/ccyYhnPd.s:544    .text.sendData:00000000 $t
     /tmp/ccyYhnPd.s:550    .text.sendData:00000000 sendData
     /tmp/ccyYhnPd.s:606    .text.startup.main:00000000 $t
     /tmp/ccyYhnPd.s:612    .text.startup.main:00000000 main
     /tmp/ccyYhnPd.s:860    .text.startup.main:00000240 $d
     /tmp/ccyYhnPd.s:984    .rodata.modem_radio:00000000 modem_radio
     /tmp/ccyYhnPd.s:977    .bss.hadc:00000000 hadc
     /tmp/ccyYhnPd.s:892    .rodata.__func__.0:00000000 __func__.0
     /tmp/ccyYhnPd.s:944    .bss.ADCmeas:00000000 ADCmeas
     /tmp/ccyYhnPd.s:951    .data.VDR:00000000 VDR
     /tmp/ccyYhnPd.s:958    .bss.Voltage:00000000 Voltage
     /tmp/ccyYhnPd.s:912    .bss.txdone_counter:00000000 txdone_counter
     /tmp/ccyYhnPd.s:965    .bss.temperature:00000000 temperature
     /tmp/ccyYhnPd.s:930    .bss.Waterlevel:00000000 Waterlevel
     /tmp/ccyYhnPd.s:937    .bss.Door:00000000 Door
     /tmp/ccyYhnPd.s:895    .bss.periodic_timer:00000000 $d
     /tmp/ccyYhnPd.s:902    .bss.link_check_attempts:00000000 $d
     /tmp/ccyYhnPd.s:909    .bss.txdone_counter:00000000 $d
     /tmp/ccyYhnPd.s:918    .bss.rx_payload_size:00000000 $d
     /tmp/ccyYhnPd.s:920    .bss.rx_payload:00000000 $d
     /tmp/ccyYhnPd.s:927    .bss.Waterlevel:00000000 $d
     /tmp/ccyYhnPd.s:934    .bss.Door:00000000 $d
     /tmp/ccyYhnPd.s:941    .bss.ADCmeas:00000000 $d
     /tmp/ccyYhnPd.s:948    .data.VDR:00000000 $d
     /tmp/ccyYhnPd.s:955    .bss.Voltage:00000000 $d
     /tmp/ccyYhnPd.s:962    .bss.temperature:00000000 $d
     /tmp/ccyYhnPd.s:971    .bss.periodic_message_flag:00000000 $d
     /tmp/ccyYhnPd.s:974    .bss.hadc:00000000 $d
     /tmp/ccyYhnPd.s:981    .rodata.modem_radio:00000000 $d
     /tmp/ccyYhnPd.s:159    .text.get_event:00000037 $d
     /tmp/ccyYhnPd.s:159    .text.get_event:00000038 $t

UNDEFINED SYMBOLS
ARM GAS  /tmp/ccyYhnPd.s 			page 23


hal_trace_print_var
TimerStart
smtc_modem_get_event
__gnu_thumb1_case_uqi
smtc_modem_set_deveui
smtc_modem_set_joineui
smtc_modem_set_nwkkey
smtc_modem_set_region
smtc_modem_join_network
memcpy
smtc_modem_request_uplink
smtc_modem_leave_network
settings
__aeabi_i2f
hal_i2c_read
__aeabi_ui2f
__aeabi_fmul
hal_gpio_set_value
hal_mcu_delay_ms
HAL_ADC_Start
HAL_ADC_PollForConversion
HAL_ADC_GetValue
HAL_ADC_Stop
cayenne_lpp_reset
cayenne_lpp_add_temperature
cayenne_lpp_add_analog_input
cayenne_lpp_add_digital_input
hal_mcu_disable_irq
hal_mcu_init
smtc_modem_init
smtc_modem_get_modem_version
settings_init
memset
HAL_ADC_Init
hal_mcu_reset
HAL_ADC_ConfigChannel
hal_gpio_init_out
hal_gpio_init_in
hal_mcu_enable_irq
TimerInit
TimerSetValue
TimerSetContext
lr11xx_system_get_version
hal_rtc_get_time_ms
smtc_modem_run_engine
smtc_modem_lorawan_request_link_check
smtc_modem_get_status
hal_mcu_set_sleep_for_ms
hal_gpio_get_value
ral_lr11xx_handles_part
ral_lr11xx_reset
ral_lr11xx_init
ral_lr11xx_wakeup
ral_lr11xx_set_sleep
ral_lr11xx_set_standby
ral_lr11xx_set_fs
ral_lr11xx_set_tx
ARM GAS  /tmp/ccyYhnPd.s 			page 24


ral_lr11xx_set_rx
ral_lr11xx_cfg_rx_boosted
ral_lr11xx_set_rx_tx_fallback_mode
ral_lr11xx_stop_timer_on_preamble
ral_lr11xx_set_rx_duty_cycle
ral_lr11xx_set_lora_cad
ral_lr11xx_set_tx_cw
ral_lr11xx_set_tx_infinite_preamble
ral_lr11xx_cal_img
ral_lr11xx_set_tx_cfg
ral_lr11xx_set_pkt_payload
ral_lr11xx_get_pkt_payload
ral_lr11xx_get_irq_status
ral_lr11xx_clear_irq_status
ral_lr11xx_get_and_clear_irq_status
ral_lr11xx_set_dio_irq_params
ral_lr11xx_set_rf_freq
ral_lr11xx_set_pkt_type
ral_lr11xx_get_pkt_type
ral_lr11xx_set_gfsk_mod_params
ral_lr11xx_set_gfsk_pkt_params
ral_lr11xx_set_lora_mod_params
ral_lr11xx_set_lora_pkt_params
ral_lr11xx_set_lora_cad_params
ral_lr11xx_set_lora_symb_nb_timeout
ral_lr11xx_set_flrc_mod_params
ral_lr11xx_set_flrc_pkt_params
ral_lr11xx_get_gfsk_rx_pkt_status
ral_lr11xx_get_lora_rx_pkt_status
ral_lr11xx_get_flrc_rx_pkt_status
ral_lr11xx_get_rssi_inst
ral_lr11xx_get_lora_time_on_air_in_ms
ral_lr11xx_get_gfsk_time_on_air_in_ms
ral_lr11xx_get_flrc_time_on_air_in_ms
ral_lr11xx_set_gfsk_sync_word
ral_lr11xx_set_lora_sync_word
ral_lr11xx_set_flrc_sync_word
ral_lr11xx_set_gfsk_crc_params
ral_lr11xx_set_flrc_crc_params
ral_lr11xx_set_gfsk_whitening_seed
ral_lr11xx_lr_fhss_init
ral_lr11xx_lr_fhss_build_frame
ral_lr11xx_lr_fhss_handle_hop
ral_lr11xx_lr_fhss_handle_tx_done
ral_lr11xx_lr_fhss_get_time_on_air_in_ms
ral_lr11xx_lr_fhss_get_hop_sequence_count
ral_lr11xx_get_lora_rx_pkt_cr_crc
ral_lr11xx_get_tx_consumption_in_ua
ral_lr11xx_get_gfsk_rx_consumption_in_ua
ral_lr11xx_get_lora_rx_consumption_in_ua
ral_lr11xx_get_random_numbers
ralf_lr11xx_setup_gfsk
ralf_lr11xx_setup_lora
ralf_lr11xx_setup_flrc
