ARM GAS  /tmp/cc27jzKm.s 			page 1


   1              		.cpu cortex-m0
   2              		.arch armv6s-m
   3              		.fpu softvfp
   4              		.eabi_attribute 23, 1
   5              		.eabi_attribute 24, 1
   6              		.eabi_attribute 25, 1
   7              		.eabi_attribute 26, 1
   8              		.eabi_attribute 30, 4
   9              		.eabi_attribute 34, 0
  10              		.eabi_attribute 18, 4
  11              		.file	"settings.c"
  12              		.text
  13              		.section	.text.settings_init,"ax",%progbits
  14              		.align	1
  15              		.global	settings_init
  16              		.syntax unified
  17              		.code	16
  18              		.thumb_func
  20              	settings_init:
  21              		@ args = 0, pretend = 0, frame = 0
  22              		@ frame_needed = 0, uses_anonymous_args = 0
  23 0000 10B5     		push	{r4, lr}
  24 0002 0A4C     		ldr	r4, .L2
  25 0004 0822     		movs	r2, #8
  26              		@ sp needed
  27 0006 2000     		movs	r0, r4
  28 0008 0949     		ldr	r1, .L2+4
  29 000a FFF7FEFF 		bl	memcpy
  30 000e 0822     		movs	r2, #8
  31 0010 0849     		ldr	r1, .L2+8
  32 0012 0948     		ldr	r0, .L2+12
  33 0014 FFF7FEFF 		bl	memcpy
  34 0018 1022     		movs	r2, #16
  35 001a 0849     		ldr	r1, .L2+16
  36 001c 0848     		ldr	r0, .L2+20
  37 001e FFF7FEFF 		bl	memcpy
  38 0022 0123     		movs	r3, #1
  39 0024 0134     		adds	r4, r4, #1
  40 0026 E377     		strb	r3, [r4, #31]
  41 0028 10BD     		pop	{r4, pc}
  42              	.L3:
  43 002a C046     		.align	2
  44              	.L2:
  45 002c 00000000 		.word	settings
  46 0030 00000000 		.word	deveui
  47 0034 00000000 		.word	joineui
  48 0038 08000000 		.word	settings+8
  49 003c 00000000 		.word	nwkey
  50 0040 10000000 		.word	settings+16
  52              		.section	.rodata.settings_print.str1.1,"aMS",%progbits,1
  53              	.LC7:
  54 0000 494E464F 		.ascii	"INFO: Settings:\012\015\000"
  54      3A205365 
  54      7474696E 
  54      67733A0A 
  54      0D00
  55              	.LC9:
ARM GAS  /tmp/cc27jzKm.s 			page 2


  56 0012 00       		.ascii	"\000"
  57              	.LC12:
  58 0013 494E464F 		.ascii	"INFO:  - deveui:                   %02X%02X%02X%02X"
  58      3A20202D 
  58      20646576 
  58      6575693A 
  58      20202020 
  59 0046 25303258 		.ascii	"%02X%02X%02X%02X\012\015\000"
  59      25303258 
  59      25303258 
  59      25303258 
  59      0A0D00
  60              	.LC14:
  61 0059 494E464F 		.ascii	"INFO:  - joineui:                  %02X%02X%02X%02X"
  61      3A20202D 
  61      206A6F69 
  61      6E657569 
  61      3A202020 
  62 008c 25303258 		.ascii	"%02X%02X%02X%02X\012\015\000"
  62      25303258 
  62      25303258 
  62      25303258 
  62      0A0D00
  63              	.LC16:
  64 009f 494E464F 		.ascii	"INFO:  - nwkey:                    %02X%02X%02X%02X"
  64      3A20202D 
  64      206E776B 
  64      65793A20 
  64      20202020 
  65 00d2 25303258 		.ascii	"%02X%02X%02X%02X%02X%02X%02X%02X%02X%02X%02X%02X\012"
  65      25303258 
  65      25303258 
  65      25303258 
  65      25303258 
  66 0103 0D00     		.ascii	"\015\000"
  67              	.LC18:
  68 0105 494E464F 		.ascii	"INFO:  - region:                   %u\012\015\000"
  68      3A20202D 
  68      20726567 
  68      696F6E3A 
  68      20202020 
  69              		.section	.text.settings_print,"ax",%progbits
  70              		.align	1
  71              		.global	settings_print
  72              		.syntax unified
  73              		.code	16
  74              		.thumb_func
  76              	settings_print:
  77              		@ args = 0, pretend = 0, frame = 0
  78              		@ frame_needed = 0, uses_anonymous_args = 0
  79 0000 70B5     		push	{r4, r5, r6, lr}
  80 0002 2E48     		ldr	r0, .L5
  81 0004 8EB0     		sub	sp, sp, #56
  82 0006 FFF7FEFF 		bl	hal_trace_print_var
  83 000a 2D4D     		ldr	r5, .L5+4
  84 000c 2800     		movs	r0, r5
  85 000e FFF7FEFF 		bl	hal_trace_print_var
ARM GAS  /tmp/cc27jzKm.s 			page 3


  86 0012 2C4C     		ldr	r4, .L5+8
  87 0014 2C48     		ldr	r0, .L5+12
  88 0016 E679     		ldrb	r6, [r4, #7]
  89 0018 A378     		ldrb	r3, [r4, #2]
  90 001a 6278     		ldrb	r2, [r4, #1]
  91 001c 2178     		ldrb	r1, [r4]
  92 001e 0496     		str	r6, [sp, #16]
  93 0020 A679     		ldrb	r6, [r4, #6]
  94 0022 0134     		adds	r4, r4, #1
  95 0024 0396     		str	r6, [sp, #12]
  96 0026 2679     		ldrb	r6, [r4, #4]
  97 0028 0296     		str	r6, [sp, #8]
  98 002a E678     		ldrb	r6, [r4, #3]
  99 002c 0196     		str	r6, [sp, #4]
 100 002e A678     		ldrb	r6, [r4, #2]
 101 0030 0096     		str	r6, [sp]
 102 0032 FFF7FEFF 		bl	hal_trace_print_var
 103 0036 2800     		movs	r0, r5
 104 0038 FFF7FEFF 		bl	hal_trace_print_var
 105 003c A67B     		ldrb	r6, [r4, #14]
 106 003e 637A     		ldrb	r3, [r4, #9]
 107 0040 227A     		ldrb	r2, [r4, #8]
 108 0042 E179     		ldrb	r1, [r4, #7]
 109 0044 0496     		str	r6, [sp, #16]
 110 0046 667B     		ldrb	r6, [r4, #13]
 111 0048 2048     		ldr	r0, .L5+16
 112 004a 0396     		str	r6, [sp, #12]
 113 004c 267B     		ldrb	r6, [r4, #12]
 114 004e 0296     		str	r6, [sp, #8]
 115 0050 E67A     		ldrb	r6, [r4, #11]
 116 0052 0196     		str	r6, [sp, #4]
 117 0054 A67A     		ldrb	r6, [r4, #10]
 118 0056 0096     		str	r6, [sp]
 119 0058 FFF7FEFF 		bl	hal_trace_print_var
 120 005c 2800     		movs	r0, r5
 121 005e FFF7FEFF 		bl	hal_trace_print_var
 122 0062 A67F     		ldrb	r6, [r4, #30]
 123 0064 637C     		ldrb	r3, [r4, #17]
 124 0066 227C     		ldrb	r2, [r4, #16]
 125 0068 E17B     		ldrb	r1, [r4, #15]
 126 006a 0C96     		str	r6, [sp, #48]
 127 006c 667F     		ldrb	r6, [r4, #29]
 128 006e 1848     		ldr	r0, .L5+20
 129 0070 0B96     		str	r6, [sp, #44]
 130 0072 267F     		ldrb	r6, [r4, #28]
 131 0074 0A96     		str	r6, [sp, #40]
 132 0076 E67E     		ldrb	r6, [r4, #27]
 133 0078 0996     		str	r6, [sp, #36]
 134 007a A67E     		ldrb	r6, [r4, #26]
 135 007c 0896     		str	r6, [sp, #32]
 136 007e 667E     		ldrb	r6, [r4, #25]
 137 0080 0796     		str	r6, [sp, #28]
 138 0082 267E     		ldrb	r6, [r4, #24]
 139 0084 0696     		str	r6, [sp, #24]
 140 0086 E67D     		ldrb	r6, [r4, #23]
 141 0088 0596     		str	r6, [sp, #20]
 142 008a A67D     		ldrb	r6, [r4, #22]
ARM GAS  /tmp/cc27jzKm.s 			page 4


 143 008c 0496     		str	r6, [sp, #16]
 144 008e 667D     		ldrb	r6, [r4, #21]
 145 0090 0396     		str	r6, [sp, #12]
 146 0092 267D     		ldrb	r6, [r4, #20]
 147 0094 0296     		str	r6, [sp, #8]
 148 0096 E67C     		ldrb	r6, [r4, #19]
 149 0098 0196     		str	r6, [sp, #4]
 150 009a A67C     		ldrb	r6, [r4, #18]
 151 009c 0096     		str	r6, [sp]
 152 009e FFF7FEFF 		bl	hal_trace_print_var
 153 00a2 2800     		movs	r0, r5
 154 00a4 FFF7FEFF 		bl	hal_trace_print_var
 155 00a8 E17F     		ldrb	r1, [r4, #31]
 156 00aa 0A48     		ldr	r0, .L5+24
 157 00ac FFF7FEFF 		bl	hal_trace_print_var
 158 00b0 2800     		movs	r0, r5
 159 00b2 FFF7FEFF 		bl	hal_trace_print_var
 160 00b6 0EB0     		add	sp, sp, #56
 161              		@ sp needed
 162 00b8 70BD     		pop	{r4, r5, r6, pc}
 163              	.L6:
 164 00ba C046     		.align	2
 165              	.L5:
 166 00bc 00000000 		.word	.LC7
 167 00c0 12000000 		.word	.LC9
 168 00c4 00000000 		.word	settings
 169 00c8 13000000 		.word	.LC12
 170 00cc 59000000 		.word	.LC14
 171 00d0 9F000000 		.word	.LC16
 172 00d4 05010000 		.word	.LC18
 174              		.section	.data.nwkey,"aw"
 175              		.align	2
 178              	nwkey:
 179 0000 C191669E 		.ascii	"\301\221f\236\335}\020\232\351]x\357\010#\0206"
 179      DD7D109A 
 179      E95D78EF 
 179      08231036 
 180              		.section	.data.joineui,"aw"
 181              		.align	2
 184              	joineui:
 185 0000 BE010000 		.ascii	"\276\001\000\000\000\000\000\013"
 185      0000000B 
 186              		.section	.data.deveui,"aw"
 187              		.align	2
 190              	deveui:
 191 0000 BE7A0000 		.ascii	"\276z\000\000\000\000\000\015"
 191      0000000D 
 192              		.global	settings
 193              		.section	.bss.settings,"aw",%nobits
 194              		.align	2
 197              	settings:
 198 0000 00000000 		.space	65
 198      00000000 
 198      00000000 
 198      00000000 
 198      00000000 
 199              		.ident	"GCC: (Arch Repository) 13.2.0"
ARM GAS  /tmp/cc27jzKm.s 			page 5


ARM GAS  /tmp/cc27jzKm.s 			page 6


DEFINED SYMBOLS
                            *ABS*:00000000 settings.c
     /tmp/cc27jzKm.s:14     .text.settings_init:00000000 $t
     /tmp/cc27jzKm.s:20     .text.settings_init:00000000 settings_init
     /tmp/cc27jzKm.s:45     .text.settings_init:0000002c $d
     /tmp/cc27jzKm.s:197    .bss.settings:00000000 settings
     /tmp/cc27jzKm.s:190    .data.deveui:00000000 deveui
     /tmp/cc27jzKm.s:184    .data.joineui:00000000 joineui
     /tmp/cc27jzKm.s:178    .data.nwkey:00000000 nwkey
     /tmp/cc27jzKm.s:70     .text.settings_print:00000000 $t
     /tmp/cc27jzKm.s:76     .text.settings_print:00000000 settings_print
     /tmp/cc27jzKm.s:166    .text.settings_print:000000bc $d
     /tmp/cc27jzKm.s:175    .data.nwkey:00000000 $d
     /tmp/cc27jzKm.s:181    .data.joineui:00000000 $d
     /tmp/cc27jzKm.s:187    .data.deveui:00000000 $d
     /tmp/cc27jzKm.s:194    .bss.settings:00000000 $d

UNDEFINED SYMBOLS
memcpy
hal_trace_print_var
