ARM GAS  /tmp/ccZubTZj.s 			page 1


   1              		.cpu cortex-m0
   2              		.arch armv6s-m
   3              		.fpu softvfp
   4              		.eabi_attribute 23, 1
   5              		.eabi_attribute 24, 1
   6              		.eabi_attribute 25, 1
   7              		.eabi_attribute 26, 1
   8              		.eabi_attribute 30, 4
   9              		.eabi_attribute 34, 0
  10              		.eabi_attribute 18, 4
  11              		.file	"smtc_hal_uart.c"
  12              		.text
  13              		.section	.rodata.uart1_init.str1.1,"aMS",%progbits,1
  14              	.LC2:
  15 0000 4552524F 		.ascii	"ERROR: mcu_panic:%s\012\015\000"
  15      523A206D 
  15      63755F70 
  15      616E6963 
  15      3A25730A 
  16              	.LC4:
  17 0016 00       		.ascii	"\000"
  18              	.LC6:
  19 0017 4552524F 		.ascii	"ERROR: -> \000"
  19      523A202D 
  19      3E2000
  20              		.section	.text.uart1_init,"ax",%progbits
  21              		.align	1
  22              		.global	uart1_init
  23              		.syntax unified
  24              		.code	16
  25              		.thumb_func
  27              	uart1_init:
  28              		@ args = 0, pretend = 0, frame = 0
  29              		@ frame_needed = 0, uses_anonymous_args = 0
  30 0000 1248     		ldr	r0, .L6
  31 0002 134B     		ldr	r3, .L6+4
  32 0004 10B5     		push	{r4, lr}
  33 0006 0360     		str	r3, [r0]
  34 0008 E123     		movs	r3, #225
  35 000a 5B02     		lsls	r3, r3, #9
  36 000c 0822     		movs	r2, #8
  37 000e 4360     		str	r3, [r0, #4]
  38 0010 0023     		movs	r3, #0
  39 0012 4261     		str	r2, [r0, #20]
  40 0014 8360     		str	r3, [r0, #8]
  41 0016 C360     		str	r3, [r0, #12]
  42 0018 0361     		str	r3, [r0, #16]
  43 001a 8361     		str	r3, [r0, #24]
  44 001c C361     		str	r3, [r0, #28]
  45 001e 0362     		str	r3, [r0, #32]
  46 0020 4362     		str	r3, [r0, #36]
  47 0022 FFF7FEFF 		bl	HAL_UART_Init
  48 0026 0028     		cmp	r0, #0
  49 0028 0FD0     		beq	.L1
  50 002a 0A49     		ldr	r1, .L6+8
  51 002c 0A48     		ldr	r0, .L6+12
  52 002e FFF7FEFF 		bl	hal_trace_print_var
ARM GAS  /tmp/ccZubTZj.s 			page 2


  53 0032 0A4C     		ldr	r4, .L6+16
  54 0034 2000     		movs	r0, r4
  55 0036 FFF7FEFF 		bl	hal_trace_print_var
  56 003a 0948     		ldr	r0, .L6+20
  57 003c FFF7FEFF 		bl	hal_trace_print_var
  58 0040 2000     		movs	r0, r4
  59 0042 FFF7FEFF 		bl	hal_trace_print_var
  60 0046 FFF7FEFF 		bl	hal_mcu_reset
  61              	.L1:
  62              		@ sp needed
  63 004a 10BD     		pop	{r4, pc}
  64              	.L7:
  65              		.align	2
  66              	.L6:
  67 004c 00000000 		.word	huart1
  68 0050 00380140 		.word	1073821696
  69 0054 00000000 		.word	__func__.2
  70 0058 00000000 		.word	.LC2
  71 005c 16000000 		.word	.LC4
  72 0060 17000000 		.word	.LC6
  74              		.section	.text.uart1_deinit,"ax",%progbits
  75              		.align	1
  76              		.global	uart1_deinit
  77              		.syntax unified
  78              		.code	16
  79              		.thumb_func
  81              	uart1_deinit:
  82              		@ args = 0, pretend = 0, frame = 0
  83              		@ frame_needed = 0, uses_anonymous_args = 0
  84 0000 10B5     		push	{r4, lr}
  85 0002 0248     		ldr	r0, .L9
  86 0004 FFF7FEFF 		bl	HAL_UART_DeInit
  87              		@ sp needed
  88 0008 10BD     		pop	{r4, pc}
  89              	.L10:
  90 000a C046     		.align	2
  91              	.L9:
  92 000c 00000000 		.word	huart1
  94              		.section	.text.uart2_init,"ax",%progbits
  95              		.align	1
  96              		.global	uart2_init
  97              		.syntax unified
  98              		.code	16
  99              		.thumb_func
 101              	uart2_init:
 102              		@ args = 0, pretend = 0, frame = 8
 103              		@ frame_needed = 0, uses_anonymous_args = 0
 104 0000 13B5     		push	{r0, r1, r4, lr}
 105 0002 0121     		movs	r1, #1
 106 0004 1D4B     		ldr	r3, .L16
 107 0006 0B20     		movs	r0, #11
 108 0008 1A6B     		ldr	r2, [r3, #48]
 109 000a 0A43     		orrs	r2, r1
 110 000c 1A63     		str	r2, [r3, #48]
 111 000e 0022     		movs	r2, #0
 112 0010 1B6B     		ldr	r3, [r3, #48]
 113 0012 0B40     		ands	r3, r1
ARM GAS  /tmp/ccZubTZj.s 			page 3


 114 0014 0193     		str	r3, [sp, #4]
 115 0016 1100     		movs	r1, r2
 116 0018 019B     		ldr	r3, [sp, #4]
 117 001a FFF7FEFF 		bl	HAL_NVIC_SetPriority
 118 001e 0B20     		movs	r0, #11
 119 0020 FFF7FEFF 		bl	HAL_NVIC_EnableIRQ
 120 0024 1648     		ldr	r0, .L16+4
 121 0026 174B     		ldr	r3, .L16+8
 122 0028 0C22     		movs	r2, #12
 123 002a 0360     		str	r3, [r0]
 124 002c 9623     		movs	r3, #150
 125 002e 9B01     		lsls	r3, r3, #6
 126 0030 4360     		str	r3, [r0, #4]
 127 0032 0023     		movs	r3, #0
 128 0034 8360     		str	r3, [r0, #8]
 129 0036 C360     		str	r3, [r0, #12]
 130 0038 0361     		str	r3, [r0, #16]
 131 003a 8361     		str	r3, [r0, #24]
 132 003c C361     		str	r3, [r0, #28]
 133 003e 0362     		str	r3, [r0, #32]
 134 0040 3033     		adds	r3, r3, #48
 135 0042 4261     		str	r2, [r0, #20]
 136 0044 4362     		str	r3, [r0, #36]
 137 0046 8022     		movs	r2, #128
 138 0048 8023     		movs	r3, #128
 139 004a 5201     		lsls	r2, r2, #5
 140 004c 9B01     		lsls	r3, r3, #6
 141 004e 8263     		str	r2, [r0, #56]
 142 0050 C363     		str	r3, [r0, #60]
 143 0052 FFF7FEFF 		bl	HAL_UART_Init
 144 0056 0028     		cmp	r0, #0
 145 0058 0FD0     		beq	.L11
 146 005a 0B49     		ldr	r1, .L16+12
 147 005c 0B48     		ldr	r0, .L16+16
 148 005e FFF7FEFF 		bl	hal_trace_print_var
 149 0062 0B4C     		ldr	r4, .L16+20
 150 0064 2000     		movs	r0, r4
 151 0066 FFF7FEFF 		bl	hal_trace_print_var
 152 006a 0A48     		ldr	r0, .L16+24
 153 006c FFF7FEFF 		bl	hal_trace_print_var
 154 0070 2000     		movs	r0, r4
 155 0072 FFF7FEFF 		bl	hal_trace_print_var
 156 0076 FFF7FEFF 		bl	hal_mcu_reset
 157              	.L11:
 158              		@ sp needed
 159 007a 13BD     		pop	{r0, r1, r4, pc}
 160              	.L17:
 161              		.align	2
 162              	.L16:
 163 007c 00100240 		.word	1073876992
 164 0080 00000000 		.word	huart2
 165 0084 00440040 		.word	1073759232
 166 0088 00000000 		.word	__func__.1
 167 008c 00000000 		.word	.LC2
 168 0090 16000000 		.word	.LC4
 169 0094 17000000 		.word	.LC6
 171              		.section	.text.uart2_deinit,"ax",%progbits
ARM GAS  /tmp/ccZubTZj.s 			page 4


 172              		.align	1
 173              		.global	uart2_deinit
 174              		.syntax unified
 175              		.code	16
 176              		.thumb_func
 178              	uart2_deinit:
 179              		@ args = 0, pretend = 0, frame = 0
 180              		@ frame_needed = 0, uses_anonymous_args = 0
 181 0000 10B5     		push	{r4, lr}
 182 0002 0448     		ldr	r0, .L19
 183 0004 FFF7FEFF 		bl	HAL_UART_DeInit
 184              		@ sp needed
 185 0008 0121     		movs	r1, #1
 186 000a 034A     		ldr	r2, .L19+4
 187 000c 136B     		ldr	r3, [r2, #48]
 188 000e 8B43     		bics	r3, r1
 189 0010 1363     		str	r3, [r2, #48]
 190 0012 10BD     		pop	{r4, pc}
 191              	.L20:
 192              		.align	2
 193              	.L19:
 194 0014 00000000 		.word	huart2
 195 0018 00100240 		.word	1073876992
 197              		.section	.text.uart2_dma_start_rx,"ax",%progbits
 198              		.align	1
 199              		.global	uart2_dma_start_rx
 200              		.syntax unified
 201              		.code	16
 202              		.thumb_func
 204              	uart2_dma_start_rx:
 205              		@ args = 0, pretend = 0, frame = 0
 206              		@ frame_needed = 0, uses_anonymous_args = 0
 207 0000 10B5     		push	{r4, lr}
 208 0002 034B     		ldr	r3, .L22
 209 0004 0A00     		movs	r2, r1
 210              		@ sp needed
 211 0006 0100     		movs	r1, r0
 212 0008 1800     		movs	r0, r3
 213 000a FFF7FEFF 		bl	HAL_UART_Receive_DMA
 214 000e 10BD     		pop	{r4, pc}
 215              	.L23:
 216              		.align	2
 217              	.L22:
 218 0010 00000000 		.word	huart2
 220              		.section	.text.uart2_dma_stop_rx,"ax",%progbits
 221              		.align	1
 222              		.global	uart2_dma_stop_rx
 223              		.syntax unified
 224              		.code	16
 225              		.thumb_func
 227              	uart2_dma_stop_rx:
 228              		@ args = 0, pretend = 0, frame = 0
 229              		@ frame_needed = 0, uses_anonymous_args = 0
 230 0000 10B5     		push	{r4, lr}
 231 0002 0248     		ldr	r0, .L25
 232 0004 FFF7FEFF 		bl	HAL_UART_DMAStop
 233              		@ sp needed
ARM GAS  /tmp/ccZubTZj.s 			page 5


 234 0008 10BD     		pop	{r4, pc}
 235              	.L26:
 236 000a C046     		.align	2
 237              	.L25:
 238 000c 00000000 		.word	huart2
 240              		.section	.text.uart1_tx,"ax",%progbits
 241              		.align	1
 242              		.global	uart1_tx
 243              		.syntax unified
 244              		.code	16
 245              		.thumb_func
 247              	uart1_tx:
 248              		@ args = 0, pretend = 0, frame = 0
 249              		@ frame_needed = 0, uses_anonymous_args = 0
 250 0000 10B5     		push	{r4, lr}
 251 0002 044C     		ldr	r4, .L28
 252 0004 0A00     		movs	r2, r1
 253              		@ sp needed
 254 0006 0100     		movs	r1, r0
 255 0008 034B     		ldr	r3, .L28+4
 256 000a 2000     		movs	r0, r4
 257 000c FFF7FEFF 		bl	HAL_UART_Transmit
 258 0010 10BD     		pop	{r4, pc}
 259              	.L29:
 260 0012 C046     		.align	2
 261              	.L28:
 262 0014 00000000 		.word	huart1
 263 0018 FFFFFF00 		.word	16777215
 265              		.section	.text.uart2_tx,"ax",%progbits
 266              		.align	1
 267              		.global	uart2_tx
 268              		.syntax unified
 269              		.code	16
 270              		.thumb_func
 272              	uart2_tx:
 273              		@ args = 0, pretend = 0, frame = 0
 274              		@ frame_needed = 0, uses_anonymous_args = 0
 275 0000 10B5     		push	{r4, lr}
 276 0002 044C     		ldr	r4, .L31
 277 0004 0A00     		movs	r2, r1
 278              		@ sp needed
 279 0006 0100     		movs	r1, r0
 280 0008 034B     		ldr	r3, .L31+4
 281 000a 2000     		movs	r0, r4
 282 000c FFF7FEFF 		bl	HAL_UART_Transmit
 283 0010 10BD     		pop	{r4, pc}
 284              	.L32:
 285 0012 C046     		.align	2
 286              	.L31:
 287 0014 00000000 		.word	huart2
 288 0018 FFFFFF00 		.word	16777215
 290              		.section	.text.HAL_UART_MspInit,"ax",%progbits
 291              		.align	1
 292              		.global	HAL_UART_MspInit
 293              		.syntax unified
 294              		.code	16
 295              		.thumb_func
ARM GAS  /tmp/ccZubTZj.s 			page 6


 297              	HAL_UART_MspInit:
 298              		@ args = 0, pretend = 0, frame = 32
 299              		@ frame_needed = 0, uses_anonymous_args = 0
 300 0000 70B5     		push	{r4, r5, r6, lr}
 301 0002 0368     		ldr	r3, [r0]
 302 0004 414A     		ldr	r2, .L41
 303 0006 0500     		movs	r5, r0
 304 0008 88B0     		sub	sp, sp, #32
 305 000a 9342     		cmp	r3, r2
 306 000c 1FD1     		bne	.L34
 307 000e 8022     		movs	r2, #128
 308 0010 3F4B     		ldr	r3, .L41+4
 309 0012 D201     		lsls	r2, r2, #7
 310 0014 596B     		ldr	r1, [r3, #52]
 311 0016 A020     		movs	r0, #160
 312 0018 0A43     		orrs	r2, r1
 313 001a 0121     		movs	r1, #1
 314 001c 5A63     		str	r2, [r3, #52]
 315 001e DA6A     		ldr	r2, [r3, #44]
 316 0020 C005     		lsls	r0, r0, #23
 317 0022 0A43     		orrs	r2, r1
 318 0024 DA62     		str	r2, [r3, #44]
 319 0026 DB6A     		ldr	r3, [r3, #44]
 320 0028 C022     		movs	r2, #192
 321 002a 0B40     		ands	r3, r1
 322 002c 0093     		str	r3, [sp]
 323 002e 009B     		ldr	r3, [sp]
 324 0030 0423     		movs	r3, #4
 325 0032 0693     		str	r3, [sp, #24]
 326 0034 0223     		movs	r3, #2
 327 0036 D200     		lsls	r2, r2, #3
 328 0038 0292     		str	r2, [sp, #8]
 329 003a 0393     		str	r3, [sp, #12]
 330 003c 0022     		movs	r2, #0
 331 003e 0323     		movs	r3, #3
 332 0040 02A9     		add	r1, sp, #8
 333 0042 0492     		str	r2, [sp, #16]
 334 0044 0593     		str	r3, [sp, #20]
 335 0046 FFF7FEFF 		bl	HAL_GPIO_Init
 336              	.L33:
 337 004a 08B0     		add	sp, sp, #32
 338              		@ sp needed
 339 004c 70BD     		pop	{r4, r5, r6, pc}
 340              	.L34:
 341 004e 314A     		ldr	r2, .L41+8
 342 0050 9342     		cmp	r3, r2
 343 0052 49D1     		bne	.L36
 344 0054 8022     		movs	r2, #128
 345 0056 2E4B     		ldr	r3, .L41+4
 346 0058 9202     		lsls	r2, r2, #10
 347 005a 996B     		ldr	r1, [r3, #56]
 348 005c A020     		movs	r0, #160
 349 005e 0A43     		orrs	r2, r1
 350 0060 0121     		movs	r1, #1
 351 0062 9A63     		str	r2, [r3, #56]
 352 0064 DA6A     		ldr	r2, [r3, #44]
 353 0066 0426     		movs	r6, #4
ARM GAS  /tmp/ccZubTZj.s 			page 7


 354 0068 0A43     		orrs	r2, r1
 355 006a DA62     		str	r2, [r3, #44]
 356 006c DB6A     		ldr	r3, [r3, #44]
 357 006e 0C22     		movs	r2, #12
 358 0070 0B40     		ands	r3, r1
 359 0072 0193     		str	r3, [sp, #4]
 360 0074 019B     		ldr	r3, [sp, #4]
 361 0076 0223     		movs	r3, #2
 362 0078 0292     		str	r2, [sp, #8]
 363 007a 0393     		str	r3, [sp, #12]
 364 007c 0022     		movs	r2, #0
 365 007e 0323     		movs	r3, #3
 366 0080 C005     		lsls	r0, r0, #23
 367 0082 02A9     		add	r1, sp, #8
 368 0084 0492     		str	r2, [sp, #16]
 369 0086 0593     		str	r3, [sp, #20]
 370 0088 0696     		str	r6, [sp, #24]
 371 008a FFF7FEFF 		bl	HAL_GPIO_Init
 372 008e 224C     		ldr	r4, .L41+12
 373 0090 224B     		ldr	r3, .L41+16
 374 0092 8022     		movs	r2, #128
 375 0094 2360     		str	r3, [r4]
 376 0096 0023     		movs	r3, #0
 377 0098 2000     		movs	r0, r4
 378 009a 6660     		str	r6, [r4, #4]
 379 009c A360     		str	r3, [r4, #8]
 380 009e E360     		str	r3, [r4, #12]
 381 00a0 2261     		str	r2, [r4, #16]
 382 00a2 6361     		str	r3, [r4, #20]
 383 00a4 A361     		str	r3, [r4, #24]
 384 00a6 E361     		str	r3, [r4, #28]
 385 00a8 2362     		str	r3, [r4, #32]
 386 00aa FFF7FEFF 		bl	HAL_DMA_Init
 387 00ae 0028     		cmp	r0, #0
 388 00b0 0FD0     		beq	.L37
 389 00b2 1B49     		ldr	r1, .L41+20
 390 00b4 1B48     		ldr	r0, .L41+24
 391 00b6 FFF7FEFF 		bl	hal_trace_print_var
 392 00ba 1B4E     		ldr	r6, .L41+28
 393 00bc 3000     		movs	r0, r6
 394 00be FFF7FEFF 		bl	hal_trace_print_var
 395 00c2 1A48     		ldr	r0, .L41+32
 396 00c4 FFF7FEFF 		bl	hal_trace_print_var
 397 00c8 3000     		movs	r0, r6
 398 00ca FFF7FEFF 		bl	hal_trace_print_var
 399 00ce FFF7FEFF 		bl	hal_mcu_reset
 400              	.L37:
 401 00d2 0022     		movs	r2, #0
 402 00d4 1C20     		movs	r0, #28
 403 00d6 1100     		movs	r1, r2
 404 00d8 2C67     		str	r4, [r5, #112]
 405 00da A562     		str	r5, [r4, #40]
 406 00dc FFF7FEFF 		bl	HAL_NVIC_SetPriority
 407 00e0 1C20     		movs	r0, #28
 408 00e2 FFF7FEFF 		bl	HAL_NVIC_EnableIRQ
 409 00e6 B0E7     		b	.L33
 410              	.L36:
ARM GAS  /tmp/ccZubTZj.s 			page 8


 411 00e8 0D49     		ldr	r1, .L41+20
 412 00ea 0E48     		ldr	r0, .L41+24
 413 00ec FFF7FEFF 		bl	hal_trace_print_var
 414 00f0 0D4C     		ldr	r4, .L41+28
 415 00f2 2000     		movs	r0, r4
 416 00f4 FFF7FEFF 		bl	hal_trace_print_var
 417 00f8 0C48     		ldr	r0, .L41+32
 418 00fa FFF7FEFF 		bl	hal_trace_print_var
 419 00fe 2000     		movs	r0, r4
 420 0100 FFF7FEFF 		bl	hal_trace_print_var
 421 0104 FFF7FEFF 		bl	hal_mcu_reset
 422 0108 9FE7     		b	.L33
 423              	.L42:
 424 010a C046     		.align	2
 425              	.L41:
 426 010c 00380140 		.word	1073821696
 427 0110 00100240 		.word	1073876992
 428 0114 00440040 		.word	1073759232
 429 0118 00000000 		.word	hdma_usart2_rx
 430 011c 58000240 		.word	1073872984
 431 0120 00000000 		.word	__func__.0
 432 0124 00000000 		.word	.LC2
 433 0128 16000000 		.word	.LC4
 434 012c 17000000 		.word	.LC6
 436              		.section	.text.HAL_UART_MspDeInit,"ax",%progbits
 437              		.align	1
 438              		.global	HAL_UART_MspDeInit
 439              		.syntax unified
 440              		.code	16
 441              		.thumb_func
 443              	HAL_UART_MspDeInit:
 444              		@ args = 0, pretend = 0, frame = 0
 445              		@ frame_needed = 0, uses_anonymous_args = 0
 446 0000 0368     		ldr	r3, [r0]
 447 0002 174A     		ldr	r2, .L46
 448 0004 10B5     		push	{r4, lr}
 449 0006 9342     		cmp	r3, r2
 450 0008 11D1     		bne	.L44
 451 000a 164A     		ldr	r2, .L46+4
 452 000c 1649     		ldr	r1, .L46+8
 453 000e 536B     		ldr	r3, [r2, #52]
 454 0010 A020     		movs	r0, #160
 455 0012 0B40     		ands	r3, r1
 456 0014 8021     		movs	r1, #128
 457 0016 C005     		lsls	r0, r0, #23
 458 0018 8900     		lsls	r1, r1, #2
 459 001a 5363     		str	r3, [r2, #52]
 460 001c FFF7FEFF 		bl	HAL_GPIO_DeInit
 461 0020 8021     		movs	r1, #128
 462 0022 A020     		movs	r0, #160
 463 0024 C900     		lsls	r1, r1, #3
 464 0026 C005     		lsls	r0, r0, #23
 465 0028 FFF7FEFF 		bl	HAL_GPIO_DeInit
 466              	.L43:
 467              		@ sp needed
 468 002c 10BD     		pop	{r4, pc}
 469              	.L44:
ARM GAS  /tmp/ccZubTZj.s 			page 9


 470 002e 0F4A     		ldr	r2, .L46+12
 471 0030 9342     		cmp	r3, r2
 472 0032 FBD1     		bne	.L43
 473 0034 A020     		movs	r0, #160
 474 0036 0B4A     		ldr	r2, .L46+4
 475 0038 0D49     		ldr	r1, .L46+16
 476 003a 936B     		ldr	r3, [r2, #56]
 477 003c C005     		lsls	r0, r0, #23
 478 003e 0B40     		ands	r3, r1
 479 0040 9363     		str	r3, [r2, #56]
 480 0042 0421     		movs	r1, #4
 481 0044 FFF7FEFF 		bl	HAL_GPIO_DeInit
 482 0048 A020     		movs	r0, #160
 483 004a 0821     		movs	r1, #8
 484 004c C005     		lsls	r0, r0, #23
 485 004e FFF7FEFF 		bl	HAL_GPIO_DeInit
 486 0052 0848     		ldr	r0, .L46+20
 487 0054 FFF7FEFF 		bl	HAL_DMA_DeInit
 488 0058 1C20     		movs	r0, #28
 489 005a FFF7FEFF 		bl	HAL_NVIC_DisableIRQ
 490 005e E5E7     		b	.L43
 491              	.L47:
 492              		.align	2
 493              	.L46:
 494 0060 00380140 		.word	1073821696
 495 0064 00100240 		.word	1073876992
 496 0068 FFBFFFFF 		.word	-16385
 497 006c 00440040 		.word	1073759232
 498 0070 FFFFFDFF 		.word	-131073
 499 0074 00000000 		.word	hdma_usart2_rx
 501              		.section	.text.DMA1_Channel4_5_6_7_IRQHandler,"ax",%progbits
 502              		.align	1
 503              		.global	DMA1_Channel4_5_6_7_IRQHandler
 504              		.syntax unified
 505              		.code	16
 506              		.thumb_func
 508              	DMA1_Channel4_5_6_7_IRQHandler:
 509              		@ args = 0, pretend = 0, frame = 0
 510              		@ frame_needed = 0, uses_anonymous_args = 0
 511 0000 10B5     		push	{r4, lr}
 512 0002 0248     		ldr	r0, .L49
 513 0004 FFF7FEFF 		bl	HAL_DMA_IRQHandler
 514              		@ sp needed
 515 0008 10BD     		pop	{r4, pc}
 516              	.L50:
 517 000a C046     		.align	2
 518              	.L49:
 519 000c 00000000 		.word	hdma_usart2_rx
 521              		.section	.text.USART2_IRQHandler,"ax",%progbits
 522              		.align	1
 523              		.global	USART2_IRQHandler
 524              		.syntax unified
 525              		.code	16
 526              		.thumb_func
 528              	USART2_IRQHandler:
 529              		@ args = 0, pretend = 0, frame = 0
 530              		@ frame_needed = 0, uses_anonymous_args = 0
ARM GAS  /tmp/ccZubTZj.s 			page 10


 531 0000 10B5     		push	{r4, lr}
 532 0002 0248     		ldr	r0, .L52
 533 0004 FFF7FEFF 		bl	HAL_UART_IRQHandler
 534              		@ sp needed
 535 0008 10BD     		pop	{r4, pc}
 536              	.L53:
 537 000a C046     		.align	2
 538              	.L52:
 539 000c 00000000 		.word	huart2
 541              		.section	.rodata.__func__.0,"a"
 544              	__func__.0:
 545 0000 48414C5F 		.ascii	"HAL_UART_MspInit\000"
 545      55415254 
 545      5F4D7370 
 545      496E6974 
 545      00
 546              		.section	.rodata.__func__.1,"a"
 549              	__func__.1:
 550 0000 75617274 		.ascii	"uart2_init\000"
 550      325F696E 
 550      697400
 551              		.section	.rodata.__func__.2,"a"
 554              	__func__.2:
 555 0000 75617274 		.ascii	"uart1_init\000"
 555      315F696E 
 555      697400
 556              		.section	.bss.huart2,"aw",%nobits
 557              		.align	3
 560              	huart2:
 561 0000 00000000 		.space	132
 561      00000000 
 561      00000000 
 561      00000000 
 561      00000000 
 562              		.section	.bss.huart1,"aw",%nobits
 563              		.align	2
 566              	huart1:
 567 0000 00000000 		.space	132
 567      00000000 
 567      00000000 
 567      00000000 
 567      00000000 
 568              		.section	.bss.hdma_usart2_rx,"aw",%nobits
 569              		.align	2
 572              	hdma_usart2_rx:
 573 0000 00000000 		.space	72
 573      00000000 
 573      00000000 
 573      00000000 
 573      00000000 
 574              		.ident	"GCC: (Arch Repository) 13.2.0"
ARM GAS  /tmp/ccZubTZj.s 			page 11

