ARM GAS  /tmp/cco1JBhJ.s 			page 1


   1              		.cpu cortex-m0
   2              		.arch armv6s-m
   3              		.fpu softvfp
   4              		.eabi_attribute 23, 1
   5              		.eabi_attribute 24, 1
   6              		.eabi_attribute 25, 1
   7              		.eabi_attribute 26, 1
   8              		.eabi_attribute 30, 4
   9              		.eabi_attribute 34, 0
  10              		.eabi_attribute 18, 4
  11              		.file	"smtc_hal_gpio.c"
  12              		.text
  13              		.section	.text.hal_gpio_irq_attach,"ax",%progbits
  14              		.align	1
  15              		.global	hal_gpio_irq_attach
  16              		.syntax unified
  17              		.code	16
  18              		.thumb_func
  20              	hal_gpio_irq_attach:
  21              		@ args = 0, pretend = 0, frame = 0
  22              		@ frame_needed = 0, uses_anonymous_args = 0
  23              		@ link register save eliminated.
  24 0000 0028     		cmp	r0, #0
  25 0002 08D0     		beq	.L1
  26 0004 8368     		ldr	r3, [r0, #8]
  27 0006 002B     		cmp	r3, #0
  28 0008 05D0     		beq	.L1
  29 000a 0F21     		movs	r1, #15
  30 000c 0378     		ldrb	r3, [r0]
  31 000e 024A     		ldr	r2, .L9
  32 0010 0B40     		ands	r3, r1
  33 0012 9B00     		lsls	r3, r3, #2
  34 0014 9850     		str	r0, [r3, r2]
  35              	.L1:
  36              		@ sp needed
  37 0016 7047     		bx	lr
  38              	.L10:
  39              		.align	2
  40              	.L9:
  41 0018 00000000 		.word	gpio_irq
  43              		.section	.text.gpio_init.constprop.0,"ax",%progbits
  44              		.align	1
  45              		.syntax unified
  46              		.code	16
  47              		.thumb_func
  49              	gpio_init.constprop.0:
  50              		@ args = 0, pretend = 0, frame = 56
  51              		@ frame_needed = 0, uses_anonymous_args = 0
  52 0000 F0B5     		push	{r4, r5, r6, r7, lr}
  53 0002 1600     		movs	r6, r2
  54 0004 0022     		movs	r2, #0
  55 0006 F023     		movs	r3, #240
  56 0008 8256     		ldrsb	r2, [r0, r2]
  57 000a 9B01     		lsls	r3, r3, #6
  58 000c 9501     		lsls	r5, r2, #6
  59 000e 1D40     		ands	r5, r3
  60 0010 A023     		movs	r3, #160
ARM GAS  /tmp/cco1JBhJ.s 			page 2


  61 0012 0127     		movs	r7, #1
  62 0014 DB05     		lsls	r3, r3, #23
  63 0016 ED18     		adds	r5, r5, r3
  64 0018 0F23     		movs	r3, #15
  65 001a 0400     		movs	r4, r0
  66 001c 3800     		movs	r0, r7
  67 001e 1340     		ands	r3, r2
  68 0020 9840     		lsls	r0, r0, r3
  69 0022 6368     		ldr	r3, [r4, #4]
  70 0024 8FB0     		sub	sp, sp, #60
  71 0026 0A93     		str	r3, [sp, #40]
  72 0028 A368     		ldr	r3, [r4, #8]
  73 002a 0191     		str	r1, [sp, #4]
  74 002c 0B93     		str	r3, [sp, #44]
  75 002e 0023     		movs	r3, #0
  76 0030 0C93     		str	r3, [sp, #48]
  77 0032 0D93     		str	r3, [sp, #52]
  78 0034 F033     		adds	r3, r3, #240
  79 0036 9C46     		mov	ip, r3
  80 0038 6146     		mov	r1, ip
  81 003a 0990     		str	r0, [sp, #36]
  82 003c 1340     		ands	r3, r2
  83 003e 0A42     		tst	r2, r1
  84 0040 32D1     		bne	.L12
  85 0042 3F4B     		ldr	r3, .L25
  86 0044 DA6A     		ldr	r2, [r3, #44]
  87 0046 3A43     		orrs	r2, r7
  88 0048 DA62     		str	r2, [r3, #44]
  89 004a DB6A     		ldr	r3, [r3, #44]
  90 004c 3B40     		ands	r3, r7
  91 004e 0393     		str	r3, [sp, #12]
  92 0050 039B     		ldr	r3, [sp, #12]
  93              	.L13:
  94 0052 6B46     		mov	r3, sp
  95 0054 81B2     		uxth	r1, r0
  96 0056 1A79     		ldrb	r2, [r3, #4]
  97 0058 2800     		movs	r0, r5
  98 005a FFF7FEFF 		bl	HAL_GPIO_WritePin
  99 005e 09A9     		add	r1, sp, #36
 100 0060 2800     		movs	r0, r5
 101 0062 FFF7FEFF 		bl	HAL_GPIO_Init
 102 0066 8821     		movs	r1, #136
 103 0068 6268     		ldr	r2, [r4, #4]
 104 006a 364B     		ldr	r3, .L25+4
 105 006c 4903     		lsls	r1, r1, #13
 106 006e 1340     		ands	r3, r2
 107 0070 8B42     		cmp	r3, r1
 108 0072 03D0     		beq	.L18
 109 0074 8423     		movs	r3, #132
 110 0076 9B03     		lsls	r3, r3, #14
 111 0078 9A42     		cmp	r2, r3
 112 007a 58D1     		bne	.L11
 113              	.L18:
 114 007c 3000     		movs	r0, r6
 115 007e FFF7FEFF 		bl	hal_gpio_irq_attach
 116 0082 0023     		movs	r3, #0
 117 0084 E356     		ldrsb	r3, [r4, r3]
ARM GAS  /tmp/cco1JBhJ.s 			page 3


 118 0086 0E22     		movs	r2, #14
 119 0088 1900     		movs	r1, r3
 120 008a 1140     		ands	r1, r2
 121 008c 1342     		tst	r3, r2
 122 008e 47D0     		beq	.L20
 123 0090 0132     		adds	r2, r2, #1
 124 0092 1340     		ands	r3, r2
 125 0094 023B     		subs	r3, r3, #2
 126 0096 012B     		cmp	r3, #1
 127 0098 4BD9     		bls	.L23
 128 009a 0022     		movs	r2, #0
 129 009c 0720     		movs	r0, #7
 130 009e 1100     		movs	r1, r2
 131 00a0 FFF7FEFF 		bl	HAL_NVIC_SetPriority
 132 00a4 0720     		movs	r0, #7
 133 00a6 40E0     		b	.L24
 134              	.L12:
 135 00a8 102B     		cmp	r3, #16
 136 00aa 09D1     		bne	.L14
 137 00ac 0227     		movs	r7, #2
 138 00ae 244B     		ldr	r3, .L25
 139 00b0 DA6A     		ldr	r2, [r3, #44]
 140 00b2 3A43     		orrs	r2, r7
 141 00b4 DA62     		str	r2, [r3, #44]
 142 00b6 DB6A     		ldr	r3, [r3, #44]
 143 00b8 3B40     		ands	r3, r7
 144 00ba 0493     		str	r3, [sp, #16]
 145 00bc 049B     		ldr	r3, [sp, #16]
 146 00be C8E7     		b	.L13
 147              	.L14:
 148 00c0 202B     		cmp	r3, #32
 149 00c2 09D1     		bne	.L15
 150 00c4 0427     		movs	r7, #4
 151 00c6 1E4B     		ldr	r3, .L25
 152 00c8 DA6A     		ldr	r2, [r3, #44]
 153 00ca 3A43     		orrs	r2, r7
 154 00cc DA62     		str	r2, [r3, #44]
 155 00ce DB6A     		ldr	r3, [r3, #44]
 156 00d0 3B40     		ands	r3, r7
 157 00d2 0593     		str	r3, [sp, #20]
 158 00d4 059B     		ldr	r3, [sp, #20]
 159 00d6 BCE7     		b	.L13
 160              	.L15:
 161 00d8 302B     		cmp	r3, #48
 162 00da 09D1     		bne	.L16
 163 00dc 0827     		movs	r7, #8
 164 00de 184B     		ldr	r3, .L25
 165 00e0 DA6A     		ldr	r2, [r3, #44]
 166 00e2 3A43     		orrs	r2, r7
 167 00e4 DA62     		str	r2, [r3, #44]
 168 00e6 DB6A     		ldr	r3, [r3, #44]
 169 00e8 3B40     		ands	r3, r7
 170 00ea 0693     		str	r3, [sp, #24]
 171 00ec 069B     		ldr	r3, [sp, #24]
 172 00ee B0E7     		b	.L13
 173              	.L16:
 174 00f0 402B     		cmp	r3, #64
ARM GAS  /tmp/cco1JBhJ.s 			page 4


 175 00f2 09D1     		bne	.L17
 176 00f4 1027     		movs	r7, #16
 177 00f6 124B     		ldr	r3, .L25
 178 00f8 DA6A     		ldr	r2, [r3, #44]
 179 00fa 3A43     		orrs	r2, r7
 180 00fc DA62     		str	r2, [r3, #44]
 181 00fe DB6A     		ldr	r3, [r3, #44]
 182 0100 3B40     		ands	r3, r7
 183 0102 0793     		str	r3, [sp, #28]
 184 0104 079B     		ldr	r3, [sp, #28]
 185 0106 A4E7     		b	.L13
 186              	.L17:
 187 0108 702B     		cmp	r3, #112
 188 010a A2D1     		bne	.L13
 189 010c 8027     		movs	r7, #128
 190 010e 0C4B     		ldr	r3, .L25
 191 0110 DA6A     		ldr	r2, [r3, #44]
 192 0112 3A43     		orrs	r2, r7
 193 0114 DA62     		str	r2, [r3, #44]
 194 0116 DB6A     		ldr	r3, [r3, #44]
 195 0118 3B40     		ands	r3, r7
 196 011a 0893     		str	r3, [sp, #32]
 197 011c 089B     		ldr	r3, [sp, #32]
 198 011e 98E7     		b	.L13
 199              	.L20:
 200 0120 0520     		movs	r0, #5
 201 0122 0A00     		movs	r2, r1
 202 0124 FFF7FEFF 		bl	HAL_NVIC_SetPriority
 203 0128 0520     		movs	r0, #5
 204              	.L24:
 205 012a FFF7FEFF 		bl	HAL_NVIC_EnableIRQ
 206              	.L11:
 207 012e 0FB0     		add	sp, sp, #60
 208              		@ sp needed
 209 0130 F0BD     		pop	{r4, r5, r6, r7, pc}
 210              	.L23:
 211 0132 0022     		movs	r2, #0
 212 0134 0620     		movs	r0, #6
 213 0136 1100     		movs	r1, r2
 214 0138 FFF7FEFF 		bl	HAL_NVIC_SetPriority
 215 013c 0620     		movs	r0, #6
 216 013e F4E7     		b	.L24
 217              	.L26:
 218              		.align	2
 219              	.L25:
 220 0140 00100240 		.word	1073876992
 221 0144 FFFFDFFF 		.word	-2097153
 223              		.section	.text.hal_gpio_init_out,"ax",%progbits
 224              		.align	1
 225              		.global	hal_gpio_init_out
 226              		.syntax unified
 227              		.code	16
 228              		.thumb_func
 230              	hal_gpio_init_out:
 231              		@ args = 0, pretend = 0, frame = 24
 232              		@ frame_needed = 0, uses_anonymous_args = 0
 233 0000 7FB5     		push	{r0, r1, r2, r3, r4, r5, r6, lr}
ARM GAS  /tmp/cco1JBhJ.s 			page 5


 234 0002 0122     		movs	r2, #1
 235 0004 0292     		str	r2, [sp, #8]
 236 0006 0022     		movs	r2, #0
 237 0008 01AB     		add	r3, sp, #4
 238 000a 1870     		strb	r0, [r3]
 239 000c 481E     		subs	r0, r1, #1
 240 000e 8141     		sbcs	r1, r1, r0
 241 0010 1800     		movs	r0, r3
 242 0012 0392     		str	r2, [sp, #12]
 243 0014 0492     		str	r2, [sp, #16]
 244 0016 0592     		str	r2, [sp, #20]
 245 0018 FFF7FEFF 		bl	gpio_init.constprop.0
 246 001c 07B0     		add	sp, sp, #28
 247              		@ sp needed
 248 001e 00BD     		pop	{pc}
 250              		.section	.text.hal_gpio_init_in,"ax",%progbits
 251              		.align	1
 252              		.global	hal_gpio_init_in
 253              		.syntax unified
 254              		.code	16
 255              		.thumb_func
 257              	hal_gpio_init_in:
 258              		@ args = 0, pretend = 0, frame = 56
 259              		@ frame_needed = 0, uses_anonymous_args = 0
 260 0000 F0B5     		push	{r4, r5, r6, r7, lr}
 261 0002 8FB0     		sub	sp, sp, #60
 262 0004 0091     		str	r1, [sp]
 263 0006 1349     		ldr	r1, .L33
 264 0008 0500     		movs	r5, r0
 265 000a 0800     		movs	r0, r1
 266 000c 0192     		str	r2, [sp, #4]
 267 000e 1A00     		movs	r2, r3
 268 0010 05AB     		add	r3, sp, #20
 269 0012 9C46     		mov	ip, r3
 270 0014 D0C8     		ldmia	r0!, {r4, r6, r7}
 271 0016 D0C3     		stmia	r3!, {r4, r6, r7}
 272 0018 0068     		ldr	r0, [r0]
 273 001a 1031     		adds	r1, r1, #16
 274 001c 1860     		str	r0, [r3]
 275 001e 02AB     		add	r3, sp, #8
 276 0020 1800     		movs	r0, r3
 277 0022 D0C9     		ldmia	r1!, {r4, r6, r7}
 278 0024 D0C0     		stmia	r0!, {r4, r6, r7}
 279 0026 6446     		mov	r4, ip
 280 0028 0199     		ldr	r1, [sp, #4]
 281 002a 09A8     		add	r0, sp, #36
 282 002c 8900     		lsls	r1, r1, #2
 283 002e 0959     		ldr	r1, [r1, r4]
 284 0030 0570     		strb	r5, [r0]
 285 0032 4160     		str	r1, [r0, #4]
 286 0034 0099     		ldr	r1, [sp]
 287 0036 8900     		lsls	r1, r1, #2
 288 0038 CB58     		ldr	r3, [r1, r3]
 289 003a 8360     		str	r3, [r0, #8]
 290 003c 0023     		movs	r3, #0
 291 003e C360     		str	r3, [r0, #12]
 292 0040 0361     		str	r3, [r0, #16]
ARM GAS  /tmp/cco1JBhJ.s 			page 6


 293 0042 9A42     		cmp	r2, r3
 294 0044 00D0     		beq	.L29
 295 0046 1570     		strb	r5, [r2]
 296              	.L29:
 297 0048 0021     		movs	r1, #0
 298 004a FFF7FEFF 		bl	gpio_init.constprop.0
 299 004e 0FB0     		add	sp, sp, #60
 300              		@ sp needed
 301 0050 F0BD     		pop	{r4, r5, r6, r7, pc}
 302              	.L34:
 303 0052 C046     		.align	2
 304              	.L33:
 305 0054 00000000 		.word	.LANCHOR0
 307              		.section	.text.hal_gpio_irq_deatach,"ax",%progbits
 308              		.align	1
 309              		.global	hal_gpio_irq_deatach
 310              		.syntax unified
 311              		.code	16
 312              		.thumb_func
 314              	hal_gpio_irq_deatach:
 315              		@ args = 0, pretend = 0, frame = 0
 316              		@ frame_needed = 0, uses_anonymous_args = 0
 317              		@ link register save eliminated.
 318 0000 0028     		cmp	r0, #0
 319 0002 06D0     		beq	.L35
 320 0004 0F21     		movs	r1, #15
 321 0006 0378     		ldrb	r3, [r0]
 322 0008 024A     		ldr	r2, .L40
 323 000a 0B40     		ands	r3, r1
 324 000c 0021     		movs	r1, #0
 325 000e 9B00     		lsls	r3, r3, #2
 326 0010 9950     		str	r1, [r3, r2]
 327              	.L35:
 328              		@ sp needed
 329 0012 7047     		bx	lr
 330              	.L41:
 331              		.align	2
 332              	.L40:
 333 0014 00000000 		.word	gpio_irq
 335              		.section	.text.hal_gpio_irq_enable,"ax",%progbits
 336              		.align	1
 337              		.global	hal_gpio_irq_enable
 338              		.syntax unified
 339              		.code	16
 340              		.thumb_func
 342              	hal_gpio_irq_enable:
 343              		@ args = 0, pretend = 0, frame = 0
 344              		@ frame_needed = 0, uses_anonymous_args = 0
 345 0000 10B5     		push	{r4, lr}
 346 0002 0520     		movs	r0, #5
 347              		@ sp needed
 348 0004 FFF7FEFF 		bl	HAL_NVIC_EnableIRQ
 349 0008 0620     		movs	r0, #6
 350 000a FFF7FEFF 		bl	HAL_NVIC_EnableIRQ
 351 000e 0720     		movs	r0, #7
 352 0010 FFF7FEFF 		bl	HAL_NVIC_EnableIRQ
 353 0014 10BD     		pop	{r4, pc}
ARM GAS  /tmp/cco1JBhJ.s 			page 7


 355              		.section	.text.hal_gpio_irq_disable,"ax",%progbits
 356              		.align	1
 357              		.global	hal_gpio_irq_disable
 358              		.syntax unified
 359              		.code	16
 360              		.thumb_func
 362              	hal_gpio_irq_disable:
 363              		@ args = 0, pretend = 0, frame = 0
 364              		@ frame_needed = 0, uses_anonymous_args = 0
 365 0000 10B5     		push	{r4, lr}
 366 0002 0520     		movs	r0, #5
 367              		@ sp needed
 368 0004 FFF7FEFF 		bl	HAL_NVIC_DisableIRQ
 369 0008 0620     		movs	r0, #6
 370 000a FFF7FEFF 		bl	HAL_NVIC_DisableIRQ
 371 000e 0720     		movs	r0, #7
 372 0010 FFF7FEFF 		bl	HAL_NVIC_DisableIRQ
 373 0014 10BD     		pop	{r4, pc}
 375              		.section	.text.hal_gpio_set_value,"ax",%progbits
 376              		.align	1
 377              		.global	hal_gpio_set_value
 378              		.syntax unified
 379              		.code	16
 380              		.thumb_func
 382              	hal_gpio_set_value:
 383              		@ args = 0, pretend = 0, frame = 0
 384              		@ frame_needed = 0, uses_anonymous_args = 0
 385 0000 4B1E     		subs	r3, r1, #1
 386 0002 9941     		sbcs	r1, r1, r3
 387 0004 0F23     		movs	r3, #15
 388 0006 CAB2     		uxtb	r2, r1
 389 0008 0121     		movs	r1, #1
 390 000a 0340     		ands	r3, r0
 391 000c 9940     		lsls	r1, r1, r3
 392 000e F023     		movs	r3, #240
 393 0010 8001     		lsls	r0, r0, #6
 394 0012 9B01     		lsls	r3, r3, #6
 395 0014 1840     		ands	r0, r3
 396 0016 A023     		movs	r3, #160
 397 0018 10B5     		push	{r4, lr}
 398 001a DB05     		lsls	r3, r3, #23
 399 001c 89B2     		uxth	r1, r1
 400 001e C018     		adds	r0, r0, r3
 401 0020 FFF7FEFF 		bl	HAL_GPIO_WritePin
 402              		@ sp needed
 403 0024 10BD     		pop	{r4, pc}
 405              		.section	.text.hal_gpio_get_value,"ax",%progbits
 406              		.align	1
 407              		.global	hal_gpio_get_value
 408              		.syntax unified
 409              		.code	16
 410              		.thumb_func
 412              	hal_gpio_get_value:
 413              		@ args = 0, pretend = 0, frame = 0
 414              		@ frame_needed = 0, uses_anonymous_args = 0
 415 0000 0F23     		movs	r3, #15
 416 0002 0121     		movs	r1, #1
ARM GAS  /tmp/cco1JBhJ.s 			page 8


 417 0004 0340     		ands	r3, r0
 418 0006 9940     		lsls	r1, r1, r3
 419 0008 F023     		movs	r3, #240
 420 000a 8001     		lsls	r0, r0, #6
 421 000c 9B01     		lsls	r3, r3, #6
 422 000e 1840     		ands	r0, r3
 423 0010 A023     		movs	r3, #160
 424 0012 DB05     		lsls	r3, r3, #23
 425 0014 10B5     		push	{r4, lr}
 426 0016 C018     		adds	r0, r0, r3
 427 0018 89B2     		uxth	r1, r1
 428 001a FFF7FEFF 		bl	HAL_GPIO_ReadPin
 429              		@ sp needed
 430 001e 431E     		subs	r3, r0, #1
 431 0020 9841     		sbcs	r0, r0, r3
 432 0022 10BD     		pop	{r4, pc}
 434              		.section	.text.hal_gpio_clear_pending_irq,"ax",%progbits
 435              		.align	1
 436              		.global	hal_gpio_clear_pending_irq
 437              		.syntax unified
 438              		.code	16
 439              		.thumb_func
 441              	hal_gpio_clear_pending_irq:
 442              		@ args = 0, pretend = 0, frame = 0
 443              		@ frame_needed = 0, uses_anonymous_args = 0
 444              		@ link register save eliminated.
 445 0000 C023     		movs	r3, #192
 446 0002 0E21     		movs	r1, #14
 447 0004 074A     		ldr	r2, .L53
 448 0006 5B00     		lsls	r3, r3, #1
 449 0008 0842     		tst	r0, r1
 450 000a 07D0     		beq	.L47
 451 000c 0131     		adds	r1, r1, #1
 452 000e 0840     		ands	r0, r1
 453 0010 0238     		subs	r0, r0, #2
 454 0012 4021     		movs	r1, #64
 455 0014 0128     		cmp	r0, #1
 456 0016 02D9     		bls	.L52
 457 0018 8021     		movs	r1, #128
 458 001a 00E0     		b	.L52
 459              	.L47:
 460 001c 2021     		movs	r1, #32
 461              	.L52:
 462              		@ sp needed
 463 001e D150     		str	r1, [r2, r3]
 464 0020 7047     		bx	lr
 465              	.L54:
 466 0022 C046     		.align	2
 467              	.L53:
 468 0024 00E100E0 		.word	-536813312
 470              		.section	.text.EXTI0_1_IRQHandler,"ax",%progbits
 471              		.align	1
 472              		.global	EXTI0_1_IRQHandler
 473              		.syntax unified
 474              		.code	16
 475              		.thumb_func
 477              	EXTI0_1_IRQHandler:
ARM GAS  /tmp/cco1JBhJ.s 			page 9


 478              		@ args = 0, pretend = 0, frame = 0
 479              		@ frame_needed = 0, uses_anonymous_args = 0
 480 0000 10B5     		push	{r4, lr}
 481 0002 0120     		movs	r0, #1
 482              		@ sp needed
 483 0004 FFF7FEFF 		bl	HAL_GPIO_EXTI_IRQHandler
 484 0008 0220     		movs	r0, #2
 485 000a FFF7FEFF 		bl	HAL_GPIO_EXTI_IRQHandler
 486 000e 10BD     		pop	{r4, pc}
 488              		.section	.text.EXTI2_3_IRQHandler,"ax",%progbits
 489              		.align	1
 490              		.global	EXTI2_3_IRQHandler
 491              		.syntax unified
 492              		.code	16
 493              		.thumb_func
 495              	EXTI2_3_IRQHandler:
 496              		@ args = 0, pretend = 0, frame = 0
 497              		@ frame_needed = 0, uses_anonymous_args = 0
 498 0000 10B5     		push	{r4, lr}
 499 0002 0420     		movs	r0, #4
 500              		@ sp needed
 501 0004 FFF7FEFF 		bl	HAL_GPIO_EXTI_IRQHandler
 502 0008 0820     		movs	r0, #8
 503 000a FFF7FEFF 		bl	HAL_GPIO_EXTI_IRQHandler
 504 000e 10BD     		pop	{r4, pc}
 506              		.section	.text.EXTI4_15_IRQHandler,"ax",%progbits
 507              		.align	1
 508              		.global	EXTI4_15_IRQHandler
 509              		.syntax unified
 510              		.code	16
 511              		.thumb_func
 513              	EXTI4_15_IRQHandler:
 514              		@ args = 0, pretend = 0, frame = 0
 515              		@ frame_needed = 0, uses_anonymous_args = 0
 516 0000 10B5     		push	{r4, lr}
 517 0002 1020     		movs	r0, #16
 518              		@ sp needed
 519 0004 FFF7FEFF 		bl	HAL_GPIO_EXTI_IRQHandler
 520 0008 2020     		movs	r0, #32
 521 000a FFF7FEFF 		bl	HAL_GPIO_EXTI_IRQHandler
 522 000e 4020     		movs	r0, #64
 523 0010 FFF7FEFF 		bl	HAL_GPIO_EXTI_IRQHandler
 524 0014 8020     		movs	r0, #128
 525 0016 FFF7FEFF 		bl	HAL_GPIO_EXTI_IRQHandler
 526 001a 8020     		movs	r0, #128
 527 001c 4000     		lsls	r0, r0, #1
 528 001e FFF7FEFF 		bl	HAL_GPIO_EXTI_IRQHandler
 529 0022 8020     		movs	r0, #128
 530 0024 8000     		lsls	r0, r0, #2
 531 0026 FFF7FEFF 		bl	HAL_GPIO_EXTI_IRQHandler
 532 002a 8020     		movs	r0, #128
 533 002c C000     		lsls	r0, r0, #3
 534 002e FFF7FEFF 		bl	HAL_GPIO_EXTI_IRQHandler
 535 0032 8020     		movs	r0, #128
 536 0034 0001     		lsls	r0, r0, #4
 537 0036 FFF7FEFF 		bl	HAL_GPIO_EXTI_IRQHandler
 538 003a 8020     		movs	r0, #128
ARM GAS  /tmp/cco1JBhJ.s 			page 10


 539 003c 4001     		lsls	r0, r0, #5
 540 003e FFF7FEFF 		bl	HAL_GPIO_EXTI_IRQHandler
 541 0042 8020     		movs	r0, #128
 542 0044 8001     		lsls	r0, r0, #6
 543 0046 FFF7FEFF 		bl	HAL_GPIO_EXTI_IRQHandler
 544 004a 8020     		movs	r0, #128
 545 004c C001     		lsls	r0, r0, #7
 546 004e FFF7FEFF 		bl	HAL_GPIO_EXTI_IRQHandler
 547 0052 8020     		movs	r0, #128
 548 0054 0002     		lsls	r0, r0, #8
 549 0056 FFF7FEFF 		bl	HAL_GPIO_EXTI_IRQHandler
 550 005a 10BD     		pop	{r4, pc}
 552              		.section	.text.HAL_GPIO_EXTI_Callback,"ax",%progbits
 553              		.align	1
 554              		.global	HAL_GPIO_EXTI_Callback
 555              		.syntax unified
 556              		.code	16
 557              		.thumb_func
 559              	HAL_GPIO_EXTI_Callback:
 560              		@ args = 0, pretend = 0, frame = 0
 561              		@ frame_needed = 0, uses_anonymous_args = 0
 562 0000 0300     		movs	r3, r0
 563 0002 10B5     		push	{r4, lr}
 564 0004 0028     		cmp	r0, #0
 565 0006 06D0     		beq	.L60
 566 0008 0023     		movs	r3, #0
 567 000a 02E0     		b	.L59
 568              	.L61:
 569 000c 0133     		adds	r3, r3, #1
 570 000e 4008     		lsrs	r0, r0, #1
 571 0010 DBB2     		uxtb	r3, r3
 572              	.L59:
 573 0012 0128     		cmp	r0, #1
 574 0014 FAD1     		bne	.L61
 575              	.L60:
 576 0016 054A     		ldr	r2, .L70
 577 0018 9B00     		lsls	r3, r3, #2
 578 001a 9B58     		ldr	r3, [r3, r2]
 579 001c 002B     		cmp	r3, #0
 580 001e 04D0     		beq	.L58
 581 0020 9A68     		ldr	r2, [r3, #8]
 582 0022 002A     		cmp	r2, #0
 583 0024 01D0     		beq	.L58
 584 0026 5868     		ldr	r0, [r3, #4]
 585 0028 9047     		blx	r2
 586              	.L58:
 587              		@ sp needed
 588 002a 10BD     		pop	{r4, pc}
 589              	.L71:
 590              		.align	2
 591              	.L70:
 592 002c 00000000 		.word	gpio_irq
 594              		.section	.bss.gpio_irq,"aw",%nobits
 595              		.align	2
 598              	gpio_irq:
 599 0000 00000000 		.space	64
 599      00000000 
ARM GAS  /tmp/cco1JBhJ.s 			page 11


 599      00000000 
 599      00000000 
 599      00000000 
 600              		.section	.rodata
 601              		.align	2
 602              		.set	.LANCHOR0,. + 0
 603              	.LC0:
 604 0000 00000000 		.word	0
 605 0004 00001100 		.word	1114112
 606 0008 00002100 		.word	2162688
 607 000c 00003100 		.word	3211264
 608              	.LC1:
 609 0010 00000000 		.word	0
 610 0014 01000000 		.word	1
 611 0018 02000000 		.word	2
 612              		.ident	"GCC: (Arch Repository) 13.2.0"
ARM GAS  /tmp/cco1JBhJ.s 			page 12

