ARM GAS  /tmp/ccsH7dVG.s 			page 1


   1              		.cpu cortex-m0
   2              		.arch armv6s-m
   3              		.fpu softvfp
   4              		.eabi_attribute 23, 1
   5              		.eabi_attribute 24, 1
   6              		.eabi_attribute 25, 1
   7              		.eabi_attribute 26, 1
   8              		.eabi_attribute 30, 4
   9              		.eabi_attribute 34, 0
  10              		.eabi_attribute 18, 4
  11              		.file	"smtc_hal_mcu.c"
  12              		.text
  13              		.global	__aeabi_idiv
  14              		.section	.text.hal_mcu_wait_us,"ax",%progbits
  15              		.align	1
  16              		.p2align 2,,3
  17              		.global	hal_mcu_wait_us
  18              		.syntax unified
  19              		.code	16
  20              		.thumb_func
  22              	hal_mcu_wait_us:
  23              		@ args = 0, pretend = 0, frame = 16
  24              		@ frame_needed = 0, uses_anonymous_args = 0
  25 0000 00B5     		push	{lr}
  26 0002 85B0     		sub	sp, sp, #20
  27 0004 0190     		str	r0, [sp, #4]
  28 0006 019A     		ldr	r2, [sp, #4]
  29 0008 1300     		movs	r3, r2
  30 000a 5B01     		lsls	r3, r3, #5
  31 000c 9B1A     		subs	r3, r3, r2
  32 000e 9B00     		lsls	r3, r3, #2
  33 0010 9B18     		adds	r3, r3, r2
  34 0012 DB00     		lsls	r3, r3, #3
  35 0014 8921     		movs	r1, #137
  36 0016 1800     		movs	r0, r3
  37 0018 FFF7FEFF 		bl	__aeabi_idiv
  38 001c 0300     		movs	r3, r0
  39 001e 0293     		str	r3, [sp, #8]
  40 0020 0023     		movs	r3, #0
  41 0022 0393     		str	r3, [sp, #12]
  42 0024 03E0     		b	.L2
  43              	.L3:
  44              		.syntax divided
  45              	@ 192 "bsp_l0/smtc_hal/smtc_hal_mcu.c" 1
  46 0026 C046     		nop
  47              	@ 0 "" 2
  48              		.thumb
  49              		.syntax unified
  50 0028 039B     		ldr	r3, [sp, #12]
  51 002a 0133     		adds	r3, r3, #1
  52 002c 0393     		str	r3, [sp, #12]
  53              	.L2:
  54 002e 039A     		ldr	r2, [sp, #12]
  55 0030 029B     		ldr	r3, [sp, #8]
  56 0032 9A42     		cmp	r2, r3
  57 0034 F7D3     		bcc	.L3
  58 0036 C046     		nop
ARM GAS  /tmp/ccsH7dVG.s 			page 2


  59 0038 C046     		nop
  60 003a 05B0     		add	sp, sp, #20
  61              		@ sp needed
  62 003c 00BD     		pop	{pc}
  64 003e C046     		.section	.text.wut_cb,"ax",%progbits
  65              		.align	1
  66              		.syntax unified
  67              		.code	16
  68              		.thumb_func
  70              	wut_cb:
  71              		@ args = 0, pretend = 0, frame = 0
  72              		@ frame_needed = 0, uses_anonymous_args = 0
  73              		@ link register save eliminated.
  74 0000 0122     		movs	r2, #1
  75              		@ sp needed
  76 0002 014B     		ldr	r3, .L5
  77 0004 1A70     		strb	r2, [r3]
  78 0006 7047     		bx	lr
  79              	.L6:
  80              		.align	2
  81              	.L5:
  82 0008 00000000 		.word	wut_flag
  84              		.section	.text.hal_mcu_critical_section_begin,"ax",%progbits
  85              		.align	1
  86              		.global	hal_mcu_critical_section_begin
  87              		.syntax unified
  88              		.code	16
  89              		.thumb_func
  91              	hal_mcu_critical_section_begin:
  92              		@ args = 0, pretend = 0, frame = 0
  93              		@ frame_needed = 0, uses_anonymous_args = 0
  94              		@ link register save eliminated.
  95              		.syntax divided
  96              	@ 453 "bsp_l0/mcu_drivers/cmsis/Core/Include/cmsis_gcc.h" 1
  97 0000 EFF31083 		MRS r3, primask
  98              	@ 0 "" 2
  99              		.thumb
 100              		.syntax unified
 101 0004 0360     		str	r3, [r0]
 102              		.syntax divided
 103              	@ 209 "bsp_l0/mcu_drivers/cmsis/Core/Include/cmsis_gcc.h" 1
 104 0006 72B6     		cpsid i
 105              	@ 0 "" 2
 106              		.thumb
 107              		.syntax unified
 108              		@ sp needed
 109 0008 7047     		bx	lr
 111              		.section	.text.hal_mcu_critical_section_end,"ax",%progbits
 112              		.align	1
 113              		.global	hal_mcu_critical_section_end
 114              		.syntax unified
 115              		.code	16
 116              		.thumb_func
 118              	hal_mcu_critical_section_end:
 119              		@ args = 0, pretend = 0, frame = 0
 120              		@ frame_needed = 0, uses_anonymous_args = 0
 121              		@ link register save eliminated.
ARM GAS  /tmp/ccsH7dVG.s 			page 3


 122 0000 0368     		ldr	r3, [r0]
 123              		.syntax divided
 124              	@ 481 "bsp_l0/mcu_drivers/cmsis/Core/Include/cmsis_gcc.h" 1
 125 0002 83F31088 		MSR primask, r3
 126              	@ 0 "" 2
 127              		.thumb
 128              		.syntax unified
 129              		@ sp needed
 130 0006 7047     		bx	lr
 132              		.section	.text.hal_mcu_disable_irq,"ax",%progbits
 133              		.align	1
 134              		.global	hal_mcu_disable_irq
 135              		.syntax unified
 136              		.code	16
 137              		.thumb_func
 139              	hal_mcu_disable_irq:
 140              		@ args = 0, pretend = 0, frame = 0
 141              		@ frame_needed = 0, uses_anonymous_args = 0
 142              		@ link register save eliminated.
 143              		.syntax divided
 144              	@ 209 "bsp_l0/mcu_drivers/cmsis/Core/Include/cmsis_gcc.h" 1
 145 0000 72B6     		cpsid i
 146              	@ 0 "" 2
 147              		.thumb
 148              		.syntax unified
 149              		@ sp needed
 150 0002 7047     		bx	lr
 152              		.section	.text.hal_mcu_enable_irq,"ax",%progbits
 153              		.align	1
 154              		.global	hal_mcu_enable_irq
 155              		.syntax unified
 156              		.code	16
 157              		.thumb_func
 159              	hal_mcu_enable_irq:
 160              		@ args = 0, pretend = 0, frame = 0
 161              		@ frame_needed = 0, uses_anonymous_args = 0
 162              		@ link register save eliminated.
 163              		.syntax divided
 164              	@ 198 "bsp_l0/mcu_drivers/cmsis/Core/Include/cmsis_gcc.h" 1
 165 0000 62B6     		cpsie i
 166              	@ 0 "" 2
 167              		.thumb
 168              		.syntax unified
 169              		@ sp needed
 170 0002 7047     		bx	lr
 172              		.section	.text.hal_mcu_reset,"ax",%progbits
 173              		.align	1
 174              		.global	hal_mcu_reset
 175              		.syntax unified
 176              		.code	16
 177              		.thumb_func
 179              	hal_mcu_reset:
 180              		@ Volatile: function does not return.
 181              		@ args = 0, pretend = 0, frame = 0
 182              		@ frame_needed = 0, uses_anonymous_args = 0
 183              		@ link register save eliminated.
 184              		.syntax divided
ARM GAS  /tmp/ccsH7dVG.s 			page 4


 185              	@ 209 "bsp_l0/mcu_drivers/cmsis/Core/Include/cmsis_gcc.h" 1
 186 0000 72B6     		cpsid i
 187              	@ 0 "" 2
 188              	@ 946 "bsp_l0/mcu_drivers/cmsis/Core/Include/cmsis_gcc.h" 1
 189 0002 BFF34F8F 		dsb 0xF
 190              	@ 0 "" 2
 191              		.thumb
 192              		.syntax unified
 193 0006 034B     		ldr	r3, .L13
 194 0008 034A     		ldr	r2, .L13+4
 195 000a DA60     		str	r2, [r3, #12]
 196              		.syntax divided
 197              	@ 946 "bsp_l0/mcu_drivers/cmsis/Core/Include/cmsis_gcc.h" 1
 198 000c BFF34F8F 		dsb 0xF
 199              	@ 0 "" 2
 200              		.thumb
 201              		.syntax unified
 202              	.L12:
 203              		.syntax divided
 204              	@ 995 "bsp_l0/mcu_drivers/cmsis/Core/Include/core_cm0plus.h" 1
 205 0010 C046     		nop
 206              	@ 0 "" 2
 207              		.thumb
 208              		.syntax unified
 209 0012 FDE7     		b	.L12
 210              	.L14:
 211              		.align	2
 212              	.L13:
 213 0014 00ED00E0 		.word	-536810240
 214 0018 0400FA05 		.word	100270084
 216              		.section	.text.hal_mcu_init,"ax",%progbits
 217              		.align	1
 218              		.global	hal_mcu_init
 219              		.syntax unified
 220              		.code	16
 221              		.thumb_func
 223              	hal_mcu_init:
 224              		@ args = 0, pretend = 0, frame = 112
 225              		@ frame_needed = 0, uses_anonymous_args = 0
 226 0000 F0B5     		push	{r4, r5, r6, r7, lr}
 227 0002 9DB0     		sub	sp, sp, #116
 228 0004 FFF7FEFF 		bl	HAL_Init
 229 0008 3422     		movs	r2, #52
 230 000a 0021     		movs	r1, #0
 231 000c 0EA8     		add	r0, sp, #56
 232 000e FFF7FEFF 		bl	memset
 233 0012 4F4C     		ldr	r4, .L18
 234 0014 1422     		movs	r2, #20
 235 0016 0021     		movs	r1, #0
 236 0018 6846     		mov	r0, sp
 237 001a FFF7FEFF 		bl	memset
 238 001e 2022     		movs	r2, #32
 239 0020 0021     		movs	r1, #0
 240 0022 06A8     		add	r0, sp, #24
 241 0024 FFF7FEFF 		bl	memset
 242 0028 FFF7FEFF 		bl	HAL_PWR_EnableBkUpAccess
 243 002c 236D     		ldr	r3, [r4, #80]
ARM GAS  /tmp/ccsH7dVG.s 			page 5


 244 002e 494A     		ldr	r2, .L18+4
 245 0030 0225     		movs	r5, #2
 246 0032 1340     		ands	r3, r2
 247 0034 2365     		str	r3, [r4, #80]
 248 0036 0E23     		movs	r3, #14
 249 0038 8022     		movs	r2, #128
 250 003a 0E93     		str	r3, [sp, #56]
 251 003c 0123     		movs	r3, #1
 252 003e 5200     		lsls	r2, r2, #1
 253 0040 1092     		str	r2, [sp, #64]
 254 0042 1193     		str	r3, [sp, #68]
 255 0044 0123     		movs	r3, #1
 256 0046 1022     		movs	r2, #16
 257 0048 1292     		str	r2, [sp, #72]
 258 004a 1393     		str	r3, [sp, #76]
 259 004c 0023     		movs	r3, #0
 260 004e 1893     		str	r3, [sp, #96]
 261 0050 8023     		movs	r3, #128
 262 0052 1B03     		lsls	r3, r3, #12
 263 0054 1993     		str	r3, [sp, #100]
 264 0056 8023     		movs	r3, #128
 265 0058 0EA8     		add	r0, sp, #56
 266 005a 1B04     		lsls	r3, r3, #16
 267 005c 1795     		str	r5, [sp, #92]
 268 005e 1A93     		str	r3, [sp, #104]
 269 0060 FFF7FEFF 		bl	HAL_RCC_OscConfig
 270 0064 0028     		cmp	r0, #0
 271 0066 12D0     		beq	.L16
 272              	.L17:
 273 0068 3B4C     		ldr	r4, .L18+8
 274 006a 3C49     		ldr	r1, .L18+12
 275 006c 2500     		movs	r5, r4
 276 006e 2000     		movs	r0, r4
 277 0070 1635     		adds	r5, r5, #22
 278 0072 FFF7FEFF 		bl	hal_trace_print_var
 279 0076 2800     		movs	r0, r5
 280 0078 FFF7FEFF 		bl	hal_trace_print_var
 281 007c 2000     		movs	r0, r4
 282 007e 1730     		adds	r0, r0, #23
 283 0080 FFF7FEFF 		bl	hal_trace_print_var
 284 0084 2800     		movs	r0, r5
 285 0086 FFF7FEFF 		bl	hal_trace_print_var
 286 008a FFF7FEFF 		bl	hal_mcu_reset
 287              	.L16:
 288 008e 0F22     		movs	r2, #15
 289 0090 0323     		movs	r3, #3
 290 0092 0026     		movs	r6, #0
 291 0094 0027     		movs	r7, #0
 292 0096 0490     		str	r0, [sp, #16]
 293 0098 0121     		movs	r1, #1
 294 009a 6846     		mov	r0, sp
 295 009c 0092     		str	r2, [sp]
 296 009e 0193     		str	r3, [sp, #4]
 297 00a0 0296     		str	r6, [sp, #8]
 298 00a2 0397     		str	r7, [sp, #12]
 299 00a4 FFF7FEFF 		bl	HAL_RCC_ClockConfig
 300 00a8 0028     		cmp	r0, #0
ARM GAS  /tmp/ccsH7dVG.s 			page 6


 301 00aa DDD1     		bne	.L17
 302 00ac C023     		movs	r3, #192
 303 00ae 1B03     		lsls	r3, r3, #12
 304 00b0 0D93     		str	r3, [sp, #52]
 305 00b2 8023     		movs	r3, #128
 306 00b4 AB22     		movs	r2, #171
 307 00b6 5B02     		lsls	r3, r3, #9
 308 00b8 0B90     		str	r0, [sp, #44]
 309 00ba 06A8     		add	r0, sp, #24
 310 00bc 0896     		str	r6, [sp, #32]
 311 00be 0997     		str	r7, [sp, #36]
 312 00c0 0692     		str	r2, [sp, #24]
 313 00c2 0793     		str	r3, [sp, #28]
 314 00c4 FFF7FEFF 		bl	HAL_RCCEx_PeriphCLKConfig
 315 00c8 061E     		subs	r6, r0, #0
 316 00ca CDD1     		bne	.L17
 317 00cc 8023     		movs	r3, #128
 318 00ce A26B     		ldr	r2, [r4, #56]
 319 00d0 5B05     		lsls	r3, r3, #21
 320 00d2 1343     		orrs	r3, r2
 321 00d4 A363     		str	r3, [r4, #56]
 322 00d6 8023     		movs	r3, #128
 323 00d8 E268     		ldr	r2, [r4, #12]
 324 00da 1B02     		lsls	r3, r3, #8
 325 00dc 1343     		orrs	r3, r2
 326 00de E360     		str	r3, [r4, #12]
 327 00e0 0121     		movs	r1, #1
 328 00e2 0420     		movs	r0, #4
 329 00e4 FFF7FEFF 		bl	hal_gpio_init_out
 330 00e8 3300     		movs	r3, r6
 331 00ea 3200     		movs	r2, r6
 332 00ec 3100     		movs	r1, r6
 333 00ee 0720     		movs	r0, #7
 334 00f0 FFF7FEFF 		bl	hal_gpio_init_in
 335 00f4 0122     		movs	r2, #1
 336 00f6 3300     		movs	r3, r6
 337 00f8 1000     		movs	r0, r2
 338 00fa 2900     		movs	r1, r5
 339 00fc FFF7FEFF 		bl	hal_gpio_init_in
 340 0100 0121     		movs	r1, #1
 341 0102 2220     		movs	r0, #34
 342 0104 FFF7FEFF 		bl	hal_gpio_init_out
 343 0108 FFF7FEFF 		bl	uart1_init
 344 010c FFF7FEFF 		bl	hal_lp_timer_init
 345 0110 1A23     		movs	r3, #26
 346 0112 2800     		movs	r0, r5
 347 0114 1E22     		movs	r2, #30
 348 0116 1F21     		movs	r1, #31
 349 0118 FFF7FEFF 		bl	hal_spi_init
 350 011c FFF7FEFF 		bl	hal_rtc_init
 351 0120 FFF7FEFF 		bl	hal_rng_init
 352 0124 1622     		movs	r2, #22
 353 0126 1921     		movs	r1, #25
 354 0128 0120     		movs	r0, #1
 355 012a FFF7FEFF 		bl	hal_i2c_init
 356 012e 1422     		movs	r2, #20
 357 0130 1323     		movs	r3, #19
ARM GAS  /tmp/ccsH7dVG.s 			page 7


 358 0132 1521     		movs	r1, #21
 359 0134 0120     		movs	r0, #1
 360 0136 FFF7FEFF 		bl	hal_spi_init
 361 013a 0949     		ldr	r1, .L18+16
 362 013c 0948     		ldr	r0, .L18+20
 363 013e FFF7FEFF 		bl	TimerInit
 364 0142 094B     		ldr	r3, .L18+24
 365 0144 1E70     		strb	r6, [r3]
 366 0146 FFF7FEFF 		bl	hal_watchdog_init
 367 014a 1DB0     		add	sp, sp, #116
 368              		@ sp needed
 369 014c F0BD     		pop	{r4, r5, r6, r7, pc}
 370              	.L19:
 371 014e C046     		.align	2
 372              	.L18:
 373 0150 00100240 		.word	1073876992
 374 0154 FFE7FFFF 		.word	-6145
 375 0158 00000000 		.word	.LANCHOR0
 376 015c 00000000 		.word	__func__.1
 377 0160 00000000 		.word	wut_cb
 378 0164 00000000 		.word	wut
 379 0168 00000000 		.word	wut_flag
 381              		.section	.text.hal_mcu_set_sleep_for_ms,"ax",%progbits
 382              		.align	1
 383              		.global	hal_mcu_set_sleep_for_ms
 384              		.syntax unified
 385              		.code	16
 386              		.thumb_func
 388              	hal_mcu_set_sleep_for_ms:
 389              		@ args = 0, pretend = 0, frame = 88
 390              		@ frame_needed = 0, uses_anonymous_args = 0
 391 0000 F0B5     		push	{r4, r5, r6, r7, lr}
 392 0002 0400     		movs	r4, r0
 393 0004 97B0     		sub	sp, sp, #92
 394 0006 0028     		cmp	r0, #0
 395 0008 05DD     		ble	.L20
 396 000a 544D     		ldr	r5, .L36
 397 000c 2B78     		ldrb	r3, [r5]
 398 000e 022B     		cmp	r3, #2
 399 0010 03D1     		bne	.L23
 400 0012 0023     		movs	r3, #0
 401 0014 2B70     		strb	r3, [r5]
 402              	.L20:
 403 0016 17B0     		add	sp, sp, #92
 404              		@ sp needed
 405 0018 F0BD     		pop	{r4, r5, r6, r7, pc}
 406              	.L23:
 407 001a FFF7FEFF 		bl	watchdog_reload
 408 001e 2B78     		ldrb	r3, [r5]
 409 0020 002B     		cmp	r3, #0
 410 0022 F8D1     		bne	.L20
 411 0024 0125     		movs	r5, #1
 412              	.L30:
 413 0026 4E4B     		ldr	r3, .L36+4
 414 0028 4E49     		ldr	r1, .L36+8
 415 002a 0093     		str	r3, [sp]
 416 002c 8C42     		cmp	r4, r1
ARM GAS  /tmp/ccsH7dVG.s 			page 8


 417 002e 56DD     		ble	.L25
 418 0030 4D4B     		ldr	r3, .L36+12
 419 0032 0098     		ldr	r0, [sp]
 420 0034 E418     		adds	r4, r4, r3
 421 0036 FFF7FEFF 		bl	TimerSetValue
 422 003a 0023     		movs	r3, #0
 423 003c 0193     		str	r3, [sp, #4]
 424              	.L26:
 425 003e 0026     		movs	r6, #0
 426 0040 4A4F     		ldr	r7, .L36+16
 427 0042 0098     		ldr	r0, [sp]
 428 0044 3E70     		strb	r6, [r7]
 429 0046 FFF7FEFF 		bl	TimerStart
 430 004a FFF7FEFF 		bl	HAL_SuspendTick
 431              		.syntax divided
 432              	@ 209 "bsp_l0/mcu_drivers/cmsis/Core/Include/cmsis_gcc.h" 1
 433 004e 72B6     		cpsid i
 434              	@ 0 "" 2
 435              		.thumb
 436              		.syntax unified
 437 0050 09A8     		add	r0, sp, #36
 438 0052 FFF7FEFF 		bl	hal_mcu_critical_section_begin
 439 0056 0220     		movs	r0, #2
 440 0058 FFF7FEFF 		bl	hal_spi_de_init
 441 005c FFF7FEFF 		bl	uart1_deinit
 442 0060 2800     		movs	r0, r5
 443 0062 FFF7FEFF 		bl	hal_i2c_deinit
 444 0066 2800     		movs	r0, r5
 445 0068 FFF7FEFF 		bl	hal_spi_de_init
 446 006c 2900     		movs	r1, r5
 447 006e 2800     		movs	r0, r5
 448 0070 FFF7FEFF 		bl	HAL_PWR_EnterSTOPMode
 449 0074 099B     		ldr	r3, [sp, #36]
 450              		.syntax divided
 451              	@ 481 "bsp_l0/mcu_drivers/cmsis/Core/Include/cmsis_gcc.h" 1
 452 0076 83F31088 		MSR primask, r3
 453              	@ 0 "" 2
 454              		.thumb
 455              		.syntax unified
 456 007a 02A8     		add	r0, sp, #8
 457 007c FFF7FEFF 		bl	hal_mcu_critical_section_begin
 458 0080 3100     		movs	r1, r6
 459 0082 1422     		movs	r2, #20
 460 0084 04A8     		add	r0, sp, #16
 461 0086 FFF7FEFF 		bl	memset
 462 008a 3100     		movs	r1, r6
 463 008c 3422     		movs	r2, #52
 464 008e 09A8     		add	r0, sp, #36
 465 0090 FFF7FEFF 		bl	memset
 466 0094 8023     		movs	r3, #128
 467 0096 364A     		ldr	r2, .L36+20
 468 0098 0396     		str	r6, [sp, #12]
 469 009a 916B     		ldr	r1, [r2, #56]
 470 009c 5B05     		lsls	r3, r3, #21
 471 009e 0B43     		orrs	r3, r1
 472 00a0 09A8     		add	r0, sp, #36
 473 00a2 9363     		str	r3, [r2, #56]
ARM GAS  /tmp/ccsH7dVG.s 			page 9


 474 00a4 FFF7FEFF 		bl	HAL_RCC_GetOscConfig
 475 00a8 0996     		str	r6, [sp, #36]
 476 00aa 09A8     		add	r0, sp, #36
 477 00ac 0236     		adds	r6, r6, #2
 478 00ae 1296     		str	r6, [sp, #72]
 479 00b0 FFF7FEFF 		bl	HAL_RCC_OscConfig
 480 00b4 0028     		cmp	r0, #0
 481 00b6 18D0     		beq	.L27
 482              	.L28:
 483 00b8 2E4C     		ldr	r4, .L36+24
 484 00ba 2F49     		ldr	r1, .L36+28
 485 00bc 2500     		movs	r5, r4
 486 00be 2000     		movs	r0, r4
 487 00c0 1635     		adds	r5, r5, #22
 488 00c2 FFF7FEFF 		bl	hal_trace_print_var
 489 00c6 2800     		movs	r0, r5
 490 00c8 FFF7FEFF 		bl	hal_trace_print_var
 491 00cc 2000     		movs	r0, r4
 492 00ce 1730     		adds	r0, r0, #23
 493 00d0 FFF7FEFF 		bl	hal_trace_print_var
 494 00d4 2800     		movs	r0, r5
 495 00d6 FFF7FEFF 		bl	hal_trace_print_var
 496 00da FFF7FEFF 		bl	hal_mcu_reset
 497              	.L25:
 498 00de 2100     		movs	r1, r4
 499 00e0 0098     		ldr	r0, [sp]
 500 00e2 FFF7FEFF 		bl	TimerSetValue
 501 00e6 0195     		str	r5, [sp, #4]
 502 00e8 A9E7     		b	.L26
 503              	.L27:
 504 00ea 03A9     		add	r1, sp, #12
 505 00ec 04A8     		add	r0, sp, #16
 506 00ee FFF7FEFF 		bl	HAL_RCC_GetClockConfig
 507 00f2 0122     		movs	r2, #1
 508 00f4 0323     		movs	r3, #3
 509 00f6 0399     		ldr	r1, [sp, #12]
 510 00f8 04A8     		add	r0, sp, #16
 511 00fa 0492     		str	r2, [sp, #16]
 512 00fc 0593     		str	r3, [sp, #20]
 513 00fe FFF7FEFF 		bl	HAL_RCC_ClockConfig
 514 0102 0028     		cmp	r0, #0
 515 0104 D8D1     		bne	.L28
 516 0106 FFF7FEFF 		bl	uart1_init
 517 010a 2800     		movs	r0, r5
 518 010c 1622     		movs	r2, #22
 519 010e 1921     		movs	r1, #25
 520 0110 FFF7FEFF 		bl	hal_i2c_init
 521 0114 2800     		movs	r0, r5
 522 0116 1323     		movs	r3, #19
 523 0118 1422     		movs	r2, #20
 524 011a 1521     		movs	r1, #21
 525 011c FFF7FEFF 		bl	hal_spi_init
 526 0120 1A23     		movs	r3, #26
 527 0122 1E22     		movs	r2, #30
 528 0124 1F21     		movs	r1, #31
 529 0126 3000     		movs	r0, r6
 530 0128 FFF7FEFF 		bl	hal_spi_init
ARM GAS  /tmp/ccsH7dVG.s 			page 10


 531 012c 029B     		ldr	r3, [sp, #8]
 532              		.syntax divided
 533              	@ 481 "bsp_l0/mcu_drivers/cmsis/Core/Include/cmsis_gcc.h" 1
 534 012e 83F31088 		MSR primask, r3
 535              	@ 0 "" 2
 536              	@ 198 "bsp_l0/mcu_drivers/cmsis/Core/Include/cmsis_gcc.h" 1
 537 0132 62B6     		cpsie i
 538              	@ 0 "" 2
 539              		.thumb
 540              		.syntax unified
 541 0134 FFF7FEFF 		bl	HAL_ResumeTick
 542 0138 FFF7FEFF 		bl	watchdog_reload
 543 013c 3B78     		ldrb	r3, [r7]
 544 013e 002B     		cmp	r3, #0
 545 0140 03D0     		beq	.L29
 546 0142 019B     		ldr	r3, [sp, #4]
 547 0144 002B     		cmp	r3, #0
 548 0146 00D1     		bne	.LCB468
 549 0148 6DE7     		b	.L30	@long jump
 550              	.LCB468:
 551              	.L29:
 552 014a 3B78     		ldrb	r3, [r7]
 553 014c 002B     		cmp	r3, #0
 554 014e 00D0     		beq	.LCB473
 555 0150 61E7     		b	.L20	@long jump
 556              	.LCB473:
 557 0152 0348     		ldr	r0, .L36+4
 558 0154 FFF7FEFF 		bl	TimerStop
 559 0158 5DE7     		b	.L20
 560              	.L37:
 561 015a C046     		.align	2
 562              	.L36:
 563 015c 00000000 		.word	lp_current_mode
 564 0160 00000000 		.word	wut
 565 0164 204E0000 		.word	20000
 566 0168 E0B1FFFF 		.word	-20000
 567 016c 00000000 		.word	wut_flag
 568 0170 00100240 		.word	1073876992
 569 0174 00000000 		.word	.LANCHOR0
 570 0178 00000000 		.word	__func__.0
 572              		.section	.text.hal_mcu_disable_low_power_wait,"ax",%progbits
 573              		.align	1
 574              		.global	hal_mcu_disable_low_power_wait
 575              		.syntax unified
 576              		.code	16
 577              		.thumb_func
 579              	hal_mcu_disable_low_power_wait:
 580              		@ args = 0, pretend = 0, frame = 0
 581              		@ frame_needed = 0, uses_anonymous_args = 0
 582              		@ link register save eliminated.
 583 0000 0122     		movs	r2, #1
 584              		@ sp needed
 585 0002 024B     		ldr	r3, .L39
 586 0004 1A70     		strb	r2, [r3]
 587 0006 024B     		ldr	r3, .L39+4
 588 0008 1A70     		strb	r2, [r3]
 589 000a 7047     		bx	lr
ARM GAS  /tmp/ccsH7dVG.s 			page 11


 590              	.L40:
 591              		.align	2
 592              	.L39:
 593 000c 00000000 		.word	exit_wait
 594 0010 00000000 		.word	lp_current_mode
 596              		.section	.text.hal_mcu_enable_low_power_wait,"ax",%progbits
 597              		.align	1
 598              		.global	hal_mcu_enable_low_power_wait
 599              		.syntax unified
 600              		.code	16
 601              		.thumb_func
 603              	hal_mcu_enable_low_power_wait:
 604              		@ args = 0, pretend = 0, frame = 0
 605              		@ frame_needed = 0, uses_anonymous_args = 0
 606              		@ link register save eliminated.
 607 0000 0022     		movs	r2, #0
 608              		@ sp needed
 609 0002 024B     		ldr	r3, .L42
 610 0004 1A70     		strb	r2, [r3]
 611 0006 024B     		ldr	r3, .L42+4
 612 0008 1A70     		strb	r2, [r3]
 613 000a 7047     		bx	lr
 614              	.L43:
 615              		.align	2
 616              	.L42:
 617 000c 00000000 		.word	exit_wait
 618 0010 00000000 		.word	lp_current_mode
 620              		.section	.text.hal_mcu_disable_once_low_power_wait,"ax",%progbits
 621              		.align	1
 622              		.global	hal_mcu_disable_once_low_power_wait
 623              		.syntax unified
 624              		.code	16
 625              		.thumb_func
 627              	hal_mcu_disable_once_low_power_wait:
 628              		@ args = 0, pretend = 0, frame = 0
 629              		@ frame_needed = 0, uses_anonymous_args = 0
 630              		@ link register save eliminated.
 631 0000 0122     		movs	r2, #1
 632              		@ sp needed
 633 0002 034B     		ldr	r3, .L45
 634 0004 1A70     		strb	r2, [r3]
 635 0006 034B     		ldr	r3, .L45+4
 636 0008 9218     		adds	r2, r2, r2
 637 000a 1A70     		strb	r2, [r3]
 638 000c 7047     		bx	lr
 639              	.L46:
 640 000e C046     		.align	2
 641              	.L45:
 642 0010 00000000 		.word	exit_wait
 643 0014 00000000 		.word	lp_current_mode
 645              		.section	.text.SysTick_Handler,"ax",%progbits
 646              		.align	1
 647              		.global	SysTick_Handler
 648              		.syntax unified
 649              		.code	16
 650              		.thumb_func
 652              	SysTick_Handler:
ARM GAS  /tmp/ccsH7dVG.s 			page 12


 653              		@ args = 0, pretend = 0, frame = 0
 654              		@ frame_needed = 0, uses_anonymous_args = 0
 655 0000 10B5     		push	{r4, lr}
 656 0002 FFF7FEFF 		bl	HAL_IncTick
 657              		@ sp needed
 658 0006 FFF7FEFF 		bl	HAL_SYSTICK_IRQHandler
 659 000a 10BD     		pop	{r4, pc}
 661              		.section	.text.HAL_MspInit,"ax",%progbits
 662              		.align	1
 663              		.global	HAL_MspInit
 664              		.syntax unified
 665              		.code	16
 666              		.thumb_func
 668              	HAL_MspInit:
 669              		@ args = 0, pretend = 0, frame = 0
 670              		@ frame_needed = 0, uses_anonymous_args = 0
 671 0000 0022     		movs	r2, #0
 672 0002 0120     		movs	r0, #1
 673 0004 10B5     		push	{r4, lr}
 674 0006 1100     		movs	r1, r2
 675              		@ sp needed
 676 0008 4042     		rsbs	r0, r0, #0
 677 000a FFF7FEFF 		bl	HAL_NVIC_SetPriority
 678 000e 10BD     		pop	{r4, pc}
 680              		.section	.text.hal_mcu_delay_ms,"ax",%progbits
 681              		.align	1
 682              		.global	hal_mcu_delay_ms
 683              		.syntax unified
 684              		.code	16
 685              		.thumb_func
 687              	hal_mcu_delay_ms:
 688              		@ args = 0, pretend = 0, frame = 0
 689              		@ frame_needed = 0, uses_anonymous_args = 0
 690 0000 10B5     		push	{r4, lr}
 691 0002 FFF7FEFF 		bl	HAL_Delay
 692              		@ sp needed
 693 0006 10BD     		pop	{r4, pc}
 695              		.section	.text.HardFault_Handler,"ax",%progbits
 696              		.align	1
 697              		.global	HardFault_Handler
 698              		.syntax unified
 699              		.code	16
 700              		.thumb_func
 702              	HardFault_Handler:
 703              		@ Volatile: function does not return.
 704              		@ args = 0, pretend = 0, frame = 0
 705              		@ frame_needed = 0, uses_anonymous_args = 0
 706 0000 70B5     		push	{r4, r5, r6, lr}
 707 0002 0C4C     		ldr	r4, .L52
 708 0004 0C48     		ldr	r0, .L52+4
 709 0006 2500     		movs	r5, r4
 710 0008 1635     		adds	r5, r5, #22
 711 000a FFF7FEFF 		bl	hal_trace_print_var
 712 000e 2800     		movs	r0, r5
 713 0010 FFF7FEFF 		bl	hal_trace_print_var
 714 0014 2000     		movs	r0, r4
 715 0016 3130     		adds	r0, r0, #49
ARM GAS  /tmp/ccsH7dVG.s 			page 13


 716 0018 FFF7FEFF 		bl	hal_trace_print_var
 717 001c 2800     		movs	r0, r5
 718 001e FFF7FEFF 		bl	hal_trace_print_var
 719 0022 2000     		movs	r0, r4
 720 0024 4C30     		adds	r0, r0, #76
 721 0026 FFF7FEFF 		bl	hal_trace_print_var
 722 002a 2800     		movs	r0, r5
 723 002c FFF7FEFF 		bl	hal_trace_print_var
 724              	.L51:
 725 0030 FEE7     		b	.L51
 726              	.L53:
 727 0032 C046     		.align	2
 728              	.L52:
 729 0034 00000000 		.word	.LANCHOR0
 730 0038 22000000 		.word	.LANCHOR0+34
 732              		.section	.rodata.__func__.0,"a"
 735              	__func__.0:
 736 0000 6C706D5F 		.ascii	"lpm_mcu_reinit\000"
 736      6D63755F 
 736      7265696E 
 736      697400
 737              		.section	.rodata.__func__.1,"a"
 740              	__func__.1:
 741 0000 73797374 		.ascii	"system_clock_config\000"
 741      656D5F63 
 741      6C6F636B 
 741      5F636F6E 
 741      66696700 
 742              		.section	.bss.wut_flag,"aw",%nobits
 745              	wut_flag:
 746 0000 00       		.space	1
 747              		.section	.bss.wut,"aw",%nobits
 748              		.align	2
 751              	wut:
 752 0000 00000000 		.space	24
 752      00000000 
 752      00000000 
 752      00000000 
 752      00000000 
 753              		.section	.bss.lp_current_mode,"aw",%nobits
 756              	lp_current_mode:
 757 0000 00       		.space	1
 758              		.section	.bss.exit_wait,"aw",%nobits
 761              	exit_wait:
 762 0000 00       		.space	1
 763              		.section	.rodata
 764              		.set	.LANCHOR0,. + 0
 765              	.LC2:
 766 0000 4552524F 		.ascii	"ERROR: mcu_panic:%s\012\015\000"
 766      523A206D 
 766      63755F70 
 766      616E6963 
 766      3A25730A 
 767              	.LC4:
 768 0016 00       		.ascii	"\000"
 769              	.LC5:
 770 0017 4552524F 		.ascii	"ERROR: -> \000"
ARM GAS  /tmp/ccsH7dVG.s 			page 14


 770      523A202D 
 770      3E2000
 771              	.LC24:
 772 0022 4552524F 		.ascii	"ERROR: \033[0;31m\000"
 772      523A201B 
 772      5B303B33 
 772      316D00
 773              	.LC26:
 774 0031 4552524F 		.ascii	"ERROR: HARDFAULT_Handler\012\015\000"
 774      523A2048 
 774      41524446 
 774      41554C54 
 774      5F48616E 
 775              	.LC27:
 776 004c 4552524F 		.ascii	"ERROR: \033[0m\000"
 776      523A201B 
 776      5B306D00 
 777              		.ident	"GCC: (Arch Repository) 13.2.0"
ARM GAS  /tmp/ccsH7dVG.s 			page 15


DEFINED SYMBOLS
                            *ABS*:00000000 smtc_hal_mcu.c
     /tmp/ccsH7dVG.s:15     .text.hal_mcu_wait_us:00000000 $t
     /tmp/ccsH7dVG.s:22     .text.hal_mcu_wait_us:00000000 hal_mcu_wait_us
     /tmp/ccsH7dVG.s:65     .text.wut_cb:00000000 $t
     /tmp/ccsH7dVG.s:70     .text.wut_cb:00000000 wut_cb
     /tmp/ccsH7dVG.s:82     .text.wut_cb:00000008 $d
     /tmp/ccsH7dVG.s:745    .bss.wut_flag:00000000 wut_flag
     /tmp/ccsH7dVG.s:85     .text.hal_mcu_critical_section_begin:00000000 $t
     /tmp/ccsH7dVG.s:91     .text.hal_mcu_critical_section_begin:00000000 hal_mcu_critical_section_begin
     /tmp/ccsH7dVG.s:112    .text.hal_mcu_critical_section_end:00000000 $t
     /tmp/ccsH7dVG.s:118    .text.hal_mcu_critical_section_end:00000000 hal_mcu_critical_section_end
     /tmp/ccsH7dVG.s:133    .text.hal_mcu_disable_irq:00000000 $t
     /tmp/ccsH7dVG.s:139    .text.hal_mcu_disable_irq:00000000 hal_mcu_disable_irq
     /tmp/ccsH7dVG.s:153    .text.hal_mcu_enable_irq:00000000 $t
     /tmp/ccsH7dVG.s:159    .text.hal_mcu_enable_irq:00000000 hal_mcu_enable_irq
     /tmp/ccsH7dVG.s:173    .text.hal_mcu_reset:00000000 $t
     /tmp/ccsH7dVG.s:179    .text.hal_mcu_reset:00000000 hal_mcu_reset
     /tmp/ccsH7dVG.s:213    .text.hal_mcu_reset:00000014 $d
     /tmp/ccsH7dVG.s:217    .text.hal_mcu_init:00000000 $t
     /tmp/ccsH7dVG.s:223    .text.hal_mcu_init:00000000 hal_mcu_init
     /tmp/ccsH7dVG.s:373    .text.hal_mcu_init:00000150 $d
     /tmp/ccsH7dVG.s:740    .rodata.__func__.1:00000000 __func__.1
     /tmp/ccsH7dVG.s:751    .bss.wut:00000000 wut
     /tmp/ccsH7dVG.s:382    .text.hal_mcu_set_sleep_for_ms:00000000 $t
     /tmp/ccsH7dVG.s:388    .text.hal_mcu_set_sleep_for_ms:00000000 hal_mcu_set_sleep_for_ms
     /tmp/ccsH7dVG.s:563    .text.hal_mcu_set_sleep_for_ms:0000015c $d
     /tmp/ccsH7dVG.s:756    .bss.lp_current_mode:00000000 lp_current_mode
     /tmp/ccsH7dVG.s:735    .rodata.__func__.0:00000000 __func__.0
     /tmp/ccsH7dVG.s:573    .text.hal_mcu_disable_low_power_wait:00000000 $t
     /tmp/ccsH7dVG.s:579    .text.hal_mcu_disable_low_power_wait:00000000 hal_mcu_disable_low_power_wait
     /tmp/ccsH7dVG.s:593    .text.hal_mcu_disable_low_power_wait:0000000c $d
     /tmp/ccsH7dVG.s:761    .bss.exit_wait:00000000 exit_wait
     /tmp/ccsH7dVG.s:597    .text.hal_mcu_enable_low_power_wait:00000000 $t
     /tmp/ccsH7dVG.s:603    .text.hal_mcu_enable_low_power_wait:00000000 hal_mcu_enable_low_power_wait
     /tmp/ccsH7dVG.s:617    .text.hal_mcu_enable_low_power_wait:0000000c $d
     /tmp/ccsH7dVG.s:621    .text.hal_mcu_disable_once_low_power_wait:00000000 $t
     /tmp/ccsH7dVG.s:627    .text.hal_mcu_disable_once_low_power_wait:00000000 hal_mcu_disable_once_low_power_wait
     /tmp/ccsH7dVG.s:642    .text.hal_mcu_disable_once_low_power_wait:00000010 $d
     /tmp/ccsH7dVG.s:646    .text.SysTick_Handler:00000000 $t
     /tmp/ccsH7dVG.s:652    .text.SysTick_Handler:00000000 SysTick_Handler
     /tmp/ccsH7dVG.s:662    .text.HAL_MspInit:00000000 $t
     /tmp/ccsH7dVG.s:668    .text.HAL_MspInit:00000000 HAL_MspInit
     /tmp/ccsH7dVG.s:681    .text.hal_mcu_delay_ms:00000000 $t
     /tmp/ccsH7dVG.s:687    .text.hal_mcu_delay_ms:00000000 hal_mcu_delay_ms
     /tmp/ccsH7dVG.s:696    .text.HardFault_Handler:00000000 $t
     /tmp/ccsH7dVG.s:702    .text.HardFault_Handler:00000000 HardFault_Handler
     /tmp/ccsH7dVG.s:729    .text.HardFault_Handler:00000034 $d
     /tmp/ccsH7dVG.s:746    .bss.wut_flag:00000000 $d
     /tmp/ccsH7dVG.s:748    .bss.wut:00000000 $d
     /tmp/ccsH7dVG.s:757    .bss.lp_current_mode:00000000 $d
     /tmp/ccsH7dVG.s:762    .bss.exit_wait:00000000 $d

UNDEFINED SYMBOLS
__aeabi_idiv
HAL_Init
memset
ARM GAS  /tmp/ccsH7dVG.s 			page 16


HAL_PWR_EnableBkUpAccess
HAL_RCC_OscConfig
hal_trace_print_var
HAL_RCC_ClockConfig
HAL_RCCEx_PeriphCLKConfig
hal_gpio_init_out
hal_gpio_init_in
uart1_init
hal_lp_timer_init
hal_spi_init
hal_rtc_init
hal_rng_init
hal_i2c_init
TimerInit
hal_watchdog_init
watchdog_reload
TimerSetValue
TimerStart
HAL_SuspendTick
hal_spi_de_init
uart1_deinit
hal_i2c_deinit
HAL_PWR_EnterSTOPMode
HAL_RCC_GetOscConfig
HAL_RCC_GetClockConfig
HAL_ResumeTick
TimerStop
HAL_IncTick
HAL_SYSTICK_IRQHandler
HAL_NVIC_SetPriority
HAL_Delay
