ARM GAS  /tmp/ccw9i17x.s 			page 1


   1              		.cpu cortex-m0
   2              		.arch armv6s-m
   3              		.fpu softvfp
   4              		.eabi_attribute 23, 1
   5              		.eabi_attribute 24, 1
   6              		.eabi_attribute 25, 1
   7              		.eabi_attribute 26, 1
   8              		.eabi_attribute 30, 4
   9              		.eabi_attribute 34, 0
  10              		.eabi_attribute 18, 4
  11              		.file	"smtc_hal_spi.c"
  12              		.text
  13              		.section	.rodata.hal_spi_init.str1.1,"aMS",%progbits,1
  14              	.LC3:
  15 0000 4552524F 		.ascii	"ERROR: mcu_panic:%s\012\015\000"
  15      523A206D 
  15      63755F70 
  15      616E6963 
  15      3A25730A 
  16              	.LC5:
  17 0016 00       		.ascii	"\000"
  18              	.LC7:
  19 0017 4552524F 		.ascii	"ERROR: -> \000"
  19      523A202D 
  19      3E2000
  20              		.section	.text.hal_spi_init,"ax",%progbits
  21              		.align	1
  22              		.global	hal_spi_init
  23              		.syntax unified
  24              		.code	16
  25              		.thumb_func
  27              	hal_spi_init:
  28              		@ args = 0, pretend = 0, frame = 8
  29              		@ frame_needed = 0, uses_anonymous_args = 0
  30 0000 F7B5     		push	{r0, r1, r2, r4, r5, r6, r7, lr}
  31 0002 6025     		movs	r5, #96
  32 0004 471E     		subs	r7, r0, #1
  33 0006 7D43     		muls	r5, r7
  34 0008 224E     		ldr	r6, .L6
  35 000a 0193     		str	r3, [sp, #4]
  36 000c A859     		ldr	r0, [r5, r6]
  37 000e 7419     		adds	r4, r6, r5
  38 0010 6060     		str	r0, [r4, #4]
  39 0012 8220     		movs	r0, #130
  40 0014 8023     		movs	r3, #128
  41 0016 4000     		lsls	r0, r0, #1
  42 0018 A060     		str	r0, [r4, #8]
  43 001a 9B00     		lsls	r3, r3, #2
  44 001c 0020     		movs	r0, #0
  45 001e E361     		str	r3, [r4, #28]
  46 0020 F13B     		subs	r3, r3, #241
  47 0022 FF3B     		subs	r3, r3, #255
  48 0024 2362     		str	r3, [r4, #32]
  49 0026 0092     		str	r2, [sp]
  50 0028 0023     		movs	r3, #0
  51 002a 0022     		movs	r2, #0
  52 002c E060     		str	r0, [r4, #12]
ARM GAS  /tmp/ccw9i17x.s 			page 2


  53 002e 2061     		str	r0, [r4, #16]
  54 0030 6061     		str	r0, [r4, #20]
  55 0032 A061     		str	r0, [r4, #24]
  56 0034 6062     		str	r0, [r4, #36]
  57 0036 1848     		ldr	r0, .L6+4
  58 0038 2818     		adds	r0, r5, r0
  59 003a 0260     		str	r2, [r0]
  60 003c 4360     		str	r3, [r0, #4]
  61 003e 0720     		movs	r0, #7
  62 0040 2063     		str	r0, [r4, #48]
  63 0042 2000     		movs	r0, r4
  64 0044 5C30     		adds	r0, r0, #92
  65 0046 0170     		strb	r1, [r0]
  66 0048 2100     		movs	r1, r4
  67 004a 009B     		ldr	r3, [sp]
  68 004c 5D31     		adds	r1, r1, #93
  69 004e 0B70     		strb	r3, [r1]
  70 0050 0435     		adds	r5, r5, #4
  71 0052 019B     		ldr	r3, [sp, #4]
  72 0054 5E34     		adds	r4, r4, #94
  73 0056 A819     		adds	r0, r5, r6
  74 0058 2370     		strb	r3, [r4]
  75 005a FFF7FEFF 		bl	HAL_SPI_Init
  76 005e 0028     		cmp	r0, #0
  77 0060 0FD0     		beq	.L2
  78 0062 0E49     		ldr	r1, .L6+8
  79 0064 0E48     		ldr	r0, .L6+12
  80 0066 FFF7FEFF 		bl	hal_trace_print_var
  81 006a 0E4C     		ldr	r4, .L6+16
  82 006c 2000     		movs	r0, r4
  83 006e FFF7FEFF 		bl	hal_trace_print_var
  84 0072 0D48     		ldr	r0, .L6+20
  85 0074 FFF7FEFF 		bl	hal_trace_print_var
  86 0078 2000     		movs	r0, r4
  87 007a FFF7FEFF 		bl	hal_trace_print_var
  88 007e FFF7FEFF 		bl	hal_mcu_reset
  89              	.L2:
  90              		@ sp needed
  91 0082 6023     		movs	r3, #96
  92 0084 7B43     		muls	r3, r7
  93 0086 F618     		adds	r6, r6, r3
  94 0088 4023     		movs	r3, #64
  95 008a 7268     		ldr	r2, [r6, #4]
  96 008c 1168     		ldr	r1, [r2]
  97 008e 0B43     		orrs	r3, r1
  98 0090 1360     		str	r3, [r2]
  99 0092 F7BD     		pop	{r0, r1, r2, r4, r5, r6, r7, pc}
 100              	.L7:
 101              		.align	2
 102              	.L6:
 103 0094 00000000 		.word	spi_periph
 104 0098 28000000 		.word	spi_periph+40
 105 009c 00000000 		.word	__func__.2
 106 00a0 00000000 		.word	.LC3
 107 00a4 16000000 		.word	.LC5
 108 00a8 17000000 		.word	.LC7
 110              		.section	.text.hal_spi_de_init,"ax",%progbits
ARM GAS  /tmp/ccw9i17x.s 			page 3


 111              		.align	1
 112              		.global	hal_spi_de_init
 113              		.syntax unified
 114              		.code	16
 115              		.thumb_func
 117              	hal_spi_de_init:
 118              		@ args = 0, pretend = 0, frame = 0
 119              		@ frame_needed = 0, uses_anonymous_args = 0
 120 0000 6023     		movs	r3, #96
 121 0002 10B5     		push	{r4, lr}
 122 0004 4343     		muls	r3, r0
 123              		@ sp needed
 124 0006 0248     		ldr	r0, .L9
 125 0008 1818     		adds	r0, r3, r0
 126 000a FFF7FEFF 		bl	HAL_SPI_DeInit
 127 000e 10BD     		pop	{r4, pc}
 128              	.L10:
 129              		.align	2
 130              	.L9:
 131 0010 A4FFFFFF 		.word	spi_periph-92
 133              		.section	.text.hal_spi_in_out,"ax",%progbits
 134              		.align	1
 135              		.global	hal_spi_in_out
 136              		.syntax unified
 137              		.code	16
 138              		.thumb_func
 140              	hal_spi_in_out:
 141              		@ args = 0, pretend = 0, frame = 0
 142              		@ frame_needed = 0, uses_anonymous_args = 0
 143 0000 6023     		movs	r3, #96
 144 0002 30B5     		push	{r4, r5, lr}
 145 0004 0224     		movs	r4, #2
 146 0006 0138     		subs	r0, r0, #1
 147 0008 4343     		muls	r3, r0
 148 000a 084A     		ldr	r2, .L18
 149 000c 9B58     		ldr	r3, [r3, r2]
 150              	.L12:
 151 000e 9D68     		ldr	r5, [r3, #8]
 152 0010 2542     		tst	r5, r4
 153 0012 FCD0     		beq	.L12
 154 0014 C9B2     		uxtb	r1, r1
 155 0016 1973     		strb	r1, [r3, #12]
 156 0018 6023     		movs	r3, #96
 157 001a 4343     		muls	r3, r0
 158 001c D358     		ldr	r3, [r2, r3]
 159 001e 0122     		movs	r2, #1
 160              	.L13:
 161 0020 9968     		ldr	r1, [r3, #8]
 162 0022 1142     		tst	r1, r2
 163 0024 FCD0     		beq	.L13
 164              		@ sp needed
 165 0026 187B     		ldrb	r0, [r3, #12]
 166 0028 C0B2     		uxtb	r0, r0
 167 002a 30BD     		pop	{r4, r5, pc}
 168              	.L19:
 169              		.align	2
 170              	.L18:
ARM GAS  /tmp/ccw9i17x.s 			page 4


 171 002c 00000000 		.word	spi_periph
 173              		.section	.text.HAL_SPI_MspInit,"ax",%progbits
 174              		.align	1
 175              		.global	HAL_SPI_MspInit
 176              		.syntax unified
 177              		.code	16
 178              		.thumb_func
 180              	HAL_SPI_MspInit:
 181              		@ args = 0, pretend = 0, frame = 24
 182              		@ frame_needed = 0, uses_anonymous_args = 0
 183 0000 F0B5     		push	{r4, r5, r6, r7, lr}
 184 0002 544C     		ldr	r4, .L30
 185 0004 0368     		ldr	r3, [r0]
 186 0006 2268     		ldr	r2, [r4]
 187 0008 87B0     		sub	sp, sp, #28
 188 000a 9342     		cmp	r3, r2
 189 000c 30D1     		bne	.L21
 190 000e 5C25     		movs	r5, #92
 191 0010 0C22     		movs	r2, #12
 192 0012 0021     		movs	r1, #0
 193 0014 03A8     		add	r0, sp, #12
 194 0016 6557     		ldrsb	r5, [r4, r5]
 195 0018 FFF7FEFF 		bl	memset
 196 001c 0223     		movs	r3, #2
 197 001e 0122     		movs	r2, #1
 198 0020 0293     		str	r3, [sp, #8]
 199 0022 0133     		adds	r3, r3, #1
 200 0024 0493     		str	r3, [sp, #16]
 201 0026 2300     		movs	r3, r4
 202 0028 0F20     		movs	r0, #15
 203 002a 1100     		movs	r1, r2
 204 002c 5D33     		adds	r3, r3, #93
 205 002e 1B78     		ldrb	r3, [r3]
 206 0030 1600     		movs	r6, r2
 207 0032 0340     		ands	r3, r0
 208 0034 9940     		lsls	r1, r1, r3
 209 0036 0B00     		movs	r3, r1
 210 0038 2900     		movs	r1, r5
 211 003a 5E34     		adds	r4, r4, #94
 212 003c 0140     		ands	r1, r0
 213 003e 8E40     		lsls	r6, r6, r1
 214 0040 2178     		ldrb	r1, [r4]
 215 0042 3343     		orrs	r3, r6
 216 0044 0140     		ands	r1, r0
 217 0046 8A40     		lsls	r2, r2, r1
 218 0048 1343     		orrs	r3, r2
 219 004a 0193     		str	r3, [sp, #4]
 220 004c F023     		movs	r3, #240
 221 004e A801     		lsls	r0, r5, #6
 222 0050 9B01     		lsls	r3, r3, #6
 223 0052 1840     		ands	r0, r3
 224 0054 A023     		movs	r3, #160
 225 0056 DB05     		lsls	r3, r3, #23
 226 0058 C018     		adds	r0, r0, r3
 227 005a 01A9     		add	r1, sp, #4
 228 005c FFF7FEFF 		bl	HAL_GPIO_Init
 229 0060 8023     		movs	r3, #128
ARM GAS  /tmp/ccw9i17x.s 			page 5


 230 0062 3D4A     		ldr	r2, .L30+4
 231 0064 5B01     		lsls	r3, r3, #5
 232 0066 516B     		ldr	r1, [r2, #52]
 233 0068 0B43     		orrs	r3, r1
 234 006a 5363     		str	r3, [r2, #52]
 235              	.L20:
 236 006c 07B0     		add	sp, sp, #28
 237              		@ sp needed
 238 006e F0BD     		pop	{r4, r5, r6, r7, pc}
 239              	.L21:
 240 0070 226E     		ldr	r2, [r4, #96]
 241 0072 9342     		cmp	r3, r2
 242 0074 5DD1     		bne	.L23
 243 0076 0221     		movs	r1, #2
 244 0078 374E     		ldr	r6, .L30+4
 245 007a F022     		movs	r2, #240
 246 007c F36A     		ldr	r3, [r6, #44]
 247 007e 0120     		movs	r0, #1
 248 0080 0B43     		orrs	r3, r1
 249 0082 F362     		str	r3, [r6, #44]
 250 0084 F36A     		ldr	r3, [r6, #44]
 251 0086 9201     		lsls	r2, r2, #6
 252 0088 0B40     		ands	r3, r1
 253 008a 0093     		str	r3, [sp]
 254 008c 009B     		ldr	r3, [sp]
 255 008e 2300     		movs	r3, r4
 256 0090 BC33     		adds	r3, r3, #188
 257 0092 1B78     		ldrb	r3, [r3]
 258 0094 0700     		movs	r7, r0
 259 0096 5BB2     		sxtb	r3, r3
 260 0098 9D01     		lsls	r5, r3, #6
 261 009a 1540     		ands	r5, r2
 262 009c A022     		movs	r2, #160
 263 009e 0291     		str	r1, [sp, #8]
 264 00a0 0131     		adds	r1, r1, #1
 265 00a2 0491     		str	r1, [sp, #16]
 266 00a4 0C31     		adds	r1, r1, #12
 267 00a6 D205     		lsls	r2, r2, #23
 268 00a8 1940     		ands	r1, r3
 269 00aa 8F40     		lsls	r7, r7, r1
 270 00ac AD18     		adds	r5, r5, r2
 271 00ae 0022     		movs	r2, #0
 272 00b0 0521     		movs	r1, #5
 273 00b2 0392     		str	r2, [sp, #12]
 274 00b4 0197     		str	r7, [sp, #4]
 275 00b6 1A2B     		cmp	r3, #26
 276 00b8 04D0     		beq	.L24
 277 00ba 223B     		subs	r3, r3, #34
 278 00bc DBB2     		uxtb	r3, r3
 279 00be 9842     		cmp	r0, r3
 280 00c0 5241     		adcs	r2, r2, r2
 281 00c2 5100     		lsls	r1, r2, #1
 282              	.L24:
 283 00c4 2800     		movs	r0, r5
 284 00c6 0591     		str	r1, [sp, #20]
 285 00c8 01A9     		add	r1, sp, #4
 286 00ca FFF7FEFF 		bl	HAL_GPIO_Init
ARM GAS  /tmp/ccw9i17x.s 			page 6


 287 00ce 0121     		movs	r1, #1
 288 00d0 BD22     		movs	r2, #189
 289 00d2 0F23     		movs	r3, #15
 290 00d4 0800     		movs	r0, r1
 291 00d6 A256     		ldrsb	r2, [r4, r2]
 292 00d8 1340     		ands	r3, r2
 293 00da 9840     		lsls	r0, r0, r3
 294 00dc 0523     		movs	r3, #5
 295 00de 0190     		str	r0, [sp, #4]
 296 00e0 1A2A     		cmp	r2, #26
 297 00e2 05D0     		beq	.L25
 298 00e4 0023     		movs	r3, #0
 299 00e6 223A     		subs	r2, r2, #34
 300 00e8 D2B2     		uxtb	r2, r2
 301 00ea 9142     		cmp	r1, r2
 302 00ec 5B41     		adcs	r3, r3, r3
 303 00ee 8B40     		lsls	r3, r3, r1
 304              	.L25:
 305 00f0 2800     		movs	r0, r5
 306 00f2 01A9     		add	r1, sp, #4
 307 00f4 0593     		str	r3, [sp, #20]
 308 00f6 FFF7FEFF 		bl	HAL_GPIO_Init
 309 00fa 0121     		movs	r1, #1
 310 00fc BE22     		movs	r2, #190
 311 00fe 0F23     		movs	r3, #15
 312 0100 0800     		movs	r0, r1
 313 0102 A256     		ldrsb	r2, [r4, r2]
 314 0104 1340     		ands	r3, r2
 315 0106 9840     		lsls	r0, r0, r3
 316 0108 0523     		movs	r3, #5
 317 010a 0190     		str	r0, [sp, #4]
 318 010c 1A2A     		cmp	r2, #26
 319 010e 05D0     		beq	.L26
 320 0110 0023     		movs	r3, #0
 321 0112 223A     		subs	r2, r2, #34
 322 0114 D2B2     		uxtb	r2, r2
 323 0116 9142     		cmp	r1, r2
 324 0118 5B41     		adcs	r3, r3, r3
 325 011a 8B40     		lsls	r3, r3, r1
 326              	.L26:
 327 011c 2800     		movs	r0, r5
 328 011e 01A9     		add	r1, sp, #4
 329 0120 0593     		str	r3, [sp, #20]
 330 0122 FFF7FEFF 		bl	HAL_GPIO_Init
 331 0126 8023     		movs	r3, #128
 332 0128 B26B     		ldr	r2, [r6, #56]
 333 012a DB01     		lsls	r3, r3, #7
 334 012c 1343     		orrs	r3, r2
 335 012e B363     		str	r3, [r6, #56]
 336 0130 9CE7     		b	.L20
 337              	.L23:
 338 0132 0A49     		ldr	r1, .L30+8
 339 0134 0A48     		ldr	r0, .L30+12
 340 0136 FFF7FEFF 		bl	hal_trace_print_var
 341 013a 0A4C     		ldr	r4, .L30+16
 342 013c 2000     		movs	r0, r4
 343 013e FFF7FEFF 		bl	hal_trace_print_var
ARM GAS  /tmp/ccw9i17x.s 			page 7


 344 0142 0948     		ldr	r0, .L30+20
 345 0144 FFF7FEFF 		bl	hal_trace_print_var
 346 0148 2000     		movs	r0, r4
 347 014a FFF7FEFF 		bl	hal_trace_print_var
 348 014e FFF7FEFF 		bl	hal_mcu_reset
 349 0152 8BE7     		b	.L20
 350              	.L31:
 351              		.align	2
 352              	.L30:
 353 0154 00000000 		.word	spi_periph
 354 0158 00100240 		.word	1073876992
 355 015c 00000000 		.word	__func__.1
 356 0160 00000000 		.word	.LC3
 357 0164 16000000 		.word	.LC5
 358 0168 17000000 		.word	.LC7
 360              		.section	.text.HAL_SPI_MspDeInit,"ax",%progbits
 361              		.align	1
 362              		.global	HAL_SPI_MspDeInit
 363              		.syntax unified
 364              		.code	16
 365              		.thumb_func
 367              	HAL_SPI_MspDeInit:
 368              		@ args = 0, pretend = 0, frame = 24
 369              		@ frame_needed = 0, uses_anonymous_args = 0
 370 0000 F0B5     		push	{r4, r5, r6, r7, lr}
 371 0002 414C     		ldr	r4, .L37
 372 0004 0368     		ldr	r3, [r0]
 373 0006 2268     		ldr	r2, [r4]
 374 0008 87B0     		sub	sp, sp, #28
 375 000a 9342     		cmp	r3, r2
 376 000c 38D1     		bne	.L33
 377 000e 0025     		movs	r5, #0
 378 0010 3E4A     		ldr	r2, .L37+4
 379 0012 3F49     		ldr	r1, .L37+8
 380 0014 536B     		ldr	r3, [r2, #52]
 381 0016 03A8     		add	r0, sp, #12
 382 0018 0B40     		ands	r3, r1
 383 001a 5363     		str	r3, [r2, #52]
 384 001c 3D4B     		ldr	r3, .L37+12
 385 001e 0C22     		movs	r2, #12
 386 0020 5D57     		ldrsb	r5, [r3, r5]
 387 0022 F023     		movs	r3, #240
 388 0024 AD01     		lsls	r5, r5, #6
 389 0026 9B01     		lsls	r3, r3, #6
 390 0028 1D40     		ands	r5, r3
 391 002a A023     		movs	r3, #160
 392 002c 0021     		movs	r1, #0
 393 002e DB05     		lsls	r3, r3, #23
 394 0030 ED18     		adds	r5, r5, r3
 395 0032 FFF7FEFF 		bl	memset
 396 0036 0323     		movs	r3, #3
 397 0038 0126     		movs	r6, #1
 398 003a 0293     		str	r3, [sp, #8]
 399 003c 2300     		movs	r3, r4
 400 003e 0F27     		movs	r7, #15
 401 0040 3200     		movs	r2, r6
 402 0042 5D33     		adds	r3, r3, #93
ARM GAS  /tmp/ccw9i17x.s 			page 8


 403 0044 1B78     		ldrb	r3, [r3]
 404 0046 2800     		movs	r0, r5
 405 0048 3B40     		ands	r3, r7
 406 004a 9A40     		lsls	r2, r2, r3
 407 004c 01A9     		add	r1, sp, #4
 408 004e 0192     		str	r2, [sp, #4]
 409 0050 FFF7FEFF 		bl	HAL_GPIO_Init
 410 0054 0023     		movs	r3, #0
 411 0056 3200     		movs	r2, r6
 412 0058 0293     		str	r3, [sp, #8]
 413 005a 0233     		adds	r3, r3, #2
 414 005c 0393     		str	r3, [sp, #12]
 415 005e 2D4B     		ldr	r3, .L37+12
 416 0060 5E34     		adds	r4, r4, #94
 417 0062 1B78     		ldrb	r3, [r3]
 418 0064 3B40     		ands	r3, r7
 419 0066 9A40     		lsls	r2, r2, r3
 420 0068 1300     		movs	r3, r2
 421              	.L36:
 422 006a 2278     		ldrb	r2, [r4]
 423 006c 2800     		movs	r0, r5
 424 006e 3A40     		ands	r2, r7
 425 0070 9640     		lsls	r6, r6, r2
 426 0072 01A9     		add	r1, sp, #4
 427 0074 3343     		orrs	r3, r6
 428 0076 0193     		str	r3, [sp, #4]
 429 0078 FFF7FEFF 		bl	HAL_GPIO_Init
 430              	.L32:
 431 007c 07B0     		add	sp, sp, #28
 432              		@ sp needed
 433 007e F0BD     		pop	{r4, r5, r6, r7, pc}
 434              	.L33:
 435 0080 226E     		ldr	r2, [r4, #96]
 436 0082 9342     		cmp	r3, r2
 437 0084 2ED1     		bne	.L35
 438 0086 0025     		movs	r5, #0
 439 0088 204A     		ldr	r2, .L37+4
 440 008a 2349     		ldr	r1, .L37+16
 441 008c 936B     		ldr	r3, [r2, #56]
 442 008e 03A8     		add	r0, sp, #12
 443 0090 0B40     		ands	r3, r1
 444 0092 9363     		str	r3, [r2, #56]
 445 0094 214B     		ldr	r3, .L37+20
 446 0096 0C22     		movs	r2, #12
 447 0098 5D57     		ldrsb	r5, [r3, r5]
 448 009a F023     		movs	r3, #240
 449 009c AD01     		lsls	r5, r5, #6
 450 009e 9B01     		lsls	r3, r3, #6
 451 00a0 1D40     		ands	r5, r3
 452 00a2 A023     		movs	r3, #160
 453 00a4 0021     		movs	r1, #0
 454 00a6 DB05     		lsls	r3, r3, #23
 455 00a8 ED18     		adds	r5, r5, r3
 456 00aa FFF7FEFF 		bl	memset
 457 00ae 0323     		movs	r3, #3
 458 00b0 0126     		movs	r6, #1
 459 00b2 0293     		str	r3, [sp, #8]
ARM GAS  /tmp/ccw9i17x.s 			page 9


 460 00b4 2300     		movs	r3, r4
 461 00b6 0F27     		movs	r7, #15
 462 00b8 3200     		movs	r2, r6
 463 00ba BD33     		adds	r3, r3, #189
 464 00bc 1B78     		ldrb	r3, [r3]
 465 00be 2800     		movs	r0, r5
 466 00c0 3B40     		ands	r3, r7
 467 00c2 9A40     		lsls	r2, r2, r3
 468 00c4 01A9     		add	r1, sp, #4
 469 00c6 0192     		str	r2, [sp, #4]
 470 00c8 FFF7FEFF 		bl	HAL_GPIO_Init
 471 00cc 0023     		movs	r3, #0
 472 00ce 3200     		movs	r2, r6
 473 00d0 0293     		str	r3, [sp, #8]
 474 00d2 0233     		adds	r3, r3, #2
 475 00d4 0393     		str	r3, [sp, #12]
 476 00d6 114B     		ldr	r3, .L37+20
 477 00d8 BE34     		adds	r4, r4, #190
 478 00da 1B78     		ldrb	r3, [r3]
 479 00dc 3B40     		ands	r3, r7
 480 00de 9A40     		lsls	r2, r2, r3
 481 00e0 1300     		movs	r3, r2
 482 00e2 C2E7     		b	.L36
 483              	.L35:
 484 00e4 0E49     		ldr	r1, .L37+24
 485 00e6 0F48     		ldr	r0, .L37+28
 486 00e8 FFF7FEFF 		bl	hal_trace_print_var
 487 00ec 0E4C     		ldr	r4, .L37+32
 488 00ee 2000     		movs	r0, r4
 489 00f0 FFF7FEFF 		bl	hal_trace_print_var
 490 00f4 0D48     		ldr	r0, .L37+36
 491 00f6 FFF7FEFF 		bl	hal_trace_print_var
 492 00fa 2000     		movs	r0, r4
 493 00fc FFF7FEFF 		bl	hal_trace_print_var
 494 0100 FFF7FEFF 		bl	hal_mcu_reset
 495 0104 BAE7     		b	.L32
 496              	.L38:
 497 0106 C046     		.align	2
 498              	.L37:
 499 0108 00000000 		.word	spi_periph
 500 010c 00100240 		.word	1073876992
 501 0110 FFEFFFFF 		.word	-4097
 502 0114 5C000000 		.word	spi_periph+92
 503 0118 FFBFFFFF 		.word	-16385
 504 011c BC000000 		.word	spi_periph+188
 505 0120 00000000 		.word	__func__.0
 506 0124 00000000 		.word	.LC3
 507 0128 16000000 		.word	.LC5
 508 012c 17000000 		.word	.LC7
 510              		.section	.rodata.__func__.0,"a"
 513              	__func__.0:
 514 0000 48414C5F 		.ascii	"HAL_SPI_MspDeInit\000"
 514      5350495F 
 514      4D737044 
 514      65496E69 
 514      7400
 515              		.section	.rodata.__func__.1,"a"
ARM GAS  /tmp/ccw9i17x.s 			page 10


 518              	__func__.1:
 519 0000 48414C5F 		.ascii	"HAL_SPI_MspInit\000"
 519      5350495F 
 519      4D737049 
 519      6E697400 
 520              		.section	.rodata.__func__.2,"a"
 523              	__func__.2:
 524 0000 68616C5F 		.ascii	"hal_spi_init\000"
 524      7370695F 
 524      696E6974 
 524      00
 525              		.section	.data.spi_periph,"aw"
 526              		.align	3
 529              	spi_periph:
 530 0000 00300140 		.word	1073819648
 531 0004 00000000 		.word	0
 532 0008 00000000 		.space	84
 532      00000000 
 532      00000000 
 532      00000000 
 532      00000000 
 533 005c FF       		.byte	-1
 534 005d FF       		.byte	-1
 535 005e FF       		.byte	-1
 536 005f 00       		.space	1
 537 0060 00380040 		.word	1073756160
 538 0064 00000000 		.word	0
 539 0068 00000000 		.space	84
 539      00000000 
 539      00000000 
 539      00000000 
 539      00000000 
 540 00bc FF       		.byte	-1
 541 00bd FF       		.byte	-1
 542 00be FF       		.byte	-1
 543 00bf 00       		.space	1
 544              		.ident	"GCC: (Arch Repository) 13.2.0"
ARM GAS  /tmp/ccw9i17x.s 			page 11

