ARM GAS  /tmp/ccmO2nDJ.s 			page 1


   1              		.cpu cortex-m0
   2              		.arch armv6s-m
   3              		.fpu softvfp
   4              		.eabi_attribute 23, 1
   5              		.eabi_attribute 24, 1
   6              		.eabi_attribute 25, 1
   7              		.eabi_attribute 26, 1
   8              		.eabi_attribute 30, 4
   9              		.eabi_attribute 34, 0
  10              		.eabi_attribute 18, 4
  11              		.file	"smtc_modem_hal.c"
  12              		.text
  13              		.section	.text.smtc_modem_hal_reset_mcu,"ax",%progbits
  14              		.align	1
  15              		.global	smtc_modem_hal_reset_mcu
  16              		.syntax unified
  17              		.code	16
  18              		.thumb_func
  20              	smtc_modem_hal_reset_mcu:
  21              		@ args = 0, pretend = 0, frame = 0
  22              		@ frame_needed = 0, uses_anonymous_args = 0
  23 0000 10B5     		push	{r4, lr}
  24 0002 FFF7FEFF 		bl	hal_mcu_reset
  25              		@ sp needed
  26 0006 10BD     		pop	{r4, pc}
  28              		.section	.text.smtc_modem_hal_reload_wdog,"ax",%progbits
  29              		.align	1
  30              		.global	smtc_modem_hal_reload_wdog
  31              		.syntax unified
  32              		.code	16
  33              		.thumb_func
  35              	smtc_modem_hal_reload_wdog:
  36              		@ args = 0, pretend = 0, frame = 0
  37              		@ frame_needed = 0, uses_anonymous_args = 0
  38 0000 10B5     		push	{r4, lr}
  39 0002 FFF7FEFF 		bl	watchdog_reload
  40              		@ sp needed
  41 0006 10BD     		pop	{r4, pc}
  43              		.section	.text.smtc_modem_hal_get_time_in_s,"ax",%progbits
  44              		.align	1
  45              		.global	smtc_modem_hal_get_time_in_s
  46              		.syntax unified
  47              		.code	16
  48              		.thumb_func
  50              	smtc_modem_hal_get_time_in_s:
  51              		@ args = 0, pretend = 0, frame = 0
  52              		@ frame_needed = 0, uses_anonymous_args = 0
  53 0000 10B5     		push	{r4, lr}
  54 0002 FFF7FEFF 		bl	hal_rtc_get_time_s
  55              		@ sp needed
  56 0006 10BD     		pop	{r4, pc}
  58              		.section	.text.smtc_modem_hal_get_compensated_time_in_s,"ax",%progbits
  59              		.align	1
  60              		.global	smtc_modem_hal_get_compensated_time_in_s
  61              		.syntax unified
  62              		.code	16
  63              		.thumb_func
ARM GAS  /tmp/ccmO2nDJ.s 			page 2


  65              	smtc_modem_hal_get_compensated_time_in_s:
  66              		@ args = 0, pretend = 0, frame = 0
  67              		@ frame_needed = 0, uses_anonymous_args = 0
  68 0000 10B5     		push	{r4, lr}
  69 0002 FFF7FEFF 		bl	hal_rtc_get_time_s
  70              		@ sp needed
  71 0006 10BD     		pop	{r4, pc}
  73              		.section	.text.smtc_modem_hal_get_time_compensation_in_s,"ax",%progbits
  74              		.align	1
  75              		.global	smtc_modem_hal_get_time_compensation_in_s
  76              		.syntax unified
  77              		.code	16
  78              		.thumb_func
  80              	smtc_modem_hal_get_time_compensation_in_s:
  81              		@ args = 0, pretend = 0, frame = 0
  82              		@ frame_needed = 0, uses_anonymous_args = 0
  83              		@ link register save eliminated.
  84 0000 0020     		movs	r0, #0
  85              		@ sp needed
  86 0002 7047     		bx	lr
  88              		.section	.text.smtc_modem_hal_get_time_in_ms,"ax",%progbits
  89              		.align	1
  90              		.global	smtc_modem_hal_get_time_in_ms
  91              		.syntax unified
  92              		.code	16
  93              		.thumb_func
  95              	smtc_modem_hal_get_time_in_ms:
  96              		@ args = 0, pretend = 0, frame = 0
  97              		@ frame_needed = 0, uses_anonymous_args = 0
  98 0000 10B5     		push	{r4, lr}
  99 0002 FFF7FEFF 		bl	hal_rtc_get_time_ms
 100              		@ sp needed
 101 0006 10BD     		pop	{r4, pc}
 103              		.section	.text.smtc_modem_hal_get_time_in_100us,"ax",%progbits
 104              		.align	1
 105              		.global	smtc_modem_hal_get_time_in_100us
 106              		.syntax unified
 107              		.code	16
 108              		.thumb_func
 110              	smtc_modem_hal_get_time_in_100us:
 111              		@ args = 0, pretend = 0, frame = 0
 112              		@ frame_needed = 0, uses_anonymous_args = 0
 113 0000 10B5     		push	{r4, lr}
 114 0002 FFF7FEFF 		bl	hal_rtc_get_time_100us
 115              		@ sp needed
 116 0006 10BD     		pop	{r4, pc}
 118              		.section	.text.smtc_modem_hal_get_radio_irq_timestamp_in_100us,"ax",%progbits
 119              		.align	1
 120              		.global	smtc_modem_hal_get_radio_irq_timestamp_in_100us
 121              		.syntax unified
 122              		.code	16
 123              		.thumb_func
 125              	smtc_modem_hal_get_radio_irq_timestamp_in_100us:
 126              		@ args = 0, pretend = 0, frame = 0
 127              		@ frame_needed = 0, uses_anonymous_args = 0
 128 0000 10B5     		push	{r4, lr}
 129 0002 FFF7FEFF 		bl	hal_rtc_get_time_100us
ARM GAS  /tmp/ccmO2nDJ.s 			page 3


 130              		@ sp needed
 131 0006 10BD     		pop	{r4, pc}
 133              		.section	.text.smtc_modem_hal_start_timer,"ax",%progbits
 134              		.align	1
 135              		.global	smtc_modem_hal_start_timer
 136              		.syntax unified
 137              		.code	16
 138              		.thumb_func
 140              	smtc_modem_hal_start_timer:
 141              		@ args = 0, pretend = 0, frame = 8
 142              		@ frame_needed = 0, uses_anonymous_args = 0
 143 0000 07B5     		push	{r0, r1, r2, lr}
 144 0002 0191     		str	r1, [sp, #4]
 145 0004 6946     		mov	r1, sp
 146              		@ sp needed
 147 0006 0092     		str	r2, [sp]
 148 0008 FFF7FEFF 		bl	hal_lp_timer_start
 149 000c 07BD     		pop	{r0, r1, r2, pc}
 151              		.section	.text.smtc_modem_hal_stop_timer,"ax",%progbits
 152              		.align	1
 153              		.global	smtc_modem_hal_stop_timer
 154              		.syntax unified
 155              		.code	16
 156              		.thumb_func
 158              	smtc_modem_hal_stop_timer:
 159              		@ args = 0, pretend = 0, frame = 0
 160              		@ frame_needed = 0, uses_anonymous_args = 0
 161 0000 10B5     		push	{r4, lr}
 162 0002 FFF7FEFF 		bl	hal_lp_timer_stop
 163              		@ sp needed
 164 0006 10BD     		pop	{r4, pc}
 166              		.section	.text.smtc_modem_hal_disable_modem_irq,"ax",%progbits
 167              		.align	1
 168              		.global	smtc_modem_hal_disable_modem_irq
 169              		.syntax unified
 170              		.code	16
 171              		.thumb_func
 173              	smtc_modem_hal_disable_modem_irq:
 174              		@ args = 0, pretend = 0, frame = 0
 175              		@ frame_needed = 0, uses_anonymous_args = 0
 176 0000 10B5     		push	{r4, lr}
 177 0002 FFF7FEFF 		bl	hal_gpio_irq_disable
 178              		@ sp needed
 179 0006 FFF7FEFF 		bl	hal_lp_timer_irq_disable
 180 000a 10BD     		pop	{r4, pc}
 182              		.section	.text.smtc_modem_hal_enable_modem_irq,"ax",%progbits
 183              		.align	1
 184              		.global	smtc_modem_hal_enable_modem_irq
 185              		.syntax unified
 186              		.code	16
 187              		.thumb_func
 189              	smtc_modem_hal_enable_modem_irq:
 190              		@ args = 0, pretend = 0, frame = 0
 191              		@ frame_needed = 0, uses_anonymous_args = 0
 192 0000 10B5     		push	{r4, lr}
 193 0002 FFF7FEFF 		bl	hal_gpio_irq_enable
 194              		@ sp needed
ARM GAS  /tmp/ccmO2nDJ.s 			page 4


 195 0006 FFF7FEFF 		bl	hal_lp_timer_irq_enable
 196 000a 10BD     		pop	{r4, pc}
 198              		.section	.rodata.smtc_modem_hal_context_restore.str1.1,"aMS",%progbits,1
 199              	.LC1:
 200 0000 4552524F 		.ascii	"ERROR: mcu_panic:%s\012\015\000"
 200      523A206D 
 200      63755F70 
 200      616E6963 
 200      3A25730A 
 201              	.LC3:
 202 0016 00       		.ascii	"\000"
 203              	.LC5:
 204 0017 4552524F 		.ascii	"ERROR: -> \000"
 204      523A202D 
 204      3E2000
 205              		.section	.text.smtc_modem_hal_context_restore,"ax",%progbits
 206              		.align	1
 207              		.global	smtc_modem_hal_context_restore
 208              		.syntax unified
 209              		.code	16
 210              		.thumb_func
 212              	smtc_modem_hal_context_restore:
 213              		@ args = 0, pretend = 0, frame = 0
 214              		@ frame_needed = 0, uses_anonymous_args = 0
 215 0000 10B5     		push	{r4, lr}
 216 0002 0328     		cmp	r0, #3
 217 0004 0ED8     		bhi	.L14
 218 0006 FFF7FEFF 		bl	__gnu_thumb1_case_uqi
 219              	.L16:
 220 000a 02       		.byte	(.L19-.L16)/2
 221 000b 06       		.byte	(.L18-.L16)/2
 222 000c 08       		.byte	(.L17-.L16)/2
 223 000d 0A       		.byte	(.L15-.L16)/2
 224              		.p2align 1
 225              	.L19:
 226 000e 0E48     		ldr	r0, .L22
 227              	.L21:
 228 0010 FFF7FEFF 		bl	hal_eeprom_read_buffer
 229              	.L13:
 230              		@ sp needed
 231 0014 10BD     		pop	{r4, pc}
 232              	.L18:
 233 0016 0D48     		ldr	r0, .L22+4
 234 0018 FAE7     		b	.L21
 235              	.L17:
 236 001a 0D48     		ldr	r0, .L22+8
 237 001c F8E7     		b	.L21
 238              	.L15:
 239 001e C020     		movs	r0, #192
 240 0020 0001     		lsls	r0, r0, #4
 241 0022 F5E7     		b	.L21
 242              	.L14:
 243 0024 0B49     		ldr	r1, .L22+12
 244 0026 0C48     		ldr	r0, .L22+16
 245 0028 FFF7FEFF 		bl	hal_trace_print_var
 246 002c 0B4C     		ldr	r4, .L22+20
 247 002e 2000     		movs	r0, r4
ARM GAS  /tmp/ccmO2nDJ.s 			page 5


 248 0030 FFF7FEFF 		bl	hal_trace_print_var
 249 0034 0A48     		ldr	r0, .L22+24
 250 0036 FFF7FEFF 		bl	hal_trace_print_var
 251 003a 2000     		movs	r0, r4
 252 003c FFF7FEFF 		bl	hal_trace_print_var
 253 0040 FFF7FEFF 		bl	hal_mcu_reset
 254 0044 E6E7     		b	.L13
 255              	.L23:
 256 0046 C046     		.align	2
 257              	.L22:
 258 0048 2C0D0000 		.word	3372
 259 004c C80C0000 		.word	3272
 260 0050 640C0000 		.word	3172
 261 0054 00000000 		.word	__func__.1
 262 0058 00000000 		.word	.LC1
 263 005c 16000000 		.word	.LC3
 264 0060 17000000 		.word	.LC5
 266              		.section	.text.smtc_modem_hal_context_store,"ax",%progbits
 267              		.align	1
 268              		.global	smtc_modem_hal_context_store
 269              		.syntax unified
 270              		.code	16
 271              		.thumb_func
 273              	smtc_modem_hal_context_store:
 274              		@ args = 0, pretend = 0, frame = 0
 275              		@ frame_needed = 0, uses_anonymous_args = 0
 276 0000 10B5     		push	{r4, lr}
 277 0002 0328     		cmp	r0, #3
 278 0004 0ED8     		bhi	.L25
 279 0006 FFF7FEFF 		bl	__gnu_thumb1_case_uqi
 280              	.L27:
 281 000a 02       		.byte	(.L30-.L27)/2
 282 000b 06       		.byte	(.L29-.L27)/2
 283 000c 08       		.byte	(.L28-.L27)/2
 284 000d 0A       		.byte	(.L26-.L27)/2
 285              		.p2align 1
 286              	.L30:
 287 000e 0E48     		ldr	r0, .L33
 288              	.L32:
 289 0010 FFF7FEFF 		bl	hal_eeprom_write_buffer
 290              	.L24:
 291              		@ sp needed
 292 0014 10BD     		pop	{r4, pc}
 293              	.L29:
 294 0016 0D48     		ldr	r0, .L33+4
 295 0018 FAE7     		b	.L32
 296              	.L28:
 297 001a 0D48     		ldr	r0, .L33+8
 298 001c F8E7     		b	.L32
 299              	.L26:
 300 001e C020     		movs	r0, #192
 301 0020 0001     		lsls	r0, r0, #4
 302 0022 F5E7     		b	.L32
 303              	.L25:
 304 0024 0B49     		ldr	r1, .L33+12
 305 0026 0C48     		ldr	r0, .L33+16
 306 0028 FFF7FEFF 		bl	hal_trace_print_var
ARM GAS  /tmp/ccmO2nDJ.s 			page 6


 307 002c 0B4C     		ldr	r4, .L33+20
 308 002e 2000     		movs	r0, r4
 309 0030 FFF7FEFF 		bl	hal_trace_print_var
 310 0034 0A48     		ldr	r0, .L33+24
 311 0036 FFF7FEFF 		bl	hal_trace_print_var
 312 003a 2000     		movs	r0, r4
 313 003c FFF7FEFF 		bl	hal_trace_print_var
 314 0040 FFF7FEFF 		bl	hal_mcu_reset
 315 0044 E6E7     		b	.L24
 316              	.L34:
 317 0046 C046     		.align	2
 318              	.L33:
 319 0048 2C0D0000 		.word	3372
 320 004c C80C0000 		.word	3272
 321 0050 640C0000 		.word	3172
 322 0054 00000000 		.word	__func__.0
 323 0058 00000000 		.word	.LC1
 324 005c 16000000 		.word	.LC3
 325 0060 17000000 		.word	.LC5
 327              		.section	.text.smtc_modem_hal_store_crashlog,"ax",%progbits
 328              		.align	1
 329              		.global	smtc_modem_hal_store_crashlog
 330              		.syntax unified
 331              		.code	16
 332              		.thumb_func
 334              	smtc_modem_hal_store_crashlog:
 335              		@ args = 0, pretend = 0, frame = 0
 336              		@ frame_needed = 0, uses_anonymous_args = 0
 337 0000 10B5     		push	{r4, lr}
 338 0002 034B     		ldr	r3, .L36
 339 0004 0100     		movs	r1, r0
 340              		@ sp needed
 341 0006 2022     		movs	r2, #32
 342 0008 1800     		movs	r0, r3
 343 000a FFF7FEFF 		bl	memcpy
 344 000e 10BD     		pop	{r4, pc}
 345              	.L37:
 346              		.align	2
 347              	.L36:
 348 0010 00000000 		.word	saved_crashlog
 350              		.section	.text.smtc_modem_hal_restore_crashlog,"ax",%progbits
 351              		.align	1
 352              		.global	smtc_modem_hal_restore_crashlog
 353              		.syntax unified
 354              		.code	16
 355              		.thumb_func
 357              	smtc_modem_hal_restore_crashlog:
 358              		@ args = 0, pretend = 0, frame = 0
 359              		@ frame_needed = 0, uses_anonymous_args = 0
 360 0000 10B5     		push	{r4, lr}
 361 0002 2022     		movs	r2, #32
 362              		@ sp needed
 363 0004 0149     		ldr	r1, .L39
 364 0006 FFF7FEFF 		bl	memcpy
 365 000a 10BD     		pop	{r4, pc}
 366              	.L40:
 367              		.align	2
ARM GAS  /tmp/ccmO2nDJ.s 			page 7


 368              	.L39:
 369 000c 00000000 		.word	saved_crashlog
 371              		.section	.text.smtc_modem_hal_set_crashlog_status,"ax",%progbits
 372              		.align	1
 373              		.global	smtc_modem_hal_set_crashlog_status
 374              		.syntax unified
 375              		.code	16
 376              		.thumb_func
 378              	smtc_modem_hal_set_crashlog_status:
 379              		@ args = 0, pretend = 0, frame = 0
 380              		@ frame_needed = 0, uses_anonymous_args = 0
 381              		@ link register save eliminated.
 382 0000 014B     		ldr	r3, .L42
 383              		@ sp needed
 384 0002 1870     		strb	r0, [r3]
 385 0004 7047     		bx	lr
 386              	.L43:
 387 0006 C046     		.align	2
 388              	.L42:
 389 0008 00000000 		.word	crashlog_available
 391              		.section	.text.smtc_modem_hal_get_crashlog_status,"ax",%progbits
 392              		.align	1
 393              		.global	smtc_modem_hal_get_crashlog_status
 394              		.syntax unified
 395              		.code	16
 396              		.thumb_func
 398              	smtc_modem_hal_get_crashlog_status:
 399              		@ args = 0, pretend = 0, frame = 0
 400              		@ frame_needed = 0, uses_anonymous_args = 0
 401              		@ link register save eliminated.
 402 0000 014B     		ldr	r3, .L45
 403              		@ sp needed
 404 0002 1878     		ldrb	r0, [r3]
 405 0004 C0B2     		uxtb	r0, r0
 406 0006 7047     		bx	lr
 407              	.L46:
 408              		.align	2
 409              	.L45:
 410 0008 00000000 		.word	crashlog_available
 412              		.section	.text.smtc_modem_hal_get_random_nb,"ax",%progbits
 413              		.align	1
 414              		.global	smtc_modem_hal_get_random_nb
 415              		.syntax unified
 416              		.code	16
 417              		.thumb_func
 419              	smtc_modem_hal_get_random_nb:
 420              		@ args = 0, pretend = 0, frame = 0
 421              		@ frame_needed = 0, uses_anonymous_args = 0
 422 0000 10B5     		push	{r4, lr}
 423 0002 FFF7FEFF 		bl	hal_rng_get_random
 424              		@ sp needed
 425 0006 10BD     		pop	{r4, pc}
 427              		.section	.text.smtc_modem_hal_get_random_nb_in_range,"ax",%progbits
 428              		.align	1
 429              		.global	smtc_modem_hal_get_random_nb_in_range
 430              		.syntax unified
 431              		.code	16
ARM GAS  /tmp/ccmO2nDJ.s 			page 8


 432              		.thumb_func
 434              	smtc_modem_hal_get_random_nb_in_range:
 435              		@ args = 0, pretend = 0, frame = 0
 436              		@ frame_needed = 0, uses_anonymous_args = 0
 437 0000 10B5     		push	{r4, lr}
 438 0002 FFF7FEFF 		bl	hal_rng_get_random_in_range
 439              		@ sp needed
 440 0006 10BD     		pop	{r4, pc}
 442              		.section	.text.smtc_modem_hal_get_signed_random_nb_in_range,"ax",%progbits
 443              		.align	1
 444              		.global	smtc_modem_hal_get_signed_random_nb_in_range
 445              		.syntax unified
 446              		.code	16
 447              		.thumb_func
 449              	smtc_modem_hal_get_signed_random_nb_in_range:
 450              		@ args = 0, pretend = 0, frame = 0
 451              		@ frame_needed = 0, uses_anonymous_args = 0
 452 0000 10B5     		push	{r4, lr}
 453 0002 FFF7FEFF 		bl	hal_rng_get_signed_random_in_range
 454              		@ sp needed
 455 0006 10BD     		pop	{r4, pc}
 457              		.section	.text.smtc_modem_hal_irq_config_radio_irq,"ax",%progbits
 458              		.align	1
 459              		.global	smtc_modem_hal_irq_config_radio_irq
 460              		.syntax unified
 461              		.code	16
 462              		.thumb_func
 464              	smtc_modem_hal_irq_config_radio_irq:
 465              		@ args = 0, pretend = 0, frame = 0
 466              		@ frame_needed = 0, uses_anonymous_args = 0
 467 0000 10B5     		push	{r4, lr}
 468 0002 0200     		movs	r2, r0
 469              		@ sp needed
 470 0004 0124     		movs	r4, #1
 471 0006 044B     		ldr	r3, .L51
 472 0008 1800     		movs	r0, r3
 473 000a 1C70     		strb	r4, [r3]
 474 000c 9A60     		str	r2, [r3, #8]
 475 000e 5960     		str	r1, [r3, #4]
 476 0010 FFF7FEFF 		bl	hal_gpio_irq_attach
 477 0014 10BD     		pop	{r4, pc}
 478              	.L52:
 479 0016 C046     		.align	2
 480              	.L51:
 481 0018 00000000 		.word	radio_dio_irq
 483              		.section	.text.smtc_modem_hal_radio_irq_clear_pending,"ax",%progbits
 484              		.align	1
 485              		.global	smtc_modem_hal_radio_irq_clear_pending
 486              		.syntax unified
 487              		.code	16
 488              		.thumb_func
 490              	smtc_modem_hal_radio_irq_clear_pending:
 491              		@ args = 0, pretend = 0, frame = 0
 492              		@ frame_needed = 0, uses_anonymous_args = 0
 493 0000 10B5     		push	{r4, lr}
 494 0002 0120     		movs	r0, #1
 495              		@ sp needed
ARM GAS  /tmp/ccmO2nDJ.s 			page 9


 496 0004 FFF7FEFF 		bl	hal_gpio_clear_pending_irq
 497 0008 10BD     		pop	{r4, pc}
 499              		.section	.text.smtc_modem_hal_start_radio_tcxo,"ax",%progbits
 500              		.align	1
 501              		.global	smtc_modem_hal_start_radio_tcxo
 502              		.syntax unified
 503              		.code	16
 504              		.thumb_func
 506              	smtc_modem_hal_start_radio_tcxo:
 507              		@ args = 0, pretend = 0, frame = 0
 508              		@ frame_needed = 0, uses_anonymous_args = 0
 509              		@ link register save eliminated.
 510              		@ sp needed
 511 0000 7047     		bx	lr
 513              		.section	.text.smtc_modem_hal_stop_radio_tcxo,"ax",%progbits
 514              		.align	1
 515              		.global	smtc_modem_hal_stop_radio_tcxo
 516              		.syntax unified
 517              		.code	16
 518              		.thumb_func
 520              	smtc_modem_hal_stop_radio_tcxo:
 521              		@ args = 0, pretend = 0, frame = 0
 522              		@ frame_needed = 0, uses_anonymous_args = 0
 523              		@ link register save eliminated.
 524              		@ sp needed
 525 0000 7047     		bx	lr
 527              		.section	.text.smtc_modem_hal_get_radio_tcxo_startup_delay_ms,"ax",%progbits
 528              		.align	1
 529              		.global	smtc_modem_hal_get_radio_tcxo_startup_delay_ms
 530              		.syntax unified
 531              		.code	16
 532              		.thumb_func
 534              	smtc_modem_hal_get_radio_tcxo_startup_delay_ms:
 535              		@ args = 0, pretend = 0, frame = 0
 536              		@ frame_needed = 0, uses_anonymous_args = 0
 537              		@ link register save eliminated.
 538 0000 0520     		movs	r0, #5
 539              		@ sp needed
 540 0002 7047     		bx	lr
 542              		.section	.text.smtc_modem_hal_get_battery_level,"ax",%progbits
 543              		.align	1
 544              		.global	smtc_modem_hal_get_battery_level
 545              		.syntax unified
 546              		.code	16
 547              		.thumb_func
 549              	smtc_modem_hal_get_battery_level:
 550              		@ args = 0, pretend = 0, frame = 0
 551              		@ frame_needed = 0, uses_anonymous_args = 0
 552              		@ link register save eliminated.
 553 0000 FE20     		movs	r0, #254
 554              		@ sp needed
 555 0002 7047     		bx	lr
 557              		.section	.text.smtc_modem_hal_get_temperature,"ax",%progbits
 558              		.align	1
 559              		.global	smtc_modem_hal_get_temperature
 560              		.syntax unified
 561              		.code	16
ARM GAS  /tmp/ccmO2nDJ.s 			page 10


 562              		.thumb_func
 564              	smtc_modem_hal_get_temperature:
 565              		@ args = 0, pretend = 0, frame = 0
 566              		@ frame_needed = 0, uses_anonymous_args = 0
 567 0000 10B5     		push	{r4, lr}
 568 0002 FFF7FEFF 		bl	hal_adc_init
 569              		@ sp needed
 570 0006 FFF7FEFF 		bl	hal_adc_get_temp
 571 000a 0400     		movs	r4, r0
 572 000c FFF7FEFF 		bl	hal_adc_deinit
 573 0010 2000     		movs	r0, r4
 574 0012 10BD     		pop	{r4, pc}
 576              		.global	__aeabi_uidiv
 577              		.section	.text.smtc_modem_hal_get_voltage,"ax",%progbits
 578              		.align	1
 579              		.global	smtc_modem_hal_get_voltage
 580              		.syntax unified
 581              		.code	16
 582              		.thumb_func
 584              	smtc_modem_hal_get_voltage:
 585              		@ args = 0, pretend = 0, frame = 0
 586              		@ frame_needed = 0, uses_anonymous_args = 0
 587 0000 10B5     		push	{r4, lr}
 588 0002 FFF7FEFF 		bl	hal_adc_init
 589              		@ sp needed
 590 0006 FFF7FEFF 		bl	hal_adc_get_vref_int
 591 000a 0400     		movs	r4, r0
 592 000c FFF7FEFF 		bl	hal_adc_deinit
 593 0010 1421     		movs	r1, #20
 594 0012 2000     		movs	r0, r4
 595 0014 FFF7FEFF 		bl	__aeabi_uidiv
 596 0018 C0B2     		uxtb	r0, r0
 597 001a 10BD     		pop	{r4, pc}
 599              		.section	.text.smtc_modem_hal_get_board_delay_ms,"ax",%progbits
 600              		.align	1
 601              		.global	smtc_modem_hal_get_board_delay_ms
 602              		.syntax unified
 603              		.code	16
 604              		.thumb_func
 606              	smtc_modem_hal_get_board_delay_ms:
 607              		@ args = 0, pretend = 0, frame = 0
 608              		@ frame_needed = 0, uses_anonymous_args = 0
 609              		@ link register save eliminated.
 610 0000 0120     		movs	r0, #1
 611              		@ sp needed
 612 0002 7047     		bx	lr
 614              		.section	.text.smtc_modem_hal_print_trace,"ax",%progbits
 615              		.align	1
 616              		.global	smtc_modem_hal_print_trace
 617              		.syntax unified
 618              		.code	16
 619              		.thumb_func
 621              	smtc_modem_hal_print_trace:
 622              		@ args = 4, pretend = 16, frame = 8
 623              		@ frame_needed = 0, uses_anonymous_args = 1
 624 0000 0FB4     		push	{r0, r1, r2, r3}
 625 0002 07B5     		push	{r0, r1, r2, lr}
ARM GAS  /tmp/ccmO2nDJ.s 			page 11


 626 0004 04A9     		add	r1, sp, #16
 627 0006 01C9     		ldmia	r1!, {r0}
 628 0008 0191     		str	r1, [sp, #4]
 629 000a FFF7FEFF 		bl	hal_trace_print
 630 000e 03B0     		add	sp, sp, #12
 631              		@ sp needed
 632 0010 08BC     		pop	{r3}
 633 0012 04B0     		add	sp, sp, #16
 634 0014 1847     		bx	r3
 636              		.section	.rodata.smtc_modem_hal_assert_fail.str1.1,"aMS",%progbits,1
 637              	.LC17:
 638 0000 1B5B303B 		.ascii	"\033[0;31mcrash log :%s:%u\012\015\033[0m\000"
 638      33316D63 
 638      72617368 
 638      206C6F67 
 638      203A2573 
 639              		.section	.text.smtc_modem_hal_assert_fail,"ax",%progbits
 640              		.align	1
 641              		.global	smtc_modem_hal_assert_fail
 642              		.syntax unified
 643              		.code	16
 644              		.thumb_func
 646              	smtc_modem_hal_assert_fail:
 647              		@ args = 0, pretend = 0, frame = 0
 648              		@ frame_needed = 0, uses_anonymous_args = 0
 649 0000 70B5     		push	{r4, r5, r6, lr}
 650 0002 0D00     		movs	r5, r1
 651              		@ sp needed
 652 0004 0400     		movs	r4, r0
 653 0006 FFF7FEFF 		bl	smtc_modem_hal_store_crashlog
 654 000a 0122     		movs	r2, #1
 655 000c 044B     		ldr	r3, .L63
 656 000e 2100     		movs	r1, r4
 657 0010 1A70     		strb	r2, [r3]
 658 0012 0448     		ldr	r0, .L63+4
 659 0014 2A00     		movs	r2, r5
 660 0016 FFF7FEFF 		bl	smtc_modem_hal_print_trace
 661 001a FFF7FEFF 		bl	hal_mcu_reset
 662 001e 70BD     		pop	{r4, r5, r6, pc}
 663              	.L64:
 664              		.align	2
 665              	.L63:
 666 0020 00000000 		.word	crashlog_available
 667 0024 00000000 		.word	.LC17
 669              		.section	.rodata.__func__.0,"a"
 672              	__func__.0:
 673 0000 736D7463 		.ascii	"smtc_modem_hal_context_store\000"
 673      5F6D6F64 
 673      656D5F68 
 673      616C5F63 
 673      6F6E7465 
 674              		.section	.rodata.__func__.1,"a"
 677              	__func__.1:
 678 0000 736D7463 		.ascii	"smtc_modem_hal_context_restore\000"
 678      5F6D6F64 
 678      656D5F68 
 678      616C5F63 
ARM GAS  /tmp/ccmO2nDJ.s 			page 12


 678      6F6E7465 
 679              		.global	crashlog_available
 680              		.section	.noinit,"aw"
 683              	crashlog_available:
 684 0000 00       		.space	1
 685              		.global	saved_crashlog
 688              	saved_crashlog:
 689 0001 00000000 		.space	32
 689      00000000 
 689      00000000 
 689      00000000 
 689      00000000 
 690              		.section	.bss.radio_dio_irq,"aw",%nobits
 691              		.align	2
 694              	radio_dio_irq:
 695 0000 00000000 		.space	12
 695      00000000 
 695      00000000 
 696              		.ident	"GCC: (Arch Repository) 13.2.0"
ARM GAS  /tmp/ccmO2nDJ.s 			page 13

