ARM GAS  /tmp/cc7OUDKr.s 			page 1


   1              		.cpu cortex-m0
   2              		.arch armv6s-m
   3              		.fpu softvfp
   4              		.eabi_attribute 23, 1
   5              		.eabi_attribute 24, 1
   6              		.eabi_attribute 25, 1
   7              		.eabi_attribute 26, 1
   8              		.eabi_attribute 30, 4
   9              		.eabi_attribute 34, 0
  10              		.eabi_attribute 18, 4
  11              		.file	"smtc_hal_lp_timer.c"
  12              		.text
  13              		.section	.rodata.hal_lp_timer_init.str1.1,"aMS",%progbits,1
  14              	.LC2:
  15 0000 4552524F 		.ascii	"ERROR: mcu_panic:%s\012\015\000"
  15      523A206D 
  15      63755F70 
  15      616E6963 
  15      3A25730A 
  16              	.LC4:
  17 0016 00       		.ascii	"\000"
  18              	.LC6:
  19 0017 4552524F 		.ascii	"ERROR: -> \000"
  19      523A202D 
  19      3E2000
  20              		.section	.text.hal_lp_timer_init,"ax",%progbits
  21              		.align	1
  22              		.global	hal_lp_timer_init
  23              		.syntax unified
  24              		.code	16
  25              		.thumb_func
  27              	hal_lp_timer_init:
  28              		@ args = 0, pretend = 0, frame = 0
  29              		@ frame_needed = 0, uses_anonymous_args = 0
  30 0000 8022     		movs	r2, #128
  31 0002 1448     		ldr	r0, .L6
  32 0004 144B     		ldr	r3, .L6+4
  33 0006 70B5     		push	{r4, r5, r6, lr}
  34 0008 0024     		movs	r4, #0
  35 000a 0025     		movs	r5, #0
  36 000c 0360     		str	r3, [r0]
  37 000e 0023     		movs	r3, #0
  38 0010 1201     		lsls	r2, r2, #4
  39 0012 8260     		str	r2, [r0, #8]
  40 0014 114A     		ldr	r2, .L6+8
  41 0016 0462     		str	r4, [r0, #32]
  42 0018 4562     		str	r5, [r0, #36]
  43 001a 4360     		str	r3, [r0, #4]
  44 001c 4261     		str	r2, [r0, #20]
  45 001e 8362     		str	r3, [r0, #40]
  46 0020 FFF7FEFF 		bl	HAL_LPTIM_Init
  47 0024 0028     		cmp	r0, #0
  48 0026 0FD0     		beq	.L2
  49 0028 0D49     		ldr	r1, .L6+12
  50 002a 0E48     		ldr	r0, .L6+16
  51 002c FFF7FEFF 		bl	hal_trace_print_var
  52 0030 0D4C     		ldr	r4, .L6+20
ARM GAS  /tmp/cc7OUDKr.s 			page 2


  53 0032 2000     		movs	r0, r4
  54 0034 FFF7FEFF 		bl	hal_trace_print_var
  55 0038 0C48     		ldr	r0, .L6+24
  56 003a FFF7FEFF 		bl	hal_trace_print_var
  57 003e 2000     		movs	r0, r4
  58 0040 FFF7FEFF 		bl	hal_trace_print_var
  59 0044 FFF7FEFF 		bl	hal_mcu_reset
  60              	.L2:
  61              		@ sp needed
  62 0048 0022     		movs	r2, #0
  63 004a 094B     		ldr	r3, .L6+28
  64 004c 1A60     		str	r2, [r3]
  65 004e 5A60     		str	r2, [r3, #4]
  66 0050 70BD     		pop	{r4, r5, r6, pc}
  67              	.L7:
  68 0052 C046     		.align	2
  69              	.L6:
  70 0054 00000000 		.word	lptim_handle
  71 0058 007C0040 		.word	1073773568
  72 005c FFFF0000 		.word	65535
  73 0060 00000000 		.word	__func__.0
  74 0064 00000000 		.word	.LC2
  75 0068 16000000 		.word	.LC4
  76 006c 17000000 		.word	.LC6
  77 0070 00000000 		.word	lptim_tmr_irq
  79              		.global	__aeabi_uldivmod
  80              		.global	__aeabi_ldivmod
  81              		.section	.text.hal_lp_timer_start,"ax",%progbits
  82              		.align	1
  83              		.global	hal_lp_timer_start
  84              		.syntax unified
  85              		.code	16
  86              		.thumb_func
  88              	hal_lp_timer_start:
  89              		@ args = 0, pretend = 0, frame = 0
  90              		@ frame_needed = 0, uses_anonymous_args = 0
  91 0000 FA22     		movs	r2, #250
  92 0002 0023     		movs	r3, #0
  93 0004 10B5     		push	{r4, lr}
  94 0006 9200     		lsls	r2, r2, #2
  95 0008 0C00     		movs	r4, r1
  96 000a 410D     		lsrs	r1, r0, #21
  97 000c C002     		lsls	r0, r0, #11
  98 000e FFF7FEFF 		bl	__aeabi_uldivmod
  99 0012 8023     		movs	r3, #128
 100 0014 0200     		movs	r2, r0
 101 0016 5B02     		lsls	r3, r3, #9
 102 0018 9842     		cmp	r0, r3
 103 001a 00D3     		bcc	.L9
 104 001c 044A     		ldr	r2, .L10
 105              	.L9:
 106 001e 0449     		ldr	r1, .L10
 107 0020 0448     		ldr	r0, .L10+4
 108 0022 FFF7FEFF 		bl	HAL_LPTIM_TimeOut_Start_IT
 109              		@ sp needed
 110 0026 044B     		ldr	r3, .L10+8
 111 0028 03CC     		ldmia	r4!, {r0, r1}
ARM GAS  /tmp/cc7OUDKr.s 			page 3


 112 002a 03C3     		stmia	r3!, {r0, r1}
 113 002c 10BD     		pop	{r4, pc}
 114              	.L11:
 115 002e C046     		.align	2
 116              	.L10:
 117 0030 FFFF0000 		.word	65535
 118 0034 00000000 		.word	lptim_handle
 119 0038 00000000 		.word	lptim_tmr_irq
 121              		.section	.text.hal_lp_timer_stop,"ax",%progbits
 122              		.align	1
 123              		.global	hal_lp_timer_stop
 124              		.syntax unified
 125              		.code	16
 126              		.thumb_func
 128              	hal_lp_timer_stop:
 129              		@ args = 0, pretend = 0, frame = 0
 130              		@ frame_needed = 0, uses_anonymous_args = 0
 131 0000 10B5     		push	{r4, lr}
 132 0002 0248     		ldr	r0, .L13
 133 0004 FFF7FEFF 		bl	HAL_LPTIM_TimeOut_Stop_IT
 134              		@ sp needed
 135 0008 10BD     		pop	{r4, pc}
 136              	.L14:
 137 000a C046     		.align	2
 138              	.L13:
 139 000c 00000000 		.word	lptim_handle
 141              		.section	.text.hal_lp_timer_irq_enable,"ax",%progbits
 142              		.align	1
 143              		.global	hal_lp_timer_irq_enable
 144              		.syntax unified
 145              		.code	16
 146              		.thumb_func
 148              	hal_lp_timer_irq_enable:
 149              		@ args = 0, pretend = 0, frame = 0
 150              		@ frame_needed = 0, uses_anonymous_args = 0
 151 0000 10B5     		push	{r4, lr}
 152 0002 0D20     		movs	r0, #13
 153              		@ sp needed
 154 0004 FFF7FEFF 		bl	HAL_NVIC_EnableIRQ
 155 0008 10BD     		pop	{r4, pc}
 157              		.section	.text.hal_lp_timer_irq_disable,"ax",%progbits
 158              		.align	1
 159              		.global	hal_lp_timer_irq_disable
 160              		.syntax unified
 161              		.code	16
 162              		.thumb_func
 164              	hal_lp_timer_irq_disable:
 165              		@ args = 0, pretend = 0, frame = 0
 166              		@ frame_needed = 0, uses_anonymous_args = 0
 167 0000 10B5     		push	{r4, lr}
 168 0002 0D20     		movs	r0, #13
 169              		@ sp needed
 170 0004 FFF7FEFF 		bl	HAL_NVIC_DisableIRQ
 171 0008 10BD     		pop	{r4, pc}
 173              		.section	.text.LPTIM1_IRQHandler,"ax",%progbits
 174              		.align	1
 175              		.global	LPTIM1_IRQHandler
ARM GAS  /tmp/cc7OUDKr.s 			page 4


 176              		.syntax unified
 177              		.code	16
 178              		.thumb_func
 180              	LPTIM1_IRQHandler:
 181              		@ args = 0, pretend = 0, frame = 0
 182              		@ frame_needed = 0, uses_anonymous_args = 0
 183 0000 10B5     		push	{r4, lr}
 184 0002 074C     		ldr	r4, .L22
 185 0004 2000     		movs	r0, r4
 186 0006 FFF7FEFF 		bl	HAL_LPTIM_IRQHandler
 187 000a 2000     		movs	r0, r4
 188 000c FFF7FEFF 		bl	HAL_LPTIM_TimeOut_Stop
 189 0010 044A     		ldr	r2, .L22+4
 190 0012 5368     		ldr	r3, [r2, #4]
 191 0014 002B     		cmp	r3, #0
 192 0016 01D0     		beq	.L17
 193 0018 1068     		ldr	r0, [r2]
 194 001a 9847     		blx	r3
 195              	.L17:
 196              		@ sp needed
 197 001c 10BD     		pop	{r4, pc}
 198              	.L23:
 199 001e C046     		.align	2
 200              	.L22:
 201 0020 00000000 		.word	lptim_handle
 202 0024 00000000 		.word	lptim_tmr_irq
 204              		.section	.text.HAL_LPTIM_MspInit,"ax",%progbits
 205              		.align	1
 206              		.global	HAL_LPTIM_MspInit
 207              		.syntax unified
 208              		.code	16
 209              		.thumb_func
 211              	HAL_LPTIM_MspInit:
 212              		@ args = 0, pretend = 0, frame = 0
 213              		@ frame_needed = 0, uses_anonymous_args = 0
 214 0000 094B     		ldr	r3, .L26
 215 0002 0268     		ldr	r2, [r0]
 216 0004 10B5     		push	{r4, lr}
 217 0006 9A42     		cmp	r2, r3
 218 0008 0DD1     		bne	.L24
 219 000a 8023     		movs	r3, #128
 220 000c 074A     		ldr	r2, .L26+4
 221 000e 1B06     		lsls	r3, r3, #24
 222 0010 916B     		ldr	r1, [r2, #56]
 223 0012 0D20     		movs	r0, #13
 224 0014 0B43     		orrs	r3, r1
 225 0016 9363     		str	r3, [r2, #56]
 226 0018 0022     		movs	r2, #0
 227 001a 1100     		movs	r1, r2
 228 001c FFF7FEFF 		bl	HAL_NVIC_SetPriority
 229 0020 0D20     		movs	r0, #13
 230 0022 FFF7FEFF 		bl	HAL_NVIC_EnableIRQ
 231              	.L24:
 232              		@ sp needed
 233 0026 10BD     		pop	{r4, pc}
 234              	.L27:
 235              		.align	2
ARM GAS  /tmp/cc7OUDKr.s 			page 5


 236              	.L26:
 237 0028 007C0040 		.word	1073773568
 238 002c 00100240 		.word	1073876992
 240              		.section	.text.HAL_LPTIM_MspDeInit,"ax",%progbits
 241              		.align	1
 242              		.global	HAL_LPTIM_MspDeInit
 243              		.syntax unified
 244              		.code	16
 245              		.thumb_func
 247              	HAL_LPTIM_MspDeInit:
 248              		@ args = 0, pretend = 0, frame = 0
 249              		@ frame_needed = 0, uses_anonymous_args = 0
 250 0000 064B     		ldr	r3, .L30
 251 0002 0268     		ldr	r2, [r0]
 252 0004 10B5     		push	{r4, lr}
 253 0006 9A42     		cmp	r2, r3
 254 0008 07D1     		bne	.L28
 255 000a 054A     		ldr	r2, .L30+4
 256 000c 0D20     		movs	r0, #13
 257 000e 936B     		ldr	r3, [r2, #56]
 258 0010 5B00     		lsls	r3, r3, #1
 259 0012 5B08     		lsrs	r3, r3, #1
 260 0014 9363     		str	r3, [r2, #56]
 261 0016 FFF7FEFF 		bl	HAL_NVIC_DisableIRQ
 262              	.L28:
 263              		@ sp needed
 264 001a 10BD     		pop	{r4, pc}
 265              	.L31:
 266              		.align	2
 267              	.L30:
 268 001c 007C0040 		.word	1073773568
 269 0020 00100240 		.word	1073876992
 271              		.section	.rodata.__func__.0,"a"
 274              	__func__.0:
 275 0000 68616C5F 		.ascii	"hal_lp_timer_init\000"
 275      6C705F74 
 275      696D6572 
 275      5F696E69 
 275      7400
 276              		.section	.bss.lptim_tmr_irq,"aw",%nobits
 277              		.align	2
 280              	lptim_tmr_irq:
 281 0000 00000000 		.space	8
 281      00000000 
 282              		.section	.bss.lptim_handle,"aw",%nobits
 283              		.align	3
 286              	lptim_handle:
 287 0000 00000000 		.space	48
 287      00000000 
 287      00000000 
 287      00000000 
 287      00000000 
 288              		.ident	"GCC: (Arch Repository) 13.2.0"
ARM GAS  /tmp/cc7OUDKr.s 			page 6

