ARM GAS  /tmp/cc9AOyjb.s 			page 1


   1              		.cpu cortex-m0
   2              		.arch armv6s-m
   3              		.fpu softvfp
   4              		.eabi_attribute 23, 1
   5              		.eabi_attribute 24, 1
   6              		.eabi_attribute 25, 1
   7              		.eabi_attribute 26, 1
   8              		.eabi_attribute 30, 4
   9              		.eabi_attribute 34, 0
  10              		.eabi_attribute 18, 4
  11              		.file	"stm32l0xx_hal_flash_ex.c"
  12              		.text
  13              		.section	.text.FLASH_OB_ProtectedSectorsConfig,"ax",%progbits
  14              		.align	1
  15              		.syntax unified
  16              		.code	16
  17              		.thumb_func
  19              	FLASH_OB_ProtectedSectorsConfig:
  20              		@ args = 0, pretend = 0, frame = 0
  21              		@ frame_needed = 0, uses_anonymous_args = 0
  22 0000 70B5     		push	{r4, r5, r6, lr}
  23 0002 0400     		movs	r4, r0
  24 0004 2C48     		ldr	r0, .L21
  25 0006 0D00     		movs	r5, r1
  26 0008 1600     		movs	r6, r2
  27 000a FFF7FEFF 		bl	FLASH_WaitForLastOperation
  28 000e 0028     		cmp	r0, #0
  29 0010 38D1     		bne	.L3
  30 0012 2A4B     		ldr	r3, .L21+4
  31 0014 5861     		str	r0, [r3, #20]
  32 0016 002C     		cmp	r4, #0
  33 0018 24D0     		beq	.L5
  34 001a A3B2     		uxth	r3, r4
  35 001c 002B     		cmp	r3, #0
  36 001e 35D0     		beq	.L6
  37 0020 274A     		ldr	r2, .L21+8
  38 0022 9168     		ldr	r1, [r2, #8]
  39 0024 002E     		cmp	r6, #0
  40 0026 13D0     		beq	.L7
  41 0028 0B43     		orrs	r3, r1
  42 002a 9BB2     		uxth	r3, r3
  43 002c D943     		mvns	r1, r3
  44 002e 0904     		lsls	r1, r1, #16
  45 0030 0B43     		orrs	r3, r1
  46 0032 9360     		str	r3, [r2, #8]
  47 0034 8023     		movs	r3, #128
  48 0036 5B02     		lsls	r3, r3, #9
  49 0038 9C42     		cmp	r4, r3
  50 003a 13D3     		bcc	.L5
  51              	.L10:
  52 003c 204A     		ldr	r2, .L21+8
  53 003e 240C     		lsrs	r4, r4, #16
  54 0040 D368     		ldr	r3, [r2, #12]
  55 0042 1C43     		orrs	r4, r3
  56 0044 A4B2     		uxth	r4, r4
  57 0046 E343     		mvns	r3, r4
  58 0048 1B04     		lsls	r3, r3, #16
ARM GAS  /tmp/cc9AOyjb.s 			page 2


  59 004a 2343     		orrs	r3, r4
  60              	.L19:
  61 004c D360     		str	r3, [r2, #12]
  62 004e 09E0     		b	.L5
  63              	.L7:
  64 0050 9943     		bics	r1, r3
  65 0052 8BB2     		uxth	r3, r1
  66 0054 D943     		mvns	r1, r3
  67 0056 0904     		lsls	r1, r1, #16
  68 0058 0B43     		orrs	r3, r1
  69 005a 9360     		str	r3, [r2, #8]
  70 005c 8023     		movs	r3, #128
  71 005e 5B02     		lsls	r3, r3, #9
  72 0060 9C42     		cmp	r4, r3
  73 0062 19D2     		bcs	.L9
  74              	.L5:
  75 0064 002D     		cmp	r5, #0
  76 0066 0DD0     		beq	.L3
  77 0068 ABB2     		uxth	r3, r5
  78 006a 002B     		cmp	r3, #0
  79 006c 0AD0     		beq	.L3
  80 006e 144A     		ldr	r2, .L21+8
  81 0070 1D00     		movs	r5, r3
  82 0072 1369     		ldr	r3, [r2, #16]
  83 0074 002E     		cmp	r6, #0
  84 0076 18D0     		beq	.L12
  85 0078 1D43     		orrs	r5, r3
  86 007a ADB2     		uxth	r5, r5
  87 007c EB43     		mvns	r3, r5
  88 007e 1B04     		lsls	r3, r3, #16
  89 0080 2B43     		orrs	r3, r5
  90              	.L20:
  91 0082 1361     		str	r3, [r2, #16]
  92              	.L3:
  93 0084 0C48     		ldr	r0, .L21
  94 0086 FFF7FEFF 		bl	FLASH_WaitForLastOperation
  95              		@ sp needed
  96 008a 70BD     		pop	{r4, r5, r6, pc}
  97              	.L6:
  98 008c 8023     		movs	r3, #128
  99 008e 5B02     		lsls	r3, r3, #9
 100 0090 9C42     		cmp	r4, r3
 101 0092 E7D3     		bcc	.L5
 102 0094 002E     		cmp	r6, #0
 103 0096 D1D1     		bne	.L10
 104              	.L9:
 105 0098 E443     		mvns	r4, r4
 106 009a 094A     		ldr	r2, .L21+8
 107 009c 240C     		lsrs	r4, r4, #16
 108 009e D168     		ldr	r1, [r2, #12]
 109 00a0 2140     		ands	r1, r4
 110 00a2 CB43     		mvns	r3, r1
 111 00a4 1B04     		lsls	r3, r3, #16
 112 00a6 0B43     		orrs	r3, r1
 113 00a8 D0E7     		b	.L19
 114              	.L12:
 115 00aa AB43     		bics	r3, r5
ARM GAS  /tmp/cc9AOyjb.s 			page 3


 116 00ac 9BB2     		uxth	r3, r3
 117 00ae D943     		mvns	r1, r3
 118 00b0 0904     		lsls	r1, r1, #16
 119 00b2 0B43     		orrs	r3, r1
 120 00b4 E5E7     		b	.L20
 121              	.L22:
 122 00b6 C046     		.align	2
 123              	.L21:
 124 00b8 50C30000 		.word	50000
 125 00bc 00000000 		.word	pFlash
 126 00c0 0000F81F 		.word	536346624
 128              		.section	.text.HAL_FLASHEx_OBProgram,"ax",%progbits
 129              		.align	1
 130              		.global	HAL_FLASHEx_OBProgram
 131              		.syntax unified
 132              		.code	16
 133              		.thumb_func
 135              	HAL_FLASHEx_OBProgram:
 136              		@ args = 0, pretend = 0, frame = 8
 137              		@ frame_needed = 0, uses_anonymous_args = 0
 138 0000 F7B5     		push	{r0, r1, r2, r4, r5, r6, r7, lr}
 139 0002 3F4D     		ldr	r5, .L64
 140 0004 0400     		movs	r4, r0
 141 0006 2B7C     		ldrb	r3, [r5, #16]
 142 0008 0220     		movs	r0, #2
 143 000a 012B     		cmp	r3, #1
 144 000c 0DD0     		beq	.L24
 145 000e 0138     		subs	r0, r0, #1
 146 0010 2874     		strb	r0, [r5, #16]
 147 0012 2368     		ldr	r3, [r4]
 148 0014 0342     		tst	r3, r0
 149 0016 09D0     		beq	.L25
 150 0018 6268     		ldr	r2, [r4, #4]
 151 001a E168     		ldr	r1, [r4, #12]
 152 001c A068     		ldr	r0, [r4, #8]
 153 001e FFF7FEFF 		bl	FLASH_OB_ProtectedSectorsConfig
 154 0022 0028     		cmp	r0, #0
 155 0024 02D0     		beq	.L25
 156              	.L32:
 157 0026 0023     		movs	r3, #0
 158 0028 2B74     		strb	r3, [r5, #16]
 159              	.L24:
 160              		@ sp needed
 161 002a FEBD     		pop	{r1, r2, r3, r4, r5, r6, r7, pc}
 162              	.L25:
 163 002c 2368     		ldr	r3, [r4]
 164 002e 9B07     		lsls	r3, r3, #30
 165 0030 18D5     		bpl	.L26
 166 0032 237C     		ldrb	r3, [r4, #16]
 167 0034 334F     		ldr	r7, .L64+4
 168 0036 3448     		ldr	r0, .L64+8
 169 0038 0193     		str	r3, [sp, #4]
 170 003a 3B68     		ldr	r3, [r7]
 171 003c 3E68     		ldr	r6, [r7]
 172 003e FFF7FEFF 		bl	FLASH_WaitForLastOperation
 173 0042 0028     		cmp	r0, #0
 174 0044 EFD1     		bne	.L32
ARM GAS  /tmp/cc9AOyjb.s 			page 4


 175 0046 8023     		movs	r3, #128
 176 0048 5B00     		lsls	r3, r3, #1
 177 004a 1E40     		ands	r6, r3
 178 004c 019B     		ldr	r3, [sp, #4]
 179 004e 6861     		str	r0, [r5, #20]
 180 0050 1E43     		orrs	r6, r3
 181 0052 F343     		mvns	r3, r6
 182 0054 1B04     		lsls	r3, r3, #16
 183 0056 3343     		orrs	r3, r6
 184 0058 2B48     		ldr	r0, .L64+8
 185 005a 3B60     		str	r3, [r7]
 186 005c FFF7FEFF 		bl	FLASH_WaitForLastOperation
 187 0060 0028     		cmp	r0, #0
 188 0062 E0D1     		bne	.L32
 189              	.L26:
 190 0064 2368     		ldr	r3, [r4]
 191 0066 5B07     		lsls	r3, r3, #29
 192 0068 18D5     		bpl	.L28
 193 006a A37C     		ldrb	r3, [r4, #18]
 194 006c 254F     		ldr	r7, .L64+4
 195 006e 2648     		ldr	r0, .L64+8
 196 0070 7E68     		ldr	r6, [r7, #4]
 197 0072 0193     		str	r3, [sp, #4]
 198 0074 FFF7FEFF 		bl	FLASH_WaitForLastOperation
 199 0078 0028     		cmp	r0, #0
 200 007a D4D1     		bne	.L32
 201 007c 234B     		ldr	r3, .L64+12
 202 007e 019A     		ldr	r2, [sp, #4]
 203 0080 1E40     		ands	r6, r3
 204 0082 7023     		movs	r3, #112
 205 0084 1A40     		ands	r2, r3
 206 0086 1643     		orrs	r6, r2
 207 0088 F343     		mvns	r3, r6
 208 008a 1B04     		lsls	r3, r3, #16
 209 008c 1E43     		orrs	r6, r3
 210 008e 6861     		str	r0, [r5, #20]
 211 0090 1D48     		ldr	r0, .L64+8
 212 0092 7E60     		str	r6, [r7, #4]
 213 0094 FFF7FEFF 		bl	FLASH_WaitForLastOperation
 214 0098 0028     		cmp	r0, #0
 215 009a C4D1     		bne	.L32
 216              	.L28:
 217 009c 2368     		ldr	r3, [r4]
 218 009e 1B07     		lsls	r3, r3, #28
 219 00a0 16D5     		bpl	.L30
 220 00a2 637C     		ldrb	r3, [r4, #17]
 221 00a4 174F     		ldr	r7, .L64+4
 222 00a6 1848     		ldr	r0, .L64+8
 223 00a8 7E68     		ldr	r6, [r7, #4]
 224 00aa 0193     		str	r3, [sp, #4]
 225 00ac FFF7FEFF 		bl	FLASH_WaitForLastOperation
 226 00b0 0028     		cmp	r0, #0
 227 00b2 B8D1     		bne	.L32
 228 00b4 164B     		ldr	r3, .L64+16
 229 00b6 6861     		str	r0, [r5, #20]
 230 00b8 1E40     		ands	r6, r3
 231 00ba 019B     		ldr	r3, [sp, #4]
ARM GAS  /tmp/cc9AOyjb.s 			page 5


 232 00bc 1248     		ldr	r0, .L64+8
 233 00be 1E43     		orrs	r6, r3
 234 00c0 F343     		mvns	r3, r6
 235 00c2 1B04     		lsls	r3, r3, #16
 236 00c4 1E43     		orrs	r6, r3
 237 00c6 7E60     		str	r6, [r7, #4]
 238 00c8 FFF7FEFF 		bl	FLASH_WaitForLastOperation
 239 00cc 0028     		cmp	r0, #0
 240 00ce AAD1     		bne	.L32
 241              	.L30:
 242 00d0 2368     		ldr	r3, [r4]
 243 00d2 DB06     		lsls	r3, r3, #27
 244 00d4 A7D5     		bpl	.L32
 245 00d6 0B4F     		ldr	r7, .L64+4
 246 00d8 0B48     		ldr	r0, .L64+8
 247 00da E47C     		ldrb	r4, [r4, #19]
 248 00dc 7E68     		ldr	r6, [r7, #4]
 249 00de FFF7FEFF 		bl	FLASH_WaitForLastOperation
 250 00e2 0028     		cmp	r0, #0
 251 00e4 9FD1     		bne	.L32
 252 00e6 7604     		lsls	r6, r6, #17
 253 00e8 760C     		lsrs	r6, r6, #17
 254 00ea E403     		lsls	r4, r4, #15
 255 00ec 3443     		orrs	r4, r6
 256 00ee E343     		mvns	r3, r4
 257 00f0 1B04     		lsls	r3, r3, #16
 258 00f2 1C43     		orrs	r4, r3
 259 00f4 6861     		str	r0, [r5, #20]
 260 00f6 7C60     		str	r4, [r7, #4]
 261 00f8 0348     		ldr	r0, .L64+8
 262 00fa FFF7FEFF 		bl	FLASH_WaitForLastOperation
 263 00fe 92E7     		b	.L32
 264              	.L65:
 265              		.align	2
 266              	.L64:
 267 0100 00000000 		.word	pFlash
 268 0104 0000F81F 		.word	536346624
 269 0108 50C30000 		.word	50000
 270 010c 8FFF0000 		.word	65423
 271 0110 F0FF0000 		.word	65520
 273              		.section	.rodata.HAL_FLASHEx_OBGetConfig.cst1,"aM",%progbits,1
 274              	.LC2:
 275 0000 CC       		.byte	-52
 276              	.LC3:
 277 0001 BB       		.byte	-69
 278              		.section	.text.HAL_FLASHEx_OBGetConfig,"ax",%progbits
 279              		.align	1
 280              		.global	HAL_FLASHEx_OBGetConfig
 281              		.syntax unified
 282              		.code	16
 283              		.thumb_func
 285              	HAL_FLASHEx_OBGetConfig:
 286              		@ args = 0, pretend = 0, frame = 0
 287              		@ frame_needed = 0, uses_anonymous_args = 0
 288              		@ link register save eliminated.
 289 0000 0F23     		movs	r3, #15
 290 0002 104A     		ldr	r2, .L74
ARM GAS  /tmp/cc9AOyjb.s 			page 6


 291 0004 0360     		str	r3, [r0]
 292 0006 136A     		ldr	r3, [r2, #32]
 293 0008 8360     		str	r3, [r0, #8]
 294 000a 0F4B     		ldr	r3, .L74+4
 295 000c DB6F     		ldr	r3, [r3, #124]
 296 000e C360     		str	r3, [r0, #12]
 297 0010 D369     		ldr	r3, [r2, #28]
 298 0012 DBB2     		uxtb	r3, r3
 299 0014 AA2B     		cmp	r3, #170
 300 0016 04D0     		beq	.L67
 301 0018 CC2B     		cmp	r3, #204
 302 001a 10D1     		bne	.L68
 303 001c 0B4B     		ldr	r3, .L74+8
 304              	.L73:
 305 001e 1B78     		ldrb	r3, [r3]
 306 0020 DBB2     		uxtb	r3, r3
 307              	.L67:
 308 0022 7021     		movs	r1, #112
 309              		@ sp needed
 310 0024 0374     		strb	r3, [r0, #16]
 311 0026 D369     		ldr	r3, [r2, #28]
 312 0028 1B0C     		lsrs	r3, r3, #16
 313 002a 0B40     		ands	r3, r1
 314 002c 8374     		strb	r3, [r0, #18]
 315 002e D369     		ldr	r3, [r2, #28]
 316 0030 1B03     		lsls	r3, r3, #12
 317 0032 1B0F     		lsrs	r3, r3, #28
 318 0034 4374     		strb	r3, [r0, #17]
 319 0036 D369     		ldr	r3, [r2, #28]
 320 0038 DB0F     		lsrs	r3, r3, #31
 321 003a C374     		strb	r3, [r0, #19]
 322 003c 7047     		bx	lr
 323              	.L68:
 324 003e 044B     		ldr	r3, .L74+12
 325 0040 EDE7     		b	.L73
 326              	.L75:
 327 0042 C046     		.align	2
 328              	.L74:
 329 0044 00200240 		.word	1073881088
 330 0048 04200240 		.word	1073881092
 331 004c 00000000 		.word	.LC2
 332 0050 01000000 		.word	.LC3
 334              		.section	.text.HAL_FLASHEx_AdvOBProgram,"ax",%progbits
 335              		.align	1
 336              		.global	HAL_FLASHEx_AdvOBProgram
 337              		.syntax unified
 338              		.code	16
 339              		.thumb_func
 341              	HAL_FLASHEx_AdvOBProgram:
 342              		@ args = 0, pretend = 0, frame = 0
 343              		@ frame_needed = 0, uses_anonymous_args = 0
 344 0000 70B5     		push	{r4, r5, r6, lr}
 345 0002 0368     		ldr	r3, [r0]
 346 0004 0400     		movs	r4, r0
 347 0006 0120     		movs	r0, #1
 348 0008 0342     		tst	r3, r0
 349 000a 04D0     		beq	.L77
ARM GAS  /tmp/cc9AOyjb.s 			page 7


 350 000c 6268     		ldr	r2, [r4, #4]
 351 000e E168     		ldr	r1, [r4, #12]
 352 0010 A068     		ldr	r0, [r4, #8]
 353 0012 FFF7FEFF 		bl	FLASH_OB_ProtectedSectorsConfig
 354              	.L77:
 355 0016 2368     		ldr	r3, [r4]
 356 0018 9B07     		lsls	r3, r3, #30
 357 001a 14D5     		bpl	.L78
 358 001c 0A4D     		ldr	r5, .L85
 359 001e 0B48     		ldr	r0, .L85+4
 360 0020 268A     		ldrh	r6, [r4, #16]
 361 0022 6C68     		ldr	r4, [r5, #4]
 362 0024 FFF7FEFF 		bl	FLASH_WaitForLastOperation
 363 0028 0028     		cmp	r0, #0
 364 002a 0CD1     		bne	.L78
 365 002c 084B     		ldr	r3, .L85+8
 366 002e 094A     		ldr	r2, .L85+12
 367 0030 2340     		ands	r3, r4
 368 0032 F6B2     		uxtb	r6, r6
 369 0034 3343     		orrs	r3, r6
 370 0036 5061     		str	r0, [r2, #20]
 371 0038 DA43     		mvns	r2, r3
 372 003a 1204     		lsls	r2, r2, #16
 373 003c 1343     		orrs	r3, r2
 374 003e 0348     		ldr	r0, .L85+4
 375 0040 6B60     		str	r3, [r5, #4]
 376 0042 FFF7FEFF 		bl	FLASH_WaitForLastOperation
 377              	.L78:
 378              		@ sp needed
 379 0046 70BD     		pop	{r4, r5, r6, pc}
 380              	.L86:
 381              		.align	2
 382              	.L85:
 383 0048 0000F81F 		.word	536346624
 384 004c 50C30000 		.word	50000
 385 0050 7FFF0000 		.word	65407
 386 0054 00000000 		.word	pFlash
 388              		.section	.text.HAL_FLASHEx_AdvOBGetConfig,"ax",%progbits
 389              		.align	1
 390              		.global	HAL_FLASHEx_AdvOBGetConfig
 391              		.syntax unified
 392              		.code	16
 393              		.thumb_func
 395              	HAL_FLASHEx_AdvOBGetConfig:
 396              		@ args = 0, pretend = 0, frame = 0
 397              		@ frame_needed = 0, uses_anonymous_args = 0
 398              		@ link register save eliminated.
 399 0000 084A     		ldr	r2, .L88
 400              		@ sp needed
 401 0002 D369     		ldr	r3, [r2, #28]
 402 0004 DB05     		lsls	r3, r3, #23
 403 0006 DB0F     		lsrs	r3, r3, #31
 404 0008 4360     		str	r3, [r0, #4]
 405 000a 136A     		ldr	r3, [r2, #32]
 406 000c 8360     		str	r3, [r0, #8]
 407 000e 131D     		adds	r3, r2, #4
 408 0010 DB6F     		ldr	r3, [r3, #124]
ARM GAS  /tmp/cc9AOyjb.s 			page 8


 409 0012 C360     		str	r3, [r0, #12]
 410 0014 0323     		movs	r3, #3
 411 0016 0360     		str	r3, [r0]
 412 0018 D369     		ldr	r3, [r2, #28]
 413 001a 8022     		movs	r2, #128
 414 001c 1B0C     		lsrs	r3, r3, #16
 415 001e 1340     		ands	r3, r2
 416 0020 0382     		strh	r3, [r0, #16]
 417 0022 7047     		bx	lr
 418              	.L89:
 419              		.align	2
 420              	.L88:
 421 0024 00200240 		.word	1073881088
 423              		.section	.text.HAL_FLASHEx_OB_SelectPCROP,"ax",%progbits
 424              		.align	1
 425              		.global	HAL_FLASHEx_OB_SelectPCROP
 426              		.syntax unified
 427              		.code	16
 428              		.thumb_func
 430              	HAL_FLASHEx_OB_SelectPCROP:
 431              		@ args = 0, pretend = 0, frame = 0
 432              		@ frame_needed = 0, uses_anonymous_args = 0
 433 0000 10B5     		push	{r4, lr}
 434 0002 0A48     		ldr	r0, .L92
 435 0004 FFF7FEFF 		bl	FLASH_WaitForLastOperation
 436 0008 0949     		ldr	r1, .L92+4
 437 000a 0B78     		ldrb	r3, [r1]
 438 000c DBB2     		uxtb	r3, r3
 439 000e 0028     		cmp	r0, #0
 440 0010 0BD1     		bne	.L91
 441 0012 8022     		movs	r2, #128
 442 0014 5200     		lsls	r2, r2, #1
 443 0016 1A43     		orrs	r2, r3
 444 0018 064B     		ldr	r3, .L92+8
 445 001a 5861     		str	r0, [r3, #20]
 446 001c D343     		mvns	r3, r2
 447 001e 1B04     		lsls	r3, r3, #16
 448 0020 1343     		orrs	r3, r2
 449 0022 0248     		ldr	r0, .L92
 450 0024 0B60     		str	r3, [r1]
 451 0026 FFF7FEFF 		bl	FLASH_WaitForLastOperation
 452              	.L91:
 453              		@ sp needed
 454 002a 10BD     		pop	{r4, pc}
 455              	.L93:
 456              		.align	2
 457              	.L92:
 458 002c 50C30000 		.word	50000
 459 0030 0000F81F 		.word	536346624
 460 0034 00000000 		.word	pFlash
 462              		.section	.text.HAL_FLASHEx_OB_DeSelectPCROP,"ax",%progbits
 463              		.align	1
 464              		.global	HAL_FLASHEx_OB_DeSelectPCROP
 465              		.syntax unified
 466              		.code	16
 467              		.thumb_func
 469              	HAL_FLASHEx_OB_DeSelectPCROP:
ARM GAS  /tmp/cc9AOyjb.s 			page 9


 470              		@ args = 0, pretend = 0, frame = 0
 471              		@ frame_needed = 0, uses_anonymous_args = 0
 472 0000 10B5     		push	{r4, lr}
 473 0002 0948     		ldr	r0, .L96
 474 0004 FFF7FEFF 		bl	FLASH_WaitForLastOperation
 475 0008 0849     		ldr	r1, .L96+4
 476 000a 0A78     		ldrb	r2, [r1]
 477 000c D2B2     		uxtb	r2, r2
 478 000e 0028     		cmp	r0, #0
 479 0010 08D1     		bne	.L95
 480 0012 074B     		ldr	r3, .L96+8
 481 0014 5861     		str	r0, [r3, #20]
 482 0016 D343     		mvns	r3, r2
 483 0018 1B04     		lsls	r3, r3, #16
 484 001a 1343     		orrs	r3, r2
 485 001c 0248     		ldr	r0, .L96
 486 001e 0B60     		str	r3, [r1]
 487 0020 FFF7FEFF 		bl	FLASH_WaitForLastOperation
 488              	.L95:
 489              		@ sp needed
 490 0024 10BD     		pop	{r4, pc}
 491              	.L97:
 492 0026 C046     		.align	2
 493              	.L96:
 494 0028 50C30000 		.word	50000
 495 002c 0000F81F 		.word	536346624
 496 0030 00000000 		.word	pFlash
 498              		.section	.text.HAL_FLASHEx_DATAEEPROM_Unlock,"ax",%progbits
 499              		.align	1
 500              		.global	HAL_FLASHEx_DATAEEPROM_Unlock
 501              		.syntax unified
 502              		.code	16
 503              		.thumb_func
 505              	HAL_FLASHEx_DATAEEPROM_Unlock:
 506              		@ args = 0, pretend = 0, frame = 0
 507              		@ frame_needed = 0, uses_anonymous_args = 0
 508              		@ link register save eliminated.
 509 0000 0122     		movs	r2, #1
 510 0002 084B     		ldr	r3, .L102
 511 0004 0020     		movs	r0, #0
 512 0006 5968     		ldr	r1, [r3, #4]
 513 0008 1142     		tst	r1, r2
 514 000a 0AD0     		beq	.L99
 515              		.syntax divided
 516              	@ 453 "bsp_l0/mcu_drivers/cmsis/Core/Include/cmsis_gcc.h" 1
 517 000c EFF31081 		MRS r1, primask
 518              	@ 0 "" 2
 519              	@ 209 "bsp_l0/mcu_drivers/cmsis/Core/Include/cmsis_gcc.h" 1
 520 0010 72B6     		cpsid i
 521              	@ 0 "" 2
 522              		.thumb
 523              		.syntax unified
 524 0012 0548     		ldr	r0, .L102+4
 525 0014 D860     		str	r0, [r3, #12]
 526 0016 0548     		ldr	r0, .L102+8
 527 0018 D860     		str	r0, [r3, #12]
 528              		.syntax divided
ARM GAS  /tmp/cc9AOyjb.s 			page 10


 529              	@ 481 "bsp_l0/mcu_drivers/cmsis/Core/Include/cmsis_gcc.h" 1
 530 001a 81F31088 		MSR primask, r1
 531              	@ 0 "" 2
 532              		.thumb
 533              		.syntax unified
 534 001e 5868     		ldr	r0, [r3, #4]
 535 0020 1040     		ands	r0, r2
 536              	.L99:
 537              		@ sp needed
 538 0022 7047     		bx	lr
 539              	.L103:
 540              		.align	2
 541              	.L102:
 542 0024 00200240 		.word	1073881088
 543 0028 EFCDAB89 		.word	-1985229329
 544 002c 05040302 		.word	33752069
 546              		.section	.text.HAL_FLASHEx_DATAEEPROM_Lock,"ax",%progbits
 547              		.align	1
 548              		.global	HAL_FLASHEx_DATAEEPROM_Lock
 549              		.syntax unified
 550              		.code	16
 551              		.thumb_func
 553              	HAL_FLASHEx_DATAEEPROM_Lock:
 554              		@ args = 0, pretend = 0, frame = 0
 555              		@ frame_needed = 0, uses_anonymous_args = 0
 556              		@ link register save eliminated.
 557 0000 0123     		movs	r3, #1
 558              		@ sp needed
 559 0002 034A     		ldr	r2, .L105
 560 0004 0020     		movs	r0, #0
 561 0006 5168     		ldr	r1, [r2, #4]
 562 0008 0B43     		orrs	r3, r1
 563 000a 5360     		str	r3, [r2, #4]
 564 000c 7047     		bx	lr
 565              	.L106:
 566 000e C046     		.align	2
 567              	.L105:
 568 0010 00200240 		.word	1073881088
 570              		.section	.text.HAL_FLASHEx_DATAEEPROM_Erase,"ax",%progbits
 571              		.align	1
 572              		.global	HAL_FLASHEx_DATAEEPROM_Erase
 573              		.syntax unified
 574              		.code	16
 575              		.thumb_func
 577              	HAL_FLASHEx_DATAEEPROM_Erase:
 578              		@ args = 0, pretend = 0, frame = 0
 579              		@ frame_needed = 0, uses_anonymous_args = 0
 580 0000 10B5     		push	{r4, lr}
 581 0002 0400     		movs	r4, r0
 582 0004 0548     		ldr	r0, .L109
 583 0006 FFF7FEFF 		bl	FLASH_WaitForLastOperation
 584 000a 0028     		cmp	r0, #0
 585 000c 05D1     		bne	.L108
 586 000e 044B     		ldr	r3, .L109+4
 587 0010 5861     		str	r0, [r3, #20]
 588 0012 2060     		str	r0, [r4]
 589 0014 0148     		ldr	r0, .L109
ARM GAS  /tmp/cc9AOyjb.s 			page 11


 590 0016 FFF7FEFF 		bl	FLASH_WaitForLastOperation
 591              	.L108:
 592              		@ sp needed
 593 001a 10BD     		pop	{r4, pc}
 594              	.L110:
 595              		.align	2
 596              	.L109:
 597 001c 50C30000 		.word	50000
 598 0020 00000000 		.word	pFlash
 600              		.section	.text.HAL_FLASHEx_DATAEEPROM_Program,"ax",%progbits
 601              		.align	1
 602              		.global	HAL_FLASHEx_DATAEEPROM_Program
 603              		.syntax unified
 604              		.code	16
 605              		.thumb_func
 607              	HAL_FLASHEx_DATAEEPROM_Program:
 608              		@ args = 0, pretend = 0, frame = 0
 609              		@ frame_needed = 0, uses_anonymous_args = 0
 610 0000 F8B5     		push	{r3, r4, r5, r6, r7, lr}
 611 0002 124F     		ldr	r7, .L119
 612 0004 0600     		movs	r6, r0
 613 0006 3B7C     		ldrb	r3, [r7, #16]
 614 0008 0D00     		movs	r5, r1
 615 000a 1400     		movs	r4, r2
 616 000c 0220     		movs	r0, #2
 617 000e 012B     		cmp	r3, #1
 618 0010 0CD0     		beq	.L112
 619 0012 0123     		movs	r3, #1
 620 0014 0E48     		ldr	r0, .L119+4
 621 0016 3B74     		strb	r3, [r7, #16]
 622 0018 FFF7FEFF 		bl	FLASH_WaitForLastOperation
 623 001c 0028     		cmp	r0, #0
 624 001e 03D1     		bne	.L113
 625 0020 7861     		str	r0, [r7, #20]
 626 0022 022E     		cmp	r6, #2
 627 0024 03D1     		bne	.L114
 628 0026 2C60     		str	r4, [r5]
 629              	.L113:
 630 0028 0023     		movs	r3, #0
 631 002a 3B74     		strb	r3, [r7, #16]
 632              	.L112:
 633              		@ sp needed
 634 002c F8BD     		pop	{r3, r4, r5, r6, r7, pc}
 635              	.L114:
 636 002e 012E     		cmp	r6, #1
 637 0030 02D1     		bne	.L115
 638 0032 A4B2     		uxth	r4, r4
 639 0034 2C80     		strh	r4, [r5]
 640 0036 F7E7     		b	.L113
 641              	.L115:
 642 0038 002E     		cmp	r6, #0
 643 003a 03D0     		beq	.L117
 644 003c 0448     		ldr	r0, .L119+4
 645 003e FFF7FEFF 		bl	FLASH_WaitForLastOperation
 646 0042 F1E7     		b	.L113
 647              	.L117:
 648 0044 E4B2     		uxtb	r4, r4
ARM GAS  /tmp/cc9AOyjb.s 			page 12


 649 0046 2C70     		strb	r4, [r5]
 650 0048 EEE7     		b	.L113
 651              	.L120:
 652 004a C046     		.align	2
 653              	.L119:
 654 004c 00000000 		.word	pFlash
 655 0050 50C30000 		.word	50000
 657              		.section	.text.HAL_FLASHEx_DATAEEPROM_EnableFixedTimeProgram,"ax",%progbits
 658              		.align	1
 659              		.global	HAL_FLASHEx_DATAEEPROM_EnableFixedTimeProgram
 660              		.syntax unified
 661              		.code	16
 662              		.thumb_func
 664              	HAL_FLASHEx_DATAEEPROM_EnableFixedTimeProgram:
 665              		@ args = 0, pretend = 0, frame = 0
 666              		@ frame_needed = 0, uses_anonymous_args = 0
 667              		@ link register save eliminated.
 668 0000 8023     		movs	r3, #128
 669              		@ sp needed
 670 0002 034A     		ldr	r2, .L122
 671 0004 5B00     		lsls	r3, r3, #1
 672 0006 5168     		ldr	r1, [r2, #4]
 673 0008 0B43     		orrs	r3, r1
 674 000a 5360     		str	r3, [r2, #4]
 675 000c 7047     		bx	lr
 676              	.L123:
 677 000e C046     		.align	2
 678              	.L122:
 679 0010 00200240 		.word	1073881088
 681              		.section	.text.HAL_FLASHEx_DATAEEPROM_DisableFixedTimeProgram,"ax",%progbits
 682              		.align	1
 683              		.global	HAL_FLASHEx_DATAEEPROM_DisableFixedTimeProgram
 684              		.syntax unified
 685              		.code	16
 686              		.thumb_func
 688              	HAL_FLASHEx_DATAEEPROM_DisableFixedTimeProgram:
 689              		@ args = 0, pretend = 0, frame = 0
 690              		@ frame_needed = 0, uses_anonymous_args = 0
 691              		@ link register save eliminated.
 692 0000 024A     		ldr	r2, .L125
 693 0002 0349     		ldr	r1, .L125+4
 694 0004 5368     		ldr	r3, [r2, #4]
 695              		@ sp needed
 696 0006 0B40     		ands	r3, r1
 697 0008 5360     		str	r3, [r2, #4]
 698 000a 7047     		bx	lr
 699              	.L126:
 700              		.align	2
 701              	.L125:
 702 000c 00200240 		.word	1073881088
 703 0010 FFFEFFFF 		.word	-257
 705              		.section	.text.FLASH_PageErase,"ax",%progbits
 706              		.align	1
 707              		.global	FLASH_PageErase
 708              		.syntax unified
 709              		.code	16
 710              		.thumb_func
ARM GAS  /tmp/cc9AOyjb.s 			page 13


 712              	FLASH_PageErase:
 713              		@ args = 0, pretend = 0, frame = 0
 714              		@ frame_needed = 0, uses_anonymous_args = 0
 715 0000 0021     		movs	r1, #0
 716 0002 8022     		movs	r2, #128
 717 0004 074B     		ldr	r3, .L128
 718 0006 10B5     		push	{r4, lr}
 719 0008 5961     		str	r1, [r3, #20]
 720 000a 074B     		ldr	r3, .L128+4
 721 000c 9200     		lsls	r2, r2, #2
 722 000e 5C68     		ldr	r4, [r3, #4]
 723              		@ sp needed
 724 0010 2243     		orrs	r2, r4
 725 0012 5A60     		str	r2, [r3, #4]
 726 0014 0822     		movs	r2, #8
 727 0016 5C68     		ldr	r4, [r3, #4]
 728 0018 2243     		orrs	r2, r4
 729 001a 5A60     		str	r2, [r3, #4]
 730 001c 7F23     		movs	r3, #127
 731 001e 9843     		bics	r0, r3
 732 0020 0160     		str	r1, [r0]
 733 0022 10BD     		pop	{r4, pc}
 734              	.L129:
 735              		.align	2
 736              	.L128:
 737 0024 00000000 		.word	pFlash
 738 0028 00200240 		.word	1073881088
 740              		.section	.text.HAL_FLASHEx_Erase,"ax",%progbits
 741              		.align	1
 742              		.global	HAL_FLASHEx_Erase
 743              		.syntax unified
 744              		.code	16
 745              		.thumb_func
 747              	HAL_FLASHEx_Erase:
 748              		@ args = 0, pretend = 0, frame = 8
 749              		@ frame_needed = 0, uses_anonymous_args = 0
 750 0000 F7B5     		push	{r0, r1, r2, r4, r5, r6, r7, lr}
 751 0002 1A4B     		ldr	r3, .L137
 752 0004 0600     		movs	r6, r0
 753 0006 0193     		str	r3, [sp, #4]
 754 0008 1B7C     		ldrb	r3, [r3, #16]
 755 000a 0F00     		movs	r7, r1
 756 000c 0224     		movs	r4, #2
 757 000e 012B     		cmp	r3, #1
 758 0010 27D0     		beq	.L131
 759 0012 0123     		movs	r3, #1
 760 0014 019A     		ldr	r2, [sp, #4]
 761 0016 1648     		ldr	r0, .L137+4
 762 0018 1374     		strb	r3, [r2, #16]
 763 001a FFF7FEFF 		bl	FLASH_WaitForLastOperation
 764 001e 041E     		subs	r4, r0, #0
 765 0020 1CD1     		bne	.L132
 766 0022 0123     		movs	r3, #1
 767 0024 5B42     		rsbs	r3, r3, #0
 768 0026 3B60     		str	r3, [r7]
 769 0028 7568     		ldr	r5, [r6, #4]
 770              	.L133:
ARM GAS  /tmp/cc9AOyjb.s 			page 14


 771 002a B368     		ldr	r3, [r6, #8]
 772 002c 7268     		ldr	r2, [r6, #4]
 773 002e DB01     		lsls	r3, r3, #7
 774 0030 9B18     		adds	r3, r3, r2
 775 0032 AB42     		cmp	r3, r5
 776 0034 12D9     		bls	.L132
 777 0036 2800     		movs	r0, r5
 778 0038 FFF7FEFF 		bl	FLASH_PageErase
 779 003c 0C48     		ldr	r0, .L137+4
 780 003e FFF7FEFF 		bl	FLASH_WaitForLastOperation
 781 0042 0821     		movs	r1, #8
 782 0044 0B4B     		ldr	r3, .L137+8
 783 0046 5A68     		ldr	r2, [r3, #4]
 784 0048 8A43     		bics	r2, r1
 785 004a 5A60     		str	r2, [r3, #4]
 786 004c 5A68     		ldr	r2, [r3, #4]
 787 004e 0A49     		ldr	r1, .L137+12
 788 0050 0A40     		ands	r2, r1
 789 0052 5A60     		str	r2, [r3, #4]
 790 0054 0028     		cmp	r0, #0
 791 0056 06D0     		beq	.L134
 792 0058 0400     		movs	r4, r0
 793 005a 3D60     		str	r5, [r7]
 794              	.L132:
 795 005c 0023     		movs	r3, #0
 796 005e 019A     		ldr	r2, [sp, #4]
 797 0060 1374     		strb	r3, [r2, #16]
 798              	.L131:
 799 0062 2000     		movs	r0, r4
 800              		@ sp needed
 801 0064 FEBD     		pop	{r1, r2, r3, r4, r5, r6, r7, pc}
 802              	.L134:
 803 0066 8035     		adds	r5, r5, #128
 804 0068 DFE7     		b	.L133
 805              	.L138:
 806 006a C046     		.align	2
 807              	.L137:
 808 006c 00000000 		.word	pFlash
 809 0070 50C30000 		.word	50000
 810 0074 00200240 		.word	1073881088
 811 0078 FFFDFFFF 		.word	-513
 813              		.section	.text.HAL_FLASHEx_Erase_IT,"ax",%progbits
 814              		.align	1
 815              		.global	HAL_FLASHEx_Erase_IT
 816              		.syntax unified
 817              		.code	16
 818              		.thumb_func
 820              	HAL_FLASHEx_Erase_IT:
 821              		@ args = 0, pretend = 0, frame = 8
 822              		@ frame_needed = 0, uses_anonymous_args = 0
 823 0000 F7B5     		push	{r0, r1, r2, r4, r5, r6, r7, lr}
 824 0002 124C     		ldr	r4, .L144
 825 0004 0600     		movs	r6, r0
 826 0006 2378     		ldrb	r3, [r4]
 827 0008 0125     		movs	r5, #1
 828 000a DAB2     		uxtb	r2, r3
 829 000c 0192     		str	r2, [sp, #4]
ARM GAS  /tmp/cc9AOyjb.s 			page 15


 830 000e 002B     		cmp	r3, #0
 831 0010 17D1     		bne	.L140
 832 0012 237C     		ldrb	r3, [r4, #16]
 833 0014 6D19     		adds	r5, r5, r5
 834 0016 012B     		cmp	r3, #1
 835 0018 13D0     		beq	.L140
 836 001a 0127     		movs	r7, #1
 837 001c 0C48     		ldr	r0, .L144+4
 838 001e 2774     		strb	r7, [r4, #16]
 839 0020 FFF7FEFF 		bl	FLASH_WaitForLastOperation
 840 0024 051E     		subs	r5, r0, #0
 841 0026 0ED1     		bne	.L141
 842 0028 C023     		movs	r3, #192
 843 002a 0A4A     		ldr	r2, .L144+8
 844 002c 9B02     		lsls	r3, r3, #10
 845 002e 5168     		ldr	r1, [r2, #4]
 846 0030 0B43     		orrs	r3, r1
 847 0032 5360     		str	r3, [r2, #4]
 848 0034 B368     		ldr	r3, [r6, #8]
 849 0036 7068     		ldr	r0, [r6, #4]
 850 0038 2770     		strb	r7, [r4]
 851 003a 6360     		str	r3, [r4, #4]
 852 003c E060     		str	r0, [r4, #12]
 853 003e FFF7FEFF 		bl	FLASH_PageErase
 854              	.L140:
 855              		@ sp needed
 856 0042 2800     		movs	r0, r5
 857 0044 FEBD     		pop	{r1, r2, r3, r4, r5, r6, r7, pc}
 858              	.L141:
 859 0046 019B     		ldr	r3, [sp, #4]
 860 0048 2374     		strb	r3, [r4, #16]
 861 004a FAE7     		b	.L140
 862              	.L145:
 863              		.align	2
 864              	.L144:
 865 004c 00000000 		.word	pFlash
 866 0050 50C30000 		.word	50000
 867 0054 00200240 		.word	1073881088
 869              		.ident	"GCC: (Arch Repository) 13.2.0"
ARM GAS  /tmp/cc9AOyjb.s 			page 16

