ARM GAS  /tmp/ccn7EpLk.s 			page 1


   1              		.cpu cortex-m0
   2              		.arch armv6s-m
   3              		.fpu softvfp
   4              		.eabi_attribute 23, 1
   5              		.eabi_attribute 24, 1
   6              		.eabi_attribute 25, 1
   7              		.eabi_attribute 26, 1
   8              		.eabi_attribute 30, 4
   9              		.eabi_attribute 34, 0
  10              		.eabi_attribute 18, 4
  11              		.file	"stm32l0xx_hal_cortex.c"
  12              		.text
  13              		.section	.text.HAL_NVIC_SetPriority,"ax",%progbits
  14              		.align	1
  15              		.global	HAL_NVIC_SetPriority
  16              		.syntax unified
  17              		.code	16
  18              		.thumb_func
  20              	HAL_NVIC_SetPriority:
  21              		@ args = 0, pretend = 0, frame = 0
  22              		@ frame_needed = 0, uses_anonymous_args = 0
  23 0000 10B5     		push	{r4, lr}
  24 0002 FF24     		movs	r4, #255
  25 0004 0322     		movs	r2, #3
  26 0006 0B00     		movs	r3, r1
  27 0008 2100     		movs	r1, r4
  28 000a 0240     		ands	r2, r0
  29 000c D200     		lsls	r2, r2, #3
  30 000e 9140     		lsls	r1, r1, r2
  31 0010 9B01     		lsls	r3, r3, #6
  32 0012 2340     		ands	r3, r4
  33 0014 C943     		mvns	r1, r1
  34 0016 9340     		lsls	r3, r3, r2
  35 0018 0028     		cmp	r0, #0
  36 001a 0ADB     		blt	.L2
  37 001c C024     		movs	r4, #192
  38 001e 0B4A     		ldr	r2, .L4
  39 0020 8008     		lsrs	r0, r0, #2
  40 0022 8000     		lsls	r0, r0, #2
  41 0024 8018     		adds	r0, r0, r2
  42 0026 A400     		lsls	r4, r4, #2
  43 0028 0259     		ldr	r2, [r0, r4]
  44 002a 0A40     		ands	r2, r1
  45 002c 1343     		orrs	r3, r2
  46 002e 0351     		str	r3, [r0, r4]
  47              	.L1:
  48              		@ sp needed
  49 0030 10BD     		pop	{r4, pc}
  50              	.L2:
  51 0032 0F22     		movs	r2, #15
  52 0034 1040     		ands	r0, r2
  53 0036 0838     		subs	r0, r0, #8
  54 0038 054A     		ldr	r2, .L4+4
  55 003a 8008     		lsrs	r0, r0, #2
  56 003c 8000     		lsls	r0, r0, #2
  57 003e 8018     		adds	r0, r0, r2
  58 0040 C269     		ldr	r2, [r0, #28]
ARM GAS  /tmp/ccn7EpLk.s 			page 2


  59 0042 1140     		ands	r1, r2
  60 0044 1943     		orrs	r1, r3
  61 0046 C161     		str	r1, [r0, #28]
  62 0048 F2E7     		b	.L1
  63              	.L5:
  64 004a C046     		.align	2
  65              	.L4:
  66 004c 00E100E0 		.word	-536813312
  67 0050 00ED00E0 		.word	-536810240
  69              		.section	.text.HAL_NVIC_EnableIRQ,"ax",%progbits
  70              		.align	1
  71              		.global	HAL_NVIC_EnableIRQ
  72              		.syntax unified
  73              		.code	16
  74              		.thumb_func
  76              	HAL_NVIC_EnableIRQ:
  77              		@ args = 0, pretend = 0, frame = 0
  78              		@ frame_needed = 0, uses_anonymous_args = 0
  79              		@ link register save eliminated.
  80 0000 0028     		cmp	r0, #0
  81 0002 05DB     		blt	.L6
  82 0004 1F23     		movs	r3, #31
  83 0006 1840     		ands	r0, r3
  84 0008 1E3B     		subs	r3, r3, #30
  85 000a 8340     		lsls	r3, r3, r0
  86 000c 014A     		ldr	r2, .L8
  87 000e 1360     		str	r3, [r2]
  88              	.L6:
  89              		@ sp needed
  90 0010 7047     		bx	lr
  91              	.L9:
  92 0012 C046     		.align	2
  93              	.L8:
  94 0014 00E100E0 		.word	-536813312
  96              		.section	.text.HAL_NVIC_DisableIRQ,"ax",%progbits
  97              		.align	1
  98              		.global	HAL_NVIC_DisableIRQ
  99              		.syntax unified
 100              		.code	16
 101              		.thumb_func
 103              	HAL_NVIC_DisableIRQ:
 104              		@ args = 0, pretend = 0, frame = 0
 105              		@ frame_needed = 0, uses_anonymous_args = 0
 106              		@ link register save eliminated.
 107 0000 0028     		cmp	r0, #0
 108 0002 09DB     		blt	.L10
 109 0004 1F23     		movs	r3, #31
 110 0006 1840     		ands	r0, r3
 111 0008 1E3B     		subs	r3, r3, #30
 112 000a 8340     		lsls	r3, r3, r0
 113 000c 034A     		ldr	r2, .L12
 114 000e D367     		str	r3, [r2, #124]
 115              		.syntax divided
 116              	@ 946 "bsp_l0/mcu_drivers/cmsis/Core/Include/cmsis_gcc.h" 1
 117 0010 BFF34F8F 		dsb 0xF
 118              	@ 0 "" 2
 119              	@ 935 "bsp_l0/mcu_drivers/cmsis/Core/Include/cmsis_gcc.h" 1
ARM GAS  /tmp/ccn7EpLk.s 			page 3


 120 0014 BFF36F8F 		isb 0xF
 121              	@ 0 "" 2
 122              		.thumb
 123              		.syntax unified
 124              	.L10:
 125              		@ sp needed
 126 0018 7047     		bx	lr
 127              	.L13:
 128 001a C046     		.align	2
 129              	.L12:
 130 001c 04E100E0 		.word	-536813308
 132              		.section	.text.HAL_NVIC_SystemReset,"ax",%progbits
 133              		.align	1
 134              		.global	HAL_NVIC_SystemReset
 135              		.syntax unified
 136              		.code	16
 137              		.thumb_func
 139              	HAL_NVIC_SystemReset:
 140              		@ Volatile: function does not return.
 141              		@ args = 0, pretend = 0, frame = 0
 142              		@ frame_needed = 0, uses_anonymous_args = 0
 143              		@ link register save eliminated.
 144              		.syntax divided
 145              	@ 946 "bsp_l0/mcu_drivers/cmsis/Core/Include/cmsis_gcc.h" 1
 146 0000 BFF34F8F 		dsb 0xF
 147              	@ 0 "" 2
 148              		.thumb
 149              		.syntax unified
 150 0004 034B     		ldr	r3, .L16
 151 0006 044A     		ldr	r2, .L16+4
 152 0008 DA60     		str	r2, [r3, #12]
 153              		.syntax divided
 154              	@ 946 "bsp_l0/mcu_drivers/cmsis/Core/Include/cmsis_gcc.h" 1
 155 000a BFF34F8F 		dsb 0xF
 156              	@ 0 "" 2
 157              		.thumb
 158              		.syntax unified
 159              	.L15:
 160              		.syntax divided
 161              	@ 995 "bsp_l0/mcu_drivers/cmsis/Core/Include/core_cm0plus.h" 1
 162 000e C046     		nop
 163              	@ 0 "" 2
 164              		.thumb
 165              		.syntax unified
 166 0010 FDE7     		b	.L15
 167              	.L17:
 168 0012 C046     		.align	2
 169              	.L16:
 170 0014 00ED00E0 		.word	-536810240
 171 0018 0400FA05 		.word	100270084
 173              		.section	.text.HAL_SYSTICK_Config,"ax",%progbits
 174              		.align	1
 175              		.global	HAL_SYSTICK_Config
 176              		.syntax unified
 177              		.code	16
 178              		.thumb_func
 180              	HAL_SYSTICK_Config:
ARM GAS  /tmp/ccn7EpLk.s 			page 4


 181              		@ args = 0, pretend = 0, frame = 0
 182              		@ frame_needed = 0, uses_anonymous_args = 0
 183              		@ link register save eliminated.
 184 0000 8022     		movs	r2, #128
 185 0002 431E     		subs	r3, r0, #1
 186 0004 5204     		lsls	r2, r2, #17
 187 0006 0120     		movs	r0, #1
 188 0008 9342     		cmp	r3, r2
 189 000a 0DD2     		bcs	.L18
 190 000c C021     		movs	r1, #192
 191 000e 074A     		ldr	r2, .L21
 192 0010 0748     		ldr	r0, .L21+4
 193 0012 5360     		str	r3, [r2, #4]
 194 0014 036A     		ldr	r3, [r0, #32]
 195 0016 0906     		lsls	r1, r1, #24
 196 0018 1B02     		lsls	r3, r3, #8
 197 001a 1B0A     		lsrs	r3, r3, #8
 198 001c 0B43     		orrs	r3, r1
 199 001e 0362     		str	r3, [r0, #32]
 200 0020 0020     		movs	r0, #0
 201 0022 0723     		movs	r3, #7
 202 0024 9060     		str	r0, [r2, #8]
 203 0026 1360     		str	r3, [r2]
 204              	.L18:
 205              		@ sp needed
 206 0028 7047     		bx	lr
 207              	.L22:
 208 002a C046     		.align	2
 209              	.L21:
 210 002c 10E000E0 		.word	-536813552
 211 0030 00ED00E0 		.word	-536810240
 213              		.section	.text.HAL_NVIC_GetPriority,"ax",%progbits
 214              		.align	1
 215              		.global	HAL_NVIC_GetPriority
 216              		.syntax unified
 217              		.code	16
 218              		.thumb_func
 220              	HAL_NVIC_GetPriority:
 221              		@ args = 0, pretend = 0, frame = 0
 222              		@ frame_needed = 0, uses_anonymous_args = 0
 223              		@ link register save eliminated.
 224 0000 0300     		movs	r3, r0
 225 0002 0320     		movs	r0, #3
 226 0004 1A00     		movs	r2, r3
 227 0006 0240     		ands	r2, r0
 228 0008 8240     		lsls	r2, r2, r0
 229 000a 002B     		cmp	r3, #0
 230 000c 08DB     		blt	.L24
 231 000e 9B08     		lsrs	r3, r3, #2
 232 0010 0849     		ldr	r1, .L27
 233 0012 C033     		adds	r3, r3, #192
 234 0014 9B00     		lsls	r3, r3, #2
 235 0016 5B58     		ldr	r3, [r3, r1]
 236              	.L26:
 237 0018 D340     		lsrs	r3, r3, r2
 238              		@ sp needed
 239 001a 9B09     		lsrs	r3, r3, #6
ARM GAS  /tmp/ccn7EpLk.s 			page 5


 240 001c 1840     		ands	r0, r3
 241 001e 7047     		bx	lr
 242              	.L24:
 243 0020 0F21     		movs	r1, #15
 244 0022 0B40     		ands	r3, r1
 245 0024 083B     		subs	r3, r3, #8
 246 0026 0449     		ldr	r1, .L27+4
 247 0028 9B08     		lsrs	r3, r3, #2
 248 002a 9B00     		lsls	r3, r3, #2
 249 002c 5B18     		adds	r3, r3, r1
 250 002e 5B68     		ldr	r3, [r3, #4]
 251 0030 F2E7     		b	.L26
 252              	.L28:
 253 0032 C046     		.align	2
 254              	.L27:
 255 0034 00E100E0 		.word	-536813312
 256 0038 18ED00E0 		.word	-536810216
 258              		.section	.text.HAL_NVIC_SetPendingIRQ,"ax",%progbits
 259              		.align	1
 260              		.global	HAL_NVIC_SetPendingIRQ
 261              		.syntax unified
 262              		.code	16
 263              		.thumb_func
 265              	HAL_NVIC_SetPendingIRQ:
 266              		@ args = 0, pretend = 0, frame = 0
 267              		@ frame_needed = 0, uses_anonymous_args = 0
 268              		@ link register save eliminated.
 269 0000 0028     		cmp	r0, #0
 270 0002 05DB     		blt	.L29
 271 0004 1F23     		movs	r3, #31
 272 0006 1840     		ands	r0, r3
 273 0008 1E3B     		subs	r3, r3, #30
 274 000a 8340     		lsls	r3, r3, r0
 275 000c 014A     		ldr	r2, .L31
 276 000e 5360     		str	r3, [r2, #4]
 277              	.L29:
 278              		@ sp needed
 279 0010 7047     		bx	lr
 280              	.L32:
 281 0012 C046     		.align	2
 282              	.L31:
 283 0014 FCE100E0 		.word	-536813060
 285              		.section	.text.HAL_NVIC_GetPendingIRQ,"ax",%progbits
 286              		.align	1
 287              		.global	HAL_NVIC_GetPendingIRQ
 288              		.syntax unified
 289              		.code	16
 290              		.thumb_func
 292              	HAL_NVIC_GetPendingIRQ:
 293              		@ args = 0, pretend = 0, frame = 0
 294              		@ frame_needed = 0, uses_anonymous_args = 0
 295              		@ link register save eliminated.
 296 0000 0300     		movs	r3, r0
 297 0002 0020     		movs	r0, #0
 298 0004 8342     		cmp	r3, r0
 299 0006 06DB     		blt	.L33
 300 0008 034A     		ldr	r2, .L36
ARM GAS  /tmp/ccn7EpLk.s 			page 6


 301 000a 5068     		ldr	r0, [r2, #4]
 302 000c 1F22     		movs	r2, #31
 303 000e 1340     		ands	r3, r2
 304 0010 D840     		lsrs	r0, r0, r3
 305 0012 0123     		movs	r3, #1
 306 0014 1840     		ands	r0, r3
 307              	.L33:
 308              		@ sp needed
 309 0016 7047     		bx	lr
 310              	.L37:
 311              		.align	2
 312              	.L36:
 313 0018 FCE100E0 		.word	-536813060
 315              		.section	.text.HAL_NVIC_ClearPendingIRQ,"ax",%progbits
 316              		.align	1
 317              		.global	HAL_NVIC_ClearPendingIRQ
 318              		.syntax unified
 319              		.code	16
 320              		.thumb_func
 322              	HAL_NVIC_ClearPendingIRQ:
 323              		@ args = 0, pretend = 0, frame = 0
 324              		@ frame_needed = 0, uses_anonymous_args = 0
 325              		@ link register save eliminated.
 326 0000 0028     		cmp	r0, #0
 327 0002 07DB     		blt	.L38
 328 0004 1F23     		movs	r3, #31
 329 0006 C022     		movs	r2, #192
 330 0008 1840     		ands	r0, r3
 331 000a 1E3B     		subs	r3, r3, #30
 332 000c 8340     		lsls	r3, r3, r0
 333 000e 0249     		ldr	r1, .L40
 334 0010 5200     		lsls	r2, r2, #1
 335 0012 8B50     		str	r3, [r1, r2]
 336              	.L38:
 337              		@ sp needed
 338 0014 7047     		bx	lr
 339              	.L41:
 340 0016 C046     		.align	2
 341              	.L40:
 342 0018 00E100E0 		.word	-536813312
 344              		.section	.text.HAL_SYSTICK_CLKSourceConfig,"ax",%progbits
 345              		.align	1
 346              		.global	HAL_SYSTICK_CLKSourceConfig
 347              		.syntax unified
 348              		.code	16
 349              		.thumb_func
 351              	HAL_SYSTICK_CLKSourceConfig:
 352              		@ args = 0, pretend = 0, frame = 0
 353              		@ frame_needed = 0, uses_anonymous_args = 0
 354              		@ link register save eliminated.
 355 0000 054B     		ldr	r3, .L45
 356 0002 1A68     		ldr	r2, [r3]
 357 0004 0428     		cmp	r0, #4
 358 0006 02D1     		bne	.L43
 359 0008 1043     		orrs	r0, r2
 360 000a 1860     		str	r0, [r3]
 361              	.L42:
ARM GAS  /tmp/ccn7EpLk.s 			page 7


 362              		@ sp needed
 363 000c 7047     		bx	lr
 364              	.L43:
 365 000e 0421     		movs	r1, #4
 366 0010 8A43     		bics	r2, r1
 367 0012 1A60     		str	r2, [r3]
 368 0014 FAE7     		b	.L42
 369              	.L46:
 370 0016 C046     		.align	2
 371              	.L45:
 372 0018 10E000E0 		.word	-536813552
 374              		.section	.text.HAL_SYSTICK_Callback,"ax",%progbits
 375              		.align	1
 376              		.weak	HAL_SYSTICK_Callback
 377              		.syntax unified
 378              		.code	16
 379              		.thumb_func
 381              	HAL_SYSTICK_Callback:
 382              		@ args = 0, pretend = 0, frame = 0
 383              		@ frame_needed = 0, uses_anonymous_args = 0
 384              		@ link register save eliminated.
 385              		@ sp needed
 386 0000 7047     		bx	lr
 388              		.section	.text.HAL_SYSTICK_IRQHandler,"ax",%progbits
 389              		.align	1
 390              		.global	HAL_SYSTICK_IRQHandler
 391              		.syntax unified
 392              		.code	16
 393              		.thumb_func
 395              	HAL_SYSTICK_IRQHandler:
 396              		@ args = 0, pretend = 0, frame = 0
 397              		@ frame_needed = 0, uses_anonymous_args = 0
 398 0000 10B5     		push	{r4, lr}
 399 0002 FFF7FEFF 		bl	HAL_SYSTICK_Callback
 400              		@ sp needed
 401 0006 10BD     		pop	{r4, pc}
 403              		.section	.text.HAL_MPU_Disable,"ax",%progbits
 404              		.align	1
 405              		.global	HAL_MPU_Disable
 406              		.syntax unified
 407              		.code	16
 408              		.thumb_func
 410              	HAL_MPU_Disable:
 411              		@ args = 0, pretend = 0, frame = 0
 412              		@ frame_needed = 0, uses_anonymous_args = 0
 413              		@ link register save eliminated.
 414              		.syntax divided
 415              	@ 957 "bsp_l0/mcu_drivers/cmsis/Core/Include/cmsis_gcc.h" 1
 416 0000 BFF35F8F 		dmb 0xF
 417              	@ 0 "" 2
 418              		.thumb
 419              		.syntax unified
 420 0004 0022     		movs	r2, #0
 421              		@ sp needed
 422 0006 014B     		ldr	r3, .L50
 423 0008 5A60     		str	r2, [r3, #4]
 424 000a 7047     		bx	lr
ARM GAS  /tmp/ccn7EpLk.s 			page 8


 425              	.L51:
 426              		.align	2
 427              	.L50:
 428 000c 90ED00E0 		.word	-536810096
 430              		.section	.text.HAL_MPU_Enable,"ax",%progbits
 431              		.align	1
 432              		.global	HAL_MPU_Enable
 433              		.syntax unified
 434              		.code	16
 435              		.thumb_func
 437              	HAL_MPU_Enable:
 438              		@ args = 0, pretend = 0, frame = 0
 439              		@ frame_needed = 0, uses_anonymous_args = 0
 440              		@ link register save eliminated.
 441 0000 0123     		movs	r3, #1
 442 0002 044A     		ldr	r2, .L53
 443 0004 0343     		orrs	r3, r0
 444 0006 5360     		str	r3, [r2, #4]
 445              		.syntax divided
 446              	@ 946 "bsp_l0/mcu_drivers/cmsis/Core/Include/cmsis_gcc.h" 1
 447 0008 BFF34F8F 		dsb 0xF
 448              	@ 0 "" 2
 449              	@ 935 "bsp_l0/mcu_drivers/cmsis/Core/Include/cmsis_gcc.h" 1
 450 000c BFF36F8F 		isb 0xF
 451              	@ 0 "" 2
 452              		.thumb
 453              		.syntax unified
 454              		@ sp needed
 455 0010 7047     		bx	lr
 456              	.L54:
 457 0012 C046     		.align	2
 458              	.L53:
 459 0014 90ED00E0 		.word	-536810096
 461              		.section	.text.HAL_MPU_ConfigRegion,"ax",%progbits
 462              		.align	1
 463              		.global	HAL_MPU_ConfigRegion
 464              		.syntax unified
 465              		.code	16
 466              		.thumb_func
 468              	HAL_MPU_ConfigRegion:
 469              		@ args = 0, pretend = 0, frame = 0
 470              		@ frame_needed = 0, uses_anonymous_args = 0
 471 0000 10B5     		push	{r4, lr}
 472 0002 124A     		ldr	r2, .L58
 473 0004 4379     		ldrb	r3, [r0, #5]
 474 0006 9360     		str	r3, [r2, #8]
 475 0008 0179     		ldrb	r1, [r0, #4]
 476 000a 0129     		cmp	r1, #1
 477 000c 1AD1     		bne	.L56
 478 000e 0F24     		movs	r4, #15
 479 0010 0368     		ldr	r3, [r0]
 480 0012 A343     		bics	r3, r4
 481 0014 D360     		str	r3, [r2, #12]
 482 0016 837A     		ldrb	r3, [r0, #10]
 483 0018 8479     		ldrb	r4, [r0, #6]
 484 001a 1B07     		lsls	r3, r3, #28
 485 001c 6400     		lsls	r4, r4, #1
ARM GAS  /tmp/ccn7EpLk.s 			page 9


 486 001e 2343     		orrs	r3, r4
 487 0020 447A     		ldrb	r4, [r0, #9]
 488 0022 2406     		lsls	r4, r4, #24
 489 0024 2343     		orrs	r3, r4
 490 0026 C47A     		ldrb	r4, [r0, #11]
 491 0028 A404     		lsls	r4, r4, #18
 492 002a 2343     		orrs	r3, r4
 493 002c 047B     		ldrb	r4, [r0, #12]
 494 002e 6404     		lsls	r4, r4, #17
 495 0030 2343     		orrs	r3, r4
 496 0032 447B     		ldrb	r4, [r0, #13]
 497 0034 C079     		ldrb	r0, [r0, #7]
 498 0036 2404     		lsls	r4, r4, #16
 499 0038 2343     		orrs	r3, r4
 500 003a 0002     		lsls	r0, r0, #8
 501 003c 0343     		orrs	r3, r0
 502 003e 1943     		orrs	r1, r3
 503 0040 1161     		str	r1, [r2, #16]
 504              	.L55:
 505              		@ sp needed
 506 0042 10BD     		pop	{r4, pc}
 507              	.L56:
 508 0044 0023     		movs	r3, #0
 509 0046 D360     		str	r3, [r2, #12]
 510 0048 1361     		str	r3, [r2, #16]
 511 004a FAE7     		b	.L55
 512              	.L59:
 513              		.align	2
 514              	.L58:
 515 004c 90ED00E0 		.word	-536810096
 517              		.ident	"GCC: (Arch Repository) 13.2.0"
ARM GAS  /tmp/ccn7EpLk.s 			page 10

