ARM GAS  /tmp/ccBZSXrO.s 			page 1


   1              		.cpu cortex-m0
   2              		.arch armv6s-m
   3              		.fpu softvfp
   4              		.eabi_attribute 23, 1
   5              		.eabi_attribute 24, 1
   6              		.eabi_attribute 25, 1
   7              		.eabi_attribute 26, 1
   8              		.eabi_attribute 30, 4
   9              		.eabi_attribute 34, 0
  10              		.eabi_attribute 18, 4
  11              		.file	"stm32l0xx_hal_pwr_ex.c"
  12              		.text
  13              		.section	.text.HAL_PWREx_GetVoltageRange,"ax",%progbits
  14              		.align	1
  15              		.global	HAL_PWREx_GetVoltageRange
  16              		.syntax unified
  17              		.code	16
  18              		.thumb_func
  20              	HAL_PWREx_GetVoltageRange:
  21              		@ args = 0, pretend = 0, frame = 0
  22              		@ frame_needed = 0, uses_anonymous_args = 0
  23              		@ link register save eliminated.
  24 0000 024B     		ldr	r3, .L2
  25              		@ sp needed
  26 0002 1868     		ldr	r0, [r3]
  27 0004 C023     		movs	r3, #192
  28 0006 5B01     		lsls	r3, r3, #5
  29 0008 1840     		ands	r0, r3
  30 000a 7047     		bx	lr
  31              	.L3:
  32              		.align	2
  33              	.L2:
  34 000c 00700040 		.word	1073770496
  36              		.section	.text.HAL_PWREx_EnableFastWakeUp,"ax",%progbits
  37              		.align	1
  38              		.global	HAL_PWREx_EnableFastWakeUp
  39              		.syntax unified
  40              		.code	16
  41              		.thumb_func
  43              	HAL_PWREx_EnableFastWakeUp:
  44              		@ args = 0, pretend = 0, frame = 0
  45              		@ frame_needed = 0, uses_anonymous_args = 0
  46              		@ link register save eliminated.
  47 0000 8023     		movs	r3, #128
  48              		@ sp needed
  49 0002 034A     		ldr	r2, .L5
  50 0004 DB00     		lsls	r3, r3, #3
  51 0006 1168     		ldr	r1, [r2]
  52 0008 0B43     		orrs	r3, r1
  53 000a 1360     		str	r3, [r2]
  54 000c 7047     		bx	lr
  55              	.L6:
  56 000e C046     		.align	2
  57              	.L5:
  58 0010 00700040 		.word	1073770496
  60              		.section	.text.HAL_PWREx_DisableFastWakeUp,"ax",%progbits
  61              		.align	1
ARM GAS  /tmp/ccBZSXrO.s 			page 2


  62              		.global	HAL_PWREx_DisableFastWakeUp
  63              		.syntax unified
  64              		.code	16
  65              		.thumb_func
  67              	HAL_PWREx_DisableFastWakeUp:
  68              		@ args = 0, pretend = 0, frame = 0
  69              		@ frame_needed = 0, uses_anonymous_args = 0
  70              		@ link register save eliminated.
  71 0000 024A     		ldr	r2, .L8
  72 0002 0349     		ldr	r1, .L8+4
  73 0004 1368     		ldr	r3, [r2]
  74              		@ sp needed
  75 0006 0B40     		ands	r3, r1
  76 0008 1360     		str	r3, [r2]
  77 000a 7047     		bx	lr
  78              	.L9:
  79              		.align	2
  80              	.L8:
  81 000c 00700040 		.word	1073770496
  82 0010 FFFBFFFF 		.word	-1025
  84              		.section	.text.HAL_PWREx_EnableUltraLowPower,"ax",%progbits
  85              		.align	1
  86              		.global	HAL_PWREx_EnableUltraLowPower
  87              		.syntax unified
  88              		.code	16
  89              		.thumb_func
  91              	HAL_PWREx_EnableUltraLowPower:
  92              		@ args = 0, pretend = 0, frame = 0
  93              		@ frame_needed = 0, uses_anonymous_args = 0
  94              		@ link register save eliminated.
  95 0000 8023     		movs	r3, #128
  96              		@ sp needed
  97 0002 034A     		ldr	r2, .L11
  98 0004 9B00     		lsls	r3, r3, #2
  99 0006 1168     		ldr	r1, [r2]
 100 0008 0B43     		orrs	r3, r1
 101 000a 1360     		str	r3, [r2]
 102 000c 7047     		bx	lr
 103              	.L12:
 104 000e C046     		.align	2
 105              	.L11:
 106 0010 00700040 		.word	1073770496
 108              		.section	.text.HAL_PWREx_DisableUltraLowPower,"ax",%progbits
 109              		.align	1
 110              		.global	HAL_PWREx_DisableUltraLowPower
 111              		.syntax unified
 112              		.code	16
 113              		.thumb_func
 115              	HAL_PWREx_DisableUltraLowPower:
 116              		@ args = 0, pretend = 0, frame = 0
 117              		@ frame_needed = 0, uses_anonymous_args = 0
 118              		@ link register save eliminated.
 119 0000 024A     		ldr	r2, .L14
 120 0002 0349     		ldr	r1, .L14+4
 121 0004 1368     		ldr	r3, [r2]
 122              		@ sp needed
 123 0006 0B40     		ands	r3, r1
ARM GAS  /tmp/ccBZSXrO.s 			page 3


 124 0008 1360     		str	r3, [r2]
 125 000a 7047     		bx	lr
 126              	.L15:
 127              		.align	2
 128              	.L14:
 129 000c 00700040 		.word	1073770496
 130 0010 FFFDFFFF 		.word	-513
 132              		.section	.text.HAL_PWREx_EnableLowPowerRunMode,"ax",%progbits
 133              		.align	1
 134              		.global	HAL_PWREx_EnableLowPowerRunMode
 135              		.syntax unified
 136              		.code	16
 137              		.thumb_func
 139              	HAL_PWREx_EnableLowPowerRunMode:
 140              		@ args = 0, pretend = 0, frame = 0
 141              		@ frame_needed = 0, uses_anonymous_args = 0
 142              		@ link register save eliminated.
 143 0000 0122     		movs	r2, #1
 144              		@ sp needed
 145 0002 054B     		ldr	r3, .L17
 146 0004 1968     		ldr	r1, [r3]
 147 0006 0A43     		orrs	r2, r1
 148 0008 1A60     		str	r2, [r3]
 149 000a 8022     		movs	r2, #128
 150 000c 1968     		ldr	r1, [r3]
 151 000e D201     		lsls	r2, r2, #7
 152 0010 0A43     		orrs	r2, r1
 153 0012 1A60     		str	r2, [r3]
 154 0014 7047     		bx	lr
 155              	.L18:
 156 0016 C046     		.align	2
 157              	.L17:
 158 0018 00700040 		.word	1073770496
 160              		.global	__aeabi_uidiv
 161              		.section	.text.HAL_PWREx_DisableLowPowerRunMode,"ax",%progbits
 162              		.align	1
 163              		.global	HAL_PWREx_DisableLowPowerRunMode
 164              		.syntax unified
 165              		.code	16
 166              		.thumb_func
 168              	HAL_PWREx_DisableLowPowerRunMode:
 169              		@ args = 0, pretend = 0, frame = 0
 170              		@ frame_needed = 0, uses_anonymous_args = 0
 171 0000 10B5     		push	{r4, lr}
 172 0002 104C     		ldr	r4, .L28
 173 0004 104A     		ldr	r2, .L28+4
 174 0006 2368     		ldr	r3, [r4]
 175 0008 1049     		ldr	r1, .L28+8
 176 000a 1340     		ands	r3, r2
 177 000c 0122     		movs	r2, #1
 178 000e 2360     		str	r3, [r4]
 179 0010 2368     		ldr	r3, [r4]
 180 0012 9343     		bics	r3, r2
 181 0014 2360     		str	r3, [r4]
 182 0016 0E4B     		ldr	r3, .L28+12
 183 0018 1868     		ldr	r0, [r3]
 184 001a FFF7FEFF 		bl	__aeabi_uidiv
ARM GAS  /tmp/ccBZSXrO.s 			page 4


 185 001e 3223     		movs	r3, #50
 186 0020 5843     		muls	r0, r3
 187 0022 123B     		subs	r3, r3, #18
 188              	.L20:
 189 0024 0028     		cmp	r0, #0
 190 0026 02D0     		beq	.L21
 191 0028 6268     		ldr	r2, [r4, #4]
 192 002a 1A42     		tst	r2, r3
 193 002c 08D1     		bne	.L22
 194              	.L21:
 195 002e 6268     		ldr	r2, [r4, #4]
 196 0030 2023     		movs	r3, #32
 197 0032 1100     		movs	r1, r2
 198 0034 0320     		movs	r0, #3
 199 0036 1940     		ands	r1, r3
 200 0038 1A42     		tst	r2, r3
 201 003a 00D1     		bne	.L23
 202 003c 0800     		movs	r0, r1
 203              	.L23:
 204              		@ sp needed
 205 003e 10BD     		pop	{r4, pc}
 206              	.L22:
 207 0040 0138     		subs	r0, r0, #1
 208 0042 EFE7     		b	.L20
 209              	.L29:
 210              		.align	2
 211              	.L28:
 212 0044 00700040 		.word	1073770496
 213 0048 FFBFFFFF 		.word	-16385
 214 004c 40420F00 		.word	1000000
 215 0050 00000000 		.word	SystemCoreClock
 217              		.ident	"GCC: (Arch Repository) 13.2.0"
ARM GAS  /tmp/ccBZSXrO.s 			page 5

