ARM GAS  /tmp/ccLBxpA5.s 			page 1


   1              		.cpu cortex-m0
   2              		.arch armv6s-m
   3              		.fpu softvfp
   4              		.eabi_attribute 23, 1
   5              		.eabi_attribute 24, 1
   6              		.eabi_attribute 25, 1
   7              		.eabi_attribute 26, 1
   8              		.eabi_attribute 30, 4
   9              		.eabi_attribute 34, 0
  10              		.eabi_attribute 18, 4
  11              		.file	"stm32l0xx_hal_spi.c"
  12              		.text
  13              		.global	__aeabi_uidiv
  14              		.section	.text.SPI_AbortRx_ISR,"ax",%progbits
  15              		.align	1
  16              		.syntax unified
  17              		.code	16
  18              		.thumb_func
  20              	SPI_AbortRx_ISR:
  21              		@ args = 0, pretend = 0, frame = 8
  22              		@ frame_needed = 0, uses_anonymous_args = 0
  23 0000 0023     		movs	r3, #0
  24 0002 13B5     		push	{r0, r1, r4, lr}
  25 0004 0093     		str	r3, [sp]
  26 0006 144B     		ldr	r3, .L7
  27 0008 0400     		movs	r4, r0
  28 000a 1449     		ldr	r1, .L7+4
  29 000c 1868     		ldr	r0, [r3]
  30 000e FFF7FEFF 		bl	__aeabi_uidiv
  31 0012 6423     		movs	r3, #100
  32 0014 0221     		movs	r1, #2
  33 0016 4343     		muls	r3, r0
  34 0018 0193     		str	r3, [sp, #4]
  35 001a 2368     		ldr	r3, [r4]
  36              	.L4:
  37 001c 019A     		ldr	r2, [sp, #4]
  38 001e 002A     		cmp	r2, #0
  39 0020 12D1     		bne	.L2
  40 0022 616D     		ldr	r1, [r4, #84]
  41 0024 4032     		adds	r2, r2, #64
  42 0026 0A43     		orrs	r2, r1
  43 0028 6265     		str	r2, [r4, #84]
  44              	.L3:
  45 002a 4021     		movs	r1, #64
  46              		@ sp needed
  47 002c 1A68     		ldr	r2, [r3]
  48 002e 5134     		adds	r4, r4, #81
  49 0030 8A43     		bics	r2, r1
  50 0032 1A60     		str	r2, [r3]
  51 0034 5A68     		ldr	r2, [r3, #4]
  52 0036 A031     		adds	r1, r1, #160
  53 0038 8A43     		bics	r2, r1
  54 003a 5A60     		str	r2, [r3, #4]
  55 003c DB68     		ldr	r3, [r3, #12]
  56 003e 0093     		str	r3, [sp]
  57 0040 009B     		ldr	r3, [sp]
  58 0042 0723     		movs	r3, #7
ARM GAS  /tmp/ccLBxpA5.s 			page 2


  59 0044 2370     		strb	r3, [r4]
  60 0046 13BD     		pop	{r0, r1, r4, pc}
  61              	.L2:
  62 0048 019A     		ldr	r2, [sp, #4]
  63 004a 013A     		subs	r2, r2, #1
  64 004c 0192     		str	r2, [sp, #4]
  65 004e 9A68     		ldr	r2, [r3, #8]
  66 0050 0A42     		tst	r2, r1
  67 0052 E3D0     		beq	.L4
  68 0054 E9E7     		b	.L3
  69              	.L8:
  70 0056 C046     		.align	2
  71              	.L7:
  72 0058 00000000 		.word	SystemCoreClock
  73 005c C05D0000 		.word	24000
  75              		.section	.text.SPI_AbortTx_ISR,"ax",%progbits
  76              		.align	1
  77              		.syntax unified
  78              		.code	16
  79              		.thumb_func
  81              	SPI_AbortTx_ISR:
  82              		@ args = 0, pretend = 0, frame = 0
  83              		@ frame_needed = 0, uses_anonymous_args = 0
  84              		@ link register save eliminated.
  85 0000 8021     		movs	r1, #128
  86              		@ sp needed
  87 0002 0368     		ldr	r3, [r0]
  88 0004 5130     		adds	r0, r0, #81
  89 0006 5A68     		ldr	r2, [r3, #4]
  90 0008 8A43     		bics	r2, r1
  91 000a 5A60     		str	r2, [r3, #4]
  92 000c 1A68     		ldr	r2, [r3]
  93 000e 4039     		subs	r1, r1, #64
  94 0010 8A43     		bics	r2, r1
  95 0012 1A60     		str	r2, [r3]
  96 0014 0723     		movs	r3, #7
  97 0016 0370     		strb	r3, [r0]
  98 0018 7047     		bx	lr
 100              		.section	.text.SPI_WaitFlagStateUntilTimeout.constprop.0,"ax",%progbits
 101              		.align	1
 102              		.syntax unified
 103              		.code	16
 104              		.thumb_func
 106              	SPI_WaitFlagStateUntilTimeout.constprop.0:
 107              		@ args = 0, pretend = 0, frame = 16
 108              		@ frame_needed = 0, uses_anonymous_args = 0
 109 0000 F0B5     		push	{r4, r5, r6, r7, lr}
 110 0002 1D00     		movs	r5, r3
 111 0004 85B0     		sub	sp, sp, #20
 112 0006 1700     		movs	r7, r2
 113 0008 0E00     		movs	r6, r1
 114 000a 0400     		movs	r4, r0
 115 000c FFF7FEFF 		bl	HAL_GetTick
 116 0010 ED19     		adds	r5, r5, r7
 117 0012 2D1A     		subs	r5, r5, r0
 118 0014 FFF7FEFF 		bl	HAL_GetTick
 119 0018 254B     		ldr	r3, .L26
ARM GAS  /tmp/ccLBxpA5.s 			page 3


 120 001a 0190     		str	r0, [sp, #4]
 121 001c 1B68     		ldr	r3, [r3]
 122 001e 5B01     		lsls	r3, r3, #5
 123 0020 1B0D     		lsrs	r3, r3, #20
 124 0022 6B43     		muls	r3, r5
 125 0024 0393     		str	r3, [sp, #12]
 126              	.L11:
 127 0026 2268     		ldr	r2, [r4]
 128              	.L12:
 129 0028 9368     		ldr	r3, [r2, #8]
 130 002a 3340     		ands	r3, r6
 131 002c 9E42     		cmp	r6, r3
 132 002e 01D0     		beq	.L19
 133 0030 0020     		movs	r0, #0
 134 0032 32E0     		b	.L17
 135              	.L19:
 136 0034 7B1C     		adds	r3, r7, #1
 137 0036 F7D0     		beq	.L12
 138 0038 FFF7FEFF 		bl	HAL_GetTick
 139 003c 019B     		ldr	r3, [sp, #4]
 140 003e C01A     		subs	r0, r0, r3
 141 0040 A842     		cmp	r0, r5
 142 0042 2CD3     		bcc	.L13
 143 0044 E021     		movs	r1, #224
 144 0046 2368     		ldr	r3, [r4]
 145 0048 5A68     		ldr	r2, [r3, #4]
 146 004a 8A43     		bics	r2, r1
 147 004c 5A60     		str	r2, [r3, #4]
 148 004e 8222     		movs	r2, #130
 149 0050 6168     		ldr	r1, [r4, #4]
 150 0052 5200     		lsls	r2, r2, #1
 151 0054 9142     		cmp	r1, r2
 152 0056 0CD1     		bne	.L14
 153 0058 8021     		movs	r1, #128
 154 005a A268     		ldr	r2, [r4, #8]
 155 005c 0902     		lsls	r1, r1, #8
 156 005e 8A42     		cmp	r2, r1
 157 0060 03D0     		beq	.L15
 158 0062 8021     		movs	r1, #128
 159 0064 C900     		lsls	r1, r1, #3
 160 0066 8A42     		cmp	r2, r1
 161 0068 03D1     		bne	.L14
 162              	.L15:
 163 006a 4021     		movs	r1, #64
 164 006c 1A68     		ldr	r2, [r3]
 165 006e 8A43     		bics	r2, r1
 166 0070 1A60     		str	r2, [r3]
 167              	.L14:
 168 0072 8021     		movs	r1, #128
 169 0074 A26A     		ldr	r2, [r4, #40]
 170 0076 8901     		lsls	r1, r1, #6
 171 0078 8A42     		cmp	r2, r1
 172 007a 06D1     		bne	.L16
 173 007c 1968     		ldr	r1, [r3]
 174 007e 0D48     		ldr	r0, .L26+4
 175 0080 0140     		ands	r1, r0
 176 0082 1960     		str	r1, [r3]
ARM GAS  /tmp/ccLBxpA5.s 			page 4


 177 0084 1968     		ldr	r1, [r3]
 178 0086 0A43     		orrs	r2, r1
 179 0088 1A60     		str	r2, [r3]
 180              	.L16:
 181 008a 2300     		movs	r3, r4
 182 008c 0122     		movs	r2, #1
 183 008e 5133     		adds	r3, r3, #81
 184 0090 1A70     		strb	r2, [r3]
 185 0092 0023     		movs	r3, #0
 186 0094 0320     		movs	r0, #3
 187 0096 5034     		adds	r4, r4, #80
 188 0098 2370     		strb	r3, [r4]
 189              	.L17:
 190 009a 05B0     		add	sp, sp, #20
 191              		@ sp needed
 192 009c F0BD     		pop	{r4, r5, r6, r7, pc}
 193              	.L13:
 194 009e 039B     		ldr	r3, [sp, #12]
 195 00a0 002B     		cmp	r3, #0
 196 00a2 00D0     		beq	.L18
 197 00a4 2B00     		movs	r3, r5
 198              	.L18:
 199 00a6 039A     		ldr	r2, [sp, #12]
 200 00a8 1D00     		movs	r5, r3
 201 00aa 013A     		subs	r2, r2, #1
 202 00ac 0392     		str	r2, [sp, #12]
 203 00ae BAE7     		b	.L11
 204              	.L27:
 205              		.align	2
 206              	.L26:
 207 00b0 00000000 		.word	SystemCoreClock
 208 00b4 FFDFFFFF 		.word	-8193
 210              		.section	.text.SPI_EndRxTransaction,"ax",%progbits
 211              		.align	1
 212              		.syntax unified
 213              		.code	16
 214              		.thumb_func
 216              	SPI_EndRxTransaction:
 217              		@ args = 0, pretend = 0, frame = 0
 218              		@ frame_needed = 0, uses_anonymous_args = 0
 219 0000 F8B5     		push	{r3, r4, r5, r6, r7, lr}
 220 0002 1300     		movs	r3, r2
 221 0004 8222     		movs	r2, #130
 222 0006 0400     		movs	r4, r0
 223 0008 4068     		ldr	r0, [r0, #4]
 224 000a 5200     		lsls	r2, r2, #1
 225 000c 9042     		cmp	r0, r2
 226 000e 08D0     		beq	.L29
 227              	.L45:
 228 0010 0A00     		movs	r2, r1
 229 0012 0121     		movs	r1, #1
 230              	.L44:
 231 0014 2000     		movs	r0, r4
 232 0016 FFF7FEFF 		bl	SPI_WaitFlagStateUntilTimeout.constprop.0
 233 001a 0028     		cmp	r0, #0
 234 001c 14D1     		bne	.L43
 235 001e 0020     		movs	r0, #0
ARM GAS  /tmp/ccLBxpA5.s 			page 5


 236              	.L31:
 237              		@ sp needed
 238 0020 F8BD     		pop	{r3, r4, r5, r6, r7, pc}
 239              	.L29:
 240 0022 8020     		movs	r0, #128
 241 0024 8025     		movs	r5, #128
 242 0026 A268     		ldr	r2, [r4, #8]
 243 0028 0002     		lsls	r0, r0, #8
 244 002a ED00     		lsls	r5, r5, #3
 245 002c 8242     		cmp	r2, r0
 246 002e 01D0     		beq	.L32
 247 0030 AA42     		cmp	r2, r5
 248 0032 06D1     		bne	.L33
 249              	.L32:
 250 0034 4027     		movs	r7, #64
 251 0036 2668     		ldr	r6, [r4]
 252 0038 3068     		ldr	r0, [r6]
 253 003a B843     		bics	r0, r7
 254 003c 3060     		str	r0, [r6]
 255 003e AA42     		cmp	r2, r5
 256 0040 E6D0     		beq	.L45
 257              	.L33:
 258 0042 0A00     		movs	r2, r1
 259 0044 8021     		movs	r1, #128
 260 0046 E5E7     		b	.L44
 261              	.L43:
 262 0048 2023     		movs	r3, #32
 263 004a 626D     		ldr	r2, [r4, #84]
 264 004c 0320     		movs	r0, #3
 265 004e 1343     		orrs	r3, r2
 266 0050 6365     		str	r3, [r4, #84]
 267 0052 E5E7     		b	.L31
 269              		.section	.text.SPI_EndRxTxTransaction,"ax",%progbits
 270              		.align	1
 271              		.syntax unified
 272              		.code	16
 273              		.thumb_func
 275              	SPI_EndRxTxTransaction:
 276              		@ args = 0, pretend = 0, frame = 8
 277              		@ frame_needed = 0, uses_anonymous_args = 0
 278 0000 164B     		ldr	r3, .L58
 279 0002 73B5     		push	{r0, r1, r4, r5, r6, lr}
 280 0004 0400     		movs	r4, r0
 281 0006 0D00     		movs	r5, r1
 282 0008 1868     		ldr	r0, [r3]
 283 000a 1549     		ldr	r1, .L58+4
 284 000c 1600     		movs	r6, r2
 285 000e FFF7FEFF 		bl	__aeabi_uidiv
 286 0012 FA23     		movs	r3, #250
 287 0014 9B00     		lsls	r3, r3, #2
 288 0016 4343     		muls	r3, r0
 289 0018 0193     		str	r3, [sp, #4]
 290 001a 8223     		movs	r3, #130
 291 001c 6168     		ldr	r1, [r4, #4]
 292 001e 8022     		movs	r2, #128
 293 0020 5B00     		lsls	r3, r3, #1
 294 0022 9942     		cmp	r1, r3
ARM GAS  /tmp/ccLBxpA5.s 			page 6


 295 0024 0DD1     		bne	.L47
 296 0026 3300     		movs	r3, r6
 297 0028 2A00     		movs	r2, r5
 298 002a 8021     		movs	r1, #128
 299 002c 2000     		movs	r0, r4
 300 002e FFF7FEFF 		bl	SPI_WaitFlagStateUntilTimeout.constprop.0
 301 0032 0028     		cmp	r0, #0
 302 0034 0FD0     		beq	.L48
 303 0036 2023     		movs	r3, #32
 304 0038 0320     		movs	r0, #3
 305 003a 626D     		ldr	r2, [r4, #84]
 306 003c 1343     		orrs	r3, r2
 307 003e 6365     		str	r3, [r4, #84]
 308              	.L49:
 309              		@ sp needed
 310 0040 76BD     		pop	{r1, r2, r4, r5, r6, pc}
 311              	.L47:
 312 0042 019B     		ldr	r3, [sp, #4]
 313 0044 002B     		cmp	r3, #0
 314 0046 06D0     		beq	.L48
 315 0048 019B     		ldr	r3, [sp, #4]
 316 004a 013B     		subs	r3, r3, #1
 317 004c 0193     		str	r3, [sp, #4]
 318 004e 2368     		ldr	r3, [r4]
 319 0050 9B68     		ldr	r3, [r3, #8]
 320 0052 1342     		tst	r3, r2
 321 0054 F5D1     		bne	.L47
 322              	.L48:
 323 0056 0020     		movs	r0, #0
 324 0058 F2E7     		b	.L49
 325              	.L59:
 326 005a C046     		.align	2
 327              	.L58:
 328 005c 00000000 		.word	SystemCoreClock
 329 0060 00366E01 		.word	24000000
 331              		.section	.text.HAL_SPI_MspInit,"ax",%progbits
 332              		.align	1
 333              		.weak	HAL_SPI_MspInit
 334              		.syntax unified
 335              		.code	16
 336              		.thumb_func
 338              	HAL_SPI_MspInit:
 339              		@ args = 0, pretend = 0, frame = 0
 340              		@ frame_needed = 0, uses_anonymous_args = 0
 341              		@ link register save eliminated.
 342              		@ sp needed
 343 0000 7047     		bx	lr
 345              		.section	.text.HAL_SPI_Init,"ax",%progbits
 346              		.align	1
 347              		.global	HAL_SPI_Init
 348              		.syntax unified
 349              		.code	16
 350              		.thumb_func
 352              	HAL_SPI_Init:
 353              		@ args = 0, pretend = 0, frame = 0
 354              		@ frame_needed = 0, uses_anonymous_args = 0
 355 0000 F8B5     		push	{r3, r4, r5, r6, r7, lr}
ARM GAS  /tmp/ccLBxpA5.s 			page 7


 356 0002 0400     		movs	r4, r0
 357 0004 0120     		movs	r0, #1
 358 0006 002C     		cmp	r4, #0
 359 0008 54D0     		beq	.L62
 360 000a 636A     		ldr	r3, [r4, #36]
 361 000c 002B     		cmp	r3, #0
 362 000e 52D1     		bne	.L63
 363 0010 8222     		movs	r2, #130
 364 0012 6168     		ldr	r1, [r4, #4]
 365 0014 5200     		lsls	r2, r2, #1
 366 0016 9142     		cmp	r1, r2
 367 0018 00D0     		beq	.L64
 368 001a E361     		str	r3, [r4, #28]
 369              	.L64:
 370 001c 0023     		movs	r3, #0
 371 001e 2500     		movs	r5, r4
 372 0020 A362     		str	r3, [r4, #40]
 373 0022 5135     		adds	r5, r5, #81
 374 0024 2B78     		ldrb	r3, [r5]
 375 0026 DAB2     		uxtb	r2, r3
 376 0028 002B     		cmp	r3, #0
 377 002a 05D1     		bne	.L65
 378 002c 2300     		movs	r3, r4
 379 002e 5033     		adds	r3, r3, #80
 380 0030 2000     		movs	r0, r4
 381 0032 1A70     		strb	r2, [r3]
 382 0034 FFF7FEFF 		bl	HAL_SPI_MspInit
 383              	.L65:
 384 0038 0226     		movs	r6, #2
 385 003a 4022     		movs	r2, #64
 386 003c 8220     		movs	r0, #130
 387 003e 8427     		movs	r7, #132
 388 0040 2E70     		strb	r6, [r5]
 389 0042 2168     		ldr	r1, [r4]
 390 0044 4000     		lsls	r0, r0, #1
 391 0046 0B68     		ldr	r3, [r1]
 392 0048 3F02     		lsls	r7, r7, #8
 393 004a 9343     		bics	r3, r2
 394 004c 0B60     		str	r3, [r1]
 395 004e 6368     		ldr	r3, [r4, #4]
 396 0050 A269     		ldr	r2, [r4, #24]
 397 0052 0340     		ands	r3, r0
 398 0054 A068     		ldr	r0, [r4, #8]
 399 0056 3840     		ands	r0, r7
 400 0058 8027     		movs	r7, #128
 401 005a 0343     		orrs	r3, r0
 402 005c E068     		ldr	r0, [r4, #12]
 403 005e 3F01     		lsls	r7, r7, #4
 404 0060 3840     		ands	r0, r7
 405 0062 0343     		orrs	r3, r0
 406 0064 2069     		ldr	r0, [r4, #16]
 407 0066 3827     		movs	r7, #56
 408 0068 3040     		ands	r0, r6
 409 006a 0343     		orrs	r3, r0
 410 006c 6069     		ldr	r0, [r4, #20]
 411 006e 013E     		subs	r6, r6, #1
 412 0070 3040     		ands	r0, r6
ARM GAS  /tmp/ccLBxpA5.s 			page 8


 413 0072 0343     		orrs	r3, r0
 414 0074 8020     		movs	r0, #128
 415 0076 8000     		lsls	r0, r0, #2
 416 0078 1040     		ands	r0, r2
 417 007a 0343     		orrs	r3, r0
 418 007c E069     		ldr	r0, [r4, #28]
 419 007e 120C     		lsrs	r2, r2, #16
 420 0080 3840     		ands	r0, r7
 421 0082 0343     		orrs	r3, r0
 422 0084 206A     		ldr	r0, [r4, #32]
 423 0086 4837     		adds	r7, r7, #72
 424 0088 3840     		ands	r0, r7
 425 008a 8027     		movs	r7, #128
 426 008c 0343     		orrs	r3, r0
 427 008e A06A     		ldr	r0, [r4, #40]
 428 0090 BF01     		lsls	r7, r7, #6
 429 0092 3840     		ands	r0, r7
 430 0094 0343     		orrs	r3, r0
 431 0096 0B60     		str	r3, [r1]
 432 0098 0423     		movs	r3, #4
 433 009a 1020     		movs	r0, #16
 434 009c 1A40     		ands	r2, r3
 435 009e 636A     		ldr	r3, [r4, #36]
 436 00a0 0340     		ands	r3, r0
 437 00a2 0020     		movs	r0, #0
 438 00a4 1A43     		orrs	r2, r3
 439 00a6 4A60     		str	r2, [r1, #4]
 440 00a8 CB69     		ldr	r3, [r1, #28]
 441 00aa 054A     		ldr	r2, .L67
 442 00ac 1340     		ands	r3, r2
 443 00ae CB61     		str	r3, [r1, #28]
 444 00b0 6065     		str	r0, [r4, #84]
 445 00b2 2E70     		strb	r6, [r5]
 446              	.L62:
 447              		@ sp needed
 448 00b4 F8BD     		pop	{r3, r4, r5, r6, r7, pc}
 449              	.L63:
 450 00b6 0023     		movs	r3, #0
 451 00b8 2361     		str	r3, [r4, #16]
 452 00ba 6361     		str	r3, [r4, #20]
 453 00bc AEE7     		b	.L64
 454              	.L68:
 455 00be C046     		.align	2
 456              	.L67:
 457 00c0 FFF7FFFF 		.word	-2049
 459              		.section	.text.HAL_SPI_MspDeInit,"ax",%progbits
 460              		.align	1
 461              		.weak	HAL_SPI_MspDeInit
 462              		.syntax unified
 463              		.code	16
 464              		.thumb_func
 466              	HAL_SPI_MspDeInit:
 467              		@ args = 0, pretend = 0, frame = 0
 468              		@ frame_needed = 0, uses_anonymous_args = 0
 469              		@ link register save eliminated.
 470              		@ sp needed
 471 0000 7047     		bx	lr
ARM GAS  /tmp/ccLBxpA5.s 			page 9


 473              		.section	.text.HAL_SPI_DeInit,"ax",%progbits
 474              		.align	1
 475              		.global	HAL_SPI_DeInit
 476              		.syntax unified
 477              		.code	16
 478              		.thumb_func
 480              	HAL_SPI_DeInit:
 481              		@ args = 0, pretend = 0, frame = 0
 482              		@ frame_needed = 0, uses_anonymous_args = 0
 483 0000 70B5     		push	{r4, r5, r6, lr}
 484 0002 0400     		movs	r4, r0
 485 0004 0120     		movs	r0, #1
 486 0006 002C     		cmp	r4, #0
 487 0008 10D0     		beq	.L71
 488 000a 2500     		movs	r5, r4
 489 000c 0223     		movs	r3, #2
 490 000e 4021     		movs	r1, #64
 491 0010 5135     		adds	r5, r5, #81
 492 0012 2B70     		strb	r3, [r5]
 493 0014 2268     		ldr	r2, [r4]
 494 0016 2000     		movs	r0, r4
 495 0018 1368     		ldr	r3, [r2]
 496 001a 5034     		adds	r4, r4, #80
 497 001c 8B43     		bics	r3, r1
 498 001e 1360     		str	r3, [r2]
 499 0020 FFF7FEFF 		bl	HAL_SPI_MspDeInit
 500 0024 0020     		movs	r0, #0
 501 0026 6060     		str	r0, [r4, #4]
 502 0028 2870     		strb	r0, [r5]
 503 002a 2070     		strb	r0, [r4]
 504              	.L71:
 505              		@ sp needed
 506 002c 70BD     		pop	{r4, r5, r6, pc}
 508              		.section	.text.HAL_SPI_Transmit,"ax",%progbits
 509              		.align	1
 510              		.global	HAL_SPI_Transmit
 511              		.syntax unified
 512              		.code	16
 513              		.thumb_func
 515              	HAL_SPI_Transmit:
 516              		@ args = 0, pretend = 0, frame = 16
 517              		@ frame_needed = 0, uses_anonymous_args = 0
 518 0000 F0B5     		push	{r4, r5, r6, r7, lr}
 519 0002 1E00     		movs	r6, r3
 520 0004 0300     		movs	r3, r0
 521 0006 85B0     		sub	sp, sp, #20
 522 0008 5033     		adds	r3, r3, #80
 523 000a 0193     		str	r3, [sp, #4]
 524 000c 1B78     		ldrb	r3, [r3]
 525 000e 0400     		movs	r4, r0
 526 0010 0D00     		movs	r5, r1
 527 0012 1700     		movs	r7, r2
 528 0014 0220     		movs	r0, #2
 529 0016 012B     		cmp	r3, #1
 530 0018 00D1     		bne	.LCB548
 531 001a 7BE0     		b	.L74	@long jump
 532              	.LCB548:
ARM GAS  /tmp/ccLBxpA5.s 			page 10


 533 001c 0123     		movs	r3, #1
 534 001e 019A     		ldr	r2, [sp, #4]
 535 0020 1370     		strb	r3, [r2]
 536 0022 FFF7FEFF 		bl	HAL_GetTick
 537 0026 2300     		movs	r3, r4
 538 0028 0090     		str	r0, [sp]
 539 002a 5133     		adds	r3, r3, #81
 540 002c 1A78     		ldrb	r2, [r3]
 541 002e D0B2     		uxtb	r0, r2
 542 0030 012A     		cmp	r2, #1
 543 0032 00D0     		beq	.LCB559
 544 0034 9DE0     		b	.L97	@long jump
 545              	.LCB559:
 546 0036 002D     		cmp	r5, #0
 547 0038 66D0     		beq	.L75
 548 003a 002F     		cmp	r7, #0
 549 003c 64D0     		beq	.L75
 550 003e 0232     		adds	r2, r2, #2
 551 0040 1A70     		strb	r2, [r3]
 552 0042 0023     		movs	r3, #0
 553 0044 6365     		str	r3, [r4, #84]
 554 0046 A363     		str	r3, [r4, #56]
 555 0048 E786     		strh	r7, [r4, #54]
 556 004a A387     		strh	r3, [r4, #60]
 557 004c E387     		strh	r3, [r4, #62]
 558 004e 6364     		str	r3, [r4, #68]
 559 0050 2364     		str	r3, [r4, #64]
 560 0052 8023     		movs	r3, #128
 561 0054 A168     		ldr	r1, [r4, #8]
 562 0056 2268     		ldr	r2, [r4]
 563 0058 2563     		str	r5, [r4, #48]
 564 005a A786     		strh	r7, [r4, #52]
 565 005c 1B02     		lsls	r3, r3, #8
 566 005e 9942     		cmp	r1, r3
 567 0060 08D1     		bne	.L76
 568 0062 4021     		movs	r1, #64
 569 0064 1368     		ldr	r3, [r2]
 570 0066 8B43     		bics	r3, r1
 571 0068 1360     		str	r3, [r2]
 572 006a 8023     		movs	r3, #128
 573 006c 1168     		ldr	r1, [r2]
 574 006e DB01     		lsls	r3, r3, #7
 575 0070 0B43     		orrs	r3, r1
 576 0072 1360     		str	r3, [r2]
 577              	.L76:
 578 0074 4023     		movs	r3, #64
 579 0076 1168     		ldr	r1, [r2]
 580 0078 1942     		tst	r1, r3
 581 007a 02D1     		bne	.L77
 582 007c 1168     		ldr	r1, [r2]
 583 007e 0B43     		orrs	r3, r1
 584 0080 1360     		str	r3, [r2]
 585              	.L77:
 586 0082 8021     		movs	r1, #128
 587 0084 E068     		ldr	r0, [r4, #12]
 588 0086 6368     		ldr	r3, [r4, #4]
 589 0088 0901     		lsls	r1, r1, #4
ARM GAS  /tmp/ccLBxpA5.s 			page 11


 590 008a 8842     		cmp	r0, r1
 591 008c 44D1     		bne	.L78
 592 008e 002B     		cmp	r3, #0
 593 0090 01D0     		beq	.L79
 594 0092 012F     		cmp	r7, #1
 595 0094 07D1     		bne	.L80
 596              	.L79:
 597 0096 2B88     		ldrh	r3, [r5]
 598 0098 0235     		adds	r5, r5, #2
 599 009a D360     		str	r3, [r2, #12]
 600 009c E38E     		ldrh	r3, [r4, #54]
 601 009e 2563     		str	r5, [r4, #48]
 602 00a0 013B     		subs	r3, r3, #1
 603 00a2 9BB2     		uxth	r3, r3
 604 00a4 E386     		strh	r3, [r4, #54]
 605              	.L80:
 606 00a6 0225     		movs	r5, #2
 607 00a8 0CE0     		b	.L83
 608              	.L84:
 609 00aa 2268     		ldr	r2, [r4]
 610 00ac 9368     		ldr	r3, [r2, #8]
 611 00ae 2B42     		tst	r3, r5
 612 00b0 21D0     		beq	.L81
 613 00b2 236B     		ldr	r3, [r4, #48]
 614 00b4 1988     		ldrh	r1, [r3]
 615 00b6 0233     		adds	r3, r3, #2
 616 00b8 D160     		str	r1, [r2, #12]
 617 00ba 2363     		str	r3, [r4, #48]
 618 00bc E38E     		ldrh	r3, [r4, #54]
 619 00be 013B     		subs	r3, r3, #1
 620 00c0 9BB2     		uxth	r3, r3
 621 00c2 E386     		strh	r3, [r4, #54]
 622              	.L83:
 623 00c4 E38E     		ldrh	r3, [r4, #54]
 624 00c6 002B     		cmp	r3, #0
 625 00c8 EFD1     		bne	.L84
 626              	.L94:
 627 00ca 3100     		movs	r1, r6
 628 00cc 2000     		movs	r0, r4
 629 00ce 009A     		ldr	r2, [sp]
 630 00d0 FFF7FEFF 		bl	SPI_EndRxTxTransaction
 631 00d4 0028     		cmp	r0, #0
 632 00d6 49D1     		bne	.L85
 633              	.L86:
 634 00d8 A368     		ldr	r3, [r4, #8]
 635 00da 002B     		cmp	r3, #0
 636 00dc 06D1     		bne	.L95
 637 00de 0393     		str	r3, [sp, #12]
 638 00e0 2368     		ldr	r3, [r4]
 639 00e2 DA68     		ldr	r2, [r3, #12]
 640 00e4 0392     		str	r2, [sp, #12]
 641 00e6 9B68     		ldr	r3, [r3, #8]
 642 00e8 0393     		str	r3, [sp, #12]
 643 00ea 039B     		ldr	r3, [sp, #12]
 644              	.L95:
 645 00ec 606D     		ldr	r0, [r4, #84]
 646 00ee 431E     		subs	r3, r0, #1
ARM GAS  /tmp/ccLBxpA5.s 			page 12


 647 00f0 9841     		sbcs	r0, r0, r3
 648 00f2 C0B2     		uxtb	r0, r0
 649 00f4 08E0     		b	.L75
 650              	.L81:
 651 00f6 FFF7FEFF 		bl	HAL_GetTick
 652 00fa 009B     		ldr	r3, [sp]
 653 00fc C01A     		subs	r0, r0, r3
 654 00fe B042     		cmp	r0, r6
 655 0100 E0D3     		bcc	.L83
 656 0102 731C     		adds	r3, r6, #1
 657 0104 DED0     		beq	.L83
 658              	.L91:
 659 0106 0320     		movs	r0, #3
 660              	.L75:
 661 0108 0123     		movs	r3, #1
 662 010a 5134     		adds	r4, r4, #81
 663 010c 2370     		strb	r3, [r4]
 664 010e 0023     		movs	r3, #0
 665 0110 019A     		ldr	r2, [sp, #4]
 666 0112 1370     		strb	r3, [r2]
 667              	.L74:
 668 0114 05B0     		add	sp, sp, #20
 669              		@ sp needed
 670 0116 F0BD     		pop	{r4, r5, r6, r7, pc}
 671              	.L78:
 672 0118 002B     		cmp	r3, #0
 673 011a 01D0     		beq	.L87
 674 011c 012F     		cmp	r7, #1
 675 011e 08D1     		bne	.L88
 676              	.L87:
 677 0120 2B78     		ldrb	r3, [r5]
 678 0122 1373     		strb	r3, [r2, #12]
 679 0124 236B     		ldr	r3, [r4, #48]
 680 0126 0133     		adds	r3, r3, #1
 681 0128 2363     		str	r3, [r4, #48]
 682 012a E38E     		ldrh	r3, [r4, #54]
 683 012c 013B     		subs	r3, r3, #1
 684 012e 9BB2     		uxth	r3, r3
 685 0130 E386     		strh	r3, [r4, #54]
 686              	.L88:
 687 0132 0225     		movs	r5, #2
 688 0134 0DE0     		b	.L92
 689              	.L93:
 690 0136 2368     		ldr	r3, [r4]
 691 0138 9A68     		ldr	r2, [r3, #8]
 692 013a 2A42     		tst	r2, r5
 693 013c 0DD0     		beq	.L89
 694 013e 226B     		ldr	r2, [r4, #48]
 695 0140 1278     		ldrb	r2, [r2]
 696 0142 1A73     		strb	r2, [r3, #12]
 697 0144 236B     		ldr	r3, [r4, #48]
 698 0146 0133     		adds	r3, r3, #1
 699 0148 2363     		str	r3, [r4, #48]
 700 014a E38E     		ldrh	r3, [r4, #54]
 701 014c 013B     		subs	r3, r3, #1
 702 014e 9BB2     		uxth	r3, r3
 703 0150 E386     		strh	r3, [r4, #54]
ARM GAS  /tmp/ccLBxpA5.s 			page 13


 704              	.L92:
 705 0152 E38E     		ldrh	r3, [r4, #54]
 706 0154 002B     		cmp	r3, #0
 707 0156 EED1     		bne	.L93
 708 0158 B7E7     		b	.L94
 709              	.L89:
 710 015a FFF7FEFF 		bl	HAL_GetTick
 711 015e 009B     		ldr	r3, [sp]
 712 0160 C01A     		subs	r0, r0, r3
 713 0162 B042     		cmp	r0, r6
 714 0164 F5D3     		bcc	.L92
 715 0166 731C     		adds	r3, r6, #1
 716 0168 F3D0     		beq	.L92
 717 016a CCE7     		b	.L91
 718              	.L85:
 719 016c 2023     		movs	r3, #32
 720 016e 6365     		str	r3, [r4, #84]
 721 0170 B2E7     		b	.L86
 722              	.L97:
 723 0172 0220     		movs	r0, #2
 724 0174 C8E7     		b	.L75
 726              		.section	.text.HAL_SPI_TransmitReceive,"ax",%progbits
 727              		.align	1
 728              		.global	HAL_SPI_TransmitReceive
 729              		.syntax unified
 730              		.code	16
 731              		.thumb_func
 733              	HAL_SPI_TransmitReceive:
 734              		@ args = 4, pretend = 0, frame = 16
 735              		@ frame_needed = 0, uses_anonymous_args = 0
 736 0000 F0B5     		push	{r4, r5, r6, r7, lr}
 737 0002 1E00     		movs	r6, r3
 738 0004 0300     		movs	r3, r0
 739 0006 5033     		adds	r3, r3, #80
 740 0008 1700     		movs	r7, r2
 741 000a 1A78     		ldrb	r2, [r3]
 742 000c 0400     		movs	r4, r0
 743 000e 0D00     		movs	r5, r1
 744 0010 0220     		movs	r0, #2
 745 0012 85B0     		sub	sp, sp, #20
 746 0014 012A     		cmp	r2, #1
 747 0016 21D0     		beq	.L116
 748 0018 0122     		movs	r2, #1
 749 001a 1A70     		strb	r2, [r3]
 750 001c FFF7FEFF 		bl	HAL_GetTick
 751 0020 2300     		movs	r3, r4
 752 0022 0190     		str	r0, [sp, #4]
 753 0024 5133     		adds	r3, r3, #81
 754 0026 1B78     		ldrb	r3, [r3]
 755 0028 6168     		ldr	r1, [r4, #4]
 756 002a DAB2     		uxtb	r2, r3
 757 002c 012B     		cmp	r3, #1
 758 002e 09D0     		beq	.L117
 759 0030 8223     		movs	r3, #130
 760 0032 0220     		movs	r0, #2
 761 0034 5B00     		lsls	r3, r3, #1
 762 0036 9942     		cmp	r1, r3
ARM GAS  /tmp/ccLBxpA5.s 			page 14


 763 0038 09D1     		bne	.L118
 764 003a A368     		ldr	r3, [r4, #8]
 765 003c 002B     		cmp	r3, #0
 766 003e 06D1     		bne	.L118
 767 0040 042A     		cmp	r2, #4
 768 0042 04D1     		bne	.L118
 769              	.L117:
 770 0044 002D     		cmp	r5, #0
 771 0046 01D0     		beq	.L119
 772 0048 002F     		cmp	r7, #0
 773 004a 09D1     		bne	.L120
 774              	.L119:
 775 004c 0120     		movs	r0, #1
 776              	.L118:
 777 004e 2300     		movs	r3, r4
 778 0050 0122     		movs	r2, #1
 779 0052 5133     		adds	r3, r3, #81
 780 0054 1A70     		strb	r2, [r3]
 781 0056 0023     		movs	r3, #0
 782 0058 5034     		adds	r4, r4, #80
 783 005a 2370     		strb	r3, [r4]
 784              	.L116:
 785 005c 05B0     		add	sp, sp, #20
 786              		@ sp needed
 787 005e F0BD     		pop	{r4, r5, r6, r7, pc}
 788              	.L120:
 789 0060 002E     		cmp	r6, #0
 790 0062 F3D0     		beq	.L119
 791 0064 2300     		movs	r3, r4
 792 0066 5133     		adds	r3, r3, #81
 793 0068 1A78     		ldrb	r2, [r3]
 794 006a 042A     		cmp	r2, #4
 795 006c 01D0     		beq	.L121
 796 006e 0522     		movs	r2, #5
 797 0070 1A70     		strb	r2, [r3]
 798              	.L121:
 799 0072 0023     		movs	r3, #0
 800 0074 4022     		movs	r2, #64
 801 0076 6365     		str	r3, [r4, #84]
 802 0078 2364     		str	r3, [r4, #64]
 803 007a 6364     		str	r3, [r4, #68]
 804 007c 2368     		ldr	r3, [r4]
 805 007e E687     		strh	r6, [r4, #62]
 806 0080 E686     		strh	r6, [r4, #54]
 807 0082 1868     		ldr	r0, [r3]
 808 0084 A763     		str	r7, [r4, #56]
 809 0086 A687     		strh	r6, [r4, #60]
 810 0088 2563     		str	r5, [r4, #48]
 811 008a A686     		strh	r6, [r4, #52]
 812 008c 1042     		tst	r0, r2
 813 008e 02D1     		bne	.L122
 814 0090 1868     		ldr	r0, [r3]
 815 0092 0243     		orrs	r2, r0
 816 0094 1A60     		str	r2, [r3]
 817              	.L122:
 818 0096 8022     		movs	r2, #128
 819 0098 E068     		ldr	r0, [r4, #12]
ARM GAS  /tmp/ccLBxpA5.s 			page 15


 820 009a 1201     		lsls	r2, r2, #4
 821 009c 9042     		cmp	r0, r2
 822 009e 4FD1     		bne	.L123
 823 00a0 0029     		cmp	r1, #0
 824 00a2 01D0     		beq	.L124
 825 00a4 012E     		cmp	r6, #1
 826 00a6 07D1     		bne	.L125
 827              	.L124:
 828 00a8 2A88     		ldrh	r2, [r5]
 829 00aa 0235     		adds	r5, r5, #2
 830 00ac DA60     		str	r2, [r3, #12]
 831 00ae E38E     		ldrh	r3, [r4, #54]
 832 00b0 2563     		str	r5, [r4, #48]
 833 00b2 013B     		subs	r3, r3, #1
 834 00b4 9BB2     		uxth	r3, r3
 835 00b6 E386     		strh	r3, [r4, #54]
 836              	.L125:
 837 00b8 0125     		movs	r5, #1
 838 00ba 0227     		movs	r7, #2
 839 00bc 2E00     		movs	r6, r5
 840              	.L126:
 841 00be E38E     		ldrh	r3, [r4, #54]
 842 00c0 002B     		cmp	r3, #0
 843 00c2 0DD1     		bne	.L131
 844 00c4 E38F     		ldrh	r3, [r4, #62]
 845 00c6 002B     		cmp	r3, #0
 846 00c8 0AD1     		bne	.L131
 847              	.L143:
 848 00ca 2000     		movs	r0, r4
 849 00cc 019A     		ldr	r2, [sp, #4]
 850 00ce 0A99     		ldr	r1, [sp, #40]
 851 00d0 FFF7FEFF 		bl	SPI_EndRxTxTransaction
 852 00d4 0028     		cmp	r0, #0
 853 00d6 00D1     		bne	.LCB924
 854 00d8 7AE0     		b	.L194	@long jump
 855              	.LCB924:
 856 00da 2023     		movs	r3, #32
 857 00dc 6365     		str	r3, [r4, #84]
 858 00de B5E7     		b	.L119
 859              	.L131:
 860 00e0 2168     		ldr	r1, [r4]
 861 00e2 8B68     		ldr	r3, [r1, #8]
 862 00e4 3B42     		tst	r3, r7
 863 00e6 0ED0     		beq	.L127
 864 00e8 E38E     		ldrh	r3, [r4, #54]
 865 00ea 002B     		cmp	r3, #0
 866 00ec 0BD0     		beq	.L127
 867 00ee 012D     		cmp	r5, #1
 868 00f0 08D1     		bne	.L128
 869 00f2 236B     		ldr	r3, [r4, #48]
 870 00f4 1A88     		ldrh	r2, [r3]
 871 00f6 0233     		adds	r3, r3, #2
 872 00f8 CA60     		str	r2, [r1, #12]
 873 00fa 2363     		str	r3, [r4, #48]
 874 00fc E38E     		ldrh	r3, [r4, #54]
 875 00fe 013B     		subs	r3, r3, #1
 876 0100 9BB2     		uxth	r3, r3
ARM GAS  /tmp/ccLBxpA5.s 			page 16


 877 0102 E386     		strh	r3, [r4, #54]
 878              	.L128:
 879 0104 0025     		movs	r5, #0
 880              	.L127:
 881 0106 8B68     		ldr	r3, [r1, #8]
 882 0108 1A00     		movs	r2, r3
 883 010a 3240     		ands	r2, r6
 884 010c 3342     		tst	r3, r6
 885 010e 0CD0     		beq	.L129
 886 0110 E38F     		ldrh	r3, [r4, #62]
 887 0112 002B     		cmp	r3, #0
 888 0114 09D0     		beq	.L129
 889 0116 1500     		movs	r5, r2
 890 0118 C968     		ldr	r1, [r1, #12]
 891 011a A36B     		ldr	r3, [r4, #56]
 892 011c 1980     		strh	r1, [r3]
 893 011e 0233     		adds	r3, r3, #2
 894 0120 A363     		str	r3, [r4, #56]
 895 0122 E38F     		ldrh	r3, [r4, #62]
 896 0124 013B     		subs	r3, r3, #1
 897 0126 9BB2     		uxth	r3, r3
 898 0128 E387     		strh	r3, [r4, #62]
 899              	.L129:
 900 012a FFF7FEFF 		bl	HAL_GetTick
 901 012e 019B     		ldr	r3, [sp, #4]
 902 0130 C01A     		subs	r0, r0, r3
 903 0132 0A9B     		ldr	r3, [sp, #40]
 904 0134 9842     		cmp	r0, r3
 905 0136 C2D3     		bcc	.L126
 906 0138 0133     		adds	r3, r3, #1
 907 013a C0D0     		beq	.L126
 908              	.L141:
 909 013c 0320     		movs	r0, #3
 910 013e 86E7     		b	.L118
 911              	.L123:
 912 0140 0029     		cmp	r1, #0
 913 0142 01D0     		beq	.L134
 914 0144 012E     		cmp	r6, #1
 915 0146 08D1     		bne	.L135
 916              	.L134:
 917 0148 2A78     		ldrb	r2, [r5]
 918 014a 1A73     		strb	r2, [r3, #12]
 919 014c 236B     		ldr	r3, [r4, #48]
 920 014e 0133     		adds	r3, r3, #1
 921 0150 2363     		str	r3, [r4, #48]
 922 0152 E38E     		ldrh	r3, [r4, #54]
 923 0154 013B     		subs	r3, r3, #1
 924 0156 9BB2     		uxth	r3, r3
 925 0158 E386     		strh	r3, [r4, #54]
 926              	.L135:
 927 015a 0125     		movs	r5, #1
 928 015c 0227     		movs	r7, #2
 929 015e 2E00     		movs	r6, r5
 930              	.L136:
 931 0160 E38E     		ldrh	r3, [r4, #54]
 932 0162 002B     		cmp	r3, #0
 933 0164 02D1     		bne	.L142
ARM GAS  /tmp/ccLBxpA5.s 			page 17


 934 0166 E38F     		ldrh	r3, [r4, #62]
 935 0168 002B     		cmp	r3, #0
 936 016a AED0     		beq	.L143
 937              	.L142:
 938 016c 2368     		ldr	r3, [r4]
 939 016e 9A68     		ldr	r2, [r3, #8]
 940 0170 3A42     		tst	r2, r7
 941 0172 0FD0     		beq	.L137
 942 0174 E28E     		ldrh	r2, [r4, #54]
 943 0176 002A     		cmp	r2, #0
 944 0178 0CD0     		beq	.L137
 945 017a 012D     		cmp	r5, #1
 946 017c 09D1     		bne	.L138
 947 017e 226B     		ldr	r2, [r4, #48]
 948 0180 1278     		ldrb	r2, [r2]
 949 0182 1A73     		strb	r2, [r3, #12]
 950 0184 236B     		ldr	r3, [r4, #48]
 951 0186 0133     		adds	r3, r3, #1
 952 0188 2363     		str	r3, [r4, #48]
 953 018a E38E     		ldrh	r3, [r4, #54]
 954 018c 013B     		subs	r3, r3, #1
 955 018e 9BB2     		uxth	r3, r3
 956 0190 E386     		strh	r3, [r4, #54]
 957              	.L138:
 958 0192 0025     		movs	r5, #0
 959              	.L137:
 960 0194 2368     		ldr	r3, [r4]
 961 0196 9968     		ldr	r1, [r3, #8]
 962 0198 0A00     		movs	r2, r1
 963 019a 3240     		ands	r2, r6
 964 019c 3142     		tst	r1, r6
 965 019e 0DD0     		beq	.L139
 966 01a0 E18F     		ldrh	r1, [r4, #62]
 967 01a2 0029     		cmp	r1, #0
 968 01a4 0AD0     		beq	.L139
 969 01a6 1500     		movs	r5, r2
 970 01a8 D968     		ldr	r1, [r3, #12]
 971 01aa A36B     		ldr	r3, [r4, #56]
 972 01ac 1970     		strb	r1, [r3]
 973 01ae A36B     		ldr	r3, [r4, #56]
 974 01b0 0133     		adds	r3, r3, #1
 975 01b2 A363     		str	r3, [r4, #56]
 976 01b4 E38F     		ldrh	r3, [r4, #62]
 977 01b6 013B     		subs	r3, r3, #1
 978 01b8 9BB2     		uxth	r3, r3
 979 01ba E387     		strh	r3, [r4, #62]
 980              	.L139:
 981 01bc FFF7FEFF 		bl	HAL_GetTick
 982 01c0 019B     		ldr	r3, [sp, #4]
 983 01c2 C01A     		subs	r0, r0, r3
 984 01c4 0A9B     		ldr	r3, [sp, #40]
 985 01c6 9842     		cmp	r0, r3
 986 01c8 CAD3     		bcc	.L136
 987 01ca 0133     		adds	r3, r3, #1
 988 01cc C8D0     		beq	.L136
 989 01ce B5E7     		b	.L141
 990              	.L194:
ARM GAS  /tmp/ccLBxpA5.s 			page 18


 991 01d0 A368     		ldr	r3, [r4, #8]
 992 01d2 002B     		cmp	r3, #0
 993 01d4 00D0     		beq	.LCB1091
 994 01d6 3AE7     		b	.L118	@long jump
 995              	.LCB1091:
 996 01d8 2368     		ldr	r3, [r4]
 997 01da 0390     		str	r0, [sp, #12]
 998 01dc DA68     		ldr	r2, [r3, #12]
 999 01de 0392     		str	r2, [sp, #12]
 1000 01e0 9B68     		ldr	r3, [r3, #8]
 1001 01e2 0393     		str	r3, [sp, #12]
 1002 01e4 039B     		ldr	r3, [sp, #12]
 1003 01e6 32E7     		b	.L118
 1005              		.section	.text.HAL_SPI_Receive,"ax",%progbits
 1006              		.align	1
 1007              		.global	HAL_SPI_Receive
 1008              		.syntax unified
 1009              		.code	16
 1010              		.thumb_func
 1012              	HAL_SPI_Receive:
 1013              		@ args = 0, pretend = 0, frame = 16
 1014              		@ frame_needed = 0, uses_anonymous_args = 0
 1015 0000 F0B5     		push	{r4, r5, r6, r7, lr}
 1016 0002 1D00     		movs	r5, r3
 1017 0004 8223     		movs	r3, #130
 1018 0006 1600     		movs	r6, r2
 1019 0008 4268     		ldr	r2, [r0, #4]
 1020 000a 0400     		movs	r4, r0
 1021 000c 0F00     		movs	r7, r1
 1022 000e 87B0     		sub	sp, sp, #28
 1023 0010 5B00     		lsls	r3, r3, #1
 1024 0012 9A42     		cmp	r2, r3
 1025 0014 0DD1     		bne	.L198
 1026 0016 8368     		ldr	r3, [r0, #8]
 1027 0018 002B     		cmp	r3, #0
 1028 001a 0AD1     		bne	.L198
 1029 001c 0300     		movs	r3, r0
 1030 001e 0422     		movs	r2, #4
 1031 0020 5133     		adds	r3, r3, #81
 1032 0022 1A70     		strb	r2, [r3]
 1033 0024 3300     		movs	r3, r6
 1034 0026 0A00     		movs	r2, r1
 1035 0028 0095     		str	r5, [sp]
 1036 002a FFF7FEFF 		bl	HAL_SPI_TransmitReceive
 1037              	.L199:
 1038 002e 07B0     		add	sp, sp, #28
 1039              		@ sp needed
 1040 0030 F0BD     		pop	{r4, r5, r6, r7, pc}
 1041              	.L198:
 1042 0032 2300     		movs	r3, r4
 1043 0034 5033     		adds	r3, r3, #80
 1044 0036 0493     		str	r3, [sp, #16]
 1045 0038 1B78     		ldrb	r3, [r3]
 1046 003a 0220     		movs	r0, #2
 1047 003c 012B     		cmp	r3, #1
 1048 003e F6D0     		beq	.L199
 1049 0040 0123     		movs	r3, #1
ARM GAS  /tmp/ccLBxpA5.s 			page 19


 1050 0042 049A     		ldr	r2, [sp, #16]
 1051 0044 1370     		strb	r3, [r2]
 1052 0046 FFF7FEFF 		bl	HAL_GetTick
 1053 004a 2300     		movs	r3, r4
 1054 004c 5133     		adds	r3, r3, #81
 1055 004e 0390     		str	r0, [sp, #12]
 1056 0050 0593     		str	r3, [sp, #20]
 1057 0052 1B78     		ldrb	r3, [r3]
 1058 0054 D8B2     		uxtb	r0, r3
 1059 0056 012B     		cmp	r3, #1
 1060 0058 74D1     		bne	.L216
 1061 005a 002F     		cmp	r7, #0
 1062 005c 4ED0     		beq	.L200
 1063 005e 002E     		cmp	r6, #0
 1064 0060 4CD0     		beq	.L200
 1065 0062 059A     		ldr	r2, [sp, #20]
 1066 0064 0333     		adds	r3, r3, #3
 1067 0066 1370     		strb	r3, [r2]
 1068 0068 0023     		movs	r3, #0
 1069 006a 8022     		movs	r2, #128
 1070 006c A168     		ldr	r1, [r4, #8]
 1071 006e 6365     		str	r3, [r4, #84]
 1072 0070 2363     		str	r3, [r4, #48]
 1073 0072 E687     		strh	r6, [r4, #62]
 1074 0074 A386     		strh	r3, [r4, #52]
 1075 0076 E386     		strh	r3, [r4, #54]
 1076 0078 2364     		str	r3, [r4, #64]
 1077 007a 6364     		str	r3, [r4, #68]
 1078 007c A763     		str	r7, [r4, #56]
 1079 007e 2368     		ldr	r3, [r4]
 1080 0080 A687     		strh	r6, [r4, #60]
 1081 0082 1202     		lsls	r2, r2, #8
 1082 0084 9142     		cmp	r1, r2
 1083 0086 07D1     		bne	.L201
 1084 0088 4021     		movs	r1, #64
 1085 008a 1A68     		ldr	r2, [r3]
 1086 008c 8A43     		bics	r2, r1
 1087 008e 1A60     		str	r2, [r3]
 1088 0090 1A68     		ldr	r2, [r3]
 1089 0092 2D49     		ldr	r1, .L230
 1090 0094 0A40     		ands	r2, r1
 1091 0096 1A60     		str	r2, [r3]
 1092              	.L201:
 1093 0098 4022     		movs	r2, #64
 1094 009a 1968     		ldr	r1, [r3]
 1095 009c 1142     		tst	r1, r2
 1096 009e 02D1     		bne	.L202
 1097 00a0 1968     		ldr	r1, [r3]
 1098 00a2 0A43     		orrs	r2, r1
 1099 00a4 1A60     		str	r2, [r3]
 1100              	.L202:
 1101 00a6 E368     		ldr	r3, [r4, #12]
 1102 00a8 0126     		movs	r6, #1
 1103 00aa 002B     		cmp	r3, #0
 1104 00ac 3AD1     		bne	.L204
 1105              	.L203:
 1106 00ae E38F     		ldrh	r3, [r4, #62]
ARM GAS  /tmp/ccLBxpA5.s 			page 20


 1107 00b0 002B     		cmp	r3, #0
 1108 00b2 0BD1     		bne	.L207
 1109              	.L214:
 1110 00b4 2900     		movs	r1, r5
 1111 00b6 2000     		movs	r0, r4
 1112 00b8 039A     		ldr	r2, [sp, #12]
 1113 00ba FFF7FEFF 		bl	SPI_EndRxTransaction
 1114 00be 0028     		cmp	r0, #0
 1115 00c0 3DD1     		bne	.L208
 1116              	.L209:
 1117 00c2 606D     		ldr	r0, [r4, #84]
 1118 00c4 431E     		subs	r3, r0, #1
 1119 00c6 9841     		sbcs	r0, r0, r3
 1120 00c8 C0B2     		uxtb	r0, r0
 1121 00ca 17E0     		b	.L200
 1122              	.L207:
 1123 00cc 2368     		ldr	r3, [r4]
 1124 00ce 9A68     		ldr	r2, [r3, #8]
 1125 00d0 3242     		tst	r2, r6
 1126 00d2 0AD0     		beq	.L205
 1127 00d4 1B7B     		ldrb	r3, [r3, #12]
 1128 00d6 A26B     		ldr	r2, [r4, #56]
 1129 00d8 1370     		strb	r3, [r2]
 1130 00da A36B     		ldr	r3, [r4, #56]
 1131 00dc 0133     		adds	r3, r3, #1
 1132 00de A363     		str	r3, [r4, #56]
 1133 00e0 E38F     		ldrh	r3, [r4, #62]
 1134 00e2 013B     		subs	r3, r3, #1
 1135 00e4 9BB2     		uxth	r3, r3
 1136 00e6 E387     		strh	r3, [r4, #62]
 1137 00e8 E1E7     		b	.L203
 1138              	.L205:
 1139 00ea FFF7FEFF 		bl	HAL_GetTick
 1140 00ee 039B     		ldr	r3, [sp, #12]
 1141 00f0 C01A     		subs	r0, r0, r3
 1142 00f2 A842     		cmp	r0, r5
 1143 00f4 DBD3     		bcc	.L203
 1144 00f6 6B1C     		adds	r3, r5, #1
 1145 00f8 D9D0     		beq	.L203
 1146              	.L212:
 1147 00fa 0320     		movs	r0, #3
 1148              	.L200:
 1149 00fc 0123     		movs	r3, #1
 1150 00fe 059A     		ldr	r2, [sp, #20]
 1151 0100 1370     		strb	r3, [r2]
 1152 0102 0023     		movs	r3, #0
 1153 0104 049A     		ldr	r2, [sp, #16]
 1154 0106 1370     		strb	r3, [r2]
 1155 0108 91E7     		b	.L199
 1156              	.L213:
 1157 010a 2368     		ldr	r3, [r4]
 1158 010c 9A68     		ldr	r2, [r3, #8]
 1159 010e 3242     		tst	r2, r6
 1160 0110 0CD0     		beq	.L210
 1161 0112 DA68     		ldr	r2, [r3, #12]
 1162 0114 A36B     		ldr	r3, [r4, #56]
 1163 0116 1A80     		strh	r2, [r3]
ARM GAS  /tmp/ccLBxpA5.s 			page 21


 1164 0118 0233     		adds	r3, r3, #2
 1165 011a A363     		str	r3, [r4, #56]
 1166 011c E38F     		ldrh	r3, [r4, #62]
 1167 011e 013B     		subs	r3, r3, #1
 1168 0120 9BB2     		uxth	r3, r3
 1169 0122 E387     		strh	r3, [r4, #62]
 1170              	.L204:
 1171 0124 E38F     		ldrh	r3, [r4, #62]
 1172 0126 002B     		cmp	r3, #0
 1173 0128 EFD1     		bne	.L213
 1174 012a C3E7     		b	.L214
 1175              	.L210:
 1176 012c FFF7FEFF 		bl	HAL_GetTick
 1177 0130 039B     		ldr	r3, [sp, #12]
 1178 0132 C01A     		subs	r0, r0, r3
 1179 0134 A842     		cmp	r0, r5
 1180 0136 F5D3     		bcc	.L204
 1181 0138 6B1C     		adds	r3, r5, #1
 1182 013a F3D0     		beq	.L204
 1183 013c DDE7     		b	.L212
 1184              	.L208:
 1185 013e 2023     		movs	r3, #32
 1186 0140 6365     		str	r3, [r4, #84]
 1187 0142 BEE7     		b	.L209
 1188              	.L216:
 1189 0144 0220     		movs	r0, #2
 1190 0146 D9E7     		b	.L200
 1191              	.L231:
 1192              		.align	2
 1193              	.L230:
 1194 0148 FFBFFFFF 		.word	-16385
 1196              		.section	.text.HAL_SPI_Transmit_IT,"ax",%progbits
 1197              		.align	1
 1198              		.global	HAL_SPI_Transmit_IT
 1199              		.syntax unified
 1200              		.code	16
 1201              		.thumb_func
 1203              	HAL_SPI_Transmit_IT:
 1204              		@ args = 0, pretend = 0, frame = 0
 1205              		@ frame_needed = 0, uses_anonymous_args = 0
 1206 0000 70B5     		push	{r4, r5, r6, lr}
 1207 0002 0400     		movs	r4, r0
 1208 0004 5034     		adds	r4, r4, #80
 1209 0006 2578     		ldrb	r5, [r4]
 1210 0008 0300     		movs	r3, r0
 1211 000a 0220     		movs	r0, #2
 1212 000c 012D     		cmp	r5, #1
 1213 000e 37D0     		beq	.L233
 1214 0010 0125     		movs	r5, #1
 1215 0012 2800     		movs	r0, r5
 1216 0014 2570     		strb	r5, [r4]
 1217 0016 0029     		cmp	r1, #0
 1218 0018 30D0     		beq	.L234
 1219 001a 002A     		cmp	r2, #0
 1220 001c 2ED0     		beq	.L234
 1221 001e 1D00     		movs	r5, r3
 1222 0020 5135     		adds	r5, r5, #81
ARM GAS  /tmp/ccLBxpA5.s 			page 22


 1223 0022 2E78     		ldrb	r6, [r5]
 1224 0024 0018     		adds	r0, r0, r0
 1225 0026 012E     		cmp	r6, #1
 1226 0028 28D1     		bne	.L234
 1227 002a 0130     		adds	r0, r0, #1
 1228 002c 2870     		strb	r0, [r5]
 1229 002e 0020     		movs	r0, #0
 1230 0030 1963     		str	r1, [r3, #48]
 1231 0032 D968     		ldr	r1, [r3, #12]
 1232 0034 5865     		str	r0, [r3, #84]
 1233 0036 9A86     		strh	r2, [r3, #52]
 1234 0038 DA86     		strh	r2, [r3, #54]
 1235 003a 9863     		str	r0, [r3, #56]
 1236 003c 134A     		ldr	r2, .L245
 1237 003e 9887     		strh	r0, [r3, #60]
 1238 0040 D887     		strh	r0, [r3, #62]
 1239 0042 1864     		str	r0, [r3, #64]
 1240 0044 8142     		cmp	r1, r0
 1241 0046 00D0     		beq	.L235
 1242 0048 114A     		ldr	r2, .L245+4
 1243              	.L235:
 1244 004a 8021     		movs	r1, #128
 1245 004c 5A64     		str	r2, [r3, #68]
 1246 004e 1A68     		ldr	r2, [r3]
 1247 0050 9B68     		ldr	r3, [r3, #8]
 1248 0052 0902     		lsls	r1, r1, #8
 1249 0054 8B42     		cmp	r3, r1
 1250 0056 08D1     		bne	.L236
 1251 0058 4021     		movs	r1, #64
 1252 005a 1368     		ldr	r3, [r2]
 1253 005c 8B43     		bics	r3, r1
 1254 005e 1360     		str	r3, [r2]
 1255 0060 8023     		movs	r3, #128
 1256 0062 1168     		ldr	r1, [r2]
 1257 0064 DB01     		lsls	r3, r3, #7
 1258 0066 0B43     		orrs	r3, r1
 1259 0068 1360     		str	r3, [r2]
 1260              	.L236:
 1261 006a A023     		movs	r3, #160
 1262 006c 5168     		ldr	r1, [r2, #4]
 1263 006e 0B43     		orrs	r3, r1
 1264 0070 5360     		str	r3, [r2, #4]
 1265 0072 4023     		movs	r3, #64
 1266 0074 1168     		ldr	r1, [r2]
 1267 0076 1942     		tst	r1, r3
 1268 0078 03D0     		beq	.L237
 1269              	.L238:
 1270 007a 0020     		movs	r0, #0
 1271              	.L234:
 1272 007c 0023     		movs	r3, #0
 1273 007e 2370     		strb	r3, [r4]
 1274              	.L233:
 1275              		@ sp needed
 1276 0080 70BD     		pop	{r4, r5, r6, pc}
 1277              	.L237:
 1278 0082 1168     		ldr	r1, [r2]
 1279 0084 0B43     		orrs	r3, r1
ARM GAS  /tmp/ccLBxpA5.s 			page 23


 1280 0086 1360     		str	r3, [r2]
 1281 0088 F7E7     		b	.L238
 1282              	.L246:
 1283 008a C046     		.align	2
 1284              	.L245:
 1285 008c 00000000 		.word	SPI_TxISR_8BIT
 1286 0090 00000000 		.word	SPI_TxISR_16BIT
 1288              		.section	.text.HAL_SPI_TransmitReceive_IT,"ax",%progbits
 1289              		.align	1
 1290              		.global	HAL_SPI_TransmitReceive_IT
 1291              		.syntax unified
 1292              		.code	16
 1293              		.thumb_func
 1295              	HAL_SPI_TransmitReceive_IT:
 1296              		@ args = 0, pretend = 0, frame = 8
 1297              		@ frame_needed = 0, uses_anonymous_args = 0
 1298 0000 F7B5     		push	{r0, r1, r2, r4, r5, r6, r7, lr}
 1299 0002 0500     		movs	r5, r0
 1300 0004 5035     		adds	r5, r5, #80
 1301 0006 2E78     		ldrb	r6, [r5]
 1302 0008 0400     		movs	r4, r0
 1303 000a 0220     		movs	r0, #2
 1304 000c 012E     		cmp	r6, #1
 1305 000e 3CD0     		beq	.L248
 1306 0010 2600     		movs	r6, r4
 1307 0012 0138     		subs	r0, r0, #1
 1308 0014 2870     		strb	r0, [r5]
 1309 0016 5136     		adds	r6, r6, #81
 1310 0018 3078     		ldrb	r0, [r6]
 1311 001a C7B2     		uxtb	r7, r0
 1312 001c 0197     		str	r7, [sp, #4]
 1313 001e 6768     		ldr	r7, [r4, #4]
 1314 0020 BC46     		mov	ip, r7
 1315 0022 0128     		cmp	r0, #1
 1316 0024 0AD0     		beq	.L249
 1317 0026 8227     		movs	r7, #130
 1318 0028 0220     		movs	r0, #2
 1319 002a 7F00     		lsls	r7, r7, #1
 1320 002c BC45     		cmp	ip, r7
 1321 002e 2AD1     		bne	.L250
 1322 0030 A768     		ldr	r7, [r4, #8]
 1323 0032 002F     		cmp	r7, #0
 1324 0034 27D1     		bne	.L250
 1325 0036 019F     		ldr	r7, [sp, #4]
 1326 0038 042F     		cmp	r7, #4
 1327 003a 24D1     		bne	.L250
 1328              	.L249:
 1329 003c 0120     		movs	r0, #1
 1330 003e 0029     		cmp	r1, #0
 1331 0040 21D0     		beq	.L250
 1332 0042 002A     		cmp	r2, #0
 1333 0044 1FD0     		beq	.L250
 1334 0046 002B     		cmp	r3, #0
 1335 0048 1DD0     		beq	.L250
 1336 004a 3078     		ldrb	r0, [r6]
 1337 004c 0428     		cmp	r0, #4
 1338 004e 01D0     		beq	.L251
ARM GAS  /tmp/ccLBxpA5.s 			page 24


 1339 0050 0520     		movs	r0, #5
 1340 0052 3070     		strb	r0, [r6]
 1341              	.L251:
 1342 0054 0020     		movs	r0, #0
 1343 0056 A386     		strh	r3, [r4, #52]
 1344 0058 6065     		str	r0, [r4, #84]
 1345 005a A387     		strh	r3, [r4, #60]
 1346 005c E386     		strh	r3, [r4, #54]
 1347 005e E387     		strh	r3, [r4, #62]
 1348 0060 E368     		ldr	r3, [r4, #12]
 1349 0062 2163     		str	r1, [r4, #48]
 1350 0064 A263     		str	r2, [r4, #56]
 1351 0066 8342     		cmp	r3, r0
 1352 0068 10D0     		beq	.L262
 1353 006a 0C4A     		ldr	r2, .L269
 1354 006c 0C4B     		ldr	r3, .L269+4
 1355              	.L252:
 1356 006e 6264     		str	r2, [r4, #68]
 1357 0070 E022     		movs	r2, #224
 1358 0072 2364     		str	r3, [r4, #64]
 1359 0074 2368     		ldr	r3, [r4]
 1360 0076 5968     		ldr	r1, [r3, #4]
 1361 0078 0A43     		orrs	r2, r1
 1362 007a 5A60     		str	r2, [r3, #4]
 1363 007c 4022     		movs	r2, #64
 1364 007e 1968     		ldr	r1, [r3]
 1365 0080 1142     		tst	r1, r2
 1366 0082 06D0     		beq	.L253
 1367              	.L254:
 1368 0084 0020     		movs	r0, #0
 1369              	.L250:
 1370 0086 0023     		movs	r3, #0
 1371 0088 2B70     		strb	r3, [r5]
 1372              	.L248:
 1373              		@ sp needed
 1374 008a FEBD     		pop	{r1, r2, r3, r4, r5, r6, r7, pc}
 1375              	.L262:
 1376 008c 054A     		ldr	r2, .L269+8
 1377 008e 064B     		ldr	r3, .L269+12
 1378 0090 EDE7     		b	.L252
 1379              	.L253:
 1380 0092 1968     		ldr	r1, [r3]
 1381 0094 0A43     		orrs	r2, r1
 1382 0096 1A60     		str	r2, [r3]
 1383 0098 F4E7     		b	.L254
 1384              	.L270:
 1385 009a C046     		.align	2
 1386              	.L269:
 1387 009c 00000000 		.word	SPI_2linesTxISR_16BIT
 1388 00a0 00000000 		.word	SPI_2linesRxISR_16BIT
 1389 00a4 00000000 		.word	SPI_2linesTxISR_8BIT
 1390 00a8 00000000 		.word	SPI_2linesRxISR_8BIT
 1392              		.section	.text.HAL_SPI_Receive_IT,"ax",%progbits
 1393              		.align	1
 1394              		.global	HAL_SPI_Receive_IT
 1395              		.syntax unified
 1396              		.code	16
ARM GAS  /tmp/ccLBxpA5.s 			page 25


 1397              		.thumb_func
 1399              	HAL_SPI_Receive_IT:
 1400              		@ args = 0, pretend = 0, frame = 0
 1401              		@ frame_needed = 0, uses_anonymous_args = 0
 1402 0000 F8B5     		push	{r3, r4, r5, r6, r7, lr}
 1403 0002 8668     		ldr	r6, [r0, #8]
 1404 0004 0400     		movs	r4, r0
 1405 0006 1300     		movs	r3, r2
 1406 0008 002E     		cmp	r6, #0
 1407 000a 0DD1     		bne	.L272
 1408 000c 8222     		movs	r2, #130
 1409 000e 4068     		ldr	r0, [r0, #4]
 1410 0010 5200     		lsls	r2, r2, #1
 1411 0012 9042     		cmp	r0, r2
 1412 0014 08D1     		bne	.L272
 1413 0016 2200     		movs	r2, r4
 1414 0018 0420     		movs	r0, #4
 1415 001a 5132     		adds	r2, r2, #81
 1416 001c 1070     		strb	r0, [r2]
 1417 001e 0A00     		movs	r2, r1
 1418 0020 2000     		movs	r0, r4
 1419 0022 FFF7FEFF 		bl	HAL_SPI_TransmitReceive_IT
 1420              	.L273:
 1421              		@ sp needed
 1422 0026 F8BD     		pop	{r3, r4, r5, r6, r7, pc}
 1423              	.L272:
 1424 0028 2500     		movs	r5, r4
 1425 002a 5035     		adds	r5, r5, #80
 1426 002c 2A78     		ldrb	r2, [r5]
 1427 002e 0220     		movs	r0, #2
 1428 0030 012A     		cmp	r2, #1
 1429 0032 F8D0     		beq	.L273
 1430 0034 0122     		movs	r2, #1
 1431 0036 2A70     		strb	r2, [r5]
 1432 0038 2200     		movs	r2, r4
 1433 003a 5132     		adds	r2, r2, #81
 1434 003c 1778     		ldrb	r7, [r2]
 1435 003e F8B2     		uxtb	r0, r7
 1436 0040 012F     		cmp	r7, #1
 1437 0042 31D1     		bne	.L280
 1438 0044 0029     		cmp	r1, #0
 1439 0046 28D0     		beq	.L274
 1440 0048 002B     		cmp	r3, #0
 1441 004a 26D0     		beq	.L274
 1442 004c 0420     		movs	r0, #4
 1443 004e 1070     		strb	r0, [r2]
 1444 0050 0022     		movs	r2, #0
 1445 0052 6265     		str	r2, [r4, #84]
 1446 0054 2263     		str	r2, [r4, #48]
 1447 0056 E387     		strh	r3, [r4, #62]
 1448 0058 A286     		strh	r2, [r4, #52]
 1449 005a E286     		strh	r2, [r4, #54]
 1450 005c 6264     		str	r2, [r4, #68]
 1451 005e E268     		ldr	r2, [r4, #12]
 1452 0060 A387     		strh	r3, [r4, #60]
 1453 0062 A163     		str	r1, [r4, #56]
 1454 0064 114B     		ldr	r3, .L289
ARM GAS  /tmp/ccLBxpA5.s 			page 26


 1455 0066 002A     		cmp	r2, #0
 1456 0068 00D0     		beq	.L275
 1457 006a 114B     		ldr	r3, .L289+4
 1458              	.L275:
 1459 006c 8022     		movs	r2, #128
 1460 006e 2364     		str	r3, [r4, #64]
 1461 0070 1202     		lsls	r2, r2, #8
 1462 0072 2368     		ldr	r3, [r4]
 1463 0074 9642     		cmp	r6, r2
 1464 0076 07D1     		bne	.L276
 1465 0078 4021     		movs	r1, #64
 1466 007a 1A68     		ldr	r2, [r3]
 1467 007c 8A43     		bics	r2, r1
 1468 007e 1A60     		str	r2, [r3]
 1469 0080 1A68     		ldr	r2, [r3]
 1470 0082 0C49     		ldr	r1, .L289+8
 1471 0084 0A40     		ands	r2, r1
 1472 0086 1A60     		str	r2, [r3]
 1473              	.L276:
 1474 0088 6022     		movs	r2, #96
 1475 008a 5968     		ldr	r1, [r3, #4]
 1476 008c 0A43     		orrs	r2, r1
 1477 008e 5A60     		str	r2, [r3, #4]
 1478 0090 4022     		movs	r2, #64
 1479 0092 1968     		ldr	r1, [r3]
 1480 0094 1142     		tst	r1, r2
 1481 0096 03D0     		beq	.L277
 1482              	.L278:
 1483 0098 0020     		movs	r0, #0
 1484              	.L274:
 1485 009a 0023     		movs	r3, #0
 1486 009c 2B70     		strb	r3, [r5]
 1487 009e C2E7     		b	.L273
 1488              	.L277:
 1489 00a0 1968     		ldr	r1, [r3]
 1490 00a2 0A43     		orrs	r2, r1
 1491 00a4 1A60     		str	r2, [r3]
 1492 00a6 F7E7     		b	.L278
 1493              	.L280:
 1494 00a8 0220     		movs	r0, #2
 1495 00aa F6E7     		b	.L274
 1496              	.L290:
 1497              		.align	2
 1498              	.L289:
 1499 00ac 00000000 		.word	SPI_RxISR_8BIT
 1500 00b0 00000000 		.word	SPI_RxISR_16BIT
 1501 00b4 FFBFFFFF 		.word	-16385
 1503              		.section	.text.HAL_SPI_Transmit_DMA,"ax",%progbits
 1504              		.align	1
 1505              		.global	HAL_SPI_Transmit_DMA
 1506              		.syntax unified
 1507              		.code	16
 1508              		.thumb_func
 1510              	HAL_SPI_Transmit_DMA:
 1511              		@ args = 0, pretend = 0, frame = 0
 1512              		@ frame_needed = 0, uses_anonymous_args = 0
 1513 0000 F8B5     		push	{r3, r4, r5, r6, r7, lr}
ARM GAS  /tmp/ccLBxpA5.s 			page 27


 1514 0002 0600     		movs	r6, r0
 1515 0004 5036     		adds	r6, r6, #80
 1516 0006 3378     		ldrb	r3, [r6]
 1517 0008 0400     		movs	r4, r0
 1518 000a 0225     		movs	r5, #2
 1519 000c 012B     		cmp	r3, #1
 1520 000e 3ED0     		beq	.L292
 1521 0010 0123     		movs	r3, #1
 1522 0012 0700     		movs	r7, r0
 1523 0014 3370     		strb	r3, [r6]
 1524 0016 5137     		adds	r7, r7, #81
 1525 0018 3B78     		ldrb	r3, [r7]
 1526 001a DDB2     		uxtb	r5, r3
 1527 001c 012B     		cmp	r3, #1
 1528 001e 4AD1     		bne	.L299
 1529 0020 0029     		cmp	r1, #0
 1530 0022 32D0     		beq	.L293
 1531 0024 002A     		cmp	r2, #0
 1532 0026 30D0     		beq	.L293
 1533 0028 0233     		adds	r3, r3, #2
 1534 002a 3B70     		strb	r3, [r7]
 1535 002c 0023     		movs	r3, #0
 1536 002e 4365     		str	r3, [r0, #84]
 1537 0030 8363     		str	r3, [r0, #56]
 1538 0032 C286     		strh	r2, [r0, #54]
 1539 0034 4364     		str	r3, [r0, #68]
 1540 0036 0364     		str	r3, [r0, #64]
 1541 0038 8387     		strh	r3, [r0, #60]
 1542 003a C387     		strh	r3, [r0, #62]
 1543 003c 8023     		movs	r3, #128
 1544 003e 8286     		strh	r2, [r0, #52]
 1545 0040 0163     		str	r1, [r0, #48]
 1546 0042 0268     		ldr	r2, [r0]
 1547 0044 8068     		ldr	r0, [r0, #8]
 1548 0046 1B02     		lsls	r3, r3, #8
 1549 0048 9842     		cmp	r0, r3
 1550 004a 08D1     		bne	.L295
 1551 004c 4020     		movs	r0, #64
 1552 004e 1368     		ldr	r3, [r2]
 1553 0050 8343     		bics	r3, r0
 1554 0052 1360     		str	r3, [r2]
 1555 0054 8023     		movs	r3, #128
 1556 0056 1068     		ldr	r0, [r2]
 1557 0058 DB01     		lsls	r3, r3, #7
 1558 005a 0343     		orrs	r3, r0
 1559 005c 1360     		str	r3, [r2]
 1560              	.L295:
 1561 005e A06C     		ldr	r0, [r4, #72]
 1562 0060 164B     		ldr	r3, .L306
 1563 0062 0C32     		adds	r2, r2, #12
 1564 0064 0363     		str	r3, [r0, #48]
 1565 0066 164B     		ldr	r3, .L306+4
 1566 0068 C362     		str	r3, [r0, #44]
 1567 006a 164B     		ldr	r3, .L306+8
 1568 006c 4363     		str	r3, [r0, #52]
 1569 006e 0023     		movs	r3, #0
 1570 0070 8363     		str	r3, [r0, #56]
ARM GAS  /tmp/ccLBxpA5.s 			page 28


 1571 0072 E38E     		ldrh	r3, [r4, #54]
 1572 0074 9BB2     		uxth	r3, r3
 1573 0076 FFF7FEFF 		bl	HAL_DMA_Start_IT
 1574 007a 0028     		cmp	r0, #0
 1575 007c 09D0     		beq	.L296
 1576 007e 1023     		movs	r3, #16
 1577 0080 626D     		ldr	r2, [r4, #84]
 1578 0082 1343     		orrs	r3, r2
 1579 0084 6365     		str	r3, [r4, #84]
 1580 0086 0123     		movs	r3, #1
 1581 0088 3B70     		strb	r3, [r7]
 1582              	.L293:
 1583 008a 0023     		movs	r3, #0
 1584 008c 3370     		strb	r3, [r6]
 1585              	.L292:
 1586 008e 2800     		movs	r0, r5
 1587              		@ sp needed
 1588 0090 F8BD     		pop	{r3, r4, r5, r6, r7, pc}
 1589              	.L296:
 1590 0092 4022     		movs	r2, #64
 1591 0094 2368     		ldr	r3, [r4]
 1592 0096 1968     		ldr	r1, [r3]
 1593 0098 1142     		tst	r1, r2
 1594 009a 02D1     		bne	.L297
 1595 009c 1968     		ldr	r1, [r3]
 1596 009e 0A43     		orrs	r2, r1
 1597 00a0 1A60     		str	r2, [r3]
 1598              	.L297:
 1599 00a2 2022     		movs	r2, #32
 1600 00a4 5968     		ldr	r1, [r3, #4]
 1601 00a6 0025     		movs	r5, #0
 1602 00a8 0A43     		orrs	r2, r1
 1603 00aa 5A60     		str	r2, [r3, #4]
 1604 00ac 0222     		movs	r2, #2
 1605 00ae 5968     		ldr	r1, [r3, #4]
 1606 00b0 0A43     		orrs	r2, r1
 1607 00b2 5A60     		str	r2, [r3, #4]
 1608 00b4 E9E7     		b	.L293
 1609              	.L299:
 1610 00b6 0225     		movs	r5, #2
 1611 00b8 E7E7     		b	.L293
 1612              	.L307:
 1613 00ba C046     		.align	2
 1614              	.L306:
 1615 00bc 00000000 		.word	SPI_DMAHalfTransmitCplt
 1616 00c0 00000000 		.word	SPI_DMATransmitCplt
 1617 00c4 00000000 		.word	SPI_DMAError
 1619              		.section	.text.HAL_SPI_TransmitReceive_DMA,"ax",%progbits
 1620              		.align	1
 1621              		.global	HAL_SPI_TransmitReceive_DMA
 1622              		.syntax unified
 1623              		.code	16
 1624              		.thumb_func
 1626              	HAL_SPI_TransmitReceive_DMA:
 1627              		@ args = 0, pretend = 0, frame = 8
 1628              		@ frame_needed = 0, uses_anonymous_args = 0
 1629 0000 F7B5     		push	{r0, r1, r2, r4, r5, r6, r7, lr}
ARM GAS  /tmp/ccLBxpA5.s 			page 29


 1630 0002 0600     		movs	r6, r0
 1631 0004 5036     		adds	r6, r6, #80
 1632 0006 3578     		ldrb	r5, [r6]
 1633 0008 0400     		movs	r4, r0
 1634 000a 0220     		movs	r0, #2
 1635 000c 012D     		cmp	r5, #1
 1636 000e 47D0     		beq	.L309
 1637 0010 2500     		movs	r5, r4
 1638 0012 0138     		subs	r0, r0, #1
 1639 0014 3070     		strb	r0, [r6]
 1640 0016 5135     		adds	r5, r5, #81
 1641 0018 2878     		ldrb	r0, [r5]
 1642 001a C7B2     		uxtb	r7, r0
 1643 001c 0197     		str	r7, [sp, #4]
 1644 001e 6768     		ldr	r7, [r4, #4]
 1645 0020 BC46     		mov	ip, r7
 1646 0022 0128     		cmp	r0, #1
 1647 0024 0AD0     		beq	.L310
 1648 0026 8227     		movs	r7, #130
 1649 0028 0220     		movs	r0, #2
 1650 002a 7F00     		lsls	r7, r7, #1
 1651 002c BC45     		cmp	ip, r7
 1652 002e 35D1     		bne	.L311
 1653 0030 A768     		ldr	r7, [r4, #8]
 1654 0032 002F     		cmp	r7, #0
 1655 0034 32D1     		bne	.L311
 1656 0036 019F     		ldr	r7, [sp, #4]
 1657 0038 042F     		cmp	r7, #4
 1658 003a 2FD1     		bne	.L311
 1659              	.L310:
 1660 003c 0029     		cmp	r1, #0
 1661 003e 2CD0     		beq	.L312
 1662 0040 002A     		cmp	r2, #0
 1663 0042 2AD0     		beq	.L312
 1664 0044 002B     		cmp	r3, #0
 1665 0046 28D0     		beq	.L312
 1666 0048 2878     		ldrb	r0, [r5]
 1667 004a 0428     		cmp	r0, #4
 1668 004c 01D0     		beq	.L313
 1669 004e 0520     		movs	r0, #5
 1670 0050 2870     		strb	r0, [r5]
 1671              	.L313:
 1672 0052 0020     		movs	r0, #0
 1673 0054 2163     		str	r1, [r4, #48]
 1674 0056 6065     		str	r0, [r4, #84]
 1675 0058 2064     		str	r0, [r4, #64]
 1676 005a E386     		strh	r3, [r4, #54]
 1677 005c 6064     		str	r0, [r4, #68]
 1678 005e A386     		strh	r3, [r4, #52]
 1679 0060 A263     		str	r2, [r4, #56]
 1680 0062 A387     		strh	r3, [r4, #60]
 1681 0064 E387     		strh	r3, [r4, #62]
 1682 0066 2B78     		ldrb	r3, [r5]
 1683 0068 E06C     		ldr	r0, [r4, #76]
 1684 006a 042B     		cmp	r3, #4
 1685 006c 19D0     		beq	.L322
 1686 006e 2349     		ldr	r1, .L338
ARM GAS  /tmp/ccLBxpA5.s 			page 30


 1687 0070 234B     		ldr	r3, .L338+4
 1688              	.L314:
 1689 0072 C362     		str	r3, [r0, #44]
 1690 0074 234B     		ldr	r3, .L338+8
 1691 0076 0163     		str	r1, [r0, #48]
 1692 0078 4363     		str	r3, [r0, #52]
 1693 007a 0023     		movs	r3, #0
 1694 007c 8363     		str	r3, [r0, #56]
 1695 007e E38F     		ldrh	r3, [r4, #62]
 1696 0080 2168     		ldr	r1, [r4]
 1697 0082 9BB2     		uxth	r3, r3
 1698 0084 0C31     		adds	r1, r1, #12
 1699 0086 FFF7FEFF 		bl	HAL_DMA_Start_IT
 1700 008a 031E     		subs	r3, r0, #0
 1701 008c 0CD0     		beq	.L315
 1702 008e 1023     		movs	r3, #16
 1703 0090 626D     		ldr	r2, [r4, #84]
 1704 0092 1343     		orrs	r3, r2
 1705 0094 6365     		str	r3, [r4, #84]
 1706 0096 0123     		movs	r3, #1
 1707 0098 2B70     		strb	r3, [r5]
 1708              	.L312:
 1709 009a 0120     		movs	r0, #1
 1710              	.L311:
 1711 009c 0023     		movs	r3, #0
 1712 009e 3370     		strb	r3, [r6]
 1713              	.L309:
 1714              		@ sp needed
 1715 00a0 FEBD     		pop	{r1, r2, r3, r4, r5, r6, r7, pc}
 1716              	.L322:
 1717 00a2 1949     		ldr	r1, .L338+12
 1718 00a4 194B     		ldr	r3, .L338+16
 1719 00a6 E4E7     		b	.L314
 1720              	.L315:
 1721 00a8 0127     		movs	r7, #1
 1722 00aa 2268     		ldr	r2, [r4]
 1723 00ac A06C     		ldr	r0, [r4, #72]
 1724 00ae 5168     		ldr	r1, [r2, #4]
 1725 00b0 3943     		orrs	r1, r7
 1726 00b2 5160     		str	r1, [r2, #4]
 1727 00b4 0363     		str	r3, [r0, #48]
 1728 00b6 C362     		str	r3, [r0, #44]
 1729 00b8 4363     		str	r3, [r0, #52]
 1730 00ba 8363     		str	r3, [r0, #56]
 1731 00bc E38E     		ldrh	r3, [r4, #54]
 1732 00be 216B     		ldr	r1, [r4, #48]
 1733 00c0 9BB2     		uxth	r3, r3
 1734 00c2 0C32     		adds	r2, r2, #12
 1735 00c4 FFF7FEFF 		bl	HAL_DMA_Start_IT
 1736 00c8 0028     		cmp	r0, #0
 1737 00ca 05D0     		beq	.L316
 1738 00cc 1023     		movs	r3, #16
 1739 00ce 626D     		ldr	r2, [r4, #84]
 1740 00d0 1343     		orrs	r3, r2
 1741 00d2 6365     		str	r3, [r4, #84]
 1742 00d4 2F70     		strb	r7, [r5]
 1743 00d6 E0E7     		b	.L312
ARM GAS  /tmp/ccLBxpA5.s 			page 31


 1744              	.L316:
 1745 00d8 4022     		movs	r2, #64
 1746 00da 2368     		ldr	r3, [r4]
 1747 00dc 1968     		ldr	r1, [r3]
 1748 00de 1142     		tst	r1, r2
 1749 00e0 02D1     		bne	.L317
 1750 00e2 1968     		ldr	r1, [r3]
 1751 00e4 0A43     		orrs	r2, r1
 1752 00e6 1A60     		str	r2, [r3]
 1753              	.L317:
 1754 00e8 2022     		movs	r2, #32
 1755 00ea 5968     		ldr	r1, [r3, #4]
 1756 00ec 0A43     		orrs	r2, r1
 1757 00ee 5A60     		str	r2, [r3, #4]
 1758 00f0 0222     		movs	r2, #2
 1759 00f2 5968     		ldr	r1, [r3, #4]
 1760 00f4 0A43     		orrs	r2, r1
 1761 00f6 5A60     		str	r2, [r3, #4]
 1762 00f8 D0E7     		b	.L311
 1763              	.L339:
 1764 00fa C046     		.align	2
 1765              	.L338:
 1766 00fc 00000000 		.word	SPI_DMAHalfTransmitReceiveCplt
 1767 0100 00000000 		.word	SPI_DMATransmitReceiveCplt
 1768 0104 00000000 		.word	SPI_DMAError
 1769 0108 00000000 		.word	SPI_DMAHalfReceiveCplt
 1770 010c 00000000 		.word	SPI_DMAReceiveCplt
 1772              		.section	.text.HAL_SPI_Receive_DMA,"ax",%progbits
 1773              		.align	1
 1774              		.global	HAL_SPI_Receive_DMA
 1775              		.syntax unified
 1776              		.code	16
 1777              		.thumb_func
 1779              	HAL_SPI_Receive_DMA:
 1780              		@ args = 0, pretend = 0, frame = 0
 1781              		@ frame_needed = 0, uses_anonymous_args = 0
 1782 0000 F8B5     		push	{r3, r4, r5, r6, r7, lr}
 1783 0002 0400     		movs	r4, r0
 1784 0004 8068     		ldr	r0, [r0, #8]
 1785 0006 1300     		movs	r3, r2
 1786 0008 0028     		cmp	r0, #0
 1787 000a 0FD1     		bne	.L341
 1788 000c 8222     		movs	r2, #130
 1789 000e 6568     		ldr	r5, [r4, #4]
 1790 0010 5200     		lsls	r2, r2, #1
 1791 0012 9542     		cmp	r5, r2
 1792 0014 0AD1     		bne	.L341
 1793 0016 2200     		movs	r2, r4
 1794 0018 0430     		adds	r0, r0, #4
 1795 001a 5132     		adds	r2, r2, #81
 1796 001c 1070     		strb	r0, [r2]
 1797 001e 0A00     		movs	r2, r1
 1798 0020 2000     		movs	r0, r4
 1799 0022 FFF7FEFF 		bl	HAL_SPI_TransmitReceive_DMA
 1800 0026 0500     		movs	r5, r0
 1801              	.L342:
 1802              		@ sp needed
ARM GAS  /tmp/ccLBxpA5.s 			page 32


 1803 0028 2800     		movs	r0, r5
 1804 002a F8BD     		pop	{r3, r4, r5, r6, r7, pc}
 1805              	.L341:
 1806 002c 2600     		movs	r6, r4
 1807 002e 5036     		adds	r6, r6, #80
 1808 0030 3278     		ldrb	r2, [r6]
 1809 0032 0225     		movs	r5, #2
 1810 0034 012A     		cmp	r2, #1
 1811 0036 F7D0     		beq	.L342
 1812 0038 0122     		movs	r2, #1
 1813 003a 2700     		movs	r7, r4
 1814 003c 3270     		strb	r2, [r6]
 1815 003e 5137     		adds	r7, r7, #81
 1816 0040 3A78     		ldrb	r2, [r7]
 1817 0042 D5B2     		uxtb	r5, r2
 1818 0044 012A     		cmp	r2, #1
 1819 0046 49D1     		bne	.L349
 1820 0048 0029     		cmp	r1, #0
 1821 004a 32D0     		beq	.L343
 1822 004c 002B     		cmp	r3, #0
 1823 004e 30D0     		beq	.L343
 1824 0050 0332     		adds	r2, r2, #3
 1825 0052 3A70     		strb	r2, [r7]
 1826 0054 0022     		movs	r2, #0
 1827 0056 A387     		strh	r3, [r4, #60]
 1828 0058 6265     		str	r2, [r4, #84]
 1829 005a E387     		strh	r3, [r4, #62]
 1830 005c 8023     		movs	r3, #128
 1831 005e 2264     		str	r2, [r4, #64]
 1832 0060 6264     		str	r2, [r4, #68]
 1833 0062 A286     		strh	r2, [r4, #52]
 1834 0064 E286     		strh	r2, [r4, #54]
 1835 0066 A163     		str	r1, [r4, #56]
 1836 0068 2268     		ldr	r2, [r4]
 1837 006a 1B02     		lsls	r3, r3, #8
 1838 006c 9842     		cmp	r0, r3
 1839 006e 07D1     		bne	.L345
 1840 0070 4020     		movs	r0, #64
 1841 0072 1368     		ldr	r3, [r2]
 1842 0074 8343     		bics	r3, r0
 1843 0076 1360     		str	r3, [r2]
 1844 0078 1368     		ldr	r3, [r2]
 1845 007a 1948     		ldr	r0, .L356
 1846 007c 0340     		ands	r3, r0
 1847 007e 1360     		str	r3, [r2]
 1848              	.L345:
 1849 0080 E06C     		ldr	r0, [r4, #76]
 1850 0082 184B     		ldr	r3, .L356+4
 1851 0084 0C32     		adds	r2, r2, #12
 1852 0086 0363     		str	r3, [r0, #48]
 1853 0088 174B     		ldr	r3, .L356+8
 1854 008a 9446     		mov	ip, r2
 1855 008c C362     		str	r3, [r0, #44]
 1856 008e 174B     		ldr	r3, .L356+12
 1857 0090 0A00     		movs	r2, r1
 1858 0092 4363     		str	r3, [r0, #52]
 1859 0094 0023     		movs	r3, #0
ARM GAS  /tmp/ccLBxpA5.s 			page 33


 1860 0096 8363     		str	r3, [r0, #56]
 1861 0098 E38F     		ldrh	r3, [r4, #62]
 1862 009a 6146     		mov	r1, ip
 1863 009c 9BB2     		uxth	r3, r3
 1864 009e FFF7FEFF 		bl	HAL_DMA_Start_IT
 1865 00a2 0028     		cmp	r0, #0
 1866 00a4 08D0     		beq	.L346
 1867 00a6 1023     		movs	r3, #16
 1868 00a8 626D     		ldr	r2, [r4, #84]
 1869 00aa 1343     		orrs	r3, r2
 1870 00ac 6365     		str	r3, [r4, #84]
 1871 00ae 0123     		movs	r3, #1
 1872 00b0 3B70     		strb	r3, [r7]
 1873              	.L343:
 1874 00b2 0023     		movs	r3, #0
 1875 00b4 3370     		strb	r3, [r6]
 1876 00b6 B7E7     		b	.L342
 1877              	.L346:
 1878 00b8 4022     		movs	r2, #64
 1879 00ba 2368     		ldr	r3, [r4]
 1880 00bc 1968     		ldr	r1, [r3]
 1881 00be 1142     		tst	r1, r2
 1882 00c0 02D1     		bne	.L347
 1883 00c2 1968     		ldr	r1, [r3]
 1884 00c4 0A43     		orrs	r2, r1
 1885 00c6 1A60     		str	r2, [r3]
 1886              	.L347:
 1887 00c8 2022     		movs	r2, #32
 1888 00ca 5968     		ldr	r1, [r3, #4]
 1889 00cc 0025     		movs	r5, #0
 1890 00ce 0A43     		orrs	r2, r1
 1891 00d0 5A60     		str	r2, [r3, #4]
 1892 00d2 0122     		movs	r2, #1
 1893 00d4 5968     		ldr	r1, [r3, #4]
 1894 00d6 0A43     		orrs	r2, r1
 1895 00d8 5A60     		str	r2, [r3, #4]
 1896 00da EAE7     		b	.L343
 1897              	.L349:
 1898 00dc 0225     		movs	r5, #2
 1899 00de E8E7     		b	.L343
 1900              	.L357:
 1901              		.align	2
 1902              	.L356:
 1903 00e0 FFBFFFFF 		.word	-16385
 1904 00e4 00000000 		.word	SPI_DMAHalfReceiveCplt
 1905 00e8 00000000 		.word	SPI_DMAReceiveCplt
 1906 00ec 00000000 		.word	SPI_DMAError
 1908              		.section	.text.HAL_SPI_Abort,"ax",%progbits
 1909              		.align	1
 1910              		.global	HAL_SPI_Abort
 1911              		.syntax unified
 1912              		.code	16
 1913              		.thumb_func
 1915              	HAL_SPI_Abort:
 1916              		@ args = 0, pretend = 0, frame = 16
 1917              		@ frame_needed = 0, uses_anonymous_args = 0
 1918 0000 1FB5     		push	{r0, r1, r2, r3, r4, lr}
ARM GAS  /tmp/ccLBxpA5.s 			page 34


 1919 0002 484B     		ldr	r3, .L408
 1920 0004 0400     		movs	r4, r0
 1921 0006 4849     		ldr	r1, .L408+4
 1922 0008 1868     		ldr	r0, [r3]
 1923 000a FFF7FEFF 		bl	__aeabi_uidiv
 1924 000e 6423     		movs	r3, #100
 1925 0010 2021     		movs	r1, #32
 1926 0012 4343     		muls	r3, r0
 1927 0014 0193     		str	r3, [sp, #4]
 1928 0016 019B     		ldr	r3, [sp, #4]
 1929 0018 0093     		str	r3, [sp]
 1930 001a 2368     		ldr	r3, [r4]
 1931 001c 5A68     		ldr	r2, [r3, #4]
 1932 001e 8A43     		bics	r2, r1
 1933 0020 5A60     		str	r2, [r3, #4]
 1934 0022 5A68     		ldr	r2, [r3, #4]
 1935 0024 1206     		lsls	r2, r2, #24
 1936 0026 0CD5     		bpl	.L359
 1937 0028 2100     		movs	r1, r4
 1938 002a 404A     		ldr	r2, .L408+8
 1939 002c 5131     		adds	r1, r1, #81
 1940 002e 6264     		str	r2, [r4, #68]
 1941              	.L362:
 1942 0030 009A     		ldr	r2, [sp]
 1943 0032 002A     		cmp	r2, #0
 1944 0034 60D1     		bne	.L360
 1945 0036 616D     		ldr	r1, [r4, #84]
 1946 0038 4032     		adds	r2, r2, #64
 1947 003a 0A43     		orrs	r2, r1
 1948 003c 6265     		str	r2, [r4, #84]
 1949              	.L361:
 1950 003e 019A     		ldr	r2, [sp, #4]
 1951 0040 0092     		str	r2, [sp]
 1952              	.L359:
 1953 0042 5A68     		ldr	r2, [r3, #4]
 1954 0044 5206     		lsls	r2, r2, #25
 1955 0046 0CD5     		bpl	.L363
 1956 0048 2100     		movs	r1, r4
 1957 004a 394A     		ldr	r2, .L408+12
 1958 004c 5131     		adds	r1, r1, #81
 1959 004e 2264     		str	r2, [r4, #64]
 1960              	.L366:
 1961 0050 009A     		ldr	r2, [sp]
 1962 0052 002A     		cmp	r2, #0
 1963 0054 57D1     		bne	.L364
 1964 0056 616D     		ldr	r1, [r4, #84]
 1965 0058 4032     		adds	r2, r2, #64
 1966 005a 0A43     		orrs	r2, r1
 1967 005c 6265     		str	r2, [r4, #84]
 1968              	.L365:
 1969 005e 019A     		ldr	r2, [sp, #4]
 1970 0060 0092     		str	r2, [sp]
 1971              	.L363:
 1972 0062 5B68     		ldr	r3, [r3, #4]
 1973 0064 9B07     		lsls	r3, r3, #30
 1974 0066 16D5     		bpl	.L370
 1975 0068 A06C     		ldr	r0, [r4, #72]
ARM GAS  /tmp/ccLBxpA5.s 			page 35


 1976 006a 0028     		cmp	r0, #0
 1977 006c 13D0     		beq	.L370
 1978 006e 0023     		movs	r3, #0
 1979 0070 8363     		str	r3, [r0, #56]
 1980 0072 FFF7FEFF 		bl	HAL_DMA_Abort
 1981 0076 0028     		cmp	r0, #0
 1982 0078 01D0     		beq	.L368
 1983 007a 4023     		movs	r3, #64
 1984 007c 6365     		str	r3, [r4, #84]
 1985              	.L368:
 1986 007e 0221     		movs	r1, #2
 1987 0080 2368     		ldr	r3, [r4]
 1988 0082 5A68     		ldr	r2, [r3, #4]
 1989 0084 8A43     		bics	r2, r1
 1990 0086 5A60     		str	r2, [r3, #4]
 1991              	.L371:
 1992 0088 009A     		ldr	r2, [sp]
 1993 008a 002A     		cmp	r2, #0
 1994 008c 42D1     		bne	.L369
 1995 008e 4023     		movs	r3, #64
 1996 0090 626D     		ldr	r2, [r4, #84]
 1997 0092 1343     		orrs	r3, r2
 1998 0094 6365     		str	r3, [r4, #84]
 1999              	.L370:
 2000 0096 2368     		ldr	r3, [r4]
 2001 0098 5B68     		ldr	r3, [r3, #4]
 2002 009a DB07     		lsls	r3, r3, #31
 2003 009c 13D5     		bpl	.L372
 2004 009e E06C     		ldr	r0, [r4, #76]
 2005 00a0 0028     		cmp	r0, #0
 2006 00a2 10D0     		beq	.L372
 2007 00a4 0023     		movs	r3, #0
 2008 00a6 8363     		str	r3, [r0, #56]
 2009 00a8 FFF7FEFF 		bl	HAL_DMA_Abort
 2010 00ac 0028     		cmp	r0, #0
 2011 00ae 01D0     		beq	.L373
 2012 00b0 4023     		movs	r3, #64
 2013 00b2 6365     		str	r3, [r4, #84]
 2014              	.L373:
 2015 00b4 4021     		movs	r1, #64
 2016 00b6 2368     		ldr	r3, [r4]
 2017 00b8 1A68     		ldr	r2, [r3]
 2018 00ba 8A43     		bics	r2, r1
 2019 00bc 1A60     		str	r2, [r3]
 2020 00be 5A68     		ldr	r2, [r3, #4]
 2021 00c0 3F39     		subs	r1, r1, #63
 2022 00c2 8A43     		bics	r2, r1
 2023 00c4 5A60     		str	r2, [r3, #4]
 2024              	.L372:
 2025 00c6 0023     		movs	r3, #0
 2026 00c8 E387     		strh	r3, [r4, #62]
 2027 00ca E386     		strh	r3, [r4, #54]
 2028 00cc 626D     		ldr	r2, [r4, #84]
 2029 00ce 0120     		movs	r0, #1
 2030 00d0 402A     		cmp	r2, #64
 2031 00d2 01D0     		beq	.L374
 2032 00d4 1800     		movs	r0, r3
ARM GAS  /tmp/ccLBxpA5.s 			page 36


 2033 00d6 6365     		str	r3, [r4, #84]
 2034              	.L374:
 2035 00d8 2268     		ldr	r2, [r4]
 2036 00da 0293     		str	r3, [sp, #8]
 2037 00dc D168     		ldr	r1, [r2, #12]
 2038 00de 5134     		adds	r4, r4, #81
 2039 00e0 0291     		str	r1, [sp, #8]
 2040 00e2 9168     		ldr	r1, [r2, #8]
 2041 00e4 0291     		str	r1, [sp, #8]
 2042 00e6 0299     		ldr	r1, [sp, #8]
 2043 00e8 0393     		str	r3, [sp, #12]
 2044 00ea 9368     		ldr	r3, [r2, #8]
 2045 00ec 0393     		str	r3, [sp, #12]
 2046 00ee 039B     		ldr	r3, [sp, #12]
 2047 00f0 0123     		movs	r3, #1
 2048 00f2 2370     		strb	r3, [r4]
 2049 00f4 04B0     		add	sp, sp, #16
 2050              		@ sp needed
 2051 00f6 10BD     		pop	{r4, pc}
 2052              	.L360:
 2053 00f8 009A     		ldr	r2, [sp]
 2054 00fa 013A     		subs	r2, r2, #1
 2055 00fc 0092     		str	r2, [sp]
 2056 00fe 0A78     		ldrb	r2, [r1]
 2057 0100 072A     		cmp	r2, #7
 2058 0102 95D1     		bne	.L362
 2059 0104 9BE7     		b	.L361
 2060              	.L364:
 2061 0106 009A     		ldr	r2, [sp]
 2062 0108 013A     		subs	r2, r2, #1
 2063 010a 0092     		str	r2, [sp]
 2064 010c 0A78     		ldrb	r2, [r1]
 2065 010e 072A     		cmp	r2, #7
 2066 0110 9ED1     		bne	.L366
 2067 0112 A4E7     		b	.L365
 2068              	.L369:
 2069 0114 009A     		ldr	r2, [sp]
 2070 0116 013A     		subs	r2, r2, #1
 2071 0118 0092     		str	r2, [sp]
 2072 011a 9A68     		ldr	r2, [r3, #8]
 2073 011c 0A42     		tst	r2, r1
 2074 011e B3D0     		beq	.L371
 2075 0120 B9E7     		b	.L370
 2076              	.L409:
 2077 0122 C046     		.align	2
 2078              	.L408:
 2079 0124 00000000 		.word	SystemCoreClock
 2080 0128 C05D0000 		.word	24000
 2081 012c 00000000 		.word	SPI_AbortTx_ISR
 2082 0130 00000000 		.word	SPI_AbortRx_ISR
 2084              		.section	.text.HAL_SPI_DMAPause,"ax",%progbits
 2085              		.align	1
 2086              		.global	HAL_SPI_DMAPause
 2087              		.syntax unified
 2088              		.code	16
 2089              		.thumb_func
 2091              	HAL_SPI_DMAPause:
ARM GAS  /tmp/ccLBxpA5.s 			page 37


 2092              		@ args = 0, pretend = 0, frame = 0
 2093              		@ frame_needed = 0, uses_anonymous_args = 0
 2094              		@ link register save eliminated.
 2095 0000 0200     		movs	r2, r0
 2096 0002 5032     		adds	r2, r2, #80
 2097 0004 1178     		ldrb	r1, [r2]
 2098 0006 0300     		movs	r3, r0
 2099 0008 0220     		movs	r0, #2
 2100 000a 0129     		cmp	r1, #1
 2101 000c 06D0     		beq	.L411
 2102 000e 1968     		ldr	r1, [r3]
 2103 0010 0130     		adds	r0, r0, #1
 2104 0012 4B68     		ldr	r3, [r1, #4]
 2105 0014 8343     		bics	r3, r0
 2106 0016 0020     		movs	r0, #0
 2107 0018 4B60     		str	r3, [r1, #4]
 2108 001a 1070     		strb	r0, [r2]
 2109              	.L411:
 2110              		@ sp needed
 2111 001c 7047     		bx	lr
 2113              		.section	.text.HAL_SPI_DMAResume,"ax",%progbits
 2114              		.align	1
 2115              		.global	HAL_SPI_DMAResume
 2116              		.syntax unified
 2117              		.code	16
 2118              		.thumb_func
 2120              	HAL_SPI_DMAResume:
 2121              		@ args = 0, pretend = 0, frame = 0
 2122              		@ frame_needed = 0, uses_anonymous_args = 0
 2123              		@ link register save eliminated.
 2124 0000 0200     		movs	r2, r0
 2125 0002 5032     		adds	r2, r2, #80
 2126 0004 1178     		ldrb	r1, [r2]
 2127 0006 0300     		movs	r3, r0
 2128 0008 0220     		movs	r0, #2
 2129 000a 0129     		cmp	r1, #1
 2130 000c 06D0     		beq	.L414
 2131 000e 1968     		ldr	r1, [r3]
 2132 0010 0323     		movs	r3, #3
 2133 0012 4868     		ldr	r0, [r1, #4]
 2134 0014 0343     		orrs	r3, r0
 2135 0016 0020     		movs	r0, #0
 2136 0018 4B60     		str	r3, [r1, #4]
 2137 001a 1070     		strb	r0, [r2]
 2138              	.L414:
 2139              		@ sp needed
 2140 001c 7047     		bx	lr
 2142              		.section	.text.HAL_SPI_DMAStop,"ax",%progbits
 2143              		.align	1
 2144              		.global	HAL_SPI_DMAStop
 2145              		.syntax unified
 2146              		.code	16
 2147              		.thumb_func
 2149              	HAL_SPI_DMAStop:
 2150              		@ args = 0, pretend = 0, frame = 0
 2151              		@ frame_needed = 0, uses_anonymous_args = 0
 2152 0000 70B5     		push	{r4, r5, r6, lr}
ARM GAS  /tmp/ccLBxpA5.s 			page 38


 2153 0002 0400     		movs	r4, r0
 2154 0004 806C     		ldr	r0, [r0, #72]
 2155 0006 0028     		cmp	r0, #0
 2156 0008 16D1     		bne	.L417
 2157              	.L419:
 2158 000a 0025     		movs	r5, #0
 2159              	.L418:
 2160 000c E06C     		ldr	r0, [r4, #76]
 2161 000e 0028     		cmp	r0, #0
 2162 0010 08D0     		beq	.L422
 2163 0012 FFF7FEFF 		bl	HAL_DMA_Abort
 2164 0016 0028     		cmp	r0, #0
 2165 0018 04D0     		beq	.L422
 2166 001a 1023     		movs	r3, #16
 2167 001c 0125     		movs	r5, #1
 2168 001e 626D     		ldr	r2, [r4, #84]
 2169 0020 1343     		orrs	r3, r2
 2170 0022 6365     		str	r3, [r4, #84]
 2171              	.L422:
 2172 0024 0321     		movs	r1, #3
 2173              		@ sp needed
 2174 0026 2268     		ldr	r2, [r4]
 2175 0028 5134     		adds	r4, r4, #81
 2176 002a 5368     		ldr	r3, [r2, #4]
 2177 002c 2800     		movs	r0, r5
 2178 002e 8B43     		bics	r3, r1
 2179 0030 5360     		str	r3, [r2, #4]
 2180 0032 0123     		movs	r3, #1
 2181 0034 2370     		strb	r3, [r4]
 2182 0036 70BD     		pop	{r4, r5, r6, pc}
 2183              	.L417:
 2184 0038 FFF7FEFF 		bl	HAL_DMA_Abort
 2185 003c 0028     		cmp	r0, #0
 2186 003e E4D0     		beq	.L419
 2187 0040 1023     		movs	r3, #16
 2188 0042 626D     		ldr	r2, [r4, #84]
 2189 0044 0125     		movs	r5, #1
 2190 0046 1343     		orrs	r3, r2
 2191 0048 6365     		str	r3, [r4, #84]
 2192 004a DFE7     		b	.L418
 2194              		.section	.text.HAL_SPI_TxCpltCallback,"ax",%progbits
 2195              		.align	1
 2196              		.weak	HAL_SPI_TxCpltCallback
 2197              		.syntax unified
 2198              		.code	16
 2199              		.thumb_func
 2201              	HAL_SPI_TxCpltCallback:
 2202              		@ args = 0, pretend = 0, frame = 0
 2203              		@ frame_needed = 0, uses_anonymous_args = 0
 2204              		@ link register save eliminated.
 2205              		@ sp needed
 2206 0000 7047     		bx	lr
 2208              		.section	.text.HAL_SPI_RxCpltCallback,"ax",%progbits
 2209              		.align	1
 2210              		.weak	HAL_SPI_RxCpltCallback
 2211              		.syntax unified
 2212              		.code	16
ARM GAS  /tmp/ccLBxpA5.s 			page 39


 2213              		.thumb_func
 2215              	HAL_SPI_RxCpltCallback:
 2216              		@ args = 0, pretend = 0, frame = 0
 2217              		@ frame_needed = 0, uses_anonymous_args = 0
 2218              		@ link register save eliminated.
 2219              		@ sp needed
 2220 0000 7047     		bx	lr
 2222              		.section	.text.HAL_SPI_TxRxCpltCallback,"ax",%progbits
 2223              		.align	1
 2224              		.weak	HAL_SPI_TxRxCpltCallback
 2225              		.syntax unified
 2226              		.code	16
 2227              		.thumb_func
 2229              	HAL_SPI_TxRxCpltCallback:
 2230              		@ args = 0, pretend = 0, frame = 0
 2231              		@ frame_needed = 0, uses_anonymous_args = 0
 2232              		@ link register save eliminated.
 2233              		@ sp needed
 2234 0000 7047     		bx	lr
 2236              		.section	.text.HAL_SPI_TxHalfCpltCallback,"ax",%progbits
 2237              		.align	1
 2238              		.weak	HAL_SPI_TxHalfCpltCallback
 2239              		.syntax unified
 2240              		.code	16
 2241              		.thumb_func
 2243              	HAL_SPI_TxHalfCpltCallback:
 2244              		@ args = 0, pretend = 0, frame = 0
 2245              		@ frame_needed = 0, uses_anonymous_args = 0
 2246              		@ link register save eliminated.
 2247              		@ sp needed
 2248 0000 7047     		bx	lr
 2250              		.section	.text.SPI_DMAHalfTransmitCplt,"ax",%progbits
 2251              		.align	1
 2252              		.syntax unified
 2253              		.code	16
 2254              		.thumb_func
 2256              	SPI_DMAHalfTransmitCplt:
 2257              		@ args = 0, pretend = 0, frame = 0
 2258              		@ frame_needed = 0, uses_anonymous_args = 0
 2259 0000 10B5     		push	{r4, lr}
 2260 0002 806A     		ldr	r0, [r0, #40]
 2261 0004 FFF7FEFF 		bl	HAL_SPI_TxHalfCpltCallback
 2262              		@ sp needed
 2263 0008 10BD     		pop	{r4, pc}
 2265              		.section	.text.HAL_SPI_RxHalfCpltCallback,"ax",%progbits
 2266              		.align	1
 2267              		.weak	HAL_SPI_RxHalfCpltCallback
 2268              		.syntax unified
 2269              		.code	16
 2270              		.thumb_func
 2272              	HAL_SPI_RxHalfCpltCallback:
 2273              		@ args = 0, pretend = 0, frame = 0
 2274              		@ frame_needed = 0, uses_anonymous_args = 0
 2275              		@ link register save eliminated.
 2276              		@ sp needed
 2277 0000 7047     		bx	lr
 2279              		.section	.text.SPI_DMAHalfReceiveCplt,"ax",%progbits
ARM GAS  /tmp/ccLBxpA5.s 			page 40


 2280              		.align	1
 2281              		.syntax unified
 2282              		.code	16
 2283              		.thumb_func
 2285              	SPI_DMAHalfReceiveCplt:
 2286              		@ args = 0, pretend = 0, frame = 0
 2287              		@ frame_needed = 0, uses_anonymous_args = 0
 2288 0000 10B5     		push	{r4, lr}
 2289 0002 806A     		ldr	r0, [r0, #40]
 2290 0004 FFF7FEFF 		bl	HAL_SPI_RxHalfCpltCallback
 2291              		@ sp needed
 2292 0008 10BD     		pop	{r4, pc}
 2294              		.section	.text.HAL_SPI_TxRxHalfCpltCallback,"ax",%progbits
 2295              		.align	1
 2296              		.weak	HAL_SPI_TxRxHalfCpltCallback
 2297              		.syntax unified
 2298              		.code	16
 2299              		.thumb_func
 2301              	HAL_SPI_TxRxHalfCpltCallback:
 2302              		@ args = 0, pretend = 0, frame = 0
 2303              		@ frame_needed = 0, uses_anonymous_args = 0
 2304              		@ link register save eliminated.
 2305              		@ sp needed
 2306 0000 7047     		bx	lr
 2308              		.section	.text.SPI_DMAHalfTransmitReceiveCplt,"ax",%progbits
 2309              		.align	1
 2310              		.syntax unified
 2311              		.code	16
 2312              		.thumb_func
 2314              	SPI_DMAHalfTransmitReceiveCplt:
 2315              		@ args = 0, pretend = 0, frame = 0
 2316              		@ frame_needed = 0, uses_anonymous_args = 0
 2317 0000 10B5     		push	{r4, lr}
 2318 0002 806A     		ldr	r0, [r0, #40]
 2319 0004 FFF7FEFF 		bl	HAL_SPI_TxRxHalfCpltCallback
 2320              		@ sp needed
 2321 0008 10BD     		pop	{r4, pc}
 2323              		.section	.text.HAL_SPI_ErrorCallback,"ax",%progbits
 2324              		.align	1
 2325              		.weak	HAL_SPI_ErrorCallback
 2326              		.syntax unified
 2327              		.code	16
 2328              		.thumb_func
 2330              	HAL_SPI_ErrorCallback:
 2331              		@ args = 0, pretend = 0, frame = 0
 2332              		@ frame_needed = 0, uses_anonymous_args = 0
 2333              		@ link register save eliminated.
 2334              		@ sp needed
 2335 0000 7047     		bx	lr
 2337              		.section	.text.SPI_CloseTx_ISR,"ax",%progbits
 2338              		.align	1
 2339              		.syntax unified
 2340              		.code	16
 2341              		.thumb_func
 2343              	SPI_CloseTx_ISR:
 2344              		@ args = 0, pretend = 0, frame = 8
 2345              		@ frame_needed = 0, uses_anonymous_args = 0
ARM GAS  /tmp/ccLBxpA5.s 			page 41


 2346 0000 214B     		ldr	r3, .L452
 2347 0002 13B5     		push	{r0, r1, r4, lr}
 2348 0004 0400     		movs	r4, r0
 2349 0006 2149     		ldr	r1, .L452+4
 2350 0008 1868     		ldr	r0, [r3]
 2351 000a FFF7FEFF 		bl	__aeabi_uidiv
 2352 000e 6423     		movs	r3, #100
 2353 0010 4343     		muls	r3, r0
 2354 0012 0093     		str	r3, [sp]
 2355 0014 FFF7FEFF 		bl	HAL_GetTick
 2356 0018 0200     		movs	r2, r0
 2357 001a 0220     		movs	r0, #2
 2358 001c 2368     		ldr	r3, [r4]
 2359              	.L442:
 2360 001e 0099     		ldr	r1, [sp]
 2361 0020 0029     		cmp	r1, #0
 2362 0022 26D1     		bne	.L440
 2363 0024 606D     		ldr	r0, [r4, #84]
 2364 0026 2031     		adds	r1, r1, #32
 2365 0028 0143     		orrs	r1, r0
 2366 002a 6165     		str	r1, [r4, #84]
 2367              	.L441:
 2368 002c A020     		movs	r0, #160
 2369 002e 5968     		ldr	r1, [r3, #4]
 2370 0030 8143     		bics	r1, r0
 2371 0032 5960     		str	r1, [r3, #4]
 2372 0034 2000     		movs	r0, r4
 2373 0036 6421     		movs	r1, #100
 2374 0038 FFF7FEFF 		bl	SPI_EndRxTxTransaction
 2375 003c 0028     		cmp	r0, #0
 2376 003e 03D0     		beq	.L443
 2377 0040 2023     		movs	r3, #32
 2378 0042 626D     		ldr	r2, [r4, #84]
 2379 0044 1343     		orrs	r3, r2
 2380 0046 6365     		str	r3, [r4, #84]
 2381              	.L443:
 2382 0048 A368     		ldr	r3, [r4, #8]
 2383 004a 002B     		cmp	r3, #0
 2384 004c 06D1     		bne	.L444
 2385 004e 0193     		str	r3, [sp, #4]
 2386 0050 2368     		ldr	r3, [r4]
 2387 0052 DA68     		ldr	r2, [r3, #12]
 2388 0054 0192     		str	r2, [sp, #4]
 2389 0056 9B68     		ldr	r3, [r3, #8]
 2390 0058 0193     		str	r3, [sp, #4]
 2391 005a 019B     		ldr	r3, [sp, #4]
 2392              	.L444:
 2393 005c 2300     		movs	r3, r4
 2394 005e 0122     		movs	r2, #1
 2395 0060 5133     		adds	r3, r3, #81
 2396 0062 1A70     		strb	r2, [r3]
 2397 0064 636D     		ldr	r3, [r4, #84]
 2398 0066 2000     		movs	r0, r4
 2399 0068 002B     		cmp	r3, #0
 2400 006a 09D0     		beq	.L445
 2401 006c FFF7FEFF 		bl	HAL_SPI_ErrorCallback
 2402              	.L439:
ARM GAS  /tmp/ccLBxpA5.s 			page 42


 2403              		@ sp needed
 2404 0070 13BD     		pop	{r0, r1, r4, pc}
 2405              	.L440:
 2406 0072 0099     		ldr	r1, [sp]
 2407 0074 0139     		subs	r1, r1, #1
 2408 0076 0091     		str	r1, [sp]
 2409 0078 9968     		ldr	r1, [r3, #8]
 2410 007a 0142     		tst	r1, r0
 2411 007c CFD0     		beq	.L442
 2412 007e D5E7     		b	.L441
 2413              	.L445:
 2414 0080 FFF7FEFF 		bl	HAL_SPI_TxCpltCallback
 2415 0084 F4E7     		b	.L439
 2416              	.L453:
 2417 0086 C046     		.align	2
 2418              	.L452:
 2419 0088 00000000 		.word	SystemCoreClock
 2420 008c C05D0000 		.word	24000
 2422              		.section	.text.SPI_TxISR_8BIT,"ax",%progbits
 2423              		.align	1
 2424              		.syntax unified
 2425              		.code	16
 2426              		.thumb_func
 2428              	SPI_TxISR_8BIT:
 2429              		@ args = 0, pretend = 0, frame = 0
 2430              		@ frame_needed = 0, uses_anonymous_args = 0
 2431 0000 10B5     		push	{r4, lr}
 2432 0002 026B     		ldr	r2, [r0, #48]
 2433 0004 0368     		ldr	r3, [r0]
 2434 0006 1278     		ldrb	r2, [r2]
 2435 0008 1A73     		strb	r2, [r3, #12]
 2436 000a 036B     		ldr	r3, [r0, #48]
 2437 000c 0133     		adds	r3, r3, #1
 2438 000e 0363     		str	r3, [r0, #48]
 2439 0010 C38E     		ldrh	r3, [r0, #54]
 2440 0012 013B     		subs	r3, r3, #1
 2441 0014 9BB2     		uxth	r3, r3
 2442 0016 C386     		strh	r3, [r0, #54]
 2443 0018 C38E     		ldrh	r3, [r0, #54]
 2444 001a 002B     		cmp	r3, #0
 2445 001c 01D1     		bne	.L454
 2446 001e FFF7FEFF 		bl	SPI_CloseTx_ISR
 2447              	.L454:
 2448              		@ sp needed
 2449 0022 10BD     		pop	{r4, pc}
 2451              		.section	.text.SPI_TxISR_16BIT,"ax",%progbits
 2452              		.align	1
 2453              		.syntax unified
 2454              		.code	16
 2455              		.thumb_func
 2457              	SPI_TxISR_16BIT:
 2458              		@ args = 0, pretend = 0, frame = 0
 2459              		@ frame_needed = 0, uses_anonymous_args = 0
 2460 0000 036B     		ldr	r3, [r0, #48]
 2461 0002 0268     		ldr	r2, [r0]
 2462 0004 1988     		ldrh	r1, [r3]
 2463 0006 10B5     		push	{r4, lr}
ARM GAS  /tmp/ccLBxpA5.s 			page 43


 2464 0008 0233     		adds	r3, r3, #2
 2465 000a D160     		str	r1, [r2, #12]
 2466 000c 0363     		str	r3, [r0, #48]
 2467 000e C38E     		ldrh	r3, [r0, #54]
 2468 0010 013B     		subs	r3, r3, #1
 2469 0012 9BB2     		uxth	r3, r3
 2470 0014 C386     		strh	r3, [r0, #54]
 2471 0016 C38E     		ldrh	r3, [r0, #54]
 2472 0018 002B     		cmp	r3, #0
 2473 001a 01D1     		bne	.L456
 2474 001c FFF7FEFF 		bl	SPI_CloseTx_ISR
 2475              	.L456:
 2476              		@ sp needed
 2477 0020 10BD     		pop	{r4, pc}
 2479              		.section	.text.SPI_CloseRx_ISR,"ax",%progbits
 2480              		.align	1
 2481              		.syntax unified
 2482              		.code	16
 2483              		.thumb_func
 2485              	SPI_CloseRx_ISR:
 2486              		@ args = 0, pretend = 0, frame = 8
 2487              		@ frame_needed = 0, uses_anonymous_args = 0
 2488 0000 13B5     		push	{r0, r1, r4, lr}
 2489 0002 6021     		movs	r1, #96
 2490 0004 0268     		ldr	r2, [r0]
 2491 0006 0400     		movs	r4, r0
 2492 0008 5368     		ldr	r3, [r2, #4]
 2493 000a 8B43     		bics	r3, r1
 2494 000c 5360     		str	r3, [r2, #4]
 2495 000e FFF7FEFF 		bl	HAL_GetTick
 2496 0012 6421     		movs	r1, #100
 2497 0014 0200     		movs	r2, r0
 2498 0016 2000     		movs	r0, r4
 2499 0018 FFF7FEFF 		bl	SPI_EndRxTransaction
 2500 001c 0028     		cmp	r0, #0
 2501 001e 03D0     		beq	.L459
 2502 0020 2023     		movs	r3, #32
 2503 0022 626D     		ldr	r2, [r4, #84]
 2504 0024 1343     		orrs	r3, r2
 2505 0026 6365     		str	r3, [r4, #84]
 2506              	.L459:
 2507 0028 A368     		ldr	r3, [r4, #8]
 2508 002a 002B     		cmp	r3, #0
 2509 002c 06D1     		bne	.L460
 2510 002e 0193     		str	r3, [sp, #4]
 2511 0030 2368     		ldr	r3, [r4]
 2512 0032 DA68     		ldr	r2, [r3, #12]
 2513 0034 0192     		str	r2, [sp, #4]
 2514 0036 9B68     		ldr	r3, [r3, #8]
 2515 0038 0193     		str	r3, [sp, #4]
 2516 003a 019B     		ldr	r3, [sp, #4]
 2517              	.L460:
 2518 003c 2300     		movs	r3, r4
 2519 003e 0122     		movs	r2, #1
 2520 0040 5133     		adds	r3, r3, #81
 2521 0042 1A70     		strb	r2, [r3]
 2522 0044 636D     		ldr	r3, [r4, #84]
ARM GAS  /tmp/ccLBxpA5.s 			page 44


 2523 0046 2000     		movs	r0, r4
 2524 0048 002B     		cmp	r3, #0
 2525 004a 02D1     		bne	.L461
 2526 004c FFF7FEFF 		bl	HAL_SPI_RxCpltCallback
 2527              	.L458:
 2528              		@ sp needed
 2529 0050 13BD     		pop	{r0, r1, r4, pc}
 2530              	.L461:
 2531 0052 FFF7FEFF 		bl	HAL_SPI_ErrorCallback
 2532 0056 FBE7     		b	.L458
 2534              		.section	.text.SPI_RxISR_8BIT,"ax",%progbits
 2535              		.align	1
 2536              		.syntax unified
 2537              		.code	16
 2538              		.thumb_func
 2540              	SPI_RxISR_8BIT:
 2541              		@ args = 0, pretend = 0, frame = 0
 2542              		@ frame_needed = 0, uses_anonymous_args = 0
 2543 0000 10B5     		push	{r4, lr}
 2544 0002 0268     		ldr	r2, [r0]
 2545 0004 836B     		ldr	r3, [r0, #56]
 2546 0006 127B     		ldrb	r2, [r2, #12]
 2547 0008 1A70     		strb	r2, [r3]
 2548 000a 836B     		ldr	r3, [r0, #56]
 2549 000c 0133     		adds	r3, r3, #1
 2550 000e 8363     		str	r3, [r0, #56]
 2551 0010 C38F     		ldrh	r3, [r0, #62]
 2552 0012 013B     		subs	r3, r3, #1
 2553 0014 9BB2     		uxth	r3, r3
 2554 0016 C387     		strh	r3, [r0, #62]
 2555 0018 C38F     		ldrh	r3, [r0, #62]
 2556 001a 002B     		cmp	r3, #0
 2557 001c 01D1     		bne	.L466
 2558 001e FFF7FEFF 		bl	SPI_CloseRx_ISR
 2559              	.L466:
 2560              		@ sp needed
 2561 0022 10BD     		pop	{r4, pc}
 2563              		.section	.text.SPI_RxISR_16BIT,"ax",%progbits
 2564              		.align	1
 2565              		.syntax unified
 2566              		.code	16
 2567              		.thumb_func
 2569              	SPI_RxISR_16BIT:
 2570              		@ args = 0, pretend = 0, frame = 0
 2571              		@ frame_needed = 0, uses_anonymous_args = 0
 2572 0000 0368     		ldr	r3, [r0]
 2573 0002 10B5     		push	{r4, lr}
 2574 0004 DA68     		ldr	r2, [r3, #12]
 2575 0006 836B     		ldr	r3, [r0, #56]
 2576 0008 1A80     		strh	r2, [r3]
 2577 000a 0233     		adds	r3, r3, #2
 2578 000c 8363     		str	r3, [r0, #56]
 2579 000e C38F     		ldrh	r3, [r0, #62]
 2580 0010 013B     		subs	r3, r3, #1
 2581 0012 9BB2     		uxth	r3, r3
 2582 0014 C387     		strh	r3, [r0, #62]
 2583 0016 C38F     		ldrh	r3, [r0, #62]
ARM GAS  /tmp/ccLBxpA5.s 			page 45


 2584 0018 002B     		cmp	r3, #0
 2585 001a 01D1     		bne	.L468
 2586 001c FFF7FEFF 		bl	SPI_CloseRx_ISR
 2587              	.L468:
 2588              		@ sp needed
 2589 0020 10BD     		pop	{r4, pc}
 2591              		.section	.text.SPI_CloseRxTx_ISR,"ax",%progbits
 2592              		.align	1
 2593              		.syntax unified
 2594              		.code	16
 2595              		.thumb_func
 2597              	SPI_CloseRxTx_ISR:
 2598              		@ args = 0, pretend = 0, frame = 8
 2599              		@ frame_needed = 0, uses_anonymous_args = 0
 2600 0000 254B     		ldr	r3, .L484
 2601 0002 13B5     		push	{r0, r1, r4, lr}
 2602 0004 2549     		ldr	r1, .L484+4
 2603 0006 0400     		movs	r4, r0
 2604 0008 1868     		ldr	r0, [r3]
 2605 000a FFF7FEFF 		bl	__aeabi_uidiv
 2606 000e 6423     		movs	r3, #100
 2607 0010 4343     		muls	r3, r0
 2608 0012 0093     		str	r3, [sp]
 2609 0014 FFF7FEFF 		bl	HAL_GetTick
 2610 0018 0200     		movs	r2, r0
 2611 001a 2020     		movs	r0, #32
 2612 001c 2368     		ldr	r3, [r4]
 2613 001e 5968     		ldr	r1, [r3, #4]
 2614 0020 8143     		bics	r1, r0
 2615 0022 5960     		str	r1, [r3, #4]
 2616 0024 1E38     		subs	r0, r0, #30
 2617              	.L473:
 2618 0026 0099     		ldr	r1, [sp]
 2619 0028 0029     		cmp	r1, #0
 2620 002a 25D1     		bne	.L471
 2621 002c 2023     		movs	r3, #32
 2622 002e 616D     		ldr	r1, [r4, #84]
 2623 0030 0B43     		orrs	r3, r1
 2624 0032 6365     		str	r3, [r4, #84]
 2625              	.L472:
 2626 0034 6421     		movs	r1, #100
 2627 0036 2000     		movs	r0, r4
 2628 0038 FFF7FEFF 		bl	SPI_EndRxTxTransaction
 2629 003c 0028     		cmp	r0, #0
 2630 003e 03D0     		beq	.L474
 2631 0040 2023     		movs	r3, #32
 2632 0042 626D     		ldr	r2, [r4, #84]
 2633 0044 1343     		orrs	r3, r2
 2634 0046 6365     		str	r3, [r4, #84]
 2635              	.L474:
 2636 0048 A368     		ldr	r3, [r4, #8]
 2637 004a 002B     		cmp	r3, #0
 2638 004c 06D1     		bne	.L475
 2639 004e 0193     		str	r3, [sp, #4]
 2640 0050 2368     		ldr	r3, [r4]
 2641 0052 DA68     		ldr	r2, [r3, #12]
 2642 0054 0192     		str	r2, [sp, #4]
ARM GAS  /tmp/ccLBxpA5.s 			page 46


 2643 0056 9B68     		ldr	r3, [r3, #8]
 2644 0058 0193     		str	r3, [sp, #4]
 2645 005a 019B     		ldr	r3, [sp, #4]
 2646              	.L475:
 2647 005c 2300     		movs	r3, r4
 2648 005e 626D     		ldr	r2, [r4, #84]
 2649 0060 5133     		adds	r3, r3, #81
 2650 0062 002A     		cmp	r2, #0
 2651 0064 12D1     		bne	.L476
 2652 0066 1978     		ldrb	r1, [r3]
 2653 0068 0132     		adds	r2, r2, #1
 2654 006a 2000     		movs	r0, r4
 2655 006c 1A70     		strb	r2, [r3]
 2656 006e 0429     		cmp	r1, #4
 2657 0070 09D1     		bne	.L477
 2658 0072 FFF7FEFF 		bl	HAL_SPI_RxCpltCallback
 2659              	.L470:
 2660              		@ sp needed
 2661 0076 13BD     		pop	{r0, r1, r4, pc}
 2662              	.L471:
 2663 0078 0099     		ldr	r1, [sp]
 2664 007a 0139     		subs	r1, r1, #1
 2665 007c 0091     		str	r1, [sp]
 2666 007e 9968     		ldr	r1, [r3, #8]
 2667 0080 0142     		tst	r1, r0
 2668 0082 D0D0     		beq	.L473
 2669 0084 D6E7     		b	.L472
 2670              	.L477:
 2671 0086 FFF7FEFF 		bl	HAL_SPI_TxRxCpltCallback
 2672 008a F4E7     		b	.L470
 2673              	.L476:
 2674 008c 0122     		movs	r2, #1
 2675 008e 2000     		movs	r0, r4
 2676 0090 1A70     		strb	r2, [r3]
 2677 0092 FFF7FEFF 		bl	HAL_SPI_ErrorCallback
 2678 0096 EEE7     		b	.L470
 2679              	.L485:
 2680              		.align	2
 2681              	.L484:
 2682 0098 00000000 		.word	SystemCoreClock
 2683 009c C05D0000 		.word	24000
 2685              		.section	.text.SPI_2linesTxISR_8BIT,"ax",%progbits
 2686              		.align	1
 2687              		.syntax unified
 2688              		.code	16
 2689              		.thumb_func
 2691              	SPI_2linesTxISR_8BIT:
 2692              		@ args = 0, pretend = 0, frame = 0
 2693              		@ frame_needed = 0, uses_anonymous_args = 0
 2694 0000 10B5     		push	{r4, lr}
 2695 0002 026B     		ldr	r2, [r0, #48]
 2696 0004 0368     		ldr	r3, [r0]
 2697 0006 1278     		ldrb	r2, [r2]
 2698 0008 1A73     		strb	r2, [r3, #12]
 2699 000a 036B     		ldr	r3, [r0, #48]
 2700 000c 0133     		adds	r3, r3, #1
 2701 000e 0363     		str	r3, [r0, #48]
ARM GAS  /tmp/ccLBxpA5.s 			page 47


 2702 0010 C38E     		ldrh	r3, [r0, #54]
 2703 0012 013B     		subs	r3, r3, #1
 2704 0014 9BB2     		uxth	r3, r3
 2705 0016 C386     		strh	r3, [r0, #54]
 2706 0018 C38E     		ldrh	r3, [r0, #54]
 2707 001a 002B     		cmp	r3, #0
 2708 001c 09D1     		bne	.L486
 2709 001e 8021     		movs	r1, #128
 2710 0020 0268     		ldr	r2, [r0]
 2711 0022 5368     		ldr	r3, [r2, #4]
 2712 0024 8B43     		bics	r3, r1
 2713 0026 5360     		str	r3, [r2, #4]
 2714 0028 C38F     		ldrh	r3, [r0, #62]
 2715 002a 002B     		cmp	r3, #0
 2716 002c 01D1     		bne	.L486
 2717 002e FFF7FEFF 		bl	SPI_CloseRxTx_ISR
 2718              	.L486:
 2719              		@ sp needed
 2720 0032 10BD     		pop	{r4, pc}
 2722              		.section	.text.SPI_2linesRxISR_8BIT,"ax",%progbits
 2723              		.align	1
 2724              		.syntax unified
 2725              		.code	16
 2726              		.thumb_func
 2728              	SPI_2linesRxISR_8BIT:
 2729              		@ args = 0, pretend = 0, frame = 0
 2730              		@ frame_needed = 0, uses_anonymous_args = 0
 2731 0000 10B5     		push	{r4, lr}
 2732 0002 0268     		ldr	r2, [r0]
 2733 0004 836B     		ldr	r3, [r0, #56]
 2734 0006 127B     		ldrb	r2, [r2, #12]
 2735 0008 1A70     		strb	r2, [r3]
 2736 000a 836B     		ldr	r3, [r0, #56]
 2737 000c 0133     		adds	r3, r3, #1
 2738 000e 8363     		str	r3, [r0, #56]
 2739 0010 C38F     		ldrh	r3, [r0, #62]
 2740 0012 013B     		subs	r3, r3, #1
 2741 0014 9BB2     		uxth	r3, r3
 2742 0016 C387     		strh	r3, [r0, #62]
 2743 0018 C38F     		ldrh	r3, [r0, #62]
 2744 001a 002B     		cmp	r3, #0
 2745 001c 09D1     		bne	.L490
 2746 001e 6021     		movs	r1, #96
 2747 0020 0268     		ldr	r2, [r0]
 2748 0022 5368     		ldr	r3, [r2, #4]
 2749 0024 8B43     		bics	r3, r1
 2750 0026 5360     		str	r3, [r2, #4]
 2751 0028 C38E     		ldrh	r3, [r0, #54]
 2752 002a 002B     		cmp	r3, #0
 2753 002c 01D1     		bne	.L490
 2754 002e FFF7FEFF 		bl	SPI_CloseRxTx_ISR
 2755              	.L490:
 2756              		@ sp needed
 2757 0032 10BD     		pop	{r4, pc}
 2759              		.section	.text.SPI_2linesTxISR_16BIT,"ax",%progbits
 2760              		.align	1
 2761              		.syntax unified
ARM GAS  /tmp/ccLBxpA5.s 			page 48


 2762              		.code	16
 2763              		.thumb_func
 2765              	SPI_2linesTxISR_16BIT:
 2766              		@ args = 0, pretend = 0, frame = 0
 2767              		@ frame_needed = 0, uses_anonymous_args = 0
 2768 0000 036B     		ldr	r3, [r0, #48]
 2769 0002 0268     		ldr	r2, [r0]
 2770 0004 1988     		ldrh	r1, [r3]
 2771 0006 10B5     		push	{r4, lr}
 2772 0008 0233     		adds	r3, r3, #2
 2773 000a D160     		str	r1, [r2, #12]
 2774 000c 0363     		str	r3, [r0, #48]
 2775 000e C38E     		ldrh	r3, [r0, #54]
 2776 0010 013B     		subs	r3, r3, #1
 2777 0012 9BB2     		uxth	r3, r3
 2778 0014 C386     		strh	r3, [r0, #54]
 2779 0016 C38E     		ldrh	r3, [r0, #54]
 2780 0018 002B     		cmp	r3, #0
 2781 001a 08D1     		bne	.L494
 2782 001c 8021     		movs	r1, #128
 2783 001e 5368     		ldr	r3, [r2, #4]
 2784 0020 8B43     		bics	r3, r1
 2785 0022 5360     		str	r3, [r2, #4]
 2786 0024 C38F     		ldrh	r3, [r0, #62]
 2787 0026 002B     		cmp	r3, #0
 2788 0028 01D1     		bne	.L494
 2789 002a FFF7FEFF 		bl	SPI_CloseRxTx_ISR
 2790              	.L494:
 2791              		@ sp needed
 2792 002e 10BD     		pop	{r4, pc}
 2794              		.section	.text.SPI_2linesRxISR_16BIT,"ax",%progbits
 2795              		.align	1
 2796              		.syntax unified
 2797              		.code	16
 2798              		.thumb_func
 2800              	SPI_2linesRxISR_16BIT:
 2801              		@ args = 0, pretend = 0, frame = 0
 2802              		@ frame_needed = 0, uses_anonymous_args = 0
 2803 0000 0268     		ldr	r2, [r0]
 2804 0002 836B     		ldr	r3, [r0, #56]
 2805 0004 D168     		ldr	r1, [r2, #12]
 2806 0006 10B5     		push	{r4, lr}
 2807 0008 1980     		strh	r1, [r3]
 2808 000a 0233     		adds	r3, r3, #2
 2809 000c 8363     		str	r3, [r0, #56]
 2810 000e C38F     		ldrh	r3, [r0, #62]
 2811 0010 013B     		subs	r3, r3, #1
 2812 0012 9BB2     		uxth	r3, r3
 2813 0014 C387     		strh	r3, [r0, #62]
 2814 0016 C38F     		ldrh	r3, [r0, #62]
 2815 0018 002B     		cmp	r3, #0
 2816 001a 08D1     		bne	.L498
 2817 001c 4021     		movs	r1, #64
 2818 001e 5368     		ldr	r3, [r2, #4]
 2819 0020 8B43     		bics	r3, r1
 2820 0022 5360     		str	r3, [r2, #4]
 2821 0024 C38E     		ldrh	r3, [r0, #54]
ARM GAS  /tmp/ccLBxpA5.s 			page 49


 2822 0026 002B     		cmp	r3, #0
 2823 0028 01D1     		bne	.L498
 2824 002a FFF7FEFF 		bl	SPI_CloseRxTx_ISR
 2825              	.L498:
 2826              		@ sp needed
 2827 002e 10BD     		pop	{r4, pc}
 2829              		.section	.text.SPI_DMAError,"ax",%progbits
 2830              		.align	1
 2831              		.syntax unified
 2832              		.code	16
 2833              		.thumb_func
 2835              	SPI_DMAError:
 2836              		@ args = 0, pretend = 0, frame = 0
 2837              		@ frame_needed = 0, uses_anonymous_args = 0
 2838 0000 0321     		movs	r1, #3
 2839 0002 806A     		ldr	r0, [r0, #40]
 2840 0004 10B5     		push	{r4, lr}
 2841 0006 0268     		ldr	r2, [r0]
 2842              		@ sp needed
 2843 0008 5368     		ldr	r3, [r2, #4]
 2844 000a 8B43     		bics	r3, r1
 2845 000c 5360     		str	r3, [r2, #4]
 2846 000e 1023     		movs	r3, #16
 2847 0010 426D     		ldr	r2, [r0, #84]
 2848 0012 1343     		orrs	r3, r2
 2849 0014 4365     		str	r3, [r0, #84]
 2850 0016 0300     		movs	r3, r0
 2851 0018 0122     		movs	r2, #1
 2852 001a 5133     		adds	r3, r3, #81
 2853 001c 1A70     		strb	r2, [r3]
 2854 001e FFF7FEFF 		bl	HAL_SPI_ErrorCallback
 2855 0022 10BD     		pop	{r4, pc}
 2857              		.section	.text.SPI_DMATransmitCplt,"ax",%progbits
 2858              		.align	1
 2859              		.syntax unified
 2860              		.code	16
 2861              		.thumb_func
 2863              	SPI_DMATransmitCplt:
 2864              		@ args = 0, pretend = 0, frame = 8
 2865              		@ frame_needed = 0, uses_anonymous_args = 0
 2866 0000 37B5     		push	{r0, r1, r2, r4, r5, lr}
 2867 0002 0500     		movs	r5, r0
 2868 0004 846A     		ldr	r4, [r0, #40]
 2869 0006 FFF7FEFF 		bl	HAL_GetTick
 2870 000a 2B68     		ldr	r3, [r5]
 2871 000c 2025     		movs	r5, #32
 2872 000e 1B68     		ldr	r3, [r3]
 2873 0010 0200     		movs	r2, r0
 2874 0012 2B42     		tst	r3, r5
 2875 0014 27D1     		bne	.L504
 2876 0016 0220     		movs	r0, #2
 2877 0018 2368     		ldr	r3, [r4]
 2878 001a 5968     		ldr	r1, [r3, #4]
 2879 001c A943     		bics	r1, r5
 2880 001e 5960     		str	r1, [r3, #4]
 2881 0020 5968     		ldr	r1, [r3, #4]
 2882 0022 8143     		bics	r1, r0
ARM GAS  /tmp/ccLBxpA5.s 			page 50


 2883 0024 5960     		str	r1, [r3, #4]
 2884 0026 2000     		movs	r0, r4
 2885 0028 6421     		movs	r1, #100
 2886 002a FFF7FEFF 		bl	SPI_EndRxTxTransaction
 2887 002e 0028     		cmp	r0, #0
 2888 0030 02D0     		beq	.L505
 2889 0032 636D     		ldr	r3, [r4, #84]
 2890 0034 1D43     		orrs	r5, r3
 2891 0036 6565     		str	r5, [r4, #84]
 2892              	.L505:
 2893 0038 A368     		ldr	r3, [r4, #8]
 2894 003a 002B     		cmp	r3, #0
 2895 003c 06D1     		bne	.L506
 2896 003e 0193     		str	r3, [sp, #4]
 2897 0040 2368     		ldr	r3, [r4]
 2898 0042 DA68     		ldr	r2, [r3, #12]
 2899 0044 0192     		str	r2, [sp, #4]
 2900 0046 9B68     		ldr	r3, [r3, #8]
 2901 0048 0193     		str	r3, [sp, #4]
 2902 004a 019B     		ldr	r3, [sp, #4]
 2903              	.L506:
 2904 004c 0023     		movs	r3, #0
 2905 004e E386     		strh	r3, [r4, #54]
 2906 0050 2300     		movs	r3, r4
 2907 0052 0122     		movs	r2, #1
 2908 0054 5133     		adds	r3, r3, #81
 2909 0056 1A70     		strb	r2, [r3]
 2910 0058 636D     		ldr	r3, [r4, #84]
 2911 005a 002B     		cmp	r3, #0
 2912 005c 03D0     		beq	.L504
 2913 005e 2000     		movs	r0, r4
 2914 0060 FFF7FEFF 		bl	HAL_SPI_ErrorCallback
 2915              	.L503:
 2916              		@ sp needed
 2917 0064 37BD     		pop	{r0, r1, r2, r4, r5, pc}
 2918              	.L504:
 2919 0066 2000     		movs	r0, r4
 2920 0068 FFF7FEFF 		bl	HAL_SPI_TxCpltCallback
 2921 006c FAE7     		b	.L503
 2923              		.section	.text.SPI_DMAReceiveCplt,"ax",%progbits
 2924              		.align	1
 2925              		.syntax unified
 2926              		.code	16
 2927              		.thumb_func
 2929              	SPI_DMAReceiveCplt:
 2930              		@ args = 0, pretend = 0, frame = 0
 2931              		@ frame_needed = 0, uses_anonymous_args = 0
 2932 0000 70B5     		push	{r4, r5, r6, lr}
 2933 0002 0500     		movs	r5, r0
 2934 0004 846A     		ldr	r4, [r0, #40]
 2935 0006 FFF7FEFF 		bl	HAL_GetTick
 2936 000a 0200     		movs	r2, r0
 2937 000c 2020     		movs	r0, #32
 2938 000e 2B68     		ldr	r3, [r5]
 2939 0010 1B68     		ldr	r3, [r3]
 2940 0012 0342     		tst	r3, r0
 2941 0014 27D1     		bne	.L515
ARM GAS  /tmp/ccLBxpA5.s 			page 51


 2942 0016 2368     		ldr	r3, [r4]
 2943 0018 5968     		ldr	r1, [r3, #4]
 2944 001a 8143     		bics	r1, r0
 2945 001c 5960     		str	r1, [r3, #4]
 2946 001e A168     		ldr	r1, [r4, #8]
 2947 0020 0029     		cmp	r1, #0
 2948 0022 1DD1     		bne	.L516
 2949 0024 0531     		adds	r1, r1, #5
 2950 0026 6068     		ldr	r0, [r4, #4]
 2951 0028 FF31     		adds	r1, r1, #255
 2952 002a 8842     		cmp	r0, r1
 2953 002c 18D1     		bne	.L516
 2954 002e 0320     		movs	r0, #3
 2955 0030 5968     		ldr	r1, [r3, #4]
 2956              	.L526:
 2957 0032 8143     		bics	r1, r0
 2958 0034 5960     		str	r1, [r3, #4]
 2959 0036 2000     		movs	r0, r4
 2960 0038 6421     		movs	r1, #100
 2961 003a FFF7FEFF 		bl	SPI_EndRxTransaction
 2962 003e 0028     		cmp	r0, #0
 2963 0040 01D0     		beq	.L518
 2964 0042 2023     		movs	r3, #32
 2965 0044 6365     		str	r3, [r4, #84]
 2966              	.L518:
 2967 0046 0023     		movs	r3, #0
 2968 0048 E387     		strh	r3, [r4, #62]
 2969 004a 2300     		movs	r3, r4
 2970 004c 0122     		movs	r2, #1
 2971 004e 5133     		adds	r3, r3, #81
 2972 0050 1A70     		strb	r2, [r3]
 2973 0052 636D     		ldr	r3, [r4, #84]
 2974 0054 002B     		cmp	r3, #0
 2975 0056 06D0     		beq	.L515
 2976 0058 2000     		movs	r0, r4
 2977 005a FFF7FEFF 		bl	HAL_SPI_ErrorCallback
 2978              	.L514:
 2979              		@ sp needed
 2980 005e 70BD     		pop	{r4, r5, r6, pc}
 2981              	.L516:
 2982 0060 0120     		movs	r0, #1
 2983 0062 5968     		ldr	r1, [r3, #4]
 2984 0064 E5E7     		b	.L526
 2985              	.L515:
 2986 0066 2000     		movs	r0, r4
 2987 0068 FFF7FEFF 		bl	HAL_SPI_RxCpltCallback
 2988 006c F7E7     		b	.L514
 2990              		.section	.text.SPI_DMATransmitReceiveCplt,"ax",%progbits
 2991              		.align	1
 2992              		.syntax unified
 2993              		.code	16
 2994              		.thumb_func
 2996              	SPI_DMATransmitReceiveCplt:
 2997              		@ args = 0, pretend = 0, frame = 0
 2998              		@ frame_needed = 0, uses_anonymous_args = 0
 2999 0000 70B5     		push	{r4, r5, r6, lr}
 3000 0002 0500     		movs	r5, r0
ARM GAS  /tmp/ccLBxpA5.s 			page 52


 3001 0004 846A     		ldr	r4, [r0, #40]
 3002 0006 FFF7FEFF 		bl	HAL_GetTick
 3003 000a 2B68     		ldr	r3, [r5]
 3004 000c 2025     		movs	r5, #32
 3005 000e 1B68     		ldr	r3, [r3]
 3006 0010 0200     		movs	r2, r0
 3007 0012 2B42     		tst	r3, r5
 3008 0014 1FD1     		bne	.L528
 3009 0016 2168     		ldr	r1, [r4]
 3010 0018 2000     		movs	r0, r4
 3011 001a 4B68     		ldr	r3, [r1, #4]
 3012 001c AB43     		bics	r3, r5
 3013 001e 4B60     		str	r3, [r1, #4]
 3014 0020 6421     		movs	r1, #100
 3015 0022 FFF7FEFF 		bl	SPI_EndRxTxTransaction
 3016 0026 0028     		cmp	r0, #0
 3017 0028 02D0     		beq	.L529
 3018 002a 636D     		ldr	r3, [r4, #84]
 3019 002c 1D43     		orrs	r5, r3
 3020 002e 6565     		str	r5, [r4, #84]
 3021              	.L529:
 3022 0030 0321     		movs	r1, #3
 3023 0032 2268     		ldr	r2, [r4]
 3024 0034 5368     		ldr	r3, [r2, #4]
 3025 0036 8B43     		bics	r3, r1
 3026 0038 5360     		str	r3, [r2, #4]
 3027 003a 0023     		movs	r3, #0
 3028 003c E386     		strh	r3, [r4, #54]
 3029 003e E387     		strh	r3, [r4, #62]
 3030 0040 2300     		movs	r3, r4
 3031 0042 0122     		movs	r2, #1
 3032 0044 5133     		adds	r3, r3, #81
 3033 0046 1A70     		strb	r2, [r3]
 3034 0048 636D     		ldr	r3, [r4, #84]
 3035 004a 002B     		cmp	r3, #0
 3036 004c 03D0     		beq	.L528
 3037 004e 2000     		movs	r0, r4
 3038 0050 FFF7FEFF 		bl	HAL_SPI_ErrorCallback
 3039              	.L527:
 3040              		@ sp needed
 3041 0054 70BD     		pop	{r4, r5, r6, pc}
 3042              	.L528:
 3043 0056 2000     		movs	r0, r4
 3044 0058 FFF7FEFF 		bl	HAL_SPI_TxRxCpltCallback
 3045 005c FAE7     		b	.L527
 3047              		.section	.text.HAL_SPI_IRQHandler,"ax",%progbits
 3048              		.align	1
 3049              		.global	HAL_SPI_IRQHandler
 3050              		.syntax unified
 3051              		.code	16
 3052              		.thumb_func
 3054              	HAL_SPI_IRQHandler:
 3055              		@ args = 0, pretend = 0, frame = 16
 3056              		@ frame_needed = 0, uses_anonymous_args = 0
 3057 0000 0368     		ldr	r3, [r0]
 3058 0002 F0B5     		push	{r4, r5, r6, r7, lr}
 3059 0004 0400     		movs	r4, r0
ARM GAS  /tmp/ccLBxpA5.s 			page 53


 3060 0006 5868     		ldr	r0, [r3, #4]
 3061 0008 9968     		ldr	r1, [r3, #8]
 3062 000a 0125     		movs	r5, #1
 3063 000c 8A09     		lsrs	r2, r1, #6
 3064 000e 1600     		movs	r6, r2
 3065 0010 85B0     		sub	sp, sp, #20
 3066 0012 2E40     		ands	r6, r5
 3067 0014 2A42     		tst	r2, r5
 3068 0016 08D1     		bne	.L538
 3069 0018 2942     		tst	r1, r5
 3070 001a 06D0     		beq	.L538
 3071 001c 4506     		lsls	r5, r0, #25
 3072 001e 04D5     		bpl	.L538
 3073 0020 236C     		ldr	r3, [r4, #64]
 3074              	.L591:
 3075 0022 2000     		movs	r0, r4
 3076 0024 9847     		blx	r3
 3077              	.L537:
 3078 0026 05B0     		add	sp, sp, #20
 3079              		@ sp needed
 3080 0028 F0BD     		pop	{r4, r5, r6, r7, pc}
 3081              	.L538:
 3082 002a 8D07     		lsls	r5, r1, #30
 3083 002c 03D5     		bpl	.L540
 3084 002e 0506     		lsls	r5, r0, #24
 3085 0030 01D5     		bpl	.L540
 3086 0032 636C     		ldr	r3, [r4, #68]
 3087 0034 F5E7     		b	.L591
 3088              	.L540:
 3089 0036 8027     		movs	r7, #128
 3090 0038 4D09     		lsrs	r5, r1, #5
 3091 003a 7F00     		lsls	r7, r7, #1
 3092 003c 3940     		ands	r1, r7
 3093 003e 2A43     		orrs	r2, r5
 3094 0040 FF3F     		subs	r7, r7, #255
 3095 0042 3A40     		ands	r2, r7
 3096 0044 0A43     		orrs	r2, r1
 3097 0046 EED0     		beq	.L537
 3098 0048 8206     		lsls	r2, r0, #26
 3099 004a ECD5     		bpl	.L537
 3100 004c 002E     		cmp	r6, #0
 3101 004e 0FD0     		beq	.L543
 3102 0050 2200     		movs	r2, r4
 3103 0052 5132     		adds	r2, r2, #81
 3104 0054 1278     		ldrb	r2, [r2]
 3105 0056 032A     		cmp	r2, #3
 3106 0058 50D0     		beq	.L544
 3107 005a 0422     		movs	r2, #4
 3108 005c 666D     		ldr	r6, [r4, #84]
 3109 005e 3243     		orrs	r2, r6
 3110 0060 6265     		str	r2, [r4, #84]
 3111 0062 0022     		movs	r2, #0
 3112 0064 0092     		str	r2, [sp]
 3113 0066 DA68     		ldr	r2, [r3, #12]
 3114 0068 0092     		str	r2, [sp]
 3115 006a 9A68     		ldr	r2, [r3, #8]
 3116 006c 0092     		str	r2, [sp]
ARM GAS  /tmp/ccLBxpA5.s 			page 54


 3117 006e 009A     		ldr	r2, [sp]
 3118              	.L543:
 3119 0070 0122     		movs	r2, #1
 3120 0072 1542     		tst	r5, r2
 3121 0074 0BD0     		beq	.L545
 3122 0076 656D     		ldr	r5, [r4, #84]
 3123 0078 2A43     		orrs	r2, r5
 3124 007a 6265     		str	r2, [r4, #84]
 3125 007c 0022     		movs	r2, #0
 3126 007e 4025     		movs	r5, #64
 3127 0080 0292     		str	r2, [sp, #8]
 3128 0082 9A68     		ldr	r2, [r3, #8]
 3129 0084 0292     		str	r2, [sp, #8]
 3130 0086 1A68     		ldr	r2, [r3]
 3131 0088 AA43     		bics	r2, r5
 3132 008a 1A60     		str	r2, [r3]
 3133 008c 029A     		ldr	r2, [sp, #8]
 3134              	.L545:
 3135 008e 0029     		cmp	r1, #0
 3136 0090 08D0     		beq	.L546
 3137 0092 0822     		movs	r2, #8
 3138 0094 616D     		ldr	r1, [r4, #84]
 3139 0096 0A43     		orrs	r2, r1
 3140 0098 6265     		str	r2, [r4, #84]
 3141 009a 0022     		movs	r2, #0
 3142 009c 0392     		str	r2, [sp, #12]
 3143 009e 9A68     		ldr	r2, [r3, #8]
 3144 00a0 0392     		str	r2, [sp, #12]
 3145 00a2 039A     		ldr	r2, [sp, #12]
 3146              	.L546:
 3147 00a4 626D     		ldr	r2, [r4, #84]
 3148 00a6 002A     		cmp	r2, #0
 3149 00a8 BDD0     		beq	.L537
 3150 00aa E021     		movs	r1, #224
 3151 00ac 5A68     		ldr	r2, [r3, #4]
 3152 00ae 8A43     		bics	r2, r1
 3153 00b0 5A60     		str	r2, [r3, #4]
 3154 00b2 2200     		movs	r2, r4
 3155 00b4 DF39     		subs	r1, r1, #223
 3156 00b6 5132     		adds	r2, r2, #81
 3157 00b8 1170     		strb	r1, [r2]
 3158 00ba 0231     		adds	r1, r1, #2
 3159 00bc 0842     		tst	r0, r1
 3160 00be 25D0     		beq	.L547
 3161 00c0 5A68     		ldr	r2, [r3, #4]
 3162 00c2 E06C     		ldr	r0, [r4, #76]
 3163 00c4 8A43     		bics	r2, r1
 3164 00c6 5A60     		str	r2, [r3, #4]
 3165 00c8 0028     		cmp	r0, #0
 3166 00ca 09D0     		beq	.L549
 3167 00cc 114B     		ldr	r3, .L592
 3168 00ce 8363     		str	r3, [r0, #56]
 3169 00d0 FFF7FEFF 		bl	HAL_DMA_Abort_IT
 3170 00d4 0028     		cmp	r0, #0
 3171 00d6 03D0     		beq	.L549
 3172 00d8 4023     		movs	r3, #64
 3173 00da 626D     		ldr	r2, [r4, #84]
ARM GAS  /tmp/ccLBxpA5.s 			page 55


 3174 00dc 1343     		orrs	r3, r2
 3175 00de 6365     		str	r3, [r4, #84]
 3176              	.L549:
 3177 00e0 A06C     		ldr	r0, [r4, #72]
 3178 00e2 0028     		cmp	r0, #0
 3179 00e4 9FD0     		beq	.L537
 3180 00e6 0B4B     		ldr	r3, .L592
 3181 00e8 8363     		str	r3, [r0, #56]
 3182 00ea FFF7FEFF 		bl	HAL_DMA_Abort_IT
 3183 00ee 0028     		cmp	r0, #0
 3184 00f0 99D0     		beq	.L537
 3185 00f2 4023     		movs	r3, #64
 3186 00f4 626D     		ldr	r2, [r4, #84]
 3187 00f6 1343     		orrs	r3, r2
 3188 00f8 6365     		str	r3, [r4, #84]
 3189 00fa 94E7     		b	.L537
 3190              	.L544:
 3191 00fc 0022     		movs	r2, #0
 3192 00fe 0192     		str	r2, [sp, #4]
 3193 0100 DA68     		ldr	r2, [r3, #12]
 3194 0102 0192     		str	r2, [sp, #4]
 3195 0104 9B68     		ldr	r3, [r3, #8]
 3196 0106 0193     		str	r3, [sp, #4]
 3197 0108 019B     		ldr	r3, [sp, #4]
 3198 010a 8CE7     		b	.L537
 3199              	.L547:
 3200 010c 2000     		movs	r0, r4
 3201 010e FFF7FEFF 		bl	HAL_SPI_ErrorCallback
 3202 0112 88E7     		b	.L537
 3203              	.L593:
 3204              		.align	2
 3205              	.L592:
 3206 0114 00000000 		.word	SPI_DMAAbortOnError
 3208              		.section	.text.SPI_DMAAbortOnError,"ax",%progbits
 3209              		.align	1
 3210              		.syntax unified
 3211              		.code	16
 3212              		.thumb_func
 3214              	SPI_DMAAbortOnError:
 3215              		@ args = 0, pretend = 0, frame = 0
 3216              		@ frame_needed = 0, uses_anonymous_args = 0
 3217 0000 0023     		movs	r3, #0
 3218 0002 10B5     		push	{r4, lr}
 3219 0004 806A     		ldr	r0, [r0, #40]
 3220              		@ sp needed
 3221 0006 C387     		strh	r3, [r0, #62]
 3222 0008 C386     		strh	r3, [r0, #54]
 3223 000a FFF7FEFF 		bl	HAL_SPI_ErrorCallback
 3224 000e 10BD     		pop	{r4, pc}
 3226              		.section	.text.HAL_SPI_AbortCpltCallback,"ax",%progbits
 3227              		.align	1
 3228              		.weak	HAL_SPI_AbortCpltCallback
 3229              		.syntax unified
 3230              		.code	16
 3231              		.thumb_func
 3233              	HAL_SPI_AbortCpltCallback:
 3234              		@ args = 0, pretend = 0, frame = 0
ARM GAS  /tmp/ccLBxpA5.s 			page 56


 3235              		@ frame_needed = 0, uses_anonymous_args = 0
 3236              		@ link register save eliminated.
 3237              		@ sp needed
 3238 0000 7047     		bx	lr
 3240              		.section	.text.HAL_SPI_Abort_IT,"ax",%progbits
 3241              		.align	1
 3242              		.global	HAL_SPI_Abort_IT
 3243              		.syntax unified
 3244              		.code	16
 3245              		.thumb_func
 3247              	HAL_SPI_Abort_IT:
 3248              		@ args = 0, pretend = 0, frame = 16
 3249              		@ frame_needed = 0, uses_anonymous_args = 0
 3250 0000 7FB5     		push	{r0, r1, r2, r3, r4, r5, r6, lr}
 3251 0002 4C4B     		ldr	r3, .L649
 3252 0004 0400     		movs	r4, r0
 3253 0006 4C49     		ldr	r1, .L649+4
 3254 0008 1868     		ldr	r0, [r3]
 3255 000a FFF7FEFF 		bl	__aeabi_uidiv
 3256 000e 6423     		movs	r3, #100
 3257 0010 2021     		movs	r1, #32
 3258 0012 4343     		muls	r3, r0
 3259 0014 0193     		str	r3, [sp, #4]
 3260 0016 019B     		ldr	r3, [sp, #4]
 3261 0018 0093     		str	r3, [sp]
 3262 001a 2368     		ldr	r3, [r4]
 3263 001c 5A68     		ldr	r2, [r3, #4]
 3264 001e 8A43     		bics	r2, r1
 3265 0020 5A60     		str	r2, [r3, #4]
 3266 0022 5A68     		ldr	r2, [r3, #4]
 3267 0024 1206     		lsls	r2, r2, #24
 3268 0026 0CD5     		bpl	.L597
 3269 0028 2100     		movs	r1, r4
 3270 002a 444A     		ldr	r2, .L649+8
 3271 002c 5131     		adds	r1, r1, #81
 3272 002e 6264     		str	r2, [r4, #68]
 3273              	.L600:
 3274 0030 009A     		ldr	r2, [sp]
 3275 0032 002A     		cmp	r2, #0
 3276 0034 4AD1     		bne	.L598
 3277 0036 616D     		ldr	r1, [r4, #84]
 3278 0038 4032     		adds	r2, r2, #64
 3279 003a 0A43     		orrs	r2, r1
 3280 003c 6265     		str	r2, [r4, #84]
 3281              	.L599:
 3282 003e 019A     		ldr	r2, [sp, #4]
 3283 0040 0092     		str	r2, [sp]
 3284              	.L597:
 3285 0042 5A68     		ldr	r2, [r3, #4]
 3286 0044 5206     		lsls	r2, r2, #25
 3287 0046 0CD5     		bpl	.L601
 3288 0048 2100     		movs	r1, r4
 3289 004a 3D4A     		ldr	r2, .L649+12
 3290 004c 5131     		adds	r1, r1, #81
 3291 004e 2264     		str	r2, [r4, #64]
 3292              	.L604:
 3293 0050 009A     		ldr	r2, [sp]
ARM GAS  /tmp/ccLBxpA5.s 			page 57


 3294 0052 002A     		cmp	r2, #0
 3295 0054 41D1     		bne	.L602
 3296 0056 616D     		ldr	r1, [r4, #84]
 3297 0058 4032     		adds	r2, r2, #64
 3298 005a 0A43     		orrs	r2, r1
 3299 005c 6265     		str	r2, [r4, #84]
 3300              	.L603:
 3301 005e 019A     		ldr	r2, [sp, #4]
 3302 0060 0092     		str	r2, [sp]
 3303              	.L601:
 3304 0062 A06C     		ldr	r0, [r4, #72]
 3305 0064 0028     		cmp	r0, #0
 3306 0066 07D0     		beq	.L605
 3307 0068 5968     		ldr	r1, [r3, #4]
 3308 006a 0222     		movs	r2, #2
 3309 006c 0D00     		movs	r5, r1
 3310 006e 1540     		ands	r5, r2
 3311 0070 1142     		tst	r1, r2
 3312 0072 39D0     		beq	.L606
 3313 0074 334A     		ldr	r2, .L649+16
 3314 0076 8263     		str	r2, [r0, #56]
 3315              	.L605:
 3316 0078 E26C     		ldr	r2, [r4, #76]
 3317 007a 002A     		cmp	r2, #0
 3318 007c 07D0     		beq	.L607
 3319 007e 5D68     		ldr	r5, [r3, #4]
 3320 0080 0121     		movs	r1, #1
 3321 0082 2E00     		movs	r6, r5
 3322 0084 0E40     		ands	r6, r1
 3323 0086 0D42     		tst	r5, r1
 3324 0088 30D0     		beq	.L608
 3325 008a 2F49     		ldr	r1, .L649+20
 3326 008c 9163     		str	r1, [r2, #56]
 3327              	.L607:
 3328 008e 5B68     		ldr	r3, [r3, #4]
 3329 0090 9B07     		lsls	r3, r3, #30
 3330 0092 0BD5     		bpl	.L609
 3331 0094 0028     		cmp	r0, #0
 3332 0096 09D0     		beq	.L609
 3333 0098 FFF7FEFF 		bl	HAL_DMA_Abort_IT
 3334 009c 0023     		movs	r3, #0
 3335 009e 1D00     		movs	r5, r3
 3336 00a0 9842     		cmp	r0, r3
 3337 00a2 04D0     		beq	.L610
 3338 00a4 A26C     		ldr	r2, [r4, #72]
 3339 00a6 9363     		str	r3, [r2, #56]
 3340 00a8 4033     		adds	r3, r3, #64
 3341 00aa 6365     		str	r3, [r4, #84]
 3342              	.L609:
 3343 00ac 0125     		movs	r5, #1
 3344              	.L610:
 3345 00ae 2368     		ldr	r3, [r4]
 3346 00b0 5B68     		ldr	r3, [r3, #4]
 3347 00b2 DB07     		lsls	r3, r3, #31
 3348 00b4 21D5     		bpl	.L611
 3349 00b6 E06C     		ldr	r0, [r4, #76]
 3350 00b8 0028     		cmp	r0, #0
ARM GAS  /tmp/ccLBxpA5.s 			page 58


 3351 00ba 1ED0     		beq	.L611
 3352 00bc FFF7FEFF 		bl	HAL_DMA_Abort_IT
 3353 00c0 0028     		cmp	r0, #0
 3354 00c2 15D1     		bne	.L612
 3355              	.L614:
 3356 00c4 0025     		movs	r5, #0
 3357              	.L613:
 3358 00c6 2800     		movs	r0, r5
 3359 00c8 04B0     		add	sp, sp, #16
 3360              		@ sp needed
 3361 00ca 70BD     		pop	{r4, r5, r6, pc}
 3362              	.L598:
 3363 00cc 009A     		ldr	r2, [sp]
 3364 00ce 013A     		subs	r2, r2, #1
 3365 00d0 0092     		str	r2, [sp]
 3366 00d2 0A78     		ldrb	r2, [r1]
 3367 00d4 072A     		cmp	r2, #7
 3368 00d6 ABD1     		bne	.L600
 3369 00d8 B1E7     		b	.L599
 3370              	.L602:
 3371 00da 009A     		ldr	r2, [sp]
 3372 00dc 013A     		subs	r2, r2, #1
 3373 00de 0092     		str	r2, [sp]
 3374 00e0 0A78     		ldrb	r2, [r1]
 3375 00e2 072A     		cmp	r2, #7
 3376 00e4 B4D1     		bne	.L604
 3377 00e6 BAE7     		b	.L603
 3378              	.L606:
 3379 00e8 8563     		str	r5, [r0, #56]
 3380 00ea C5E7     		b	.L605
 3381              	.L608:
 3382 00ec 9663     		str	r6, [r2, #56]
 3383 00ee CEE7     		b	.L607
 3384              	.L612:
 3385 00f0 0022     		movs	r2, #0
 3386 00f2 E36C     		ldr	r3, [r4, #76]
 3387 00f4 9A63     		str	r2, [r3, #56]
 3388 00f6 4023     		movs	r3, #64
 3389 00f8 6365     		str	r3, [r4, #84]
 3390              	.L611:
 3391 00fa 012D     		cmp	r5, #1
 3392 00fc E2D1     		bne	.L614
 3393 00fe 0023     		movs	r3, #0
 3394 0100 E387     		strh	r3, [r4, #62]
 3395 0102 E386     		strh	r3, [r4, #54]
 3396 0104 626D     		ldr	r2, [r4, #84]
 3397 0106 402A     		cmp	r2, #64
 3398 0108 01D0     		beq	.L615
 3399 010a 1D00     		movs	r5, r3
 3400 010c 6365     		str	r3, [r4, #84]
 3401              	.L615:
 3402 010e 2268     		ldr	r2, [r4]
 3403 0110 0293     		str	r3, [sp, #8]
 3404 0112 D168     		ldr	r1, [r2, #12]
 3405 0114 2000     		movs	r0, r4
 3406 0116 0291     		str	r1, [sp, #8]
 3407 0118 9168     		ldr	r1, [r2, #8]
ARM GAS  /tmp/ccLBxpA5.s 			page 59


 3408 011a 0291     		str	r1, [sp, #8]
 3409 011c 0299     		ldr	r1, [sp, #8]
 3410 011e 0393     		str	r3, [sp, #12]
 3411 0120 9368     		ldr	r3, [r2, #8]
 3412 0122 0122     		movs	r2, #1
 3413 0124 0393     		str	r3, [sp, #12]
 3414 0126 039B     		ldr	r3, [sp, #12]
 3415 0128 2300     		movs	r3, r4
 3416 012a 5133     		adds	r3, r3, #81
 3417 012c 1A70     		strb	r2, [r3]
 3418 012e FFF7FEFF 		bl	HAL_SPI_AbortCpltCallback
 3419 0132 C8E7     		b	.L613
 3420              	.L650:
 3421              		.align	2
 3422              	.L649:
 3423 0134 00000000 		.word	SystemCoreClock
 3424 0138 C05D0000 		.word	24000
 3425 013c 00000000 		.word	SPI_AbortTx_ISR
 3426 0140 00000000 		.word	SPI_AbortRx_ISR
 3427 0144 00000000 		.word	SPI_DMATxAbortCallback
 3428 0148 00000000 		.word	SPI_DMARxAbortCallback
 3430              		.section	.text.SPI_DMARxAbortCallback,"ax",%progbits
 3431              		.align	1
 3432              		.syntax unified
 3433              		.code	16
 3434              		.thumb_func
 3436              	SPI_DMARxAbortCallback:
 3437              		@ args = 0, pretend = 0, frame = 8
 3438              		@ frame_needed = 0, uses_anonymous_args = 0
 3439 0000 37B5     		push	{r0, r1, r2, r4, r5, lr}
 3440 0002 4025     		movs	r5, #64
 3441 0004 0021     		movs	r1, #0
 3442 0006 846A     		ldr	r4, [r0, #40]
 3443 0008 2368     		ldr	r3, [r4]
 3444 000a 1A68     		ldr	r2, [r3]
 3445 000c AA43     		bics	r2, r5
 3446 000e 1A60     		str	r2, [r3]
 3447 0010 E26C     		ldr	r2, [r4, #76]
 3448 0012 9163     		str	r1, [r2, #56]
 3449 0014 5A68     		ldr	r2, [r3, #4]
 3450 0016 0131     		adds	r1, r1, #1
 3451 0018 8A43     		bics	r2, r1
 3452 001a 5A60     		str	r2, [r3, #4]
 3453 001c FFF7FEFF 		bl	HAL_GetTick
 3454 0020 6421     		movs	r1, #100
 3455 0022 0200     		movs	r2, r0
 3456 0024 2000     		movs	r0, r4
 3457 0026 FFF7FEFF 		bl	SPI_EndRxTxTransaction
 3458 002a 0028     		cmp	r0, #0
 3459 002c 02D0     		beq	.L652
 3460 002e 636D     		ldr	r3, [r4, #84]
 3461 0030 1D43     		orrs	r5, r3
 3462 0032 6565     		str	r5, [r4, #84]
 3463              	.L652:
 3464 0034 A36C     		ldr	r3, [r4, #72]
 3465 0036 002B     		cmp	r3, #0
 3466 0038 02D0     		beq	.L653
ARM GAS  /tmp/ccLBxpA5.s 			page 60


 3467 003a 9B6B     		ldr	r3, [r3, #56]
 3468 003c 002B     		cmp	r3, #0
 3469 003e 18D1     		bne	.L651
 3470              	.L653:
 3471 0040 0023     		movs	r3, #0
 3472 0042 E387     		strh	r3, [r4, #62]
 3473 0044 E386     		strh	r3, [r4, #54]
 3474 0046 626D     		ldr	r2, [r4, #84]
 3475 0048 402A     		cmp	r2, #64
 3476 004a 00D0     		beq	.L655
 3477 004c 6365     		str	r3, [r4, #84]
 3478              	.L655:
 3479 004e 2268     		ldr	r2, [r4]
 3480 0050 0093     		str	r3, [sp]
 3481 0052 D168     		ldr	r1, [r2, #12]
 3482 0054 2000     		movs	r0, r4
 3483 0056 0091     		str	r1, [sp]
 3484 0058 9168     		ldr	r1, [r2, #8]
 3485 005a 0091     		str	r1, [sp]
 3486 005c 0099     		ldr	r1, [sp]
 3487 005e 0193     		str	r3, [sp, #4]
 3488 0060 9368     		ldr	r3, [r2, #8]
 3489 0062 0122     		movs	r2, #1
 3490 0064 0193     		str	r3, [sp, #4]
 3491 0066 019B     		ldr	r3, [sp, #4]
 3492 0068 2300     		movs	r3, r4
 3493 006a 5133     		adds	r3, r3, #81
 3494 006c 1A70     		strb	r2, [r3]
 3495 006e FFF7FEFF 		bl	HAL_SPI_AbortCpltCallback
 3496              	.L651:
 3497              		@ sp needed
 3498 0072 37BD     		pop	{r0, r1, r2, r4, r5, pc}
 3500              		.section	.text.SPI_DMATxAbortCallback,"ax",%progbits
 3501              		.align	1
 3502              		.syntax unified
 3503              		.code	16
 3504              		.thumb_func
 3506              	SPI_DMATxAbortCallback:
 3507              		@ args = 0, pretend = 0, frame = 16
 3508              		@ frame_needed = 0, uses_anonymous_args = 0
 3509 0000 1FB5     		push	{r0, r1, r2, r3, r4, lr}
 3510 0002 0022     		movs	r2, #0
 3511 0004 846A     		ldr	r4, [r0, #40]
 3512 0006 1E49     		ldr	r1, .L680
 3513 0008 A36C     		ldr	r3, [r4, #72]
 3514 000a 9A63     		str	r2, [r3, #56]
 3515 000c 1D4B     		ldr	r3, .L680+4
 3516 000e 1868     		ldr	r0, [r3]
 3517 0010 FFF7FEFF 		bl	__aeabi_uidiv
 3518 0014 6423     		movs	r3, #100
 3519 0016 0221     		movs	r1, #2
 3520 0018 4343     		muls	r3, r0
 3521 001a 0193     		str	r3, [sp, #4]
 3522 001c 2368     		ldr	r3, [r4]
 3523 001e 5A68     		ldr	r2, [r3, #4]
 3524 0020 8A43     		bics	r2, r1
 3525 0022 5A60     		str	r2, [r3, #4]
ARM GAS  /tmp/ccLBxpA5.s 			page 61


 3526              	.L668:
 3527 0024 019A     		ldr	r2, [sp, #4]
 3528 0026 002A     		cmp	r2, #0
 3529 0028 22D1     		bne	.L666
 3530 002a 616D     		ldr	r1, [r4, #84]
 3531 002c 4032     		adds	r2, r2, #64
 3532 002e 0A43     		orrs	r2, r1
 3533 0030 6265     		str	r2, [r4, #84]
 3534              	.L667:
 3535 0032 E26C     		ldr	r2, [r4, #76]
 3536 0034 002A     		cmp	r2, #0
 3537 0036 02D0     		beq	.L669
 3538 0038 926B     		ldr	r2, [r2, #56]
 3539 003a 002A     		cmp	r2, #0
 3540 003c 17D1     		bne	.L665
 3541              	.L669:
 3542 003e 0022     		movs	r2, #0
 3543 0040 E287     		strh	r2, [r4, #62]
 3544 0042 E286     		strh	r2, [r4, #54]
 3545 0044 616D     		ldr	r1, [r4, #84]
 3546 0046 4029     		cmp	r1, #64
 3547 0048 00D0     		beq	.L671
 3548 004a 6265     		str	r2, [r4, #84]
 3549              	.L671:
 3550 004c 0292     		str	r2, [sp, #8]
 3551 004e D968     		ldr	r1, [r3, #12]
 3552 0050 2000     		movs	r0, r4
 3553 0052 0291     		str	r1, [sp, #8]
 3554 0054 9968     		ldr	r1, [r3, #8]
 3555 0056 0291     		str	r1, [sp, #8]
 3556 0058 0299     		ldr	r1, [sp, #8]
 3557 005a 0392     		str	r2, [sp, #12]
 3558 005c 9B68     		ldr	r3, [r3, #8]
 3559 005e 0122     		movs	r2, #1
 3560 0060 0393     		str	r3, [sp, #12]
 3561 0062 039B     		ldr	r3, [sp, #12]
 3562 0064 2300     		movs	r3, r4
 3563 0066 5133     		adds	r3, r3, #81
 3564 0068 1A70     		strb	r2, [r3]
 3565 006a FFF7FEFF 		bl	HAL_SPI_AbortCpltCallback
 3566              	.L665:
 3567              		@ sp needed
 3568 006e 1FBD     		pop	{r0, r1, r2, r3, r4, pc}
 3569              	.L666:
 3570 0070 019A     		ldr	r2, [sp, #4]
 3571 0072 013A     		subs	r2, r2, #1
 3572 0074 0192     		str	r2, [sp, #4]
 3573 0076 9A68     		ldr	r2, [r3, #8]
 3574 0078 0A42     		tst	r2, r1
 3575 007a D3D0     		beq	.L668
 3576 007c D9E7     		b	.L667
 3577              	.L681:
 3578 007e C046     		.align	2
 3579              	.L680:
 3580 0080 C05D0000 		.word	24000
 3581 0084 00000000 		.word	SystemCoreClock
 3583              		.section	.text.HAL_SPI_GetState,"ax",%progbits
ARM GAS  /tmp/ccLBxpA5.s 			page 62


 3584              		.align	1
 3585              		.global	HAL_SPI_GetState
 3586              		.syntax unified
 3587              		.code	16
 3588              		.thumb_func
 3590              	HAL_SPI_GetState:
 3591              		@ args = 0, pretend = 0, frame = 0
 3592              		@ frame_needed = 0, uses_anonymous_args = 0
 3593              		@ link register save eliminated.
 3594 0000 5130     		adds	r0, r0, #81
 3595 0002 0078     		ldrb	r0, [r0]
 3596              		@ sp needed
 3597 0004 C0B2     		uxtb	r0, r0
 3598 0006 7047     		bx	lr
 3600              		.section	.text.HAL_SPI_GetError,"ax",%progbits
 3601              		.align	1
 3602              		.global	HAL_SPI_GetError
 3603              		.syntax unified
 3604              		.code	16
 3605              		.thumb_func
 3607              	HAL_SPI_GetError:
 3608              		@ args = 0, pretend = 0, frame = 0
 3609              		@ frame_needed = 0, uses_anonymous_args = 0
 3610              		@ link register save eliminated.
 3611 0000 406D     		ldr	r0, [r0, #84]
 3612              		@ sp needed
 3613 0002 7047     		bx	lr
 3615              		.ident	"GCC: (Arch Repository) 13.2.0"
ARM GAS  /tmp/ccLBxpA5.s 			page 63

