ARM GAS  /tmp/ccWhVWlS.s 			page 1


   1              		.cpu cortex-m0
   2              		.arch armv6s-m
   3              		.fpu softvfp
   4              		.eabi_attribute 23, 1
   5              		.eabi_attribute 24, 1
   6              		.eabi_attribute 25, 1
   7              		.eabi_attribute 26, 1
   8              		.eabi_attribute 30, 4
   9              		.eabi_attribute 34, 0
  10              		.eabi_attribute 18, 4
  11              		.file	"stm32l0xx_hal_wwdg.c"
  12              		.text
  13              		.section	.text.HAL_WWDG_MspInit,"ax",%progbits
  14              		.align	1
  15              		.weak	HAL_WWDG_MspInit
  16              		.syntax unified
  17              		.code	16
  18              		.thumb_func
  20              	HAL_WWDG_MspInit:
  21              		@ args = 0, pretend = 0, frame = 0
  22              		@ frame_needed = 0, uses_anonymous_args = 0
  23              		@ link register save eliminated.
  24              		@ sp needed
  25 0000 7047     		bx	lr
  27              		.section	.text.HAL_WWDG_Init,"ax",%progbits
  28              		.align	1
  29              		.global	HAL_WWDG_Init
  30              		.syntax unified
  31              		.code	16
  32              		.thumb_func
  34              	HAL_WWDG_Init:
  35              		@ args = 0, pretend = 0, frame = 0
  36              		@ frame_needed = 0, uses_anonymous_args = 0
  37 0000 10B5     		push	{r4, lr}
  38 0002 0400     		movs	r4, r0
  39 0004 0120     		movs	r0, #1
  40 0006 002C     		cmp	r4, #0
  41 0008 0ED0     		beq	.L3
  42 000a 2000     		movs	r0, r4
  43 000c FFF7FEFF 		bl	HAL_WWDG_MspInit
  44 0010 8023     		movs	r3, #128
  45 0012 0020     		movs	r0, #0
  46 0014 E168     		ldr	r1, [r4, #12]
  47 0016 2268     		ldr	r2, [r4]
  48 0018 0B43     		orrs	r3, r1
  49 001a 1360     		str	r3, [r2]
  50 001c 6168     		ldr	r1, [r4, #4]
  51 001e 2369     		ldr	r3, [r4, #16]
  52 0020 0B43     		orrs	r3, r1
  53 0022 A168     		ldr	r1, [r4, #8]
  54 0024 0B43     		orrs	r3, r1
  55 0026 5360     		str	r3, [r2, #4]
  56              	.L3:
  57              		@ sp needed
  58 0028 10BD     		pop	{r4, pc}
  60              		.section	.text.HAL_WWDG_Refresh,"ax",%progbits
  61              		.align	1
ARM GAS  /tmp/ccWhVWlS.s 			page 2


  62              		.global	HAL_WWDG_Refresh
  63              		.syntax unified
  64              		.code	16
  65              		.thumb_func
  67              	HAL_WWDG_Refresh:
  68              		@ args = 0, pretend = 0, frame = 0
  69              		@ frame_needed = 0, uses_anonymous_args = 0
  70              		@ link register save eliminated.
  71 0000 0368     		ldr	r3, [r0]
  72 0002 C268     		ldr	r2, [r0, #12]
  73              		@ sp needed
  74 0004 0020     		movs	r0, #0
  75 0006 1A60     		str	r2, [r3]
  76 0008 7047     		bx	lr
  78              		.section	.text.HAL_WWDG_EarlyWakeupCallback,"ax",%progbits
  79              		.align	1
  80              		.weak	HAL_WWDG_EarlyWakeupCallback
  81              		.syntax unified
  82              		.code	16
  83              		.thumb_func
  85              	HAL_WWDG_EarlyWakeupCallback:
  86              		@ args = 0, pretend = 0, frame = 0
  87              		@ frame_needed = 0, uses_anonymous_args = 0
  88              		@ link register save eliminated.
  89              		@ sp needed
  90 0000 7047     		bx	lr
  92              		.section	.text.HAL_WWDG_IRQHandler,"ax",%progbits
  93              		.align	1
  94              		.global	HAL_WWDG_IRQHandler
  95              		.syntax unified
  96              		.code	16
  97              		.thumb_func
  99              	HAL_WWDG_IRQHandler:
 100              		@ args = 0, pretend = 0, frame = 0
 101              		@ frame_needed = 0, uses_anonymous_args = 0
 102 0000 0368     		ldr	r3, [r0]
 103 0002 10B5     		push	{r4, lr}
 104 0004 5A68     		ldr	r2, [r3, #4]
 105 0006 9205     		lsls	r2, r2, #22
 106 0008 07D5     		bpl	.L7
 107 000a 9A68     		ldr	r2, [r3, #8]
 108 000c D207     		lsls	r2, r2, #31
 109 000e 04D5     		bpl	.L7
 110 0010 0222     		movs	r2, #2
 111 0012 5242     		rsbs	r2, r2, #0
 112 0014 9A60     		str	r2, [r3, #8]
 113 0016 FFF7FEFF 		bl	HAL_WWDG_EarlyWakeupCallback
 114              	.L7:
 115              		@ sp needed
 116 001a 10BD     		pop	{r4, pc}
 118              		.ident	"GCC: (Arch Repository) 13.2.0"
ARM GAS  /tmp/ccWhVWlS.s 			page 3

