ARM GAS  /tmp/cc24cTJz.s 			page 1


   1              		.cpu cortex-m0
   2              		.arch armv6s-m
   3              		.fpu softvfp
   4              		.eabi_attribute 23, 1
   5              		.eabi_attribute 24, 1
   6              		.eabi_attribute 25, 1
   7              		.eabi_attribute 26, 1
   8              		.eabi_attribute 30, 4
   9              		.eabi_attribute 34, 0
  10              		.eabi_attribute 18, 4
  11              		.file	"stm32l0xx_hal_rtc.c"
  12              		.text
  13              		.section	.text.HAL_RTC_MspInit,"ax",%progbits
  14              		.align	1
  15              		.weak	HAL_RTC_MspInit
  16              		.syntax unified
  17              		.code	16
  18              		.thumb_func
  20              	HAL_RTC_MspInit:
  21              		@ args = 0, pretend = 0, frame = 0
  22              		@ frame_needed = 0, uses_anonymous_args = 0
  23              		@ link register save eliminated.
  24              		@ sp needed
  25 0000 7047     		bx	lr
  27              		.section	.text.HAL_RTC_MspDeInit,"ax",%progbits
  28              		.align	1
  29              		.weak	HAL_RTC_MspDeInit
  30              		.syntax unified
  31              		.code	16
  32              		.thumb_func
  34              	HAL_RTC_MspDeInit:
  35              		@ args = 0, pretend = 0, frame = 0
  36              		@ frame_needed = 0, uses_anonymous_args = 0
  37              		@ link register save eliminated.
  38              		@ sp needed
  39 0000 7047     		bx	lr
  41              		.section	.text.HAL_RTC_DST_Add1Hour,"ax",%progbits
  42              		.align	1
  43              		.global	HAL_RTC_DST_Add1Hour
  44              		.syntax unified
  45              		.code	16
  46              		.thumb_func
  48              	HAL_RTC_DST_Add1Hour:
  49              		@ args = 0, pretend = 0, frame = 0
  50              		@ frame_needed = 0, uses_anonymous_args = 0
  51              		@ link register save eliminated.
  52 0000 CA22     		movs	r2, #202
  53              		@ sp needed
  54 0002 0368     		ldr	r3, [r0]
  55 0004 5A62     		str	r2, [r3, #36]
  56 0006 773A     		subs	r2, r2, #119
  57 0008 5A62     		str	r2, [r3, #36]
  58 000a 8022     		movs	r2, #128
  59 000c 9968     		ldr	r1, [r3, #8]
  60 000e 5202     		lsls	r2, r2, #9
  61 0010 0A43     		orrs	r2, r1
  62 0012 9A60     		str	r2, [r3, #8]
ARM GAS  /tmp/cc24cTJz.s 			page 2


  63 0014 FF22     		movs	r2, #255
  64 0016 5A62     		str	r2, [r3, #36]
  65 0018 7047     		bx	lr
  67              		.section	.text.HAL_RTC_DST_Sub1Hour,"ax",%progbits
  68              		.align	1
  69              		.global	HAL_RTC_DST_Sub1Hour
  70              		.syntax unified
  71              		.code	16
  72              		.thumb_func
  74              	HAL_RTC_DST_Sub1Hour:
  75              		@ args = 0, pretend = 0, frame = 0
  76              		@ frame_needed = 0, uses_anonymous_args = 0
  77              		@ link register save eliminated.
  78 0000 CA22     		movs	r2, #202
  79              		@ sp needed
  80 0002 0368     		ldr	r3, [r0]
  81 0004 5A62     		str	r2, [r3, #36]
  82 0006 773A     		subs	r2, r2, #119
  83 0008 5A62     		str	r2, [r3, #36]
  84 000a 8022     		movs	r2, #128
  85 000c 9968     		ldr	r1, [r3, #8]
  86 000e 9202     		lsls	r2, r2, #10
  87 0010 0A43     		orrs	r2, r1
  88 0012 9A60     		str	r2, [r3, #8]
  89 0014 FF22     		movs	r2, #255
  90 0016 5A62     		str	r2, [r3, #36]
  91 0018 7047     		bx	lr
  93              		.section	.text.HAL_RTC_DST_SetStoreOperation,"ax",%progbits
  94              		.align	1
  95              		.global	HAL_RTC_DST_SetStoreOperation
  96              		.syntax unified
  97              		.code	16
  98              		.thumb_func
 100              	HAL_RTC_DST_SetStoreOperation:
 101              		@ args = 0, pretend = 0, frame = 0
 102              		@ frame_needed = 0, uses_anonymous_args = 0
 103              		@ link register save eliminated.
 104 0000 CA22     		movs	r2, #202
 105              		@ sp needed
 106 0002 0368     		ldr	r3, [r0]
 107 0004 5A62     		str	r2, [r3, #36]
 108 0006 773A     		subs	r2, r2, #119
 109 0008 5A62     		str	r2, [r3, #36]
 110 000a 8022     		movs	r2, #128
 111 000c 9968     		ldr	r1, [r3, #8]
 112 000e D202     		lsls	r2, r2, #11
 113 0010 0A43     		orrs	r2, r1
 114 0012 9A60     		str	r2, [r3, #8]
 115 0014 FF22     		movs	r2, #255
 116 0016 5A62     		str	r2, [r3, #36]
 117 0018 7047     		bx	lr
 119              		.section	.text.HAL_RTC_DST_ClearStoreOperation,"ax",%progbits
 120              		.align	1
 121              		.global	HAL_RTC_DST_ClearStoreOperation
 122              		.syntax unified
 123              		.code	16
 124              		.thumb_func
ARM GAS  /tmp/cc24cTJz.s 			page 3


 126              	HAL_RTC_DST_ClearStoreOperation:
 127              		@ args = 0, pretend = 0, frame = 0
 128              		@ frame_needed = 0, uses_anonymous_args = 0
 129              		@ link register save eliminated.
 130 0000 CA22     		movs	r2, #202
 131              		@ sp needed
 132 0002 0368     		ldr	r3, [r0]
 133 0004 0449     		ldr	r1, .L7
 134 0006 5A62     		str	r2, [r3, #36]
 135 0008 773A     		subs	r2, r2, #119
 136 000a 5A62     		str	r2, [r3, #36]
 137 000c 9A68     		ldr	r2, [r3, #8]
 138 000e 0A40     		ands	r2, r1
 139 0010 9A60     		str	r2, [r3, #8]
 140 0012 FF22     		movs	r2, #255
 141 0014 5A62     		str	r2, [r3, #36]
 142 0016 7047     		bx	lr
 143              	.L8:
 144              		.align	2
 145              	.L7:
 146 0018 FFFFFBFF 		.word	-262145
 148              		.section	.text.HAL_RTC_DST_ReadStoreOperation,"ax",%progbits
 149              		.align	1
 150              		.global	HAL_RTC_DST_ReadStoreOperation
 151              		.syntax unified
 152              		.code	16
 153              		.thumb_func
 155              	HAL_RTC_DST_ReadStoreOperation:
 156              		@ args = 0, pretend = 0, frame = 0
 157              		@ frame_needed = 0, uses_anonymous_args = 0
 158              		@ link register save eliminated.
 159 0000 0368     		ldr	r3, [r0]
 160              		@ sp needed
 161 0002 9868     		ldr	r0, [r3, #8]
 162 0004 8023     		movs	r3, #128
 163 0006 DB02     		lsls	r3, r3, #11
 164 0008 1840     		ands	r0, r3
 165 000a 7047     		bx	lr
 167              		.section	.text.HAL_RTC_DeactivateAlarm,"ax",%progbits
 168              		.align	1
 169              		.global	HAL_RTC_DeactivateAlarm
 170              		.syntax unified
 171              		.code	16
 172              		.thumb_func
 174              	HAL_RTC_DeactivateAlarm:
 175              		@ args = 0, pretend = 0, frame = 8
 176              		@ frame_needed = 0, uses_anonymous_args = 0
 177 0000 F7B5     		push	{r0, r1, r2, r4, r5, r6, r7, lr}
 178 0002 0227     		movs	r7, #2
 179 0004 451C     		adds	r5, r0, #1
 180 0006 EB7F     		ldrb	r3, [r5, #31]
 181 0008 0400     		movs	r4, r0
 182 000a 3800     		movs	r0, r7
 183 000c 012B     		cmp	r3, #1
 184 000e 24D0     		beq	.L11
 185 0010 0123     		movs	r3, #1
 186 0012 CA22     		movs	r2, #202
ARM GAS  /tmp/cc24cTJz.s 			page 4


 187 0014 E619     		adds	r6, r4, r7
 188 0016 EB77     		strb	r3, [r5, #31]
 189 0018 F777     		strb	r7, [r6, #31]
 190 001a 2368     		ldr	r3, [r4]
 191 001c 5A62     		str	r2, [r3, #36]
 192 001e 773A     		subs	r2, r2, #119
 193 0020 5A62     		str	r2, [r3, #36]
 194 0022 AD32     		adds	r2, r2, #173
 195 0024 9142     		cmp	r1, r2
 196 0026 28D1     		bne	.L12
 197 0028 9A68     		ldr	r2, [r3, #8]
 198 002a 2049     		ldr	r1, .L23
 199 002c FA27     		movs	r7, #250
 200 002e 0A40     		ands	r2, r1
 201 0030 9A60     		str	r2, [r3, #8]
 202 0032 9A68     		ldr	r2, [r3, #8]
 203 0034 1E49     		ldr	r1, .L23+4
 204 0036 BF00     		lsls	r7, r7, #2
 205 0038 0A40     		ands	r2, r1
 206 003a 9A60     		str	r2, [r3, #8]
 207 003c FFF7FEFF 		bl	HAL_GetTick
 208 0040 0190     		str	r0, [sp, #4]
 209              	.L13:
 210 0042 0122     		movs	r2, #1
 211 0044 2368     		ldr	r3, [r4]
 212 0046 DB68     		ldr	r3, [r3, #12]
 213 0048 1342     		tst	r3, r2
 214 004a 07D0     		beq	.L15
 215              	.L18:
 216 004c FF22     		movs	r2, #255
 217 004e 2368     		ldr	r3, [r4]
 218 0050 0020     		movs	r0, #0
 219 0052 5A62     		str	r2, [r3, #36]
 220 0054 0123     		movs	r3, #1
 221 0056 F377     		strb	r3, [r6, #31]
 222 0058 E877     		strb	r0, [r5, #31]
 223              	.L11:
 224              		@ sp needed
 225 005a FEBD     		pop	{r1, r2, r3, r4, r5, r6, r7, pc}
 226              	.L15:
 227 005c FFF7FEFF 		bl	HAL_GetTick
 228 0060 019B     		ldr	r3, [sp, #4]
 229 0062 C01A     		subs	r0, r0, r3
 230 0064 B842     		cmp	r0, r7
 231 0066 ECD9     		bls	.L13
 232              	.L22:
 233 0068 FF22     		movs	r2, #255
 234 006a 2368     		ldr	r3, [r4]
 235 006c 0320     		movs	r0, #3
 236 006e 5A62     		str	r2, [r3, #36]
 237 0070 0323     		movs	r3, #3
 238 0072 F377     		strb	r3, [r6, #31]
 239 0074 0023     		movs	r3, #0
 240 0076 EB77     		strb	r3, [r5, #31]
 241 0078 EFE7     		b	.L11
 242              	.L12:
 243 007a 9A68     		ldr	r2, [r3, #8]
ARM GAS  /tmp/cc24cTJz.s 			page 5


 244 007c 0D49     		ldr	r1, .L23+8
 245 007e 0A40     		ands	r2, r1
 246 0080 9A60     		str	r2, [r3, #8]
 247 0082 9A68     		ldr	r2, [r3, #8]
 248 0084 0C49     		ldr	r1, .L23+12
 249 0086 0A40     		ands	r2, r1
 250 0088 9A60     		str	r2, [r3, #8]
 251 008a FFF7FEFF 		bl	HAL_GetTick
 252 008e 0190     		str	r0, [sp, #4]
 253              	.L16:
 254 0090 2368     		ldr	r3, [r4]
 255 0092 DB68     		ldr	r3, [r3, #12]
 256 0094 3B42     		tst	r3, r7
 257 0096 D9D1     		bne	.L18
 258 0098 FFF7FEFF 		bl	HAL_GetTick
 259 009c 019B     		ldr	r3, [sp, #4]
 260 009e C01A     		subs	r0, r0, r3
 261 00a0 FA23     		movs	r3, #250
 262 00a2 9B00     		lsls	r3, r3, #2
 263 00a4 9842     		cmp	r0, r3
 264 00a6 F3D9     		bls	.L16
 265 00a8 DEE7     		b	.L22
 266              	.L24:
 267 00aa C046     		.align	2
 268              	.L23:
 269 00ac FFFEFFFF 		.word	-257
 270 00b0 FFEFFFFF 		.word	-4097
 271 00b4 FFFDFFFF 		.word	-513
 272 00b8 FFDFFFFF 		.word	-8193
 274              		.section	.text.HAL_RTC_AlarmAEventCallback,"ax",%progbits
 275              		.align	1
 276              		.weak	HAL_RTC_AlarmAEventCallback
 277              		.syntax unified
 278              		.code	16
 279              		.thumb_func
 281              	HAL_RTC_AlarmAEventCallback:
 282              		@ args = 0, pretend = 0, frame = 0
 283              		@ frame_needed = 0, uses_anonymous_args = 0
 284              		@ link register save eliminated.
 285              		@ sp needed
 286 0000 7047     		bx	lr
 288              		.section	.text.HAL_RTC_AlarmIRQHandler,"ax",%progbits
 289              		.align	1
 290              		.global	HAL_RTC_AlarmIRQHandler
 291              		.syntax unified
 292              		.code	16
 293              		.thumb_func
 295              	HAL_RTC_AlarmIRQHandler:
 296              		@ args = 0, pretend = 0, frame = 0
 297              		@ frame_needed = 0, uses_anonymous_args = 0
 298 0000 0368     		ldr	r3, [r0]
 299 0002 10B5     		push	{r4, lr}
 300 0004 9A68     		ldr	r2, [r3, #8]
 301 0006 0400     		movs	r4, r0
 302 0008 D204     		lsls	r2, r2, #19
 303 000a 0AD5     		bpl	.L27
 304 000c DB68     		ldr	r3, [r3, #12]
ARM GAS  /tmp/cc24cTJz.s 			page 6


 305 000e DB05     		lsls	r3, r3, #23
 306 0010 07D5     		bpl	.L27
 307 0012 FFF7FEFF 		bl	HAL_RTC_AlarmAEventCallback
 308 0016 2168     		ldr	r1, [r4]
 309 0018 0E4B     		ldr	r3, .L45
 310 001a CA68     		ldr	r2, [r1, #12]
 311 001c D2B2     		uxtb	r2, r2
 312 001e 1343     		orrs	r3, r2
 313 0020 CB60     		str	r3, [r1, #12]
 314              	.L27:
 315 0022 2368     		ldr	r3, [r4]
 316 0024 9A68     		ldr	r2, [r3, #8]
 317 0026 9204     		lsls	r2, r2, #18
 318 0028 0BD5     		bpl	.L28
 319 002a DB68     		ldr	r3, [r3, #12]
 320 002c 9B05     		lsls	r3, r3, #22
 321 002e 08D5     		bpl	.L28
 322 0030 2000     		movs	r0, r4
 323 0032 FFF7FEFF 		bl	HAL_RTCEx_AlarmBEventCallback
 324 0036 2168     		ldr	r1, [r4]
 325 0038 074B     		ldr	r3, .L45+4
 326 003a CA68     		ldr	r2, [r1, #12]
 327 003c D2B2     		uxtb	r2, r2
 328 003e 1343     		orrs	r3, r2
 329 0040 CB60     		str	r3, [r1, #12]
 330              	.L28:
 331 0042 8022     		movs	r2, #128
 332              		@ sp needed
 333 0044 054B     		ldr	r3, .L45+8
 334 0046 9202     		lsls	r2, r2, #10
 335 0048 5A61     		str	r2, [r3, #20]
 336 004a 0123     		movs	r3, #1
 337 004c 0234     		adds	r4, r4, #2
 338 004e E377     		strb	r3, [r4, #31]
 339 0050 10BD     		pop	{r4, pc}
 340              	.L46:
 341 0052 C046     		.align	2
 342              	.L45:
 343 0054 7FFEFFFF 		.word	-385
 344 0058 7FFDFFFF 		.word	-641
 345 005c 00040140 		.word	1073808384
 347              		.section	.text.HAL_RTC_PollForAlarmAEvent,"ax",%progbits
 348              		.align	1
 349              		.global	HAL_RTC_PollForAlarmAEvent
 350              		.syntax unified
 351              		.code	16
 352              		.thumb_func
 354              	HAL_RTC_PollForAlarmAEvent:
 355              		@ args = 0, pretend = 0, frame = 0
 356              		@ frame_needed = 0, uses_anonymous_args = 0
 357 0000 F8B5     		push	{r3, r4, r5, r6, r7, lr}
 358 0002 0400     		movs	r4, r0
 359 0004 0D00     		movs	r5, r1
 360 0006 FFF7FEFF 		bl	HAL_GetTick
 361 000a 8027     		movs	r7, #128
 362 000c 0600     		movs	r6, r0
 363 000e 7F00     		lsls	r7, r7, #1
ARM GAS  /tmp/cc24cTJz.s 			page 7


 364              	.L48:
 365 0010 2368     		ldr	r3, [r4]
 366              	.L49:
 367 0012 DA68     		ldr	r2, [r3, #12]
 368 0014 3A42     		tst	r2, r7
 369 0016 09D0     		beq	.L53
 370 0018 D968     		ldr	r1, [r3, #12]
 371 001a 0B4A     		ldr	r2, .L60
 372 001c C9B2     		uxtb	r1, r1
 373 001e 0A43     		orrs	r2, r1
 374 0020 DA60     		str	r2, [r3, #12]
 375 0022 0123     		movs	r3, #1
 376 0024 0234     		adds	r4, r4, #2
 377 0026 0020     		movs	r0, #0
 378 0028 E377     		strb	r3, [r4, #31]
 379 002a 09E0     		b	.L51
 380              	.L53:
 381 002c 6A1C     		adds	r2, r5, #1
 382 002e F0D0     		beq	.L49
 383 0030 FFF7FEFF 		bl	HAL_GetTick
 384 0034 801B     		subs	r0, r0, r6
 385 0036 A842     		cmp	r0, r5
 386 0038 03D9     		bls	.L50
 387              	.L52:
 388 003a 0320     		movs	r0, #3
 389 003c 0234     		adds	r4, r4, #2
 390 003e E077     		strb	r0, [r4, #31]
 391              	.L51:
 392              		@ sp needed
 393 0040 F8BD     		pop	{r3, r4, r5, r6, r7, pc}
 394              	.L50:
 395 0042 002D     		cmp	r5, #0
 396 0044 E4D1     		bne	.L48
 397 0046 F8E7     		b	.L52
 398              	.L61:
 399              		.align	2
 400              	.L60:
 401 0048 7FFEFFFF 		.word	-385
 403              		.section	.text.HAL_RTC_WaitForSynchro,"ax",%progbits
 404              		.align	1
 405              		.global	HAL_RTC_WaitForSynchro
 406              		.syntax unified
 407              		.code	16
 408              		.thumb_func
 410              	HAL_RTC_WaitForSynchro:
 411              		@ args = 0, pretend = 0, frame = 0
 412              		@ frame_needed = 0, uses_anonymous_args = 0
 413 0000 A021     		movs	r1, #160
 414 0002 0268     		ldr	r2, [r0]
 415 0004 F8B5     		push	{r3, r4, r5, r6, r7, lr}
 416 0006 D368     		ldr	r3, [r2, #12]
 417 0008 0400     		movs	r4, r0
 418 000a 8B43     		bics	r3, r1
 419 000c D360     		str	r3, [r2, #12]
 420 000e FFF7FEFF 		bl	HAL_GetTick
 421 0012 FA27     		movs	r7, #250
 422 0014 0500     		movs	r5, r0
ARM GAS  /tmp/cc24cTJz.s 			page 8


 423 0016 2026     		movs	r6, #32
 424 0018 BF00     		lsls	r7, r7, #2
 425              	.L63:
 426 001a 2368     		ldr	r3, [r4]
 427 001c DB68     		ldr	r3, [r3, #12]
 428 001e 3342     		tst	r3, r6
 429 0020 01D0     		beq	.L65
 430 0022 0020     		movs	r0, #0
 431              	.L64:
 432              		@ sp needed
 433 0024 F8BD     		pop	{r3, r4, r5, r6, r7, pc}
 434              	.L65:
 435 0026 FFF7FEFF 		bl	HAL_GetTick
 436 002a 401B     		subs	r0, r0, r5
 437 002c B842     		cmp	r0, r7
 438 002e F4D9     		bls	.L63
 439 0030 0320     		movs	r0, #3
 440 0032 F7E7     		b	.L64
 442              		.section	.text.HAL_RTC_GetState,"ax",%progbits
 443              		.align	1
 444              		.global	HAL_RTC_GetState
 445              		.syntax unified
 446              		.code	16
 447              		.thumb_func
 449              	HAL_RTC_GetState:
 450              		@ args = 0, pretend = 0, frame = 0
 451              		@ frame_needed = 0, uses_anonymous_args = 0
 452              		@ link register save eliminated.
 453 0000 0230     		adds	r0, r0, #2
 454 0002 C07F     		ldrb	r0, [r0, #31]
 455              		@ sp needed
 456 0004 C0B2     		uxtb	r0, r0
 457 0006 7047     		bx	lr
 459              		.section	.text.RTC_EnterInitMode,"ax",%progbits
 460              		.align	1
 461              		.global	RTC_EnterInitMode
 462              		.syntax unified
 463              		.code	16
 464              		.thumb_func
 466              	RTC_EnterInitMode:
 467              		@ args = 0, pretend = 0, frame = 0
 468              		@ frame_needed = 0, uses_anonymous_args = 0
 469 0000 F8B5     		push	{r3, r4, r5, r6, r7, lr}
 470 0002 4026     		movs	r6, #64
 471 0004 0368     		ldr	r3, [r0]
 472 0006 0400     		movs	r4, r0
 473 0008 DA68     		ldr	r2, [r3, #12]
 474 000a 3242     		tst	r2, r6
 475 000c 01D0     		beq	.L69
 476              	.L73:
 477 000e 0020     		movs	r0, #0
 478              	.L70:
 479              		@ sp needed
 480 0010 F8BD     		pop	{r3, r4, r5, r6, r7, pc}
 481              	.L69:
 482 0012 0122     		movs	r2, #1
 483 0014 5242     		rsbs	r2, r2, #0
ARM GAS  /tmp/cc24cTJz.s 			page 9


 484 0016 DA60     		str	r2, [r3, #12]
 485 0018 FFF7FEFF 		bl	HAL_GetTick
 486 001c FA27     		movs	r7, #250
 487 001e 0500     		movs	r5, r0
 488 0020 BF00     		lsls	r7, r7, #2
 489              	.L71:
 490 0022 2368     		ldr	r3, [r4]
 491 0024 DB68     		ldr	r3, [r3, #12]
 492 0026 3342     		tst	r3, r6
 493 0028 F1D1     		bne	.L73
 494 002a FFF7FEFF 		bl	HAL_GetTick
 495 002e 401B     		subs	r0, r0, r5
 496 0030 B842     		cmp	r0, r7
 497 0032 F6D9     		bls	.L71
 498 0034 0320     		movs	r0, #3
 499 0036 EBE7     		b	.L70
 501              		.section	.text.HAL_RTC_Init,"ax",%progbits
 502              		.align	1
 503              		.global	HAL_RTC_Init
 504              		.syntax unified
 505              		.code	16
 506              		.thumb_func
 508              	HAL_RTC_Init:
 509              		@ args = 0, pretend = 0, frame = 0
 510              		@ frame_needed = 0, uses_anonymous_args = 0
 511 0000 F8B5     		push	{r3, r4, r5, r6, r7, lr}
 512 0002 041E     		subs	r4, r0, #0
 513 0004 19D0     		beq	.L76
 514 0006 861C     		adds	r6, r0, #2
 515 0008 F37F     		ldrb	r3, [r6, #31]
 516 000a DAB2     		uxtb	r2, r3
 517 000c 002B     		cmp	r3, #0
 518 000e 03D1     		bne	.L77
 519 0010 431C     		adds	r3, r0, #1
 520 0012 DA77     		strb	r2, [r3, #31]
 521 0014 FFF7FEFF 		bl	HAL_RTC_MspInit
 522              	.L77:
 523 0018 0223     		movs	r3, #2
 524 001a CA22     		movs	r2, #202
 525 001c F377     		strb	r3, [r6, #31]
 526 001e 2368     		ldr	r3, [r4]
 527 0020 2000     		movs	r0, r4
 528 0022 5A62     		str	r2, [r3, #36]
 529 0024 773A     		subs	r2, r2, #119
 530 0026 5A62     		str	r2, [r3, #36]
 531 0028 FFF7FEFF 		bl	RTC_EnterInitMode
 532 002c 2368     		ldr	r3, [r4]
 533 002e 051E     		subs	r5, r0, #0
 534 0030 06D0     		beq	.L78
 535 0032 FF22     		movs	r2, #255
 536 0034 5A62     		str	r2, [r3, #36]
 537 0036 0423     		movs	r3, #4
 538 0038 F377     		strb	r3, [r6, #31]
 539              	.L76:
 540 003a 0125     		movs	r5, #1
 541              	.L79:
 542              		@ sp needed
ARM GAS  /tmp/cc24cTJz.s 			page 10


 543 003c 2800     		movs	r0, r5
 544 003e F8BD     		pop	{r3, r4, r5, r6, r7, pc}
 545              	.L78:
 546 0040 9A68     		ldr	r2, [r3, #8]
 547 0042 1C49     		ldr	r1, .L87
 548 0044 2069     		ldr	r0, [r4, #16]
 549 0046 0A40     		ands	r2, r1
 550 0048 9A60     		str	r2, [r3, #8]
 551 004a 6268     		ldr	r2, [r4, #4]
 552 004c 9968     		ldr	r1, [r3, #8]
 553 004e 0243     		orrs	r2, r0
 554 0050 A069     		ldr	r0, [r4, #24]
 555 0052 0243     		orrs	r2, r0
 556 0054 0A43     		orrs	r2, r1
 557 0056 9A60     		str	r2, [r3, #8]
 558 0058 E268     		ldr	r2, [r4, #12]
 559 005a 6069     		ldr	r0, [r4, #20]
 560 005c 1A61     		str	r2, [r3, #16]
 561 005e A268     		ldr	r2, [r4, #8]
 562 0060 1969     		ldr	r1, [r3, #16]
 563 0062 1204     		lsls	r2, r2, #16
 564 0064 0A43     		orrs	r2, r1
 565 0066 8021     		movs	r1, #128
 566 0068 1A61     		str	r2, [r3, #16]
 567 006a DA68     		ldr	r2, [r3, #12]
 568 006c 8A43     		bics	r2, r1
 569 006e DA60     		str	r2, [r3, #12]
 570 0070 DA6C     		ldr	r2, [r3, #76]
 571 0072 7D39     		subs	r1, r1, #125
 572 0074 8A43     		bics	r2, r1
 573 0076 DA64     		str	r2, [r3, #76]
 574 0078 E269     		ldr	r2, [r4, #28]
 575 007a D96C     		ldr	r1, [r3, #76]
 576 007c 0243     		orrs	r2, r0
 577 007e 0A43     		orrs	r2, r1
 578 0080 DA64     		str	r2, [r3, #76]
 579 0082 9A68     		ldr	r2, [r3, #8]
 580 0084 2023     		movs	r3, #32
 581 0086 1700     		movs	r7, r2
 582 0088 1F40     		ands	r7, r3
 583 008a 1A42     		tst	r2, r3
 584 008c 0CD1     		bne	.L80
 585 008e 2000     		movs	r0, r4
 586 0090 FFF7FEFF 		bl	HAL_RTC_WaitForSynchro
 587 0094 0028     		cmp	r0, #0
 588 0096 07D0     		beq	.L80
 589 0098 FF22     		movs	r2, #255
 590 009a 2368     		ldr	r3, [r4]
 591 009c 0134     		adds	r4, r4, #1
 592 009e 5A62     		str	r2, [r3, #36]
 593 00a0 0423     		movs	r3, #4
 594 00a2 F377     		strb	r3, [r6, #31]
 595 00a4 E777     		strb	r7, [r4, #31]
 596 00a6 C8E7     		b	.L76
 597              	.L80:
 598 00a8 FF22     		movs	r2, #255
 599 00aa 2368     		ldr	r3, [r4]
ARM GAS  /tmp/cc24cTJz.s 			page 11


 600 00ac 5A62     		str	r2, [r3, #36]
 601 00ae 0123     		movs	r3, #1
 602 00b0 F377     		strb	r3, [r6, #31]
 603 00b2 C3E7     		b	.L79
 604              	.L88:
 605              		.align	2
 606              	.L87:
 607 00b4 BFFF8FFF 		.word	-7340097
 609              		.section	.text.HAL_RTC_DeInit,"ax",%progbits
 610              		.align	1
 611              		.global	HAL_RTC_DeInit
 612              		.syntax unified
 613              		.code	16
 614              		.thumb_func
 616              	HAL_RTC_DeInit:
 617              		@ args = 0, pretend = 0, frame = 8
 618              		@ frame_needed = 0, uses_anonymous_args = 0
 619 0000 0223     		movs	r3, #2
 620 0002 F7B5     		push	{r0, r1, r2, r4, r5, r6, r7, lr}
 621 0004 CA22     		movs	r2, #202
 622 0006 861C     		adds	r6, r0, #2
 623 0008 F377     		strb	r3, [r6, #31]
 624 000a 0368     		ldr	r3, [r0]
 625 000c 0400     		movs	r4, r0
 626 000e 5A62     		str	r2, [r3, #36]
 627 0010 773A     		subs	r2, r2, #119
 628 0012 5A62     		str	r2, [r3, #36]
 629 0014 FFF7FEFF 		bl	RTC_EnterInitMode
 630 0018 2368     		ldr	r3, [r4]
 631 001a 051E     		subs	r5, r0, #0
 632 001c 05D0     		beq	.L90
 633 001e FF22     		movs	r2, #255
 634 0020 5A62     		str	r2, [r3, #36]
 635 0022 0423     		movs	r3, #4
 636 0024 F377     		strb	r3, [r6, #31]
 637              	.L91:
 638 0026 0125     		movs	r5, #1
 639 0028 38E0     		b	.L93
 640              	.L90:
 641 002a 0721     		movs	r1, #7
 642 002c 224A     		ldr	r2, .L101
 643 002e 1860     		str	r0, [r3]
 644 0030 5A60     		str	r2, [r3, #4]
 645 0032 9A68     		ldr	r2, [r3, #8]
 646 0034 0427     		movs	r7, #4
 647 0036 0A40     		ands	r2, r1
 648 0038 9A60     		str	r2, [r3, #8]
 649 003a FFF7FEFF 		bl	HAL_GetTick
 650 003e 0190     		str	r0, [sp, #4]
 651              	.L92:
 652 0040 2368     		ldr	r3, [r4]
 653 0042 DA68     		ldr	r2, [r3, #12]
 654 0044 3A42     		tst	r2, r7
 655 0046 1CD0     		beq	.L94
 656 0048 9A68     		ldr	r2, [r3, #8]
 657 004a 0022     		movs	r2, #0
 658 004c 1B49     		ldr	r1, .L101+4
ARM GAS  /tmp/cc24cTJz.s 			page 12


 659 004e 9A60     		str	r2, [r3, #8]
 660 0050 5961     		str	r1, [r3, #20]
 661 0052 1B49     		ldr	r1, .L101+8
 662 0054 1961     		str	r1, [r3, #16]
 663 0056 DA61     		str	r2, [r3, #28]
 664 0058 1A62     		str	r2, [r3, #32]
 665 005a DA62     		str	r2, [r3, #44]
 666 005c DA63     		str	r2, [r3, #60]
 667 005e 5A64     		str	r2, [r3, #68]
 668 0060 9A64     		str	r2, [r3, #72]
 669 0062 DA60     		str	r2, [r3, #12]
 670 0064 1A64     		str	r2, [r3, #64]
 671 0066 DA64     		str	r2, [r3, #76]
 672 0068 9B68     		ldr	r3, [r3, #8]
 673 006a 9B06     		lsls	r3, r3, #26
 674 006c 18D4     		bmi	.L95
 675 006e 2000     		movs	r0, r4
 676 0070 FFF7FEFF 		bl	HAL_RTC_WaitForSynchro
 677 0074 0028     		cmp	r0, #0
 678 0076 13D0     		beq	.L95
 679 0078 FF22     		movs	r2, #255
 680 007a 2368     		ldr	r3, [r4]
 681 007c 5A62     		str	r2, [r3, #36]
 682 007e F777     		strb	r7, [r6, #31]
 683 0080 D1E7     		b	.L91
 684              	.L94:
 685 0082 FFF7FEFF 		bl	HAL_GetTick
 686 0086 019B     		ldr	r3, [sp, #4]
 687 0088 C01A     		subs	r0, r0, r3
 688 008a FA23     		movs	r3, #250
 689 008c 9B00     		lsls	r3, r3, #2
 690 008e 9842     		cmp	r0, r3
 691 0090 D6D9     		bls	.L92
 692 0092 FF22     		movs	r2, #255
 693 0094 0325     		movs	r5, #3
 694 0096 2368     		ldr	r3, [r4]
 695 0098 5A62     		str	r2, [r3, #36]
 696 009a F577     		strb	r5, [r6, #31]
 697              	.L93:
 698 009c 2800     		movs	r0, r5
 699              		@ sp needed
 700 009e FEBD     		pop	{r1, r2, r3, r4, r5, r6, r7, pc}
 701              	.L95:
 702 00a0 FF22     		movs	r2, #255
 703 00a2 2368     		ldr	r3, [r4]
 704 00a4 2000     		movs	r0, r4
 705 00a6 5A62     		str	r2, [r3, #36]
 706 00a8 FFF7FEFF 		bl	HAL_RTC_MspDeInit
 707 00ac 0023     		movs	r3, #0
 708 00ae 0134     		adds	r4, r4, #1
 709 00b0 F377     		strb	r3, [r6, #31]
 710 00b2 E377     		strb	r3, [r4, #31]
 711 00b4 F2E7     		b	.L93
 712              	.L102:
 713 00b6 C046     		.align	2
 714              	.L101:
 715 00b8 01210000 		.word	8449
ARM GAS  /tmp/cc24cTJz.s 			page 13


 716 00bc FFFF0000 		.word	65535
 717 00c0 FF007F00 		.word	8323327
 719              		.section	.text.RTC_ByteToBcd2,"ax",%progbits
 720              		.align	1
 721              		.global	RTC_ByteToBcd2
 722              		.syntax unified
 723              		.code	16
 724              		.thumb_func
 726              	RTC_ByteToBcd2:
 727              		@ args = 0, pretend = 0, frame = 0
 728              		@ frame_needed = 0, uses_anonymous_args = 0
 729              		@ link register save eliminated.
 730 0000 0023     		movs	r3, #0
 731              	.L104:
 732 0002 0928     		cmp	r0, #9
 733 0004 03D8     		bhi	.L105
 734              		@ sp needed
 735 0006 1B01     		lsls	r3, r3, #4
 736 0008 1843     		orrs	r0, r3
 737 000a C0B2     		uxtb	r0, r0
 738 000c 7047     		bx	lr
 739              	.L105:
 740 000e 0A38     		subs	r0, r0, #10
 741 0010 0133     		adds	r3, r3, #1
 742 0012 C0B2     		uxtb	r0, r0
 743 0014 F5E7     		b	.L104
 745              		.section	.text.HAL_RTC_SetTime,"ax",%progbits
 746              		.align	1
 747              		.global	HAL_RTC_SetTime
 748              		.syntax unified
 749              		.code	16
 750              		.thumb_func
 752              	HAL_RTC_SetTime:
 753              		@ args = 0, pretend = 0, frame = 16
 754              		@ frame_needed = 0, uses_anonymous_args = 0
 755 0000 F0B5     		push	{r4, r5, r6, r7, lr}
 756 0002 431C     		adds	r3, r0, #1
 757 0004 85B0     		sub	sp, sp, #20
 758 0006 0193     		str	r3, [sp, #4]
 759 0008 0C00     		movs	r4, r1
 760 000a D97F     		ldrb	r1, [r3, #31]
 761 000c 0223     		movs	r3, #2
 762 000e 0500     		movs	r5, r0
 763 0010 1F00     		movs	r7, r3
 764 0012 0129     		cmp	r1, #1
 765 0014 36D0     		beq	.L107
 766 0016 0121     		movs	r1, #1
 767 0018 4018     		adds	r0, r0, r1
 768 001a C177     		strb	r1, [r0, #31]
 769 001c E918     		adds	r1, r5, r3
 770 001e CB77     		strb	r3, [r1, #31]
 771 0020 0291     		str	r1, [sp, #8]
 772 0022 2F68     		ldr	r7, [r5]
 773 0024 2078     		ldrb	r0, [r4]
 774 0026 6678     		ldrb	r6, [r4, #1]
 775 0028 3E33     		adds	r3, r3, #62
 776 002a 002A     		cmp	r2, #0
ARM GAS  /tmp/cc24cTJz.s 			page 14


 777 002c 2DD1     		bne	.L108
 778 002e BA68     		ldr	r2, [r7, #8]
 779 0030 1100     		movs	r1, r2
 780 0032 1940     		ands	r1, r3
 781 0034 1A42     		tst	r2, r3
 782 0036 00D1     		bne	.L109
 783 0038 E170     		strb	r1, [r4, #3]
 784              	.L109:
 785 003a FFF7FEFF 		bl	RTC_ByteToBcd2
 786 003e 0390     		str	r0, [sp, #12]
 787 0040 3000     		movs	r0, r6
 788 0042 FFF7FEFF 		bl	RTC_ByteToBcd2
 789 0046 0600     		movs	r6, r0
 790 0048 A078     		ldrb	r0, [r4, #2]
 791 004a FFF7FEFF 		bl	RTC_ByteToBcd2
 792 004e E378     		ldrb	r3, [r4, #3]
 793 0050 039A     		ldr	r2, [sp, #12]
 794 0052 1B04     		lsls	r3, r3, #16
 795 0054 0343     		orrs	r3, r0
 796 0056 1204     		lsls	r2, r2, #16
 797 0058 1343     		orrs	r3, r2
 798 005a 3602     		lsls	r6, r6, #8
 799              	.L119:
 800 005c 1E43     		orrs	r6, r3
 801 005e CA23     		movs	r3, #202
 802 0060 7B62     		str	r3, [r7, #36]
 803 0062 773B     		subs	r3, r3, #119
 804 0064 7B62     		str	r3, [r7, #36]
 805 0066 2800     		movs	r0, r5
 806 0068 FFF7FEFF 		bl	RTC_EnterInitMode
 807 006c 2B68     		ldr	r3, [r5]
 808 006e 071E     		subs	r7, r0, #0
 809 0070 19D0     		beq	.L112
 810 0072 FF22     		movs	r2, #255
 811 0074 5A62     		str	r2, [r3, #36]
 812 0076 0423     		movs	r3, #4
 813 0078 029A     		ldr	r2, [sp, #8]
 814 007a D377     		strb	r3, [r2, #31]
 815 007c 0023     		movs	r3, #0
 816 007e 019A     		ldr	r2, [sp, #4]
 817 0080 D377     		strb	r3, [r2, #31]
 818              	.L113:
 819 0082 0127     		movs	r7, #1
 820              	.L107:
 821 0084 3800     		movs	r0, r7
 822 0086 05B0     		add	sp, sp, #20
 823              		@ sp needed
 824 0088 F0BD     		pop	{r4, r5, r6, r7, pc}
 825              	.L108:
 826 008a BA68     		ldr	r2, [r7, #8]
 827 008c 1100     		movs	r1, r2
 828 008e 1940     		ands	r1, r3
 829 0090 1A42     		tst	r2, r3
 830 0092 00D1     		bne	.L111
 831 0094 E170     		strb	r1, [r4, #3]
 832              	.L111:
 833 0096 A378     		ldrb	r3, [r4, #2]
ARM GAS  /tmp/cc24cTJz.s 			page 15


 834 0098 0004     		lsls	r0, r0, #16
 835 009a 3602     		lsls	r6, r6, #8
 836 009c 0643     		orrs	r6, r0
 837 009e 1E43     		orrs	r6, r3
 838 00a0 E378     		ldrb	r3, [r4, #3]
 839 00a2 1B04     		lsls	r3, r3, #16
 840 00a4 DAE7     		b	.L119
 841              	.L112:
 842 00a6 174A     		ldr	r2, .L120
 843 00a8 1749     		ldr	r1, .L120+4
 844 00aa 1640     		ands	r6, r2
 845 00ac 1E60     		str	r6, [r3]
 846 00ae 9A68     		ldr	r2, [r3, #8]
 847 00b0 2069     		ldr	r0, [r4, #16]
 848 00b2 0A40     		ands	r2, r1
 849 00b4 9A60     		str	r2, [r3, #8]
 850 00b6 E268     		ldr	r2, [r4, #12]
 851 00b8 9968     		ldr	r1, [r3, #8]
 852 00ba 0243     		orrs	r2, r0
 853 00bc 0A43     		orrs	r2, r1
 854 00be 8021     		movs	r1, #128
 855 00c0 9A60     		str	r2, [r3, #8]
 856 00c2 DA68     		ldr	r2, [r3, #12]
 857 00c4 8A43     		bics	r2, r1
 858 00c6 DA60     		str	r2, [r3, #12]
 859 00c8 9A68     		ldr	r2, [r3, #8]
 860 00ca 2023     		movs	r3, #32
 861 00cc 1400     		movs	r4, r2
 862 00ce 1C40     		ands	r4, r3
 863 00d0 1A42     		tst	r2, r3
 864 00d2 0DD1     		bne	.L114
 865 00d4 2800     		movs	r0, r5
 866 00d6 FFF7FEFF 		bl	HAL_RTC_WaitForSynchro
 867 00da 0028     		cmp	r0, #0
 868 00dc 08D0     		beq	.L114
 869 00de FF22     		movs	r2, #255
 870 00e0 2B68     		ldr	r3, [r5]
 871 00e2 5A62     		str	r2, [r3, #36]
 872 00e4 0423     		movs	r3, #4
 873 00e6 029A     		ldr	r2, [sp, #8]
 874 00e8 D377     		strb	r3, [r2, #31]
 875 00ea 019B     		ldr	r3, [sp, #4]
 876 00ec DC77     		strb	r4, [r3, #31]
 877 00ee C8E7     		b	.L113
 878              	.L114:
 879 00f0 FF22     		movs	r2, #255
 880 00f2 2B68     		ldr	r3, [r5]
 881 00f4 5A62     		str	r2, [r3, #36]
 882 00f6 0123     		movs	r3, #1
 883 00f8 029A     		ldr	r2, [sp, #8]
 884 00fa D377     		strb	r3, [r2, #31]
 885 00fc 0023     		movs	r3, #0
 886 00fe 019A     		ldr	r2, [sp, #4]
 887 0100 D377     		strb	r3, [r2, #31]
 888 0102 BFE7     		b	.L107
 889              	.L121:
 890              		.align	2
ARM GAS  /tmp/cc24cTJz.s 			page 16


 891              	.L120:
 892 0104 7F7F7F00 		.word	8355711
 893 0108 FFFFFBFF 		.word	-262145
 895              		.section	.text.HAL_RTC_SetDate,"ax",%progbits
 896              		.align	1
 897              		.global	HAL_RTC_SetDate
 898              		.syntax unified
 899              		.code	16
 900              		.thumb_func
 902              	HAL_RTC_SetDate:
 903              		@ args = 0, pretend = 0, frame = 16
 904              		@ frame_needed = 0, uses_anonymous_args = 0
 905 0000 0223     		movs	r3, #2
 906 0002 F0B5     		push	{r4, r5, r6, r7, lr}
 907 0004 471C     		adds	r7, r0, #1
 908 0006 0D00     		movs	r5, r1
 909 0008 F97F     		ldrb	r1, [r7, #31]
 910 000a 0400     		movs	r4, r0
 911 000c 1E00     		movs	r6, r3
 912 000e 85B0     		sub	sp, sp, #20
 913 0010 0129     		cmp	r1, #1
 914 0012 24D0     		beq	.L123
 915 0014 0121     		movs	r1, #1
 916 0016 F977     		strb	r1, [r7, #31]
 917 0018 C118     		adds	r1, r0, r3
 918 001a CB77     		strb	r3, [r1, #31]
 919 001c 0191     		str	r1, [sp, #4]
 920 001e A978     		ldrb	r1, [r5, #2]
 921 0020 2E78     		ldrb	r6, [r5]
 922 0022 E878     		ldrb	r0, [r5, #3]
 923 0024 6B78     		ldrb	r3, [r5, #1]
 924 0026 7603     		lsls	r6, r6, #13
 925 0028 0291     		str	r1, [sp, #8]
 926 002a 002A     		cmp	r2, #0
 927 002c 1AD0     		beq	.L124
 928 002e 0004     		lsls	r0, r0, #16
 929 0030 3043     		orrs	r0, r6
 930 0032 0843     		orrs	r0, r1
 931 0034 1D02     		lsls	r5, r3, #8
 932              	.L137:
 933 0036 CA22     		movs	r2, #202
 934 0038 2368     		ldr	r3, [r4]
 935 003a 0543     		orrs	r5, r0
 936 003c 5A62     		str	r2, [r3, #36]
 937 003e 773A     		subs	r2, r2, #119
 938 0040 5A62     		str	r2, [r3, #36]
 939 0042 2000     		movs	r0, r4
 940 0044 FFF7FEFF 		bl	RTC_EnterInitMode
 941 0048 2368     		ldr	r3, [r4]
 942 004a 061E     		subs	r6, r0, #0
 943 004c 20D0     		beq	.L127
 944 004e FF22     		movs	r2, #255
 945 0050 5A62     		str	r2, [r3, #36]
 946 0052 0423     		movs	r3, #4
 947 0054 019A     		ldr	r2, [sp, #4]
 948 0056 D377     		strb	r3, [r2, #31]
 949 0058 0023     		movs	r3, #0
ARM GAS  /tmp/cc24cTJz.s 			page 17


 950 005a FB77     		strb	r3, [r7, #31]
 951              	.L128:
 952 005c 0126     		movs	r6, #1
 953              	.L123:
 954 005e 3000     		movs	r0, r6
 955 0060 05B0     		add	sp, sp, #20
 956              		@ sp needed
 957 0062 F0BD     		pop	{r4, r5, r6, r7, pc}
 958              	.L124:
 959 0064 1022     		movs	r2, #16
 960 0066 1342     		tst	r3, r2
 961 0068 02D0     		beq	.L126
 962 006a 9343     		bics	r3, r2
 963 006c 0A33     		adds	r3, r3, #10
 964 006e 6B70     		strb	r3, [r5, #1]
 965              	.L126:
 966 0070 FFF7FEFF 		bl	RTC_ByteToBcd2
 967 0074 0390     		str	r0, [sp, #12]
 968 0076 6878     		ldrb	r0, [r5, #1]
 969 0078 FFF7FEFF 		bl	RTC_ByteToBcd2
 970 007c 0500     		movs	r5, r0
 971 007e 0298     		ldr	r0, [sp, #8]
 972 0080 FFF7FEFF 		bl	RTC_ByteToBcd2
 973 0084 039B     		ldr	r3, [sp, #12]
 974 0086 3043     		orrs	r0, r6
 975 0088 1B04     		lsls	r3, r3, #16
 976 008a 1843     		orrs	r0, r3
 977 008c 2D02     		lsls	r5, r5, #8
 978 008e D2E7     		b	.L137
 979              	.L127:
 980 0090 8021     		movs	r1, #128
 981 0092 114A     		ldr	r2, .L138
 982 0094 1540     		ands	r5, r2
 983 0096 5D60     		str	r5, [r3, #4]
 984 0098 DA68     		ldr	r2, [r3, #12]
 985 009a 8A43     		bics	r2, r1
 986 009c DA60     		str	r2, [r3, #12]
 987 009e 9A68     		ldr	r2, [r3, #8]
 988 00a0 2023     		movs	r3, #32
 989 00a2 1500     		movs	r5, r2
 990 00a4 1D40     		ands	r5, r3
 991 00a6 1A42     		tst	r2, r3
 992 00a8 0CD1     		bne	.L129
 993 00aa 2000     		movs	r0, r4
 994 00ac FFF7FEFF 		bl	HAL_RTC_WaitForSynchro
 995 00b0 0028     		cmp	r0, #0
 996 00b2 07D0     		beq	.L129
 997 00b4 FF22     		movs	r2, #255
 998 00b6 2368     		ldr	r3, [r4]
 999 00b8 5A62     		str	r2, [r3, #36]
 1000 00ba 0423     		movs	r3, #4
 1001 00bc 019A     		ldr	r2, [sp, #4]
 1002 00be D377     		strb	r3, [r2, #31]
 1003 00c0 FD77     		strb	r5, [r7, #31]
 1004 00c2 CBE7     		b	.L128
 1005              	.L129:
 1006 00c4 FF22     		movs	r2, #255
ARM GAS  /tmp/cc24cTJz.s 			page 18


 1007 00c6 2368     		ldr	r3, [r4]
 1008 00c8 5A62     		str	r2, [r3, #36]
 1009 00ca 0123     		movs	r3, #1
 1010 00cc 019A     		ldr	r2, [sp, #4]
 1011 00ce D377     		strb	r3, [r2, #31]
 1012 00d0 0023     		movs	r3, #0
 1013 00d2 FB77     		strb	r3, [r7, #31]
 1014 00d4 C3E7     		b	.L123
 1015              	.L139:
 1016 00d6 C046     		.align	2
 1017              	.L138:
 1018 00d8 3FFFFF00 		.word	16777023
 1020              		.section	.text.HAL_RTC_SetAlarm,"ax",%progbits
 1021              		.align	1
 1022              		.global	HAL_RTC_SetAlarm
 1023              		.syntax unified
 1024              		.code	16
 1025              		.thumb_func
 1027              	HAL_RTC_SetAlarm:
 1028              		@ args = 0, pretend = 0, frame = 8
 1029              		@ frame_needed = 0, uses_anonymous_args = 0
 1030 0000 0223     		movs	r3, #2
 1031 0002 F7B5     		push	{r0, r1, r2, r4, r5, r6, r7, lr}
 1032 0004 0D00     		movs	r5, r1
 1033 0006 411C     		adds	r1, r0, #1
 1034 0008 CE7F     		ldrb	r6, [r1, #31]
 1035 000a 0400     		movs	r4, r0
 1036 000c 1800     		movs	r0, r3
 1037 000e 012E     		cmp	r6, #1
 1038 0010 00D1     		bne	.LCB1121
 1039 0012 85E0     		b	.L141	@long jump
 1040              	.LCB1121:
 1041 0014 0138     		subs	r0, r0, #1
 1042 0016 C877     		strb	r0, [r1, #31]
 1043 0018 E118     		adds	r1, r4, r3
 1044 001a CB77     		strb	r3, [r1, #31]
 1045 001c 6978     		ldrb	r1, [r5, #1]
 1046 001e 2668     		ldr	r6, [r4]
 1047 0020 0091     		str	r1, [sp]
 1048 0022 2878     		ldrb	r0, [r5]
 1049 0024 AF78     		ldrb	r7, [r5, #2]
 1050 0026 3E33     		adds	r3, r3, #62
 1051 0028 002A     		cmp	r2, #0
 1052 002a 53D1     		bne	.L142
 1053 002c B268     		ldr	r2, [r6, #8]
 1054 002e 1100     		movs	r1, r2
 1055 0030 1940     		ands	r1, r3
 1056 0032 1A42     		tst	r2, r3
 1057 0034 00D1     		bne	.L143
 1058 0036 E970     		strb	r1, [r5, #3]
 1059              	.L143:
 1060 0038 FFF7FEFF 		bl	RTC_ByteToBcd2
 1061 003c 0190     		str	r0, [sp, #4]
 1062 003e 0098     		ldr	r0, [sp]
 1063 0040 FFF7FEFF 		bl	RTC_ByteToBcd2
 1064 0044 0090     		str	r0, [sp]
 1065 0046 3800     		movs	r0, r7
ARM GAS  /tmp/cc24cTJz.s 			page 19


 1066 0048 FFF7FEFF 		bl	RTC_ByteToBcd2
 1067 004c 0700     		movs	r7, r0
 1068 004e 6B1C     		adds	r3, r5, #1
 1069 0050 D87F     		ldrb	r0, [r3, #31]
 1070 0052 FFF7FEFF 		bl	RTC_ByteToBcd2
 1071 0056 6A69     		ldr	r2, [r5, #20]
 1072 0058 EB69     		ldr	r3, [r5, #28]
 1073 005a 0006     		lsls	r0, r0, #24
 1074 005c 1343     		orrs	r3, r2
 1075 005e EA78     		ldrb	r2, [r5, #3]
 1076 0060 1204     		lsls	r2, r2, #16
 1077 0062 1343     		orrs	r3, r2
 1078 0064 1F43     		orrs	r7, r3
 1079 0066 019B     		ldr	r3, [sp, #4]
 1080 0068 1B04     		lsls	r3, r3, #16
 1081 006a 1F43     		orrs	r7, r3
 1082 006c 009B     		ldr	r3, [sp]
 1083 006e 1B02     		lsls	r3, r3, #8
 1084 0070 1F43     		orrs	r7, r3
 1085 0072 0743     		orrs	r7, r0
 1086              	.L144:
 1087 0074 AB69     		ldr	r3, [r5, #24]
 1088 0076 6A68     		ldr	r2, [r5, #4]
 1089 0078 1A43     		orrs	r2, r3
 1090 007a CA23     		movs	r3, #202
 1091 007c 0092     		str	r2, [sp]
 1092 007e 7362     		str	r3, [r6, #36]
 1093 0080 6A6A     		ldr	r2, [r5, #36]
 1094 0082 773B     		subs	r3, r3, #119
 1095 0084 7362     		str	r3, [r6, #36]
 1096 0086 AD33     		adds	r3, r3, #173
 1097 0088 9A42     		cmp	r2, r3
 1098 008a 4AD1     		bne	.L146
 1099 008c B368     		ldr	r3, [r6, #8]
 1100 008e 344A     		ldr	r2, .L158
 1101 0090 FA25     		movs	r5, #250
 1102 0092 1340     		ands	r3, r2
 1103 0094 B360     		str	r3, [r6, #8]
 1104 0096 B368     		ldr	r3, [r6, #8]
 1105 0098 324A     		ldr	r2, .L158+4
 1106 009a AD00     		lsls	r5, r5, #2
 1107 009c 1340     		ands	r3, r2
 1108 009e B360     		str	r3, [r6, #8]
 1109 00a0 FFF7FEFF 		bl	HAL_GetTick
 1110 00a4 0600     		movs	r6, r0
 1111              	.L147:
 1112 00a6 0121     		movs	r1, #1
 1113 00a8 2368     		ldr	r3, [r4]
 1114 00aa DA68     		ldr	r2, [r3, #12]
 1115 00ac 0A42     		tst	r2, r1
 1116 00ae 28D0     		beq	.L149
 1117 00b0 009A     		ldr	r2, [sp]
 1118 00b2 DF61     		str	r7, [r3, #28]
 1119 00b4 5A64     		str	r2, [r3, #68]
 1120 00b6 8022     		movs	r2, #128
 1121 00b8 9968     		ldr	r1, [r3, #8]
 1122 00ba 5200     		lsls	r2, r2, #1
ARM GAS  /tmp/cc24cTJz.s 			page 20


 1123              	.L157:
 1124 00bc 0A43     		orrs	r2, r1
 1125 00be 9A60     		str	r2, [r3, #8]
 1126 00c0 FF22     		movs	r2, #255
 1127 00c2 0020     		movs	r0, #0
 1128 00c4 2368     		ldr	r3, [r4]
 1129 00c6 5A62     		str	r2, [r3, #36]
 1130 00c8 FE3A     		subs	r2, r2, #254
 1131 00ca A31C     		adds	r3, r4, #2
 1132 00cc A418     		adds	r4, r4, r2
 1133 00ce DA77     		strb	r2, [r3, #31]
 1134 00d0 E077     		strb	r0, [r4, #31]
 1135 00d2 25E0     		b	.L141
 1136              	.L142:
 1137 00d4 B268     		ldr	r2, [r6, #8]
 1138 00d6 1100     		movs	r1, r2
 1139 00d8 1940     		ands	r1, r3
 1140 00da 1A42     		tst	r2, r3
 1141 00dc 00D1     		bne	.L145
 1142 00de E970     		strb	r1, [r5, #3]
 1143              	.L145:
 1144 00e0 EB69     		ldr	r3, [r5, #28]
 1145 00e2 6A69     		ldr	r2, [r5, #20]
 1146 00e4 0004     		lsls	r0, r0, #16
 1147 00e6 1343     		orrs	r3, r2
 1148 00e8 1F43     		orrs	r7, r3
 1149 00ea 009B     		ldr	r3, [sp]
 1150 00ec 0743     		orrs	r7, r0
 1151 00ee 1B02     		lsls	r3, r3, #8
 1152 00f0 1F43     		orrs	r7, r3
 1153 00f2 EB78     		ldrb	r3, [r5, #3]
 1154 00f4 1B04     		lsls	r3, r3, #16
 1155 00f6 1F43     		orrs	r7, r3
 1156 00f8 6B1C     		adds	r3, r5, #1
 1157 00fa DB7F     		ldrb	r3, [r3, #31]
 1158 00fc 1B06     		lsls	r3, r3, #24
 1159 00fe 1F43     		orrs	r7, r3
 1160 0100 B8E7     		b	.L144
 1161              	.L149:
 1162 0102 FFF7FEFF 		bl	HAL_GetTick
 1163 0106 801B     		subs	r0, r0, r6
 1164 0108 A842     		cmp	r0, r5
 1165 010a CCD9     		bls	.L147
 1166              	.L156:
 1167 010c FF22     		movs	r2, #255
 1168 010e 2368     		ldr	r3, [r4]
 1169 0110 0320     		movs	r0, #3
 1170 0112 5A62     		str	r2, [r3, #36]
 1171 0114 A31C     		adds	r3, r4, #2
 1172 0116 FC3A     		subs	r2, r2, #252
 1173 0118 DA77     		strb	r2, [r3, #31]
 1174 011a 0023     		movs	r3, #0
 1175 011c 0134     		adds	r4, r4, #1
 1176 011e E377     		strb	r3, [r4, #31]
 1177              	.L141:
 1178              		@ sp needed
 1179 0120 FEBD     		pop	{r1, r2, r3, r4, r5, r6, r7, pc}
ARM GAS  /tmp/cc24cTJz.s 			page 21


 1180              	.L146:
 1181 0122 B368     		ldr	r3, [r6, #8]
 1182 0124 104A     		ldr	r2, .L158+8
 1183 0126 FA25     		movs	r5, #250
 1184 0128 1340     		ands	r3, r2
 1185 012a B360     		str	r3, [r6, #8]
 1186 012c B368     		ldr	r3, [r6, #8]
 1187 012e 0F4A     		ldr	r2, .L158+12
 1188 0130 AD00     		lsls	r5, r5, #2
 1189 0132 1340     		ands	r3, r2
 1190 0134 B360     		str	r3, [r6, #8]
 1191 0136 FFF7FEFF 		bl	HAL_GetTick
 1192 013a 0600     		movs	r6, r0
 1193              	.L151:
 1194 013c 0221     		movs	r1, #2
 1195 013e 2368     		ldr	r3, [r4]
 1196 0140 DA68     		ldr	r2, [r3, #12]
 1197 0142 0A42     		tst	r2, r1
 1198 0144 06D0     		beq	.L152
 1199 0146 009A     		ldr	r2, [sp]
 1200 0148 1F62     		str	r7, [r3, #32]
 1201 014a 9A64     		str	r2, [r3, #72]
 1202 014c 8022     		movs	r2, #128
 1203 014e 9968     		ldr	r1, [r3, #8]
 1204 0150 9200     		lsls	r2, r2, #2
 1205 0152 B3E7     		b	.L157
 1206              	.L152:
 1207 0154 FFF7FEFF 		bl	HAL_GetTick
 1208 0158 801B     		subs	r0, r0, r6
 1209 015a A842     		cmp	r0, r5
 1210 015c EED9     		bls	.L151
 1211 015e D5E7     		b	.L156
 1212              	.L159:
 1213              		.align	2
 1214              	.L158:
 1215 0160 FFFEFFFF 		.word	-257
 1216 0164 FFEFFFFF 		.word	-4097
 1217 0168 FFFDFFFF 		.word	-513
 1218 016c FFDFFFFF 		.word	-8193
 1220              		.section	.text.HAL_RTC_SetAlarm_IT,"ax",%progbits
 1221              		.align	1
 1222              		.global	HAL_RTC_SetAlarm_IT
 1223              		.syntax unified
 1224              		.code	16
 1225              		.thumb_func
 1227              	HAL_RTC_SetAlarm_IT:
 1228              		@ args = 0, pretend = 0, frame = 8
 1229              		@ frame_needed = 0, uses_anonymous_args = 0
 1230 0000 0223     		movs	r3, #2
 1231 0002 F7B5     		push	{r0, r1, r2, r4, r5, r6, r7, lr}
 1232 0004 0D00     		movs	r5, r1
 1233 0006 411C     		adds	r1, r0, #1
 1234 0008 CE7F     		ldrb	r6, [r1, #31]
 1235 000a 0400     		movs	r4, r0
 1236 000c 1800     		movs	r0, r3
 1237 000e 012E     		cmp	r6, #1
 1238 0010 00D1     		bne	.LCB1344
ARM GAS  /tmp/cc24cTJz.s 			page 22


 1239 0012 94E0     		b	.L161	@long jump
 1240              	.LCB1344:
 1241 0014 0138     		subs	r0, r0, #1
 1242 0016 C877     		strb	r0, [r1, #31]
 1243 0018 E118     		adds	r1, r4, r3
 1244 001a CB77     		strb	r3, [r1, #31]
 1245 001c 6978     		ldrb	r1, [r5, #1]
 1246 001e 2668     		ldr	r6, [r4]
 1247 0020 0091     		str	r1, [sp]
 1248 0022 2878     		ldrb	r0, [r5]
 1249 0024 AF78     		ldrb	r7, [r5, #2]
 1250 0026 3E33     		adds	r3, r3, #62
 1251 0028 002A     		cmp	r2, #0
 1252 002a 62D1     		bne	.L162
 1253 002c B268     		ldr	r2, [r6, #8]
 1254 002e 1100     		movs	r1, r2
 1255 0030 1940     		ands	r1, r3
 1256 0032 1A42     		tst	r2, r3
 1257 0034 00D1     		bne	.L163
 1258 0036 E970     		strb	r1, [r5, #3]
 1259              	.L163:
 1260 0038 FFF7FEFF 		bl	RTC_ByteToBcd2
 1261 003c 0190     		str	r0, [sp, #4]
 1262 003e 0098     		ldr	r0, [sp]
 1263 0040 FFF7FEFF 		bl	RTC_ByteToBcd2
 1264 0044 0090     		str	r0, [sp]
 1265 0046 3800     		movs	r0, r7
 1266 0048 FFF7FEFF 		bl	RTC_ByteToBcd2
 1267 004c 0700     		movs	r7, r0
 1268 004e 6B1C     		adds	r3, r5, #1
 1269 0050 D87F     		ldrb	r0, [r3, #31]
 1270 0052 FFF7FEFF 		bl	RTC_ByteToBcd2
 1271 0056 6A69     		ldr	r2, [r5, #20]
 1272 0058 EB69     		ldr	r3, [r5, #28]
 1273 005a 0006     		lsls	r0, r0, #24
 1274 005c 1343     		orrs	r3, r2
 1275 005e EA78     		ldrb	r2, [r5, #3]
 1276 0060 1204     		lsls	r2, r2, #16
 1277 0062 1343     		orrs	r3, r2
 1278 0064 1F43     		orrs	r7, r3
 1279 0066 019B     		ldr	r3, [sp, #4]
 1280 0068 1B04     		lsls	r3, r3, #16
 1281 006a 1F43     		orrs	r7, r3
 1282 006c 009B     		ldr	r3, [sp]
 1283 006e 1B02     		lsls	r3, r3, #8
 1284 0070 1F43     		orrs	r7, r3
 1285 0072 0743     		orrs	r7, r0
 1286              	.L164:
 1287 0074 AB69     		ldr	r3, [r5, #24]
 1288 0076 6A68     		ldr	r2, [r5, #4]
 1289 0078 1A43     		orrs	r2, r3
 1290 007a CA23     		movs	r3, #202
 1291 007c 0092     		str	r2, [sp]
 1292 007e 7362     		str	r3, [r6, #36]
 1293 0080 6A6A     		ldr	r2, [r5, #36]
 1294 0082 773B     		subs	r3, r3, #119
 1295 0084 7362     		str	r3, [r6, #36]
ARM GAS  /tmp/cc24cTJz.s 			page 23


 1296 0086 AD33     		adds	r3, r3, #173
 1297 0088 9A42     		cmp	r2, r3
 1298 008a 59D1     		bne	.L166
 1299 008c B368     		ldr	r3, [r6, #8]
 1300 008e 3F4A     		ldr	r2, .L178
 1301 0090 FA25     		movs	r5, #250
 1302 0092 1340     		ands	r3, r2
 1303 0094 B360     		str	r3, [r6, #8]
 1304 0096 F268     		ldr	r2, [r6, #12]
 1305 0098 3D4B     		ldr	r3, .L178+4
 1306 009a D2B2     		uxtb	r2, r2
 1307 009c 1343     		orrs	r3, r2
 1308 009e F360     		str	r3, [r6, #12]
 1309 00a0 FFF7FEFF 		bl	HAL_GetTick
 1310 00a4 0600     		movs	r6, r0
 1311 00a6 AD00     		lsls	r5, r5, #2
 1312              	.L167:
 1313 00a8 0121     		movs	r1, #1
 1314 00aa 2368     		ldr	r3, [r4]
 1315 00ac DA68     		ldr	r2, [r3, #12]
 1316 00ae 0A42     		tst	r2, r1
 1317 00b0 36D0     		beq	.L169
 1318 00b2 009A     		ldr	r2, [sp]
 1319 00b4 DF61     		str	r7, [r3, #28]
 1320 00b6 5A64     		str	r2, [r3, #68]
 1321 00b8 8022     		movs	r2, #128
 1322 00ba 9968     		ldr	r1, [r3, #8]
 1323 00bc 5200     		lsls	r2, r2, #1
 1324 00be 0A43     		orrs	r2, r1
 1325 00c0 9A60     		str	r2, [r3, #8]
 1326 00c2 8022     		movs	r2, #128
 1327 00c4 9968     		ldr	r1, [r3, #8]
 1328 00c6 5201     		lsls	r2, r2, #5
 1329              	.L177:
 1330 00c8 0A43     		orrs	r2, r1
 1331 00ca 9A60     		str	r2, [r3, #8]
 1332 00cc 8022     		movs	r2, #128
 1333 00ce 314B     		ldr	r3, .L178+8
 1334 00d0 9202     		lsls	r2, r2, #10
 1335 00d2 1968     		ldr	r1, [r3]
 1336 00d4 0020     		movs	r0, #0
 1337 00d6 1143     		orrs	r1, r2
 1338 00d8 1960     		str	r1, [r3]
 1339 00da 9968     		ldr	r1, [r3, #8]
 1340 00dc 0A43     		orrs	r2, r1
 1341 00de 9A60     		str	r2, [r3, #8]
 1342 00e0 FF22     		movs	r2, #255
 1343 00e2 2368     		ldr	r3, [r4]
 1344 00e4 5A62     		str	r2, [r3, #36]
 1345 00e6 FE3A     		subs	r2, r2, #254
 1346 00e8 A31C     		adds	r3, r4, #2
 1347 00ea A418     		adds	r4, r4, r2
 1348 00ec DA77     		strb	r2, [r3, #31]
 1349 00ee E077     		strb	r0, [r4, #31]
 1350 00f0 25E0     		b	.L161
 1351              	.L162:
 1352 00f2 B268     		ldr	r2, [r6, #8]
ARM GAS  /tmp/cc24cTJz.s 			page 24


 1353 00f4 1100     		movs	r1, r2
 1354 00f6 1940     		ands	r1, r3
 1355 00f8 1A42     		tst	r2, r3
 1356 00fa 00D1     		bne	.L165
 1357 00fc E970     		strb	r1, [r5, #3]
 1358              	.L165:
 1359 00fe EB69     		ldr	r3, [r5, #28]
 1360 0100 6A69     		ldr	r2, [r5, #20]
 1361 0102 0004     		lsls	r0, r0, #16
 1362 0104 1343     		orrs	r3, r2
 1363 0106 1F43     		orrs	r7, r3
 1364 0108 009B     		ldr	r3, [sp]
 1365 010a 0743     		orrs	r7, r0
 1366 010c 1B02     		lsls	r3, r3, #8
 1367 010e 1F43     		orrs	r7, r3
 1368 0110 EB78     		ldrb	r3, [r5, #3]
 1369 0112 1B04     		lsls	r3, r3, #16
 1370 0114 1F43     		orrs	r7, r3
 1371 0116 6B1C     		adds	r3, r5, #1
 1372 0118 DB7F     		ldrb	r3, [r3, #31]
 1373 011a 1B06     		lsls	r3, r3, #24
 1374 011c 1F43     		orrs	r7, r3
 1375 011e A9E7     		b	.L164
 1376              	.L169:
 1377 0120 FFF7FEFF 		bl	HAL_GetTick
 1378 0124 801B     		subs	r0, r0, r6
 1379 0126 A842     		cmp	r0, r5
 1380 0128 BED9     		bls	.L167
 1381              	.L176:
 1382 012a FF22     		movs	r2, #255
 1383 012c 2368     		ldr	r3, [r4]
 1384 012e 0320     		movs	r0, #3
 1385 0130 5A62     		str	r2, [r3, #36]
 1386 0132 A31C     		adds	r3, r4, #2
 1387 0134 FC3A     		subs	r2, r2, #252
 1388 0136 DA77     		strb	r2, [r3, #31]
 1389 0138 0023     		movs	r3, #0
 1390 013a 0134     		adds	r4, r4, #1
 1391 013c E377     		strb	r3, [r4, #31]
 1392              	.L161:
 1393              		@ sp needed
 1394 013e FEBD     		pop	{r1, r2, r3, r4, r5, r6, r7, pc}
 1395              	.L166:
 1396 0140 B368     		ldr	r3, [r6, #8]
 1397 0142 154A     		ldr	r2, .L178+12
 1398 0144 FA25     		movs	r5, #250
 1399 0146 1340     		ands	r3, r2
 1400 0148 B360     		str	r3, [r6, #8]
 1401 014a F268     		ldr	r2, [r6, #12]
 1402 014c 134B     		ldr	r3, .L178+16
 1403 014e D2B2     		uxtb	r2, r2
 1404 0150 1343     		orrs	r3, r2
 1405 0152 F360     		str	r3, [r6, #12]
 1406 0154 FFF7FEFF 		bl	HAL_GetTick
 1407 0158 0600     		movs	r6, r0
 1408 015a AD00     		lsls	r5, r5, #2
 1409              	.L171:
ARM GAS  /tmp/cc24cTJz.s 			page 25


 1410 015c 0221     		movs	r1, #2
 1411 015e 2368     		ldr	r3, [r4]
 1412 0160 DA68     		ldr	r2, [r3, #12]
 1413 0162 0A42     		tst	r2, r1
 1414 0164 0BD0     		beq	.L172
 1415 0166 009A     		ldr	r2, [sp]
 1416 0168 1F62     		str	r7, [r3, #32]
 1417 016a 9A64     		str	r2, [r3, #72]
 1418 016c 8022     		movs	r2, #128
 1419 016e 9968     		ldr	r1, [r3, #8]
 1420 0170 9200     		lsls	r2, r2, #2
 1421 0172 0A43     		orrs	r2, r1
 1422 0174 9A60     		str	r2, [r3, #8]
 1423 0176 8022     		movs	r2, #128
 1424 0178 9968     		ldr	r1, [r3, #8]
 1425 017a 9201     		lsls	r2, r2, #6
 1426 017c A4E7     		b	.L177
 1427              	.L172:
 1428 017e FFF7FEFF 		bl	HAL_GetTick
 1429 0182 801B     		subs	r0, r0, r6
 1430 0184 A842     		cmp	r0, r5
 1431 0186 E9D9     		bls	.L171
 1432 0188 CFE7     		b	.L176
 1433              	.L179:
 1434 018a C046     		.align	2
 1435              	.L178:
 1436 018c FFFEFFFF 		.word	-257
 1437 0190 7FFEFFFF 		.word	-385
 1438 0194 00040140 		.word	1073808384
 1439 0198 FFFDFFFF 		.word	-513
 1440 019c 7FFDFFFF 		.word	-641
 1442              		.section	.text.RTC_Bcd2ToByte,"ax",%progbits
 1443              		.align	1
 1444              		.global	RTC_Bcd2ToByte
 1445              		.syntax unified
 1446              		.code	16
 1447              		.thumb_func
 1449              	RTC_Bcd2ToByte:
 1450              		@ args = 0, pretend = 0, frame = 0
 1451              		@ frame_needed = 0, uses_anonymous_args = 0
 1452              		@ link register save eliminated.
 1453 0000 0309     		lsrs	r3, r0, #4
 1454 0002 0200     		movs	r2, r0
 1455              		@ sp needed
 1456 0004 0A20     		movs	r0, #10
 1457 0006 0F21     		movs	r1, #15
 1458 0008 5843     		muls	r0, r3
 1459 000a 0A40     		ands	r2, r1
 1460 000c 8018     		adds	r0, r0, r2
 1461 000e C0B2     		uxtb	r0, r0
 1462 0010 7047     		bx	lr
 1464              		.section	.text.HAL_RTC_GetTime,"ax",%progbits
 1465              		.align	1
 1466              		.global	HAL_RTC_GetTime
 1467              		.syntax unified
 1468              		.code	16
 1469              		.thumb_func
ARM GAS  /tmp/cc24cTJz.s 			page 26


 1471              	HAL_RTC_GetTime:
 1472              		@ args = 0, pretend = 0, frame = 8
 1473              		@ frame_needed = 0, uses_anonymous_args = 0
 1474 0000 F7B5     		push	{r0, r1, r2, r4, r5, r6, r7, lr}
 1475 0002 0C00     		movs	r4, r1
 1476 0004 0168     		ldr	r1, [r0]
 1477 0006 3F20     		movs	r0, #63
 1478 0008 8B6A     		ldr	r3, [r1, #40]
 1479 000a 6360     		str	r3, [r4, #4]
 1480 000c 0B69     		ldr	r3, [r1, #16]
 1481 000e 0D68     		ldr	r5, [r1]
 1482 0010 5B04     		lsls	r3, r3, #17
 1483 0012 5B0C     		lsrs	r3, r3, #17
 1484 0014 A360     		str	r3, [r4, #8]
 1485 0016 104B     		ldr	r3, .L183
 1486 0018 1D40     		ands	r5, r3
 1487 001a 2E0A     		lsrs	r6, r5, #8
 1488 001c 290C     		lsrs	r1, r5, #16
 1489 001e F6B2     		uxtb	r6, r6
 1490 0020 0840     		ands	r0, r1
 1491 0022 3302     		lsls	r3, r6, #8
 1492 0024 0343     		orrs	r3, r0
 1493 0026 0193     		str	r3, [sp, #4]
 1494 0028 4023     		movs	r3, #64
 1495 002a EDB2     		uxtb	r5, r5
 1496 002c 1940     		ands	r1, r3
 1497 002e 019B     		ldr	r3, [sp, #4]
 1498 0030 2F04     		lsls	r7, r5, #16
 1499 0032 0906     		lsls	r1, r1, #24
 1500 0034 3B43     		orrs	r3, r7
 1501 0036 0B43     		orrs	r3, r1
 1502 0038 2360     		str	r3, [r4]
 1503 003a 002A     		cmp	r2, #0
 1504 003c 0AD1     		bne	.L182
 1505 003e FFF7FEFF 		bl	RTC_Bcd2ToByte
 1506 0042 2070     		strb	r0, [r4]
 1507 0044 3000     		movs	r0, r6
 1508 0046 FFF7FEFF 		bl	RTC_Bcd2ToByte
 1509 004a 6070     		strb	r0, [r4, #1]
 1510 004c 2800     		movs	r0, r5
 1511 004e FFF7FEFF 		bl	RTC_Bcd2ToByte
 1512 0052 A070     		strb	r0, [r4, #2]
 1513              	.L182:
 1514 0054 0020     		movs	r0, #0
 1515              		@ sp needed
 1516 0056 FEBD     		pop	{r1, r2, r3, r4, r5, r6, r7, pc}
 1517              	.L184:
 1518              		.align	2
 1519              	.L183:
 1520 0058 7F7F7F00 		.word	8355711
 1522              		.section	.text.HAL_RTC_GetDate,"ax",%progbits
 1523              		.align	1
 1524              		.global	HAL_RTC_GetDate
 1525              		.syntax unified
 1526              		.code	16
 1527              		.thumb_func
 1529              	HAL_RTC_GetDate:
ARM GAS  /tmp/cc24cTJz.s 			page 27


 1530              		@ args = 0, pretend = 0, frame = 0
 1531              		@ frame_needed = 0, uses_anonymous_args = 0
 1532 0000 70B5     		push	{r4, r5, r6, lr}
 1533 0002 0C00     		movs	r4, r1
 1534 0004 0368     		ldr	r3, [r0]
 1535 0006 0E49     		ldr	r1, .L187
 1536 0008 5B68     		ldr	r3, [r3, #4]
 1537 000a 0B40     		ands	r3, r1
 1538 000c 180C     		lsrs	r0, r3, #16
 1539 000e DD04     		lsls	r5, r3, #19
 1540 0010 DEB2     		uxtb	r6, r3
 1541 0012 1B04     		lsls	r3, r3, #16
 1542 0014 ED0E     		lsrs	r5, r5, #27
 1543 0016 5B0F     		lsrs	r3, r3, #29
 1544 0018 E070     		strb	r0, [r4, #3]
 1545 001a 6570     		strb	r5, [r4, #1]
 1546 001c A670     		strb	r6, [r4, #2]
 1547 001e 2370     		strb	r3, [r4]
 1548 0020 002A     		cmp	r2, #0
 1549 0022 0AD1     		bne	.L186
 1550 0024 FFF7FEFF 		bl	RTC_Bcd2ToByte
 1551 0028 E070     		strb	r0, [r4, #3]
 1552 002a 2800     		movs	r0, r5
 1553 002c FFF7FEFF 		bl	RTC_Bcd2ToByte
 1554 0030 6070     		strb	r0, [r4, #1]
 1555 0032 3000     		movs	r0, r6
 1556 0034 FFF7FEFF 		bl	RTC_Bcd2ToByte
 1557 0038 A070     		strb	r0, [r4, #2]
 1558              	.L186:
 1559 003a 0020     		movs	r0, #0
 1560              		@ sp needed
 1561 003c 70BD     		pop	{r4, r5, r6, pc}
 1562              	.L188:
 1563 003e C046     		.align	2
 1564              	.L187:
 1565 0040 3FFFFF00 		.word	16777023
 1567              		.section	.text.HAL_RTC_GetAlarm,"ax",%progbits
 1568              		.align	1
 1569              		.global	HAL_RTC_GetAlarm
 1570              		.syntax unified
 1571              		.code	16
 1572              		.thumb_func
 1574              	HAL_RTC_GetAlarm:
 1575              		@ args = 0, pretend = 0, frame = 8
 1576              		@ frame_needed = 0, uses_anonymous_args = 0
 1577 0000 F7B5     		push	{r0, r1, r2, r4, r5, r6, r7, lr}
 1578 0002 0C00     		movs	r4, r1
 1579 0004 8021     		movs	r1, #128
 1580 0006 0193     		str	r3, [sp, #4]
 1581 0008 0668     		ldr	r6, [r0]
 1582 000a 234B     		ldr	r3, .L194
 1583 000c 234D     		ldr	r5, .L194+4
 1584 000e 244F     		ldr	r7, .L194+8
 1585 0010 4900     		lsls	r1, r1, #1
 1586 0012 8A42     		cmp	r2, r1
 1587 0014 39D1     		bne	.L190
 1588 0016 F169     		ldr	r1, [r6, #28]
ARM GAS  /tmp/cc24cTJz.s 			page 28


 1589 0018 6262     		str	r2, [r4, #36]
 1590 001a 726C     		ldr	r2, [r6, #68]
 1591              	.L193:
 1592 001c 080A     		lsrs	r0, r1, #8
 1593 001e 0E0C     		lsrs	r6, r1, #16
 1594 0020 C0B2     		uxtb	r0, r0
 1595 0022 0002     		lsls	r0, r0, #8
 1596 0024 3340     		ands	r3, r6
 1597 0026 0343     		orrs	r3, r0
 1598 0028 C8B2     		uxtb	r0, r1
 1599 002a 0004     		lsls	r0, r0, #16
 1600 002c 8446     		mov	ip, r0
 1601 002e 1D48     		ldr	r0, .L194+12
 1602 0030 5204     		lsls	r2, r2, #17
 1603 0032 0340     		ands	r3, r0
 1604 0034 6046     		mov	r0, ip
 1605 0036 0343     		orrs	r3, r0
 1606 0038 3006     		lsls	r0, r6, #24
 1607 003a 1E02     		lsls	r6, r3, #8
 1608 003c 8023     		movs	r3, #128
 1609 003e 360A     		lsrs	r6, r6, #8
 1610 0040 0643     		orrs	r6, r0
 1611 0042 3540     		ands	r5, r6
 1612 0044 DB05     		lsls	r3, r3, #23
 1613 0046 8E00     		lsls	r6, r1, #2
 1614 0048 0B40     		ands	r3, r1
 1615 004a 520C     		lsrs	r2, r2, #17
 1616 004c 3940     		ands	r1, r7
 1617 004e B60E     		lsrs	r6, r6, #26
 1618 0050 671C     		adds	r7, r4, #1
 1619 0052 2560     		str	r5, [r4]
 1620 0054 6260     		str	r2, [r4, #4]
 1621 0056 FE77     		strb	r6, [r7, #31]
 1622 0058 E361     		str	r3, [r4, #28]
 1623 005a 019B     		ldr	r3, [sp, #4]
 1624 005c 6161     		str	r1, [r4, #20]
 1625 005e 002B     		cmp	r3, #0
 1626 0060 11D1     		bne	.L192
 1627 0062 E8B2     		uxtb	r0, r5
 1628 0064 FFF7FEFF 		bl	RTC_Bcd2ToByte
 1629 0068 2070     		strb	r0, [r4]
 1630 006a 2804     		lsls	r0, r5, #16
 1631 006c 000E     		lsrs	r0, r0, #24
 1632 006e FFF7FEFF 		bl	RTC_Bcd2ToByte
 1633 0072 6070     		strb	r0, [r4, #1]
 1634 0074 2802     		lsls	r0, r5, #8
 1635 0076 000E     		lsrs	r0, r0, #24
 1636 0078 FFF7FEFF 		bl	RTC_Bcd2ToByte
 1637 007c A070     		strb	r0, [r4, #2]
 1638 007e 3000     		movs	r0, r6
 1639 0080 FFF7FEFF 		bl	RTC_Bcd2ToByte
 1640 0084 F877     		strb	r0, [r7, #31]
 1641              	.L192:
 1642 0086 0020     		movs	r0, #0
 1643              		@ sp needed
 1644 0088 FEBD     		pop	{r1, r2, r3, r4, r5, r6, r7, pc}
 1645              	.L190:
ARM GAS  /tmp/cc24cTJz.s 			page 29


 1646 008a 8022     		movs	r2, #128
 1647 008c 9200     		lsls	r2, r2, #2
 1648 008e 316A     		ldr	r1, [r6, #32]
 1649 0090 6262     		str	r2, [r4, #36]
 1650 0092 B26C     		ldr	r2, [r6, #72]
 1651 0094 C2E7     		b	.L193
 1652              	.L195:
 1653 0096 C046     		.align	2
 1654              	.L194:
 1655 0098 FF00FFFF 		.word	-65281
 1656 009c 3F7F7F40 		.word	1082097471
 1657 00a0 80808080 		.word	-2139062144
 1658 00a4 FFFF00FF 		.word	-16711681
 1660              		.ident	"GCC: (Arch Repository) 13.2.0"
ARM GAS  /tmp/cc24cTJz.s 			page 30

