ARM GAS  /tmp/ccKc3TVs.s 			page 1


   1              		.cpu cortex-m0
   2              		.arch armv6s-m
   3              		.fpu softvfp
   4              		.eabi_attribute 23, 1
   5              		.eabi_attribute 24, 1
   6              		.eabi_attribute 25, 1
   7              		.eabi_attribute 26, 1
   8              		.eabi_attribute 30, 4
   9              		.eabi_attribute 34, 0
  10              		.eabi_attribute 18, 4
  11              		.file	"stm32l0xx_hal_tim_ex.c"
  12              		.text
  13              		.section	.text.HAL_TIMEx_MasterConfigSynchronization,"ax",%progbits
  14              		.align	1
  15              		.global	HAL_TIMEx_MasterConfigSynchronization
  16              		.syntax unified
  17              		.code	16
  18              		.thumb_func
  20              	HAL_TIMEx_MasterConfigSynchronization:
  21              		@ args = 0, pretend = 0, frame = 0
  22              		@ frame_needed = 0, uses_anonymous_args = 0
  23 0000 70B5     		push	{r4, r5, r6, lr}
  24 0002 0400     		movs	r4, r0
  25 0004 0222     		movs	r2, #2
  26 0006 3834     		adds	r4, r4, #56
  27 0008 2578     		ldrb	r5, [r4]
  28 000a 0300     		movs	r3, r0
  29 000c 1000     		movs	r0, r2
  30 000e 012D     		cmp	r5, #1
  31 0010 20D0     		beq	.L2
  32 0012 1D00     		movs	r5, r3
  33 0014 7026     		movs	r6, #112
  34 0016 3935     		adds	r5, r5, #57
  35 0018 2A70     		strb	r2, [r5]
  36 001a 1B68     		ldr	r3, [r3]
  37 001c 5868     		ldr	r0, [r3, #4]
  38 001e 9A68     		ldr	r2, [r3, #8]
  39 0020 B043     		bics	r0, r6
  40 0022 0E68     		ldr	r6, [r1]
  41 0024 3043     		orrs	r0, r6
  42 0026 5860     		str	r0, [r3, #4]
  43 0028 8020     		movs	r0, #128
  44 002a C005     		lsls	r0, r0, #23
  45 002c 8342     		cmp	r3, r0
  46 002e 08D0     		beq	.L3
  47 0030 0948     		ldr	r0, .L6
  48 0032 8342     		cmp	r3, r0
  49 0034 05D0     		beq	.L3
  50 0036 0948     		ldr	r0, .L6+4
  51 0038 8342     		cmp	r3, r0
  52 003a 02D0     		beq	.L3
  53 003c 0848     		ldr	r0, .L6+8
  54 003e 8342     		cmp	r3, r0
  55 0040 04D1     		bne	.L4
  56              	.L3:
  57 0042 8020     		movs	r0, #128
  58 0044 4968     		ldr	r1, [r1, #4]
ARM GAS  /tmp/ccKc3TVs.s 			page 2


  59 0046 8243     		bics	r2, r0
  60 0048 0A43     		orrs	r2, r1
  61 004a 9A60     		str	r2, [r3, #8]
  62              	.L4:
  63 004c 0123     		movs	r3, #1
  64 004e 0020     		movs	r0, #0
  65 0050 2B70     		strb	r3, [r5]
  66 0052 2070     		strb	r0, [r4]
  67              	.L2:
  68              		@ sp needed
  69 0054 70BD     		pop	{r4, r5, r6, pc}
  70              	.L7:
  71 0056 C046     		.align	2
  72              	.L6:
  73 0058 00040040 		.word	1073742848
  74 005c 00080140 		.word	1073809408
  75 0060 00140140 		.word	1073812480
  77              		.section	.text.HAL_TIMEx_RemapConfig,"ax",%progbits
  78              		.align	1
  79              		.global	HAL_TIMEx_RemapConfig
  80              		.syntax unified
  81              		.code	16
  82              		.thumb_func
  84              	HAL_TIMEx_RemapConfig:
  85              		@ args = 0, pretend = 0, frame = 0
  86              		@ frame_needed = 0, uses_anonymous_args = 0
  87 0000 0200     		movs	r2, r0
  88 0002 10B5     		push	{r4, lr}
  89 0004 3832     		adds	r2, r2, #56
  90 0006 1478     		ldrb	r4, [r2]
  91 0008 0300     		movs	r3, r0
  92 000a 0220     		movs	r0, #2
  93 000c 012C     		cmp	r4, #1
  94 000e 03D0     		beq	.L9
  95 0010 0020     		movs	r0, #0
  96 0012 1B68     		ldr	r3, [r3]
  97 0014 1965     		str	r1, [r3, #80]
  98 0016 1070     		strb	r0, [r2]
  99              	.L9:
 100              		@ sp needed
 101 0018 10BD     		pop	{r4, pc}
 103              		.ident	"GCC: (Arch Repository) 13.2.0"
ARM GAS  /tmp/ccKc3TVs.s 			page 3


DEFINED SYMBOLS
                            *ABS*:00000000 stm32l0xx_hal_tim_ex.c
     /tmp/ccKc3TVs.s:14     .text.HAL_TIMEx_MasterConfigSynchronization:00000000 $t
     /tmp/ccKc3TVs.s:20     .text.HAL_TIMEx_MasterConfigSynchronization:00000000 HAL_TIMEx_MasterConfigSynchronization
     /tmp/ccKc3TVs.s:73     .text.HAL_TIMEx_MasterConfigSynchronization:00000058 $d
     /tmp/ccKc3TVs.s:78     .text.HAL_TIMEx_RemapConfig:00000000 $t
     /tmp/ccKc3TVs.s:84     .text.HAL_TIMEx_RemapConfig:00000000 HAL_TIMEx_RemapConfig

NO UNDEFINED SYMBOLS
