ARM GAS  /tmp/ccCjdw1k.s 			page 1


   1              		.cpu cortex-m0
   2              		.arch armv6s-m
   3              		.fpu softvfp
   4              		.eabi_attribute 23, 1
   5              		.eabi_attribute 24, 1
   6              		.eabi_attribute 25, 1
   7              		.eabi_attribute 26, 1
   8              		.eabi_attribute 30, 4
   9              		.eabi_attribute 34, 0
  10              		.eabi_attribute 18, 4
  11              		.file	"stm32l0xx_hal_tim.c"
  12              		.text
  13              		.section	.text.TIM_Base_SetConfig,"ax",%progbits
  14              		.align	1
  15              		.syntax unified
  16              		.code	16
  17              		.thumb_func
  19              	TIM_Base_SetConfig:
  20              		@ args = 0, pretend = 0, frame = 0
  21              		@ frame_needed = 0, uses_anonymous_args = 0
  22              		@ link register save eliminated.
  23 0000 8022     		movs	r2, #128
  24 0002 0368     		ldr	r3, [r0]
  25 0004 D205     		lsls	r2, r2, #23
  26 0006 9042     		cmp	r0, r2
  27 0008 08D0     		beq	.L2
  28 000a 0E4A     		ldr	r2, .L4
  29 000c 9042     		cmp	r0, r2
  30 000e 05D0     		beq	.L2
  31 0010 0D4A     		ldr	r2, .L4+4
  32 0012 9042     		cmp	r0, r2
  33 0014 02D0     		beq	.L2
  34 0016 0D4A     		ldr	r2, .L4+8
  35 0018 9042     		cmp	r0, r2
  36 001a 07D1     		bne	.L3
  37              	.L2:
  38 001c 7022     		movs	r2, #112
  39 001e 9343     		bics	r3, r2
  40 0020 4A68     		ldr	r2, [r1, #4]
  41 0022 1343     		orrs	r3, r2
  42 0024 0A4A     		ldr	r2, .L4+12
  43 0026 1340     		ands	r3, r2
  44 0028 CA68     		ldr	r2, [r1, #12]
  45 002a 1343     		orrs	r3, r2
  46              	.L3:
  47 002c 8022     		movs	r2, #128
  48              		@ sp needed
  49 002e 9343     		bics	r3, r2
  50 0030 0A69     		ldr	r2, [r1, #16]
  51 0032 1343     		orrs	r3, r2
  52 0034 0360     		str	r3, [r0]
  53 0036 8B68     		ldr	r3, [r1, #8]
  54 0038 C362     		str	r3, [r0, #44]
  55 003a 0B68     		ldr	r3, [r1]
  56 003c 8362     		str	r3, [r0, #40]
  57 003e 0123     		movs	r3, #1
  58 0040 4361     		str	r3, [r0, #20]
ARM GAS  /tmp/ccCjdw1k.s 			page 2


  59 0042 7047     		bx	lr
  60              	.L5:
  61              		.align	2
  62              	.L4:
  63 0044 00040040 		.word	1073742848
  64 0048 00080140 		.word	1073809408
  65 004c 00140140 		.word	1073812480
  66 0050 FFFCFFFF 		.word	-769
  68              		.section	.text.TIM_OC1_SetConfig,"ax",%progbits
  69              		.align	1
  70              		.syntax unified
  71              		.code	16
  72              		.thumb_func
  74              	TIM_OC1_SetConfig:
  75              		@ args = 0, pretend = 0, frame = 0
  76              		@ frame_needed = 0, uses_anonymous_args = 0
  77 0000 0122     		movs	r2, #1
  78 0002 30B5     		push	{r4, r5, lr}
  79 0004 7325     		movs	r5, #115
  80              		@ sp needed
  81 0006 036A     		ldr	r3, [r0, #32]
  82 0008 9343     		bics	r3, r2
  83 000a 0362     		str	r3, [r0, #32]
  84 000c 036A     		ldr	r3, [r0, #32]
  85 000e 4468     		ldr	r4, [r0, #4]
  86 0010 8269     		ldr	r2, [r0, #24]
  87 0012 AA43     		bics	r2, r5
  88 0014 0D68     		ldr	r5, [r1]
  89 0016 2A43     		orrs	r2, r5
  90 0018 0225     		movs	r5, #2
  91 001a AB43     		bics	r3, r5
  92 001c 8D68     		ldr	r5, [r1, #8]
  93 001e 4460     		str	r4, [r0, #4]
  94 0020 8261     		str	r2, [r0, #24]
  95 0022 4A68     		ldr	r2, [r1, #4]
  96 0024 2B43     		orrs	r3, r5
  97 0026 4263     		str	r2, [r0, #52]
  98 0028 0362     		str	r3, [r0, #32]
  99 002a 30BD     		pop	{r4, r5, pc}
 101              		.section	.text.TIM_OC2_SetConfig,"ax",%progbits
 102              		.align	1
 103              		.syntax unified
 104              		.code	16
 105              		.thumb_func
 107              	TIM_OC2_SetConfig:
 108              		@ args = 0, pretend = 0, frame = 0
 109              		@ frame_needed = 0, uses_anonymous_args = 0
 110 0000 1022     		movs	r2, #16
 111 0002 036A     		ldr	r3, [r0, #32]
 112 0004 30B5     		push	{r4, r5, lr}
 113 0006 9343     		bics	r3, r2
 114 0008 0362     		str	r3, [r0, #32]
 115 000a 046A     		ldr	r4, [r0, #32]
 116 000c 084A     		ldr	r2, .L8
 117 000e 4568     		ldr	r5, [r0, #4]
 118 0010 8369     		ldr	r3, [r0, #24]
 119              		@ sp needed
ARM GAS  /tmp/ccCjdw1k.s 			page 3


 120 0012 1340     		ands	r3, r2
 121 0014 0A68     		ldr	r2, [r1]
 122 0016 1202     		lsls	r2, r2, #8
 123 0018 1A43     		orrs	r2, r3
 124 001a 2023     		movs	r3, #32
 125 001c 9C43     		bics	r4, r3
 126 001e 8B68     		ldr	r3, [r1, #8]
 127 0020 4560     		str	r5, [r0, #4]
 128 0022 1B01     		lsls	r3, r3, #4
 129 0024 8261     		str	r2, [r0, #24]
 130 0026 4A68     		ldr	r2, [r1, #4]
 131 0028 2343     		orrs	r3, r4
 132 002a 8263     		str	r2, [r0, #56]
 133 002c 0362     		str	r3, [r0, #32]
 134 002e 30BD     		pop	{r4, r5, pc}
 135              	.L9:
 136              		.align	2
 137              	.L8:
 138 0030 FF8CFFFF 		.word	-29441
 140              		.section	.text.TIM_TI1_SetConfig,"ax",%progbits
 141              		.align	1
 142              		.syntax unified
 143              		.code	16
 144              		.thumb_func
 146              	TIM_TI1_SetConfig:
 147              		@ args = 0, pretend = 0, frame = 0
 148              		@ frame_needed = 0, uses_anonymous_args = 0
 149 0000 F0B5     		push	{r4, r5, r6, r7, lr}
 150 0002 0126     		movs	r6, #1
 151 0004 8027     		movs	r7, #128
 152 0006 1500     		movs	r5, r2
 153 0008 026A     		ldr	r2, [r0, #32]
 154 000a FF05     		lsls	r7, r7, #23
 155 000c B243     		bics	r2, r6
 156 000e 0262     		str	r2, [r0, #32]
 157 0010 8269     		ldr	r2, [r0, #24]
 158 0012 046A     		ldr	r4, [r0, #32]
 159 0014 B842     		cmp	r0, r7
 160 0016 16D0     		beq	.L11
 161 0018 0D4F     		ldr	r7, .L13
 162 001a B842     		cmp	r0, r7
 163 001c 13D0     		beq	.L11
 164 001e 0D4F     		ldr	r7, .L13+4
 165 0020 B842     		cmp	r0, r7
 166 0022 10D0     		beq	.L11
 167 0024 0C4F     		ldr	r7, .L13+8
 168 0026 B842     		cmp	r0, r7
 169 0028 0DD0     		beq	.L11
 170 002a 3243     		orrs	r2, r6
 171              	.L12:
 172 002c F025     		movs	r5, #240
 173              		@ sp needed
 174 002e AA43     		bics	r2, r5
 175 0030 1B01     		lsls	r3, r3, #4
 176 0032 0F35     		adds	r5, r5, #15
 177 0034 2B40     		ands	r3, r5
 178 0036 1343     		orrs	r3, r2
ARM GAS  /tmp/ccCjdw1k.s 			page 4


 179 0038 0A22     		movs	r2, #10
 180 003a 9443     		bics	r4, r2
 181 003c 1140     		ands	r1, r2
 182 003e 2143     		orrs	r1, r4
 183 0040 8361     		str	r3, [r0, #24]
 184 0042 0162     		str	r1, [r0, #32]
 185 0044 F0BD     		pop	{r4, r5, r6, r7, pc}
 186              	.L11:
 187 0046 0326     		movs	r6, #3
 188 0048 B243     		bics	r2, r6
 189 004a 2A43     		orrs	r2, r5
 190 004c EEE7     		b	.L12
 191              	.L14:
 192 004e C046     		.align	2
 193              	.L13:
 194 0050 00040040 		.word	1073742848
 195 0054 00080140 		.word	1073809408
 196 0058 00140140 		.word	1073812480
 198              		.section	.text.TIM_CCxChannelCmd,"ax",%progbits
 199              		.align	1
 200              		.syntax unified
 201              		.code	16
 202              		.thumb_func
 204              	TIM_CCxChannelCmd:
 205              		@ args = 0, pretend = 0, frame = 0
 206              		@ frame_needed = 0, uses_anonymous_args = 0
 207 0000 1F23     		movs	r3, #31
 208 0002 10B5     		push	{r4, lr}
 209 0004 0124     		movs	r4, #1
 210              		@ sp needed
 211 0006 1940     		ands	r1, r3
 212 0008 8C40     		lsls	r4, r4, r1
 213 000a 8A40     		lsls	r2, r2, r1
 214 000c 036A     		ldr	r3, [r0, #32]
 215 000e A343     		bics	r3, r4
 216 0010 0362     		str	r3, [r0, #32]
 217 0012 036A     		ldr	r3, [r0, #32]
 218 0014 1A43     		orrs	r2, r3
 219 0016 0262     		str	r2, [r0, #32]
 220 0018 10BD     		pop	{r4, pc}
 222              		.section	.text.TIM_SlaveTimer_SetConfig.constprop.0,"ax",%progbits
 223              		.align	1
 224              		.syntax unified
 225              		.code	16
 226              		.thumb_func
 228              	TIM_SlaveTimer_SetConfig.constprop.0:
 229              		@ args = 0, pretend = 0, frame = 0
 230              		@ frame_needed = 0, uses_anonymous_args = 0
 231 0000 7022     		movs	r2, #112
 232 0002 30B5     		push	{r4, r5, lr}
 233 0004 0724     		movs	r4, #7
 234 0006 0368     		ldr	r3, [r0]
 235 0008 9868     		ldr	r0, [r3, #8]
 236 000a 9043     		bics	r0, r2
 237 000c 4A68     		ldr	r2, [r1, #4]
 238 000e 1043     		orrs	r0, r2
 239 0010 A043     		bics	r0, r4
ARM GAS  /tmp/ccCjdw1k.s 			page 5


 240 0012 0C68     		ldr	r4, [r1]
 241 0014 2043     		orrs	r0, r4
 242 0016 9860     		str	r0, [r3, #8]
 243 0018 502A     		cmp	r2, #80
 244 001a 34D0     		beq	.L17
 245 001c 10D8     		bhi	.L18
 246 001e 402A     		cmp	r2, #64
 247 0020 20D0     		beq	.L19
 248 0022 0120     		movs	r0, #1
 249 0024 402A     		cmp	r2, #64
 250 0026 08D8     		bhi	.L20
 251 0028 202A     		cmp	r2, #32
 252 002a 19D0     		beq	.L21
 253 002c 06D8     		bhi	.L22
 254 002e 1023     		movs	r3, #16
 255 0030 9A43     		bics	r2, r3
 256              	.L30:
 257 0032 1000     		movs	r0, r2
 258 0034 431E     		subs	r3, r0, #1
 259 0036 9841     		sbcs	r0, r0, r3
 260 0038 C0B2     		uxtb	r0, r0
 261              	.L20:
 262              		@ sp needed
 263 003a 30BD     		pop	{r4, r5, pc}
 264              	.L22:
 265 003c 303A     		subs	r2, r2, #48
 266 003e F8E7     		b	.L30
 267              	.L18:
 268 0040 602A     		cmp	r2, #96
 269 0042 32D0     		beq	.L23
 270 0044 0120     		movs	r0, #1
 271 0046 702A     		cmp	r2, #112
 272 0048 F7D1     		bne	.L20
 273 004a 9868     		ldr	r0, [r3, #8]
 274 004c 204A     		ldr	r2, .L31
 275 004e 8C68     		ldr	r4, [r1, #8]
 276 0050 1040     		ands	r0, r2
 277 0052 CA68     		ldr	r2, [r1, #12]
 278 0054 0969     		ldr	r1, [r1, #16]
 279 0056 2243     		orrs	r2, r4
 280 0058 0902     		lsls	r1, r1, #8
 281 005a 0A43     		orrs	r2, r1
 282 005c 0243     		orrs	r2, r0
 283 005e 9A60     		str	r2, [r3, #8]
 284              	.L21:
 285 0060 0020     		movs	r0, #0
 286 0062 EAE7     		b	.L20
 287              	.L19:
 288 0064 0125     		movs	r5, #1
 289 0066 2800     		movs	r0, r5
 290 0068 052C     		cmp	r4, #5
 291 006a E6D0     		beq	.L20
 292 006c 1C6A     		ldr	r4, [r3, #32]
 293 006e 1A6A     		ldr	r2, [r3, #32]
 294 0070 AA43     		bics	r2, r5
 295 0072 1A62     		str	r2, [r3, #32]
 296 0074 F022     		movs	r2, #240
ARM GAS  /tmp/ccCjdw1k.s 			page 6


 297 0076 9869     		ldr	r0, [r3, #24]
 298 0078 9043     		bics	r0, r2
 299 007a 0A69     		ldr	r2, [r1, #16]
 300 007c 1201     		lsls	r2, r2, #4
 301 007e 0243     		orrs	r2, r0
 302 0080 9A61     		str	r2, [r3, #24]
 303 0082 1C62     		str	r4, [r3, #32]
 304 0084 ECE7     		b	.L21
 305              	.L17:
 306 0086 0125     		movs	r5, #1
 307 0088 8868     		ldr	r0, [r1, #8]
 308 008a 0A69     		ldr	r2, [r1, #16]
 309 008c 196A     		ldr	r1, [r3, #32]
 310 008e 1C6A     		ldr	r4, [r3, #32]
 311 0090 1201     		lsls	r2, r2, #4
 312 0092 AC43     		bics	r4, r5
 313 0094 1C62     		str	r4, [r3, #32]
 314 0096 9C69     		ldr	r4, [r3, #24]
 315 0098 EF35     		adds	r5, r5, #239
 316 009a AC43     		bics	r4, r5
 317 009c 2243     		orrs	r2, r4
 318 009e 0A24     		movs	r4, #10
 319 00a0 A143     		bics	r1, r4
 320 00a2 0143     		orrs	r1, r0
 321 00a4 9A61     		str	r2, [r3, #24]
 322 00a6 1962     		str	r1, [r3, #32]
 323 00a8 DAE7     		b	.L21
 324              	.L23:
 325 00aa 1024     		movs	r4, #16
 326 00ac 186A     		ldr	r0, [r3, #32]
 327 00ae 8A68     		ldr	r2, [r1, #8]
 328 00b0 A043     		bics	r0, r4
 329 00b2 0969     		ldr	r1, [r1, #16]
 330 00b4 1862     		str	r0, [r3, #32]
 331 00b6 9C69     		ldr	r4, [r3, #24]
 332 00b8 064D     		ldr	r5, .L31+4
 333 00ba 0903     		lsls	r1, r1, #12
 334 00bc 2C40     		ands	r4, r5
 335 00be 2143     		orrs	r1, r4
 336 00c0 A024     		movs	r4, #160
 337 00c2 186A     		ldr	r0, [r3, #32]
 338 00c4 1201     		lsls	r2, r2, #4
 339 00c6 A043     		bics	r0, r4
 340 00c8 0243     		orrs	r2, r0
 341 00ca 9961     		str	r1, [r3, #24]
 342 00cc 1A62     		str	r2, [r3, #32]
 343 00ce C7E7     		b	.L21
 344              	.L32:
 345              		.align	2
 346              	.L31:
 347 00d0 FF00FFFF 		.word	-65281
 348 00d4 FF0FFFFF 		.word	-61441
 350              		.section	.text.HAL_TIM_Base_MspInit,"ax",%progbits
 351              		.align	1
 352              		.weak	HAL_TIM_Base_MspInit
 353              		.syntax unified
 354              		.code	16
ARM GAS  /tmp/ccCjdw1k.s 			page 7


 355              		.thumb_func
 357              	HAL_TIM_Base_MspInit:
 358              		@ args = 0, pretend = 0, frame = 0
 359              		@ frame_needed = 0, uses_anonymous_args = 0
 360              		@ link register save eliminated.
 361              		@ sp needed
 362 0000 7047     		bx	lr
 364              		.section	.text.HAL_TIM_Base_Init,"ax",%progbits
 365              		.align	1
 366              		.global	HAL_TIM_Base_Init
 367              		.syntax unified
 368              		.code	16
 369              		.thumb_func
 371              	HAL_TIM_Base_Init:
 372              		@ args = 0, pretend = 0, frame = 0
 373              		@ frame_needed = 0, uses_anonymous_args = 0
 374 0000 70B5     		push	{r4, r5, r6, lr}
 375 0002 0400     		movs	r4, r0
 376 0004 0120     		movs	r0, #1
 377 0006 002C     		cmp	r4, #0
 378 0008 1DD0     		beq	.L35
 379 000a 2500     		movs	r5, r4
 380 000c 3935     		adds	r5, r5, #57
 381 000e 2B78     		ldrb	r3, [r5]
 382 0010 DAB2     		uxtb	r2, r3
 383 0012 002B     		cmp	r3, #0
 384 0014 05D1     		bne	.L36
 385 0016 2300     		movs	r3, r4
 386 0018 3833     		adds	r3, r3, #56
 387 001a 2000     		movs	r0, r4
 388 001c 1A70     		strb	r2, [r3]
 389 001e FFF7FEFF 		bl	HAL_TIM_Base_MspInit
 390              	.L36:
 391 0022 0223     		movs	r3, #2
 392 0024 2B70     		strb	r3, [r5]
 393 0026 2068     		ldr	r0, [r4]
 394 0028 211D     		adds	r1, r4, #4
 395 002a FFF7FEFF 		bl	TIM_Base_SetConfig
 396 002e 2200     		movs	r2, r4
 397 0030 0123     		movs	r3, #1
 398 0032 0020     		movs	r0, #0
 399 0034 3E32     		adds	r2, r2, #62
 400 0036 1370     		strb	r3, [r2]
 401 0038 3D34     		adds	r4, r4, #61
 402 003a 043A     		subs	r2, r2, #4
 403 003c 1370     		strb	r3, [r2]
 404 003e 5370     		strb	r3, [r2, #1]
 405 0040 9370     		strb	r3, [r2, #2]
 406 0042 2370     		strb	r3, [r4]
 407 0044 2B70     		strb	r3, [r5]
 408              	.L35:
 409              		@ sp needed
 410 0046 70BD     		pop	{r4, r5, r6, pc}
 412              		.section	.text.HAL_TIM_Base_MspDeInit,"ax",%progbits
 413              		.align	1
 414              		.weak	HAL_TIM_Base_MspDeInit
 415              		.syntax unified
ARM GAS  /tmp/ccCjdw1k.s 			page 8


 416              		.code	16
 417              		.thumb_func
 419              	HAL_TIM_Base_MspDeInit:
 420              		@ args = 0, pretend = 0, frame = 0
 421              		@ frame_needed = 0, uses_anonymous_args = 0
 422              		@ link register save eliminated.
 423              		@ sp needed
 424 0000 7047     		bx	lr
 426              		.section	.text.HAL_TIM_Base_DeInit,"ax",%progbits
 427              		.align	1
 428              		.global	HAL_TIM_Base_DeInit
 429              		.syntax unified
 430              		.code	16
 431              		.thumb_func
 433              	HAL_TIM_Base_DeInit:
 434              		@ args = 0, pretend = 0, frame = 0
 435              		@ frame_needed = 0, uses_anonymous_args = 0
 436 0000 70B5     		push	{r4, r5, r6, lr}
 437 0002 0500     		movs	r5, r0
 438 0004 0223     		movs	r3, #2
 439 0006 3935     		adds	r5, r5, #57
 440 0008 2B70     		strb	r3, [r5]
 441 000a 0368     		ldr	r3, [r0]
 442 000c 0C4A     		ldr	r2, .L41
 443 000e 196A     		ldr	r1, [r3, #32]
 444 0010 0400     		movs	r4, r0
 445 0012 1142     		tst	r1, r2
 446 0014 03D1     		bne	.L40
 447 0016 0121     		movs	r1, #1
 448 0018 1A68     		ldr	r2, [r3]
 449 001a 8A43     		bics	r2, r1
 450 001c 1A60     		str	r2, [r3]
 451              	.L40:
 452 001e 2000     		movs	r0, r4
 453              		@ sp needed
 454 0020 FFF7FEFF 		bl	HAL_TIM_Base_MspDeInit
 455 0024 2300     		movs	r3, r4
 456 0026 0020     		movs	r0, #0
 457 0028 3E33     		adds	r3, r3, #62
 458 002a 1870     		strb	r0, [r3]
 459 002c 3834     		adds	r4, r4, #56
 460 002e 043B     		subs	r3, r3, #4
 461 0030 1870     		strb	r0, [r3]
 462 0032 5870     		strb	r0, [r3, #1]
 463 0034 9870     		strb	r0, [r3, #2]
 464 0036 D870     		strb	r0, [r3, #3]
 465 0038 2870     		strb	r0, [r5]
 466 003a 2070     		strb	r0, [r4]
 467 003c 70BD     		pop	{r4, r5, r6, pc}
 468              	.L42:
 469 003e C046     		.align	2
 470              	.L41:
 471 0040 11110000 		.word	4369
 473              		.section	.text.HAL_TIM_Base_Start,"ax",%progbits
 474              		.align	1
 475              		.global	HAL_TIM_Base_Start
 476              		.syntax unified
ARM GAS  /tmp/ccCjdw1k.s 			page 9


 477              		.code	16
 478              		.thumb_func
 480              	HAL_TIM_Base_Start:
 481              		@ args = 0, pretend = 0, frame = 0
 482              		@ frame_needed = 0, uses_anonymous_args = 0
 483 0000 0100     		movs	r1, r0
 484 0002 0300     		movs	r3, r0
 485 0004 0120     		movs	r0, #1
 486 0006 10B5     		push	{r4, lr}
 487 0008 3931     		adds	r1, r1, #57
 488 000a 0C78     		ldrb	r4, [r1]
 489 000c E2B2     		uxtb	r2, r4
 490 000e 8442     		cmp	r4, r0
 491 0010 19D1     		bne	.L44
 492 0012 0018     		adds	r0, r0, r0
 493 0014 0870     		strb	r0, [r1]
 494 0016 8021     		movs	r1, #128
 495 0018 1B68     		ldr	r3, [r3]
 496 001a C905     		lsls	r1, r1, #23
 497 001c 8B42     		cmp	r3, r1
 498 001e 08D0     		beq	.L45
 499 0020 0A49     		ldr	r1, .L53
 500 0022 8B42     		cmp	r3, r1
 501 0024 05D0     		beq	.L45
 502 0026 0A49     		ldr	r1, .L53+4
 503 0028 8B42     		cmp	r3, r1
 504 002a 02D0     		beq	.L45
 505 002c 0949     		ldr	r1, .L53+8
 506 002e 8B42     		cmp	r3, r1
 507 0030 0AD1     		bne	.L46
 508              	.L45:
 509 0032 0721     		movs	r1, #7
 510 0034 9A68     		ldr	r2, [r3, #8]
 511 0036 0A40     		ands	r2, r1
 512 0038 062A     		cmp	r2, #6
 513 003a 03D0     		beq	.L47
 514 003c 0122     		movs	r2, #1
 515 003e 1968     		ldr	r1, [r3]
 516              	.L52:
 517 0040 0A43     		orrs	r2, r1
 518 0042 1A60     		str	r2, [r3]
 519              	.L47:
 520 0044 0020     		movs	r0, #0
 521              	.L44:
 522              		@ sp needed
 523 0046 10BD     		pop	{r4, pc}
 524              	.L46:
 525 0048 1968     		ldr	r1, [r3]
 526 004a F9E7     		b	.L52
 527              	.L54:
 528              		.align	2
 529              	.L53:
 530 004c 00040040 		.word	1073742848
 531 0050 00080140 		.word	1073809408
 532 0054 00140140 		.word	1073812480
 534              		.section	.text.HAL_TIM_Base_Stop,"ax",%progbits
 535              		.align	1
ARM GAS  /tmp/ccCjdw1k.s 			page 10


 536              		.global	HAL_TIM_Base_Stop
 537              		.syntax unified
 538              		.code	16
 539              		.thumb_func
 541              	HAL_TIM_Base_Stop:
 542              		@ args = 0, pretend = 0, frame = 0
 543              		@ frame_needed = 0, uses_anonymous_args = 0
 544              		@ link register save eliminated.
 545 0000 0368     		ldr	r3, [r0]
 546 0002 064A     		ldr	r2, .L57
 547 0004 196A     		ldr	r1, [r3, #32]
 548 0006 1142     		tst	r1, r2
 549 0008 03D1     		bne	.L56
 550 000a 0121     		movs	r1, #1
 551 000c 1A68     		ldr	r2, [r3]
 552 000e 8A43     		bics	r2, r1
 553 0010 1A60     		str	r2, [r3]
 554              	.L56:
 555 0012 0123     		movs	r3, #1
 556              		@ sp needed
 557 0014 3930     		adds	r0, r0, #57
 558 0016 0370     		strb	r3, [r0]
 559 0018 0020     		movs	r0, #0
 560 001a 7047     		bx	lr
 561              	.L58:
 562              		.align	2
 563              	.L57:
 564 001c 11110000 		.word	4369
 566              		.section	.text.HAL_TIM_Base_Start_IT,"ax",%progbits
 567              		.align	1
 568              		.global	HAL_TIM_Base_Start_IT
 569              		.syntax unified
 570              		.code	16
 571              		.thumb_func
 573              	HAL_TIM_Base_Start_IT:
 574              		@ args = 0, pretend = 0, frame = 0
 575              		@ frame_needed = 0, uses_anonymous_args = 0
 576 0000 0100     		movs	r1, r0
 577 0002 0300     		movs	r3, r0
 578 0004 0120     		movs	r0, #1
 579 0006 10B5     		push	{r4, lr}
 580 0008 3931     		adds	r1, r1, #57
 581 000a 0C78     		ldrb	r4, [r1]
 582 000c E2B2     		uxtb	r2, r4
 583 000e 8442     		cmp	r4, r0
 584 0010 1CD1     		bne	.L60
 585 0012 0018     		adds	r0, r0, r0
 586 0014 0870     		strb	r0, [r1]
 587 0016 1B68     		ldr	r3, [r3]
 588 0018 D968     		ldr	r1, [r3, #12]
 589 001a 1143     		orrs	r1, r2
 590 001c D960     		str	r1, [r3, #12]
 591 001e 8021     		movs	r1, #128
 592 0020 C905     		lsls	r1, r1, #23
 593 0022 8B42     		cmp	r3, r1
 594 0024 08D0     		beq	.L61
 595 0026 0B49     		ldr	r1, .L69
ARM GAS  /tmp/ccCjdw1k.s 			page 11


 596 0028 8B42     		cmp	r3, r1
 597 002a 05D0     		beq	.L61
 598 002c 0A49     		ldr	r1, .L69+4
 599 002e 8B42     		cmp	r3, r1
 600 0030 02D0     		beq	.L61
 601 0032 0A49     		ldr	r1, .L69+8
 602 0034 8B42     		cmp	r3, r1
 603 0036 0AD1     		bne	.L62
 604              	.L61:
 605 0038 0721     		movs	r1, #7
 606 003a 9A68     		ldr	r2, [r3, #8]
 607 003c 0A40     		ands	r2, r1
 608 003e 062A     		cmp	r2, #6
 609 0040 03D0     		beq	.L63
 610 0042 0122     		movs	r2, #1
 611 0044 1968     		ldr	r1, [r3]
 612              	.L68:
 613 0046 0A43     		orrs	r2, r1
 614 0048 1A60     		str	r2, [r3]
 615              	.L63:
 616 004a 0020     		movs	r0, #0
 617              	.L60:
 618              		@ sp needed
 619 004c 10BD     		pop	{r4, pc}
 620              	.L62:
 621 004e 1968     		ldr	r1, [r3]
 622 0050 F9E7     		b	.L68
 623              	.L70:
 624 0052 C046     		.align	2
 625              	.L69:
 626 0054 00040040 		.word	1073742848
 627 0058 00080140 		.word	1073809408
 628 005c 00140140 		.word	1073812480
 630              		.section	.text.HAL_TIM_Base_Stop_IT,"ax",%progbits
 631              		.align	1
 632              		.global	HAL_TIM_Base_Stop_IT
 633              		.syntax unified
 634              		.code	16
 635              		.thumb_func
 637              	HAL_TIM_Base_Stop_IT:
 638              		@ args = 0, pretend = 0, frame = 0
 639              		@ frame_needed = 0, uses_anonymous_args = 0
 640 0000 0121     		movs	r1, #1
 641 0002 0368     		ldr	r3, [r0]
 642 0004 10B5     		push	{r4, lr}
 643 0006 DA68     		ldr	r2, [r3, #12]
 644 0008 8A43     		bics	r2, r1
 645 000a DA60     		str	r2, [r3, #12]
 646 000c 1C6A     		ldr	r4, [r3, #32]
 647 000e 054A     		ldr	r2, .L73
 648 0010 1442     		tst	r4, r2
 649 0012 02D1     		bne	.L72
 650 0014 1A68     		ldr	r2, [r3]
 651 0016 8A43     		bics	r2, r1
 652 0018 1A60     		str	r2, [r3]
 653              	.L72:
 654 001a 0123     		movs	r3, #1
ARM GAS  /tmp/ccCjdw1k.s 			page 12


 655              		@ sp needed
 656 001c 3930     		adds	r0, r0, #57
 657 001e 0370     		strb	r3, [r0]
 658 0020 0020     		movs	r0, #0
 659 0022 10BD     		pop	{r4, pc}
 660              	.L74:
 661              		.align	2
 662              	.L73:
 663 0024 11110000 		.word	4369
 665              		.section	.text.HAL_TIM_Base_Start_DMA,"ax",%progbits
 666              		.align	1
 667              		.global	HAL_TIM_Base_Start_DMA
 668              		.syntax unified
 669              		.code	16
 670              		.thumb_func
 672              	HAL_TIM_Base_Start_DMA:
 673              		@ args = 0, pretend = 0, frame = 0
 674              		@ frame_needed = 0, uses_anonymous_args = 0
 675 0000 1300     		movs	r3, r2
 676 0002 0200     		movs	r2, r0
 677 0004 70B5     		push	{r4, r5, r6, lr}
 678 0006 3932     		adds	r2, r2, #57
 679 0008 1578     		ldrb	r5, [r2]
 680 000a 0400     		movs	r4, r0
 681 000c E8B2     		uxtb	r0, r5
 682 000e 022D     		cmp	r5, #2
 683 0010 03D0     		beq	.L76
 684 0012 1078     		ldrb	r0, [r2]
 685 0014 0128     		cmp	r0, #1
 686 0016 01D0     		beq	.L77
 687              	.L79:
 688 0018 0120     		movs	r0, #1
 689              	.L76:
 690              		@ sp needed
 691 001a 70BD     		pop	{r4, r5, r6, pc}
 692              	.L77:
 693 001c 0029     		cmp	r1, #0
 694 001e 01D1     		bne	.L78
 695 0020 002B     		cmp	r3, #0
 696 0022 F9D1     		bne	.L79
 697              	.L78:
 698 0024 0220     		movs	r0, #2
 699 0026 1070     		strb	r0, [r2]
 700 0028 E069     		ldr	r0, [r4, #28]
 701 002a 144A     		ldr	r2, .L89
 702 002c C262     		str	r2, [r0, #44]
 703 002e 144A     		ldr	r2, .L89+4
 704 0030 0263     		str	r2, [r0, #48]
 705 0032 144A     		ldr	r2, .L89+8
 706 0034 4263     		str	r2, [r0, #52]
 707 0036 2268     		ldr	r2, [r4]
 708 0038 2C32     		adds	r2, r2, #44
 709 003a FFF7FEFF 		bl	HAL_DMA_Start_IT
 710 003e 0028     		cmp	r0, #0
 711 0040 EAD1     		bne	.L79
 712 0042 8022     		movs	r2, #128
 713 0044 2368     		ldr	r3, [r4]
ARM GAS  /tmp/ccCjdw1k.s 			page 13


 714 0046 5200     		lsls	r2, r2, #1
 715 0048 D968     		ldr	r1, [r3, #12]
 716 004a 0A43     		orrs	r2, r1
 717 004c DA60     		str	r2, [r3, #12]
 718 004e 8022     		movs	r2, #128
 719 0050 D205     		lsls	r2, r2, #23
 720 0052 9342     		cmp	r3, r2
 721 0054 08D0     		beq	.L80
 722 0056 0C4A     		ldr	r2, .L89+12
 723 0058 9342     		cmp	r3, r2
 724 005a 05D0     		beq	.L80
 725 005c 0B4A     		ldr	r2, .L89+16
 726 005e 9342     		cmp	r3, r2
 727 0060 02D0     		beq	.L80
 728 0062 0B4A     		ldr	r2, .L89+20
 729 0064 9342     		cmp	r3, r2
 730 0066 04D1     		bne	.L81
 731              	.L80:
 732 0068 0721     		movs	r1, #7
 733 006a 9A68     		ldr	r2, [r3, #8]
 734 006c 0A40     		ands	r2, r1
 735 006e 062A     		cmp	r2, #6
 736 0070 D3D0     		beq	.L76
 737              	.L81:
 738 0072 0122     		movs	r2, #1
 739 0074 1968     		ldr	r1, [r3]
 740 0076 0A43     		orrs	r2, r1
 741 0078 1A60     		str	r2, [r3]
 742 007a CEE7     		b	.L76
 743              	.L90:
 744              		.align	2
 745              	.L89:
 746 007c 00000000 		.word	TIM_DMAPeriodElapsedCplt
 747 0080 00000000 		.word	TIM_DMAPeriodElapsedHalfCplt
 748 0084 00000000 		.word	TIM_DMAError
 749 0088 00040040 		.word	1073742848
 750 008c 00080140 		.word	1073809408
 751 0090 00140140 		.word	1073812480
 753              		.section	.text.HAL_TIM_Base_Stop_DMA,"ax",%progbits
 754              		.align	1
 755              		.global	HAL_TIM_Base_Stop_DMA
 756              		.syntax unified
 757              		.code	16
 758              		.thumb_func
 760              	HAL_TIM_Base_Stop_DMA:
 761              		@ args = 0, pretend = 0, frame = 0
 762              		@ frame_needed = 0, uses_anonymous_args = 0
 763 0000 10B5     		push	{r4, lr}
 764 0002 0400     		movs	r4, r0
 765 0004 0268     		ldr	r2, [r0]
 766 0006 0A49     		ldr	r1, .L93
 767 0008 D368     		ldr	r3, [r2, #12]
 768 000a C069     		ldr	r0, [r0, #28]
 769 000c 0B40     		ands	r3, r1
 770 000e D360     		str	r3, [r2, #12]
 771 0010 FFF7FEFF 		bl	HAL_DMA_Abort_IT
 772 0014 2368     		ldr	r3, [r4]
ARM GAS  /tmp/ccCjdw1k.s 			page 14


 773 0016 074A     		ldr	r2, .L93+4
 774 0018 196A     		ldr	r1, [r3, #32]
 775 001a 1142     		tst	r1, r2
 776 001c 03D1     		bne	.L92
 777 001e 0121     		movs	r1, #1
 778 0020 1A68     		ldr	r2, [r3]
 779 0022 8A43     		bics	r2, r1
 780 0024 1A60     		str	r2, [r3]
 781              	.L92:
 782 0026 0123     		movs	r3, #1
 783              		@ sp needed
 784 0028 3934     		adds	r4, r4, #57
 785 002a 0020     		movs	r0, #0
 786 002c 2370     		strb	r3, [r4]
 787 002e 10BD     		pop	{r4, pc}
 788              	.L94:
 789              		.align	2
 790              	.L93:
 791 0030 FFFEFFFF 		.word	-257
 792 0034 11110000 		.word	4369
 794              		.section	.text.HAL_TIM_OC_MspInit,"ax",%progbits
 795              		.align	1
 796              		.weak	HAL_TIM_OC_MspInit
 797              		.syntax unified
 798              		.code	16
 799              		.thumb_func
 801              	HAL_TIM_OC_MspInit:
 802              		@ args = 0, pretend = 0, frame = 0
 803              		@ frame_needed = 0, uses_anonymous_args = 0
 804              		@ link register save eliminated.
 805              		@ sp needed
 806 0000 7047     		bx	lr
 808              		.section	.text.HAL_TIM_OC_Init,"ax",%progbits
 809              		.align	1
 810              		.global	HAL_TIM_OC_Init
 811              		.syntax unified
 812              		.code	16
 813              		.thumb_func
 815              	HAL_TIM_OC_Init:
 816              		@ args = 0, pretend = 0, frame = 0
 817              		@ frame_needed = 0, uses_anonymous_args = 0
 818 0000 70B5     		push	{r4, r5, r6, lr}
 819 0002 0400     		movs	r4, r0
 820 0004 0120     		movs	r0, #1
 821 0006 002C     		cmp	r4, #0
 822 0008 1DD0     		beq	.L97
 823 000a 2500     		movs	r5, r4
 824 000c 3935     		adds	r5, r5, #57
 825 000e 2B78     		ldrb	r3, [r5]
 826 0010 DAB2     		uxtb	r2, r3
 827 0012 002B     		cmp	r3, #0
 828 0014 05D1     		bne	.L98
 829 0016 2300     		movs	r3, r4
 830 0018 3833     		adds	r3, r3, #56
 831 001a 2000     		movs	r0, r4
 832 001c 1A70     		strb	r2, [r3]
 833 001e FFF7FEFF 		bl	HAL_TIM_OC_MspInit
ARM GAS  /tmp/ccCjdw1k.s 			page 15


 834              	.L98:
 835 0022 0223     		movs	r3, #2
 836 0024 2B70     		strb	r3, [r5]
 837 0026 2068     		ldr	r0, [r4]
 838 0028 211D     		adds	r1, r4, #4
 839 002a FFF7FEFF 		bl	TIM_Base_SetConfig
 840 002e 2200     		movs	r2, r4
 841 0030 0123     		movs	r3, #1
 842 0032 0020     		movs	r0, #0
 843 0034 3E32     		adds	r2, r2, #62
 844 0036 1370     		strb	r3, [r2]
 845 0038 3D34     		adds	r4, r4, #61
 846 003a 043A     		subs	r2, r2, #4
 847 003c 1370     		strb	r3, [r2]
 848 003e 5370     		strb	r3, [r2, #1]
 849 0040 9370     		strb	r3, [r2, #2]
 850 0042 2370     		strb	r3, [r4]
 851 0044 2B70     		strb	r3, [r5]
 852              	.L97:
 853              		@ sp needed
 854 0046 70BD     		pop	{r4, r5, r6, pc}
 856              		.section	.text.HAL_TIM_OC_MspDeInit,"ax",%progbits
 857              		.align	1
 858              		.weak	HAL_TIM_OC_MspDeInit
 859              		.syntax unified
 860              		.code	16
 861              		.thumb_func
 863              	HAL_TIM_OC_MspDeInit:
 864              		@ args = 0, pretend = 0, frame = 0
 865              		@ frame_needed = 0, uses_anonymous_args = 0
 866              		@ link register save eliminated.
 867              		@ sp needed
 868 0000 7047     		bx	lr
 870              		.section	.text.HAL_TIM_OC_DeInit,"ax",%progbits
 871              		.align	1
 872              		.global	HAL_TIM_OC_DeInit
 873              		.syntax unified
 874              		.code	16
 875              		.thumb_func
 877              	HAL_TIM_OC_DeInit:
 878              		@ args = 0, pretend = 0, frame = 0
 879              		@ frame_needed = 0, uses_anonymous_args = 0
 880 0000 70B5     		push	{r4, r5, r6, lr}
 881 0002 0500     		movs	r5, r0
 882 0004 0223     		movs	r3, #2
 883 0006 3935     		adds	r5, r5, #57
 884 0008 2B70     		strb	r3, [r5]
 885 000a 0368     		ldr	r3, [r0]
 886 000c 0C4A     		ldr	r2, .L103
 887 000e 196A     		ldr	r1, [r3, #32]
 888 0010 0400     		movs	r4, r0
 889 0012 1142     		tst	r1, r2
 890 0014 03D1     		bne	.L102
 891 0016 0121     		movs	r1, #1
 892 0018 1A68     		ldr	r2, [r3]
 893 001a 8A43     		bics	r2, r1
 894 001c 1A60     		str	r2, [r3]
ARM GAS  /tmp/ccCjdw1k.s 			page 16


 895              	.L102:
 896 001e 2000     		movs	r0, r4
 897              		@ sp needed
 898 0020 FFF7FEFF 		bl	HAL_TIM_OC_MspDeInit
 899 0024 2300     		movs	r3, r4
 900 0026 0020     		movs	r0, #0
 901 0028 3E33     		adds	r3, r3, #62
 902 002a 1870     		strb	r0, [r3]
 903 002c 3834     		adds	r4, r4, #56
 904 002e 043B     		subs	r3, r3, #4
 905 0030 1870     		strb	r0, [r3]
 906 0032 5870     		strb	r0, [r3, #1]
 907 0034 9870     		strb	r0, [r3, #2]
 908 0036 D870     		strb	r0, [r3, #3]
 909 0038 2870     		strb	r0, [r5]
 910 003a 2070     		strb	r0, [r4]
 911 003c 70BD     		pop	{r4, r5, r6, pc}
 912              	.L104:
 913 003e C046     		.align	2
 914              	.L103:
 915 0040 11110000 		.word	4369
 917              		.section	.text.HAL_TIM_OC_Start,"ax",%progbits
 918              		.align	1
 919              		.global	HAL_TIM_OC_Start
 920              		.syntax unified
 921              		.code	16
 922              		.thumb_func
 924              	HAL_TIM_OC_Start:
 925              		@ args = 0, pretend = 0, frame = 0
 926              		@ frame_needed = 0, uses_anonymous_args = 0
 927 0000 0300     		movs	r3, r0
 928 0002 0200     		movs	r2, r0
 929 0004 10B5     		push	{r4, lr}
 930 0006 0029     		cmp	r1, #0
 931 0008 05D1     		bne	.L106
 932 000a 3A32     		adds	r2, r2, #58
 933              	.L131:
 934 000c 0120     		movs	r0, #1
 935 000e 1478     		ldrb	r4, [r2]
 936 0010 8442     		cmp	r4, r0
 937 0012 0AD0     		beq	.L128
 938              	.L107:
 939              		@ sp needed
 940 0014 10BD     		pop	{r4, pc}
 941              	.L106:
 942 0016 0429     		cmp	r1, #4
 943 0018 01D1     		bne	.L109
 944 001a 3B32     		adds	r2, r2, #59
 945 001c F6E7     		b	.L131
 946              	.L109:
 947 001e 0829     		cmp	r1, #8
 948 0020 01D1     		bne	.L111
 949 0022 3C32     		adds	r2, r2, #60
 950 0024 F2E7     		b	.L131
 951              	.L111:
 952 0026 3D32     		adds	r2, r2, #61
 953 0028 F0E7     		b	.L131
ARM GAS  /tmp/ccCjdw1k.s 			page 17


 954              	.L128:
 955 002a 0220     		movs	r0, #2
 956 002c 1070     		strb	r0, [r2]
 957 002e 1C68     		ldr	r4, [r3]
 958 0030 0122     		movs	r2, #1
 959 0032 2000     		movs	r0, r4
 960 0034 FFF7FEFF 		bl	TIM_CCxChannelCmd
 961 0038 8023     		movs	r3, #128
 962 003a DB05     		lsls	r3, r3, #23
 963 003c 9C42     		cmp	r4, r3
 964 003e 08D0     		beq	.L115
 965 0040 094B     		ldr	r3, .L134
 966 0042 9C42     		cmp	r4, r3
 967 0044 05D0     		beq	.L115
 968 0046 094B     		ldr	r3, .L134+4
 969 0048 9C42     		cmp	r4, r3
 970 004a 02D0     		beq	.L115
 971 004c 084B     		ldr	r3, .L134+8
 972 004e 9C42     		cmp	r4, r3
 973 0050 04D1     		bne	.L129
 974              	.L115:
 975 0052 0722     		movs	r2, #7
 976 0054 A368     		ldr	r3, [r4, #8]
 977 0056 1340     		ands	r3, r2
 978 0058 062B     		cmp	r3, #6
 979 005a 03D0     		beq	.L117
 980              	.L129:
 981 005c 0123     		movs	r3, #1
 982 005e 2268     		ldr	r2, [r4]
 983 0060 1343     		orrs	r3, r2
 984 0062 2360     		str	r3, [r4]
 985              	.L117:
 986 0064 0020     		movs	r0, #0
 987 0066 D5E7     		b	.L107
 988              	.L135:
 989              		.align	2
 990              	.L134:
 991 0068 00040040 		.word	1073742848
 992 006c 00080140 		.word	1073809408
 993 0070 00140140 		.word	1073812480
 995              		.section	.text.HAL_TIM_OC_Stop,"ax",%progbits
 996              		.align	1
 997              		.global	HAL_TIM_OC_Stop
 998              		.syntax unified
 999              		.code	16
 1000              		.thumb_func
 1002              	HAL_TIM_OC_Stop:
 1003              		@ args = 0, pretend = 0, frame = 0
 1004              		@ frame_needed = 0, uses_anonymous_args = 0
 1005 0000 70B5     		push	{r4, r5, r6, lr}
 1006 0002 0668     		ldr	r6, [r0]
 1007 0004 0022     		movs	r2, #0
 1008 0006 0400     		movs	r4, r0
 1009 0008 3000     		movs	r0, r6
 1010 000a 0D00     		movs	r5, r1
 1011 000c FFF7FEFF 		bl	TIM_CCxChannelCmd
 1012 0010 326A     		ldr	r2, [r6, #32]
ARM GAS  /tmp/ccCjdw1k.s 			page 18


 1013 0012 0C4B     		ldr	r3, .L143
 1014 0014 1A42     		tst	r2, r3
 1015 0016 03D1     		bne	.L137
 1016 0018 0122     		movs	r2, #1
 1017 001a 3368     		ldr	r3, [r6]
 1018 001c 9343     		bics	r3, r2
 1019 001e 3360     		str	r3, [r6]
 1020              	.L137:
 1021 0020 0123     		movs	r3, #1
 1022 0022 002D     		cmp	r5, #0
 1023 0024 03D1     		bne	.L138
 1024 0026 3A34     		adds	r4, r4, #58
 1025              	.L142:
 1026 0028 0020     		movs	r0, #0
 1027              		@ sp needed
 1028 002a 2370     		strb	r3, [r4]
 1029 002c 70BD     		pop	{r4, r5, r6, pc}
 1030              	.L138:
 1031 002e 042D     		cmp	r5, #4
 1032 0030 01D1     		bne	.L140
 1033 0032 3B34     		adds	r4, r4, #59
 1034 0034 F8E7     		b	.L142
 1035              	.L140:
 1036 0036 082D     		cmp	r5, #8
 1037 0038 01D1     		bne	.L141
 1038 003a 3C34     		adds	r4, r4, #60
 1039 003c F4E7     		b	.L142
 1040              	.L141:
 1041 003e 3D34     		adds	r4, r4, #61
 1042 0040 F2E7     		b	.L142
 1043              	.L144:
 1044 0042 C046     		.align	2
 1045              	.L143:
 1046 0044 11110000 		.word	4369
 1048              		.section	.text.HAL_TIM_OC_Start_IT,"ax",%progbits
 1049              		.align	1
 1050              		.global	HAL_TIM_OC_Start_IT
 1051              		.syntax unified
 1052              		.code	16
 1053              		.thumb_func
 1055              	HAL_TIM_OC_Start_IT:
 1056              		@ args = 0, pretend = 0, frame = 0
 1057              		@ frame_needed = 0, uses_anonymous_args = 0
 1058 0000 10B5     		push	{r4, lr}
 1059 0002 0029     		cmp	r1, #0
 1060 0004 06D1     		bne	.L146
 1061 0006 0200     		movs	r2, r0
 1062 0008 3A32     		adds	r2, r2, #58
 1063 000a 1378     		ldrb	r3, [r2]
 1064 000c 012B     		cmp	r3, #1
 1065 000e 37D0     		beq	.L160
 1066              	.L147:
 1067 0010 0120     		movs	r0, #1
 1068 0012 24E0     		b	.L158
 1069              	.L146:
 1070 0014 0300     		movs	r3, r0
 1071 0016 0429     		cmp	r1, #4
ARM GAS  /tmp/ccCjdw1k.s 			page 19


 1072 0018 22D1     		bne	.L149
 1073 001a 3B33     		adds	r3, r3, #59
 1074              	.L167:
 1075 001c 1A78     		ldrb	r2, [r3]
 1076 001e 012A     		cmp	r2, #1
 1077 0020 F6D1     		bne	.L147
 1078 0022 0222     		movs	r2, #2
 1079 0024 1A70     		strb	r2, [r3]
 1080 0026 0268     		ldr	r2, [r0]
 1081 0028 D368     		ldr	r3, [r2, #12]
 1082 002a 0B43     		orrs	r3, r1
 1083              	.L165:
 1084 002c 0468     		ldr	r4, [r0]
 1085 002e D360     		str	r3, [r2, #12]
 1086 0030 2000     		movs	r0, r4
 1087 0032 0122     		movs	r2, #1
 1088 0034 FFF7FEFF 		bl	TIM_CCxChannelCmd
 1089 0038 8023     		movs	r3, #128
 1090 003a DB05     		lsls	r3, r3, #23
 1091 003c 9C42     		cmp	r4, r3
 1092 003e 08D0     		beq	.L155
 1093 0040 154B     		ldr	r3, .L168
 1094 0042 9C42     		cmp	r4, r3
 1095 0044 05D0     		beq	.L155
 1096 0046 154B     		ldr	r3, .L168+4
 1097 0048 9C42     		cmp	r4, r3
 1098 004a 02D0     		beq	.L155
 1099 004c 144B     		ldr	r3, .L168+8
 1100 004e 9C42     		cmp	r4, r3
 1101 0050 1CD1     		bne	.L156
 1102              	.L155:
 1103 0052 0722     		movs	r2, #7
 1104 0054 A368     		ldr	r3, [r4, #8]
 1105 0056 1340     		ands	r3, r2
 1106 0058 062B     		cmp	r3, #6
 1107 005a 17D1     		bne	.L156
 1108              	.L159:
 1109 005c 0020     		movs	r0, #0
 1110              	.L158:
 1111              		@ sp needed
 1112 005e 10BD     		pop	{r4, pc}
 1113              	.L149:
 1114 0060 0829     		cmp	r1, #8
 1115 0062 01D1     		bne	.L151
 1116 0064 3C33     		adds	r3, r3, #60
 1117 0066 D9E7     		b	.L167
 1118              	.L151:
 1119 0068 3D33     		adds	r3, r3, #61
 1120 006a 1A78     		ldrb	r2, [r3]
 1121 006c 012A     		cmp	r2, #1
 1122 006e CFD1     		bne	.L147
 1123 0070 0222     		movs	r2, #2
 1124 0072 1A70     		strb	r2, [r3]
 1125 0074 0C29     		cmp	r1, #12
 1126 0076 CBD1     		bne	.L147
 1127 0078 0268     		ldr	r2, [r0]
 1128 007a 1023     		movs	r3, #16
ARM GAS  /tmp/ccCjdw1k.s 			page 20


 1129 007c D468     		ldr	r4, [r2, #12]
 1130 007e 03E0     		b	.L164
 1131              	.L160:
 1132 0080 0223     		movs	r3, #2
 1133 0082 1370     		strb	r3, [r2]
 1134 0084 0268     		ldr	r2, [r0]
 1135 0086 D468     		ldr	r4, [r2, #12]
 1136              	.L164:
 1137 0088 2343     		orrs	r3, r4
 1138 008a CFE7     		b	.L165
 1139              	.L156:
 1140 008c 0123     		movs	r3, #1
 1141 008e 2268     		ldr	r2, [r4]
 1142 0090 1343     		orrs	r3, r2
 1143 0092 2360     		str	r3, [r4]
 1144 0094 E2E7     		b	.L159
 1145              	.L169:
 1146 0096 C046     		.align	2
 1147              	.L168:
 1148 0098 00040040 		.word	1073742848
 1149 009c 00080140 		.word	1073809408
 1150 00a0 00140140 		.word	1073812480
 1152              		.section	.text.HAL_TIM_OC_Stop_IT,"ax",%progbits
 1153              		.align	1
 1154              		.global	HAL_TIM_OC_Stop_IT
 1155              		.syntax unified
 1156              		.code	16
 1157              		.thumb_func
 1159              	HAL_TIM_OC_Stop_IT:
 1160              		@ args = 0, pretend = 0, frame = 0
 1161              		@ frame_needed = 0, uses_anonymous_args = 0
 1162 0000 70B5     		push	{r4, r5, r6, lr}
 1163 0002 0400     		movs	r4, r0
 1164 0004 0D00     		movs	r5, r1
 1165 0006 0829     		cmp	r1, #8
 1166 0008 11D0     		beq	.L171
 1167 000a 05D8     		bhi	.L172
 1168 000c 0029     		cmp	r1, #0
 1169 000e 09D0     		beq	.L173
 1170 0010 0429     		cmp	r1, #4
 1171 0012 0CD0     		beq	.L171
 1172              	.L186:
 1173 0014 0120     		movs	r0, #1
 1174              	.L175:
 1175              		@ sp needed
 1176 0016 70BD     		pop	{r4, r5, r6, pc}
 1177              	.L172:
 1178 0018 0C29     		cmp	r1, #12
 1179 001a FBD1     		bne	.L186
 1180 001c 0268     		ldr	r2, [r0]
 1181 001e 1021     		movs	r1, #16
 1182 0020 D368     		ldr	r3, [r2, #12]
 1183 0022 02E0     		b	.L183
 1184              	.L173:
 1185 0024 0221     		movs	r1, #2
 1186 0026 0268     		ldr	r2, [r0]
 1187 0028 D368     		ldr	r3, [r2, #12]
ARM GAS  /tmp/ccCjdw1k.s 			page 21


 1188              	.L183:
 1189 002a 8B43     		bics	r3, r1
 1190 002c 02E0     		b	.L184
 1191              	.L171:
 1192 002e 2268     		ldr	r2, [r4]
 1193 0030 D368     		ldr	r3, [r2, #12]
 1194 0032 AB43     		bics	r3, r5
 1195              	.L184:
 1196 0034 2668     		ldr	r6, [r4]
 1197 0036 D360     		str	r3, [r2, #12]
 1198 0038 2900     		movs	r1, r5
 1199 003a 0022     		movs	r2, #0
 1200 003c 3000     		movs	r0, r6
 1201 003e FFF7FEFF 		bl	TIM_CCxChannelCmd
 1202 0042 326A     		ldr	r2, [r6, #32]
 1203 0044 0B4B     		ldr	r3, .L187
 1204 0046 1A42     		tst	r2, r3
 1205 0048 03D1     		bne	.L178
 1206 004a 0122     		movs	r2, #1
 1207 004c 3368     		ldr	r3, [r6]
 1208 004e 9343     		bics	r3, r2
 1209 0050 3360     		str	r3, [r6]
 1210              	.L178:
 1211 0052 0123     		movs	r3, #1
 1212 0054 002D     		cmp	r5, #0
 1213 0056 03D1     		bne	.L179
 1214 0058 3A34     		adds	r4, r4, #58
 1215              	.L185:
 1216 005a 0020     		movs	r0, #0
 1217 005c 2370     		strb	r3, [r4]
 1218 005e DAE7     		b	.L175
 1219              	.L179:
 1220 0060 042D     		cmp	r5, #4
 1221 0062 01D1     		bne	.L181
 1222 0064 3B34     		adds	r4, r4, #59
 1223 0066 F8E7     		b	.L185
 1224              	.L181:
 1225 0068 082D     		cmp	r5, #8
 1226 006a 01D1     		bne	.L182
 1227 006c 3C34     		adds	r4, r4, #60
 1228 006e F4E7     		b	.L185
 1229              	.L182:
 1230 0070 3D34     		adds	r4, r4, #61
 1231 0072 F2E7     		b	.L185
 1232              	.L188:
 1233              		.align	2
 1234              	.L187:
 1235 0074 11110000 		.word	4369
 1237              		.section	.text.HAL_TIM_OC_Start_DMA,"ax",%progbits
 1238              		.align	1
 1239              		.global	HAL_TIM_OC_Start_DMA
 1240              		.syntax unified
 1241              		.code	16
 1242              		.thumb_func
 1244              	HAL_TIM_OC_Start_DMA:
 1245              		@ args = 0, pretend = 0, frame = 0
 1246              		@ frame_needed = 0, uses_anonymous_args = 0
ARM GAS  /tmp/ccCjdw1k.s 			page 22


 1247 0000 70B5     		push	{r4, r5, r6, lr}
 1248 0002 0E00     		movs	r6, r1
 1249 0004 0500     		movs	r5, r0
 1250 0006 1100     		movs	r1, r2
 1251 0008 0200     		movs	r2, r0
 1252 000a 002E     		cmp	r6, #0
 1253 000c 09D1     		bne	.L190
 1254 000e 3A32     		adds	r2, r2, #58
 1255              	.L229:
 1256 0010 1478     		ldrb	r4, [r2]
 1257 0012 0220     		movs	r0, #2
 1258 0014 023C     		subs	r4, r4, #2
 1259 0016 6242     		rsbs	r2, r4, #0
 1260 0018 5441     		adcs	r4, r4, r2
 1261 001a E4B2     		uxtb	r4, r4
 1262 001c 002C     		cmp	r4, #0
 1263 001e 0AD0     		beq	.L226
 1264              	.L222:
 1265              		@ sp needed
 1266 0020 70BD     		pop	{r4, r5, r6, pc}
 1267              	.L190:
 1268 0022 042E     		cmp	r6, #4
 1269 0024 01D1     		bne	.L192
 1270 0026 3B32     		adds	r2, r2, #59
 1271 0028 F2E7     		b	.L229
 1272              	.L192:
 1273 002a 082E     		cmp	r6, #8
 1274 002c 01D1     		bne	.L193
 1275 002e 3C32     		adds	r2, r2, #60
 1276 0030 EEE7     		b	.L229
 1277              	.L193:
 1278 0032 3D32     		adds	r2, r2, #61
 1279 0034 ECE7     		b	.L229
 1280              	.L226:
 1281 0036 2A00     		movs	r2, r5
 1282 0038 002E     		cmp	r6, #0
 1283 003a 09D1     		bne	.L194
 1284 003c 3A32     		adds	r2, r2, #58
 1285              	.L228:
 1286 003e 1278     		ldrb	r2, [r2]
 1287 0040 013A     		subs	r2, r2, #1
 1288 0042 5042     		rsbs	r0, r2, #0
 1289 0044 4241     		adcs	r2, r2, r0
 1290 0046 D2B2     		uxtb	r2, r2
 1291 0048 002A     		cmp	r2, #0
 1292 004a 0BD1     		bne	.L213
 1293              	.L208:
 1294 004c 0120     		movs	r0, #1
 1295 004e E7E7     		b	.L222
 1296              	.L194:
 1297 0050 042E     		cmp	r6, #4
 1298 0052 01D1     		bne	.L196
 1299 0054 3B32     		adds	r2, r2, #59
 1300 0056 F2E7     		b	.L228
 1301              	.L196:
 1302 0058 082E     		cmp	r6, #8
 1303 005a 01D1     		bne	.L197
ARM GAS  /tmp/ccCjdw1k.s 			page 23


 1304 005c 3C32     		adds	r2, r2, #60
 1305 005e EEE7     		b	.L228
 1306              	.L197:
 1307 0060 3D32     		adds	r2, r2, #61
 1308 0062 ECE7     		b	.L228
 1309              	.L213:
 1310 0064 0029     		cmp	r1, #0
 1311 0066 01D1     		bne	.L198
 1312 0068 002B     		cmp	r3, #0
 1313 006a EFD1     		bne	.L208
 1314              	.L198:
 1315 006c 0222     		movs	r2, #2
 1316 006e 2800     		movs	r0, r5
 1317 0070 002E     		cmp	r6, #0
 1318 0072 32D1     		bne	.L200
 1319 0074 3A30     		adds	r0, r0, #58
 1320 0076 0270     		strb	r2, [r0]
 1321 0078 286A     		ldr	r0, [r5, #32]
 1322 007a 394A     		ldr	r2, .L230
 1323 007c C262     		str	r2, [r0, #44]
 1324 007e 394A     		ldr	r2, .L230+4
 1325 0080 0263     		str	r2, [r0, #48]
 1326 0082 394A     		ldr	r2, .L230+8
 1327 0084 4263     		str	r2, [r0, #52]
 1328 0086 2A68     		ldr	r2, [r5]
 1329 0088 3432     		adds	r2, r2, #52
 1330 008a FFF7FEFF 		bl	HAL_DMA_Start_IT
 1331 008e 0028     		cmp	r0, #0
 1332 0090 DCD1     		bne	.L208
 1333 0092 8023     		movs	r3, #128
 1334 0094 2A68     		ldr	r2, [r5]
 1335 0096 9B00     		lsls	r3, r3, #2
 1336 0098 D168     		ldr	r1, [r2, #12]
 1337              	.L227:
 1338 009a 2C68     		ldr	r4, [r5]
 1339 009c 0B43     		orrs	r3, r1
 1340 009e D360     		str	r3, [r2, #12]
 1341 00a0 3100     		movs	r1, r6
 1342 00a2 0122     		movs	r2, #1
 1343 00a4 2000     		movs	r0, r4
 1344 00a6 FFF7FEFF 		bl	TIM_CCxChannelCmd
 1345 00aa 8023     		movs	r3, #128
 1346 00ac DB05     		lsls	r3, r3, #23
 1347 00ae 9C42     		cmp	r4, r3
 1348 00b0 08D0     		beq	.L210
 1349 00b2 2E4B     		ldr	r3, .L230+12
 1350 00b4 9C42     		cmp	r4, r3
 1351 00b6 05D0     		beq	.L210
 1352 00b8 2D4B     		ldr	r3, .L230+16
 1353 00ba 9C42     		cmp	r4, r3
 1354 00bc 02D0     		beq	.L210
 1355 00be 2D4B     		ldr	r3, .L230+20
 1356 00c0 9C42     		cmp	r4, r3
 1357 00c2 04D1     		bne	.L211
 1358              	.L210:
 1359 00c4 0722     		movs	r2, #7
 1360 00c6 A368     		ldr	r3, [r4, #8]
ARM GAS  /tmp/ccCjdw1k.s 			page 24


 1361 00c8 1340     		ands	r3, r2
 1362 00ca 062B     		cmp	r3, #6
 1363 00cc 03D0     		beq	.L212
 1364              	.L211:
 1365 00ce 0123     		movs	r3, #1
 1366 00d0 2268     		ldr	r2, [r4]
 1367 00d2 1343     		orrs	r3, r2
 1368 00d4 2360     		str	r3, [r4]
 1369              	.L212:
 1370 00d6 0020     		movs	r0, #0
 1371 00d8 A2E7     		b	.L222
 1372              	.L200:
 1373 00da 042E     		cmp	r6, #4
 1374 00dc 13D1     		bne	.L203
 1375 00de 3B30     		adds	r0, r0, #59
 1376 00e0 0270     		strb	r2, [r0]
 1377 00e2 686A     		ldr	r0, [r5, #36]
 1378 00e4 1E4A     		ldr	r2, .L230
 1379 00e6 C262     		str	r2, [r0, #44]
 1380 00e8 1E4A     		ldr	r2, .L230+4
 1381 00ea 0263     		str	r2, [r0, #48]
 1382 00ec 1E4A     		ldr	r2, .L230+8
 1383 00ee 4263     		str	r2, [r0, #52]
 1384 00f0 2A68     		ldr	r2, [r5]
 1385 00f2 3832     		adds	r2, r2, #56
 1386 00f4 FFF7FEFF 		bl	HAL_DMA_Start_IT
 1387 00f8 0028     		cmp	r0, #0
 1388 00fa A7D1     		bne	.L208
 1389 00fc 8023     		movs	r3, #128
 1390 00fe 2A68     		ldr	r2, [r5]
 1391 0100 DB00     		lsls	r3, r3, #3
 1392 0102 D168     		ldr	r1, [r2, #12]
 1393 0104 C9E7     		b	.L227
 1394              	.L203:
 1395 0106 082E     		cmp	r6, #8
 1396 0108 13D1     		bne	.L205
 1397 010a 3C30     		adds	r0, r0, #60
 1398 010c 0270     		strb	r2, [r0]
 1399 010e A86A     		ldr	r0, [r5, #40]
 1400 0110 134A     		ldr	r2, .L230
 1401 0112 C262     		str	r2, [r0, #44]
 1402 0114 134A     		ldr	r2, .L230+4
 1403 0116 0263     		str	r2, [r0, #48]
 1404 0118 134A     		ldr	r2, .L230+8
 1405 011a 4263     		str	r2, [r0, #52]
 1406 011c 2A68     		ldr	r2, [r5]
 1407 011e 3C32     		adds	r2, r2, #60
 1408 0120 FFF7FEFF 		bl	HAL_DMA_Start_IT
 1409 0124 0028     		cmp	r0, #0
 1410 0126 91D1     		bne	.L208
 1411 0128 8023     		movs	r3, #128
 1412 012a 2A68     		ldr	r2, [r5]
 1413 012c 1B01     		lsls	r3, r3, #4
 1414 012e D168     		ldr	r1, [r2, #12]
 1415 0130 B3E7     		b	.L227
 1416              	.L205:
 1417 0132 3D30     		adds	r0, r0, #61
ARM GAS  /tmp/ccCjdw1k.s 			page 25


 1418 0134 0270     		strb	r2, [r0]
 1419 0136 0C2E     		cmp	r6, #12
 1420 0138 88D1     		bne	.L208
 1421 013a E86A     		ldr	r0, [r5, #44]
 1422 013c 084A     		ldr	r2, .L230
 1423 013e C262     		str	r2, [r0, #44]
 1424 0140 084A     		ldr	r2, .L230+4
 1425 0142 0263     		str	r2, [r0, #48]
 1426 0144 084A     		ldr	r2, .L230+8
 1427 0146 4263     		str	r2, [r0, #52]
 1428 0148 2A68     		ldr	r2, [r5]
 1429 014a 4032     		adds	r2, r2, #64
 1430 014c FFF7FEFF 		bl	HAL_DMA_Start_IT
 1431 0150 0028     		cmp	r0, #0
 1432 0152 00D0     		beq	.LCB1552
 1433 0154 7AE7     		b	.L208	@long jump
 1434              	.LCB1552:
 1435 0156 8023     		movs	r3, #128
 1436 0158 2A68     		ldr	r2, [r5]
 1437 015a 5B01     		lsls	r3, r3, #5
 1438 015c D168     		ldr	r1, [r2, #12]
 1439 015e 9CE7     		b	.L227
 1440              	.L231:
 1441              		.align	2
 1442              	.L230:
 1443 0160 00000000 		.word	TIM_DMADelayPulseCplt
 1444 0164 00000000 		.word	TIM_DMADelayPulseHalfCplt
 1445 0168 00000000 		.word	TIM_DMAError
 1446 016c 00040040 		.word	1073742848
 1447 0170 00080140 		.word	1073809408
 1448 0174 00140140 		.word	1073812480
 1450              		.section	.text.HAL_TIM_OC_Stop_DMA,"ax",%progbits
 1451              		.align	1
 1452              		.global	HAL_TIM_OC_Stop_DMA
 1453              		.syntax unified
 1454              		.code	16
 1455              		.thumb_func
 1457              	HAL_TIM_OC_Stop_DMA:
 1458              		@ args = 0, pretend = 0, frame = 0
 1459              		@ frame_needed = 0, uses_anonymous_args = 0
 1460 0000 70B5     		push	{r4, r5, r6, lr}
 1461 0002 0400     		movs	r4, r0
 1462 0004 0D00     		movs	r5, r1
 1463 0006 0829     		cmp	r1, #8
 1464 0008 33D0     		beq	.L233
 1465 000a 05D8     		bhi	.L234
 1466 000c 0029     		cmp	r1, #0
 1467 000e 0CD0     		beq	.L235
 1468 0010 0429     		cmp	r1, #4
 1469 0012 27D0     		beq	.L236
 1470              	.L247:
 1471 0014 0120     		movs	r0, #1
 1472              	.L237:
 1473              		@ sp needed
 1474 0016 70BD     		pop	{r4, r5, r6, pc}
 1475              	.L234:
 1476 0018 0C29     		cmp	r1, #12
ARM GAS  /tmp/ccCjdw1k.s 			page 26


 1477 001a FBD1     		bne	.L247
 1478 001c 0268     		ldr	r2, [r0]
 1479 001e 1D49     		ldr	r1, .L248
 1480 0020 D368     		ldr	r3, [r2, #12]
 1481 0022 C06A     		ldr	r0, [r0, #44]
 1482 0024 0B40     		ands	r3, r1
 1483 0026 D360     		str	r3, [r2, #12]
 1484 0028 05E0     		b	.L245
 1485              	.L235:
 1486 002a 0268     		ldr	r2, [r0]
 1487 002c 1A49     		ldr	r1, .L248+4
 1488 002e D368     		ldr	r3, [r2, #12]
 1489 0030 006A     		ldr	r0, [r0, #32]
 1490 0032 0B40     		ands	r3, r1
 1491 0034 D360     		str	r3, [r2, #12]
 1492              	.L245:
 1493 0036 FFF7FEFF 		bl	HAL_DMA_Abort_IT
 1494 003a 2668     		ldr	r6, [r4]
 1495 003c 0022     		movs	r2, #0
 1496 003e 2900     		movs	r1, r5
 1497 0040 3000     		movs	r0, r6
 1498 0042 FFF7FEFF 		bl	TIM_CCxChannelCmd
 1499 0046 326A     		ldr	r2, [r6, #32]
 1500 0048 144B     		ldr	r3, .L248+8
 1501 004a 1A42     		tst	r2, r3
 1502 004c 03D1     		bne	.L240
 1503 004e 0122     		movs	r2, #1
 1504 0050 3368     		ldr	r3, [r6]
 1505 0052 9343     		bics	r3, r2
 1506 0054 3360     		str	r3, [r6]
 1507              	.L240:
 1508 0056 0123     		movs	r3, #1
 1509 0058 002D     		cmp	r5, #0
 1510 005a 11D1     		bne	.L241
 1511 005c 3A34     		adds	r4, r4, #58
 1512              	.L246:
 1513 005e 0020     		movs	r0, #0
 1514 0060 2370     		strb	r3, [r4]
 1515 0062 D8E7     		b	.L237
 1516              	.L236:
 1517 0064 0268     		ldr	r2, [r0]
 1518 0066 0E49     		ldr	r1, .L248+12
 1519 0068 D368     		ldr	r3, [r2, #12]
 1520 006a 406A     		ldr	r0, [r0, #36]
 1521 006c 0B40     		ands	r3, r1
 1522 006e D360     		str	r3, [r2, #12]
 1523 0070 E1E7     		b	.L245
 1524              	.L233:
 1525 0072 0268     		ldr	r2, [r0]
 1526 0074 0B49     		ldr	r1, .L248+16
 1527 0076 D368     		ldr	r3, [r2, #12]
 1528 0078 806A     		ldr	r0, [r0, #40]
 1529 007a 0B40     		ands	r3, r1
 1530 007c D360     		str	r3, [r2, #12]
 1531 007e DAE7     		b	.L245
 1532              	.L241:
 1533 0080 042D     		cmp	r5, #4
ARM GAS  /tmp/ccCjdw1k.s 			page 27


 1534 0082 01D1     		bne	.L243
 1535 0084 3B34     		adds	r4, r4, #59
 1536 0086 EAE7     		b	.L246
 1537              	.L243:
 1538 0088 082D     		cmp	r5, #8
 1539 008a 01D1     		bne	.L244
 1540 008c 3C34     		adds	r4, r4, #60
 1541 008e E6E7     		b	.L246
 1542              	.L244:
 1543 0090 3D34     		adds	r4, r4, #61
 1544 0092 E4E7     		b	.L246
 1545              	.L249:
 1546              		.align	2
 1547              	.L248:
 1548 0094 FFEFFFFF 		.word	-4097
 1549 0098 FFFDFFFF 		.word	-513
 1550 009c 11110000 		.word	4369
 1551 00a0 FFFBFFFF 		.word	-1025
 1552 00a4 FFF7FFFF 		.word	-2049
 1554              		.section	.text.HAL_TIM_PWM_MspInit,"ax",%progbits
 1555              		.align	1
 1556              		.weak	HAL_TIM_PWM_MspInit
 1557              		.syntax unified
 1558              		.code	16
 1559              		.thumb_func
 1561              	HAL_TIM_PWM_MspInit:
 1562              		@ args = 0, pretend = 0, frame = 0
 1563              		@ frame_needed = 0, uses_anonymous_args = 0
 1564              		@ link register save eliminated.
 1565              		@ sp needed
 1566 0000 7047     		bx	lr
 1568              		.section	.text.HAL_TIM_PWM_Init,"ax",%progbits
 1569              		.align	1
 1570              		.global	HAL_TIM_PWM_Init
 1571              		.syntax unified
 1572              		.code	16
 1573              		.thumb_func
 1575              	HAL_TIM_PWM_Init:
 1576              		@ args = 0, pretend = 0, frame = 0
 1577              		@ frame_needed = 0, uses_anonymous_args = 0
 1578 0000 70B5     		push	{r4, r5, r6, lr}
 1579 0002 0400     		movs	r4, r0
 1580 0004 0120     		movs	r0, #1
 1581 0006 002C     		cmp	r4, #0
 1582 0008 1DD0     		beq	.L252
 1583 000a 2500     		movs	r5, r4
 1584 000c 3935     		adds	r5, r5, #57
 1585 000e 2B78     		ldrb	r3, [r5]
 1586 0010 DAB2     		uxtb	r2, r3
 1587 0012 002B     		cmp	r3, #0
 1588 0014 05D1     		bne	.L253
 1589 0016 2300     		movs	r3, r4
 1590 0018 3833     		adds	r3, r3, #56
 1591 001a 2000     		movs	r0, r4
 1592 001c 1A70     		strb	r2, [r3]
 1593 001e FFF7FEFF 		bl	HAL_TIM_PWM_MspInit
 1594              	.L253:
ARM GAS  /tmp/ccCjdw1k.s 			page 28


 1595 0022 0223     		movs	r3, #2
 1596 0024 2B70     		strb	r3, [r5]
 1597 0026 2068     		ldr	r0, [r4]
 1598 0028 211D     		adds	r1, r4, #4
 1599 002a FFF7FEFF 		bl	TIM_Base_SetConfig
 1600 002e 2200     		movs	r2, r4
 1601 0030 0123     		movs	r3, #1
 1602 0032 0020     		movs	r0, #0
 1603 0034 3E32     		adds	r2, r2, #62
 1604 0036 1370     		strb	r3, [r2]
 1605 0038 3D34     		adds	r4, r4, #61
 1606 003a 043A     		subs	r2, r2, #4
 1607 003c 1370     		strb	r3, [r2]
 1608 003e 5370     		strb	r3, [r2, #1]
 1609 0040 9370     		strb	r3, [r2, #2]
 1610 0042 2370     		strb	r3, [r4]
 1611 0044 2B70     		strb	r3, [r5]
 1612              	.L252:
 1613              		@ sp needed
 1614 0046 70BD     		pop	{r4, r5, r6, pc}
 1616              		.section	.text.HAL_TIM_PWM_MspDeInit,"ax",%progbits
 1617              		.align	1
 1618              		.weak	HAL_TIM_PWM_MspDeInit
 1619              		.syntax unified
 1620              		.code	16
 1621              		.thumb_func
 1623              	HAL_TIM_PWM_MspDeInit:
 1624              		@ args = 0, pretend = 0, frame = 0
 1625              		@ frame_needed = 0, uses_anonymous_args = 0
 1626              		@ link register save eliminated.
 1627              		@ sp needed
 1628 0000 7047     		bx	lr
 1630              		.section	.text.HAL_TIM_PWM_DeInit,"ax",%progbits
 1631              		.align	1
 1632              		.global	HAL_TIM_PWM_DeInit
 1633              		.syntax unified
 1634              		.code	16
 1635              		.thumb_func
 1637              	HAL_TIM_PWM_DeInit:
 1638              		@ args = 0, pretend = 0, frame = 0
 1639              		@ frame_needed = 0, uses_anonymous_args = 0
 1640 0000 70B5     		push	{r4, r5, r6, lr}
 1641 0002 0500     		movs	r5, r0
 1642 0004 0223     		movs	r3, #2
 1643 0006 3935     		adds	r5, r5, #57
 1644 0008 2B70     		strb	r3, [r5]
 1645 000a 0368     		ldr	r3, [r0]
 1646 000c 0C4A     		ldr	r2, .L258
 1647 000e 196A     		ldr	r1, [r3, #32]
 1648 0010 0400     		movs	r4, r0
 1649 0012 1142     		tst	r1, r2
 1650 0014 03D1     		bne	.L257
 1651 0016 0121     		movs	r1, #1
 1652 0018 1A68     		ldr	r2, [r3]
 1653 001a 8A43     		bics	r2, r1
 1654 001c 1A60     		str	r2, [r3]
 1655              	.L257:
ARM GAS  /tmp/ccCjdw1k.s 			page 29


 1656 001e 2000     		movs	r0, r4
 1657              		@ sp needed
 1658 0020 FFF7FEFF 		bl	HAL_TIM_PWM_MspDeInit
 1659 0024 2300     		movs	r3, r4
 1660 0026 0020     		movs	r0, #0
 1661 0028 3E33     		adds	r3, r3, #62
 1662 002a 1870     		strb	r0, [r3]
 1663 002c 3834     		adds	r4, r4, #56
 1664 002e 043B     		subs	r3, r3, #4
 1665 0030 1870     		strb	r0, [r3]
 1666 0032 5870     		strb	r0, [r3, #1]
 1667 0034 9870     		strb	r0, [r3, #2]
 1668 0036 D870     		strb	r0, [r3, #3]
 1669 0038 2870     		strb	r0, [r5]
 1670 003a 2070     		strb	r0, [r4]
 1671 003c 70BD     		pop	{r4, r5, r6, pc}
 1672              	.L259:
 1673 003e C046     		.align	2
 1674              	.L258:
 1675 0040 11110000 		.word	4369
 1677              		.section	.text.HAL_TIM_PWM_Start,"ax",%progbits
 1678              		.align	1
 1679              		.global	HAL_TIM_PWM_Start
 1680              		.syntax unified
 1681              		.code	16
 1682              		.thumb_func
 1684              	HAL_TIM_PWM_Start:
 1685              		@ args = 0, pretend = 0, frame = 0
 1686              		@ frame_needed = 0, uses_anonymous_args = 0
 1687 0000 10B5     		push	{r4, lr}
 1688 0002 FFF7FEFF 		bl	HAL_TIM_OC_Start
 1689              		@ sp needed
 1690 0006 10BD     		pop	{r4, pc}
 1692              		.section	.text.HAL_TIM_PWM_Stop,"ax",%progbits
 1693              		.align	1
 1694              		.global	HAL_TIM_PWM_Stop
 1695              		.syntax unified
 1696              		.code	16
 1697              		.thumb_func
 1699              	HAL_TIM_PWM_Stop:
 1700              		@ args = 0, pretend = 0, frame = 0
 1701              		@ frame_needed = 0, uses_anonymous_args = 0
 1702 0000 10B5     		push	{r4, lr}
 1703 0002 FFF7FEFF 		bl	HAL_TIM_OC_Stop
 1704              		@ sp needed
 1705 0006 10BD     		pop	{r4, pc}
 1707              		.section	.text.HAL_TIM_PWM_Start_IT,"ax",%progbits
 1708              		.align	1
 1709              		.global	HAL_TIM_PWM_Start_IT
 1710              		.syntax unified
 1711              		.code	16
 1712              		.thumb_func
 1714              	HAL_TIM_PWM_Start_IT:
 1715              		@ args = 0, pretend = 0, frame = 0
 1716              		@ frame_needed = 0, uses_anonymous_args = 0
 1717 0000 10B5     		push	{r4, lr}
 1718 0002 FFF7FEFF 		bl	HAL_TIM_OC_Start_IT
ARM GAS  /tmp/ccCjdw1k.s 			page 30


 1719              		@ sp needed
 1720 0006 10BD     		pop	{r4, pc}
 1722              		.section	.text.HAL_TIM_PWM_Stop_IT,"ax",%progbits
 1723              		.align	1
 1724              		.global	HAL_TIM_PWM_Stop_IT
 1725              		.syntax unified
 1726              		.code	16
 1727              		.thumb_func
 1729              	HAL_TIM_PWM_Stop_IT:
 1730              		@ args = 0, pretend = 0, frame = 0
 1731              		@ frame_needed = 0, uses_anonymous_args = 0
 1732 0000 10B5     		push	{r4, lr}
 1733 0002 FFF7FEFF 		bl	HAL_TIM_OC_Stop_IT
 1734              		@ sp needed
 1735 0006 10BD     		pop	{r4, pc}
 1737              		.section	.text.HAL_TIM_PWM_Start_DMA,"ax",%progbits
 1738              		.align	1
 1739              		.global	HAL_TIM_PWM_Start_DMA
 1740              		.syntax unified
 1741              		.code	16
 1742              		.thumb_func
 1744              	HAL_TIM_PWM_Start_DMA:
 1745              		@ args = 0, pretend = 0, frame = 0
 1746              		@ frame_needed = 0, uses_anonymous_args = 0
 1747 0000 10B5     		push	{r4, lr}
 1748 0002 FFF7FEFF 		bl	HAL_TIM_OC_Start_DMA
 1749              		@ sp needed
 1750 0006 10BD     		pop	{r4, pc}
 1752              		.section	.text.HAL_TIM_PWM_Stop_DMA,"ax",%progbits
 1753              		.align	1
 1754              		.global	HAL_TIM_PWM_Stop_DMA
 1755              		.syntax unified
 1756              		.code	16
 1757              		.thumb_func
 1759              	HAL_TIM_PWM_Stop_DMA:
 1760              		@ args = 0, pretend = 0, frame = 0
 1761              		@ frame_needed = 0, uses_anonymous_args = 0
 1762 0000 10B5     		push	{r4, lr}
 1763 0002 FFF7FEFF 		bl	HAL_TIM_OC_Stop_DMA
 1764              		@ sp needed
 1765 0006 10BD     		pop	{r4, pc}
 1767              		.section	.text.HAL_TIM_IC_MspInit,"ax",%progbits
 1768              		.align	1
 1769              		.weak	HAL_TIM_IC_MspInit
 1770              		.syntax unified
 1771              		.code	16
 1772              		.thumb_func
 1774              	HAL_TIM_IC_MspInit:
 1775              		@ args = 0, pretend = 0, frame = 0
 1776              		@ frame_needed = 0, uses_anonymous_args = 0
 1777              		@ link register save eliminated.
 1778              		@ sp needed
 1779 0000 7047     		bx	lr
 1781              		.section	.text.HAL_TIM_IC_Init,"ax",%progbits
 1782              		.align	1
 1783              		.global	HAL_TIM_IC_Init
 1784              		.syntax unified
ARM GAS  /tmp/ccCjdw1k.s 			page 31


 1785              		.code	16
 1786              		.thumb_func
 1788              	HAL_TIM_IC_Init:
 1789              		@ args = 0, pretend = 0, frame = 0
 1790              		@ frame_needed = 0, uses_anonymous_args = 0
 1791 0000 70B5     		push	{r4, r5, r6, lr}
 1792 0002 0400     		movs	r4, r0
 1793 0004 0120     		movs	r0, #1
 1794 0006 002C     		cmp	r4, #0
 1795 0008 1DD0     		beq	.L268
 1796 000a 2500     		movs	r5, r4
 1797 000c 3935     		adds	r5, r5, #57
 1798 000e 2B78     		ldrb	r3, [r5]
 1799 0010 DAB2     		uxtb	r2, r3
 1800 0012 002B     		cmp	r3, #0
 1801 0014 05D1     		bne	.L269
 1802 0016 2300     		movs	r3, r4
 1803 0018 3833     		adds	r3, r3, #56
 1804 001a 2000     		movs	r0, r4
 1805 001c 1A70     		strb	r2, [r3]
 1806 001e FFF7FEFF 		bl	HAL_TIM_IC_MspInit
 1807              	.L269:
 1808 0022 0223     		movs	r3, #2
 1809 0024 2B70     		strb	r3, [r5]
 1810 0026 2068     		ldr	r0, [r4]
 1811 0028 211D     		adds	r1, r4, #4
 1812 002a FFF7FEFF 		bl	TIM_Base_SetConfig
 1813 002e 2200     		movs	r2, r4
 1814 0030 0123     		movs	r3, #1
 1815 0032 0020     		movs	r0, #0
 1816 0034 3E32     		adds	r2, r2, #62
 1817 0036 1370     		strb	r3, [r2]
 1818 0038 3D34     		adds	r4, r4, #61
 1819 003a 043A     		subs	r2, r2, #4
 1820 003c 1370     		strb	r3, [r2]
 1821 003e 5370     		strb	r3, [r2, #1]
 1822 0040 9370     		strb	r3, [r2, #2]
 1823 0042 2370     		strb	r3, [r4]
 1824 0044 2B70     		strb	r3, [r5]
 1825              	.L268:
 1826              		@ sp needed
 1827 0046 70BD     		pop	{r4, r5, r6, pc}
 1829              		.section	.text.HAL_TIM_IC_MspDeInit,"ax",%progbits
 1830              		.align	1
 1831              		.weak	HAL_TIM_IC_MspDeInit
 1832              		.syntax unified
 1833              		.code	16
 1834              		.thumb_func
 1836              	HAL_TIM_IC_MspDeInit:
 1837              		@ args = 0, pretend = 0, frame = 0
 1838              		@ frame_needed = 0, uses_anonymous_args = 0
 1839              		@ link register save eliminated.
 1840              		@ sp needed
 1841 0000 7047     		bx	lr
 1843              		.section	.text.HAL_TIM_IC_DeInit,"ax",%progbits
 1844              		.align	1
 1845              		.global	HAL_TIM_IC_DeInit
ARM GAS  /tmp/ccCjdw1k.s 			page 32


 1846              		.syntax unified
 1847              		.code	16
 1848              		.thumb_func
 1850              	HAL_TIM_IC_DeInit:
 1851              		@ args = 0, pretend = 0, frame = 0
 1852              		@ frame_needed = 0, uses_anonymous_args = 0
 1853 0000 70B5     		push	{r4, r5, r6, lr}
 1854 0002 0500     		movs	r5, r0
 1855 0004 0223     		movs	r3, #2
 1856 0006 3935     		adds	r5, r5, #57
 1857 0008 2B70     		strb	r3, [r5]
 1858 000a 0368     		ldr	r3, [r0]
 1859 000c 0C4A     		ldr	r2, .L274
 1860 000e 196A     		ldr	r1, [r3, #32]
 1861 0010 0400     		movs	r4, r0
 1862 0012 1142     		tst	r1, r2
 1863 0014 03D1     		bne	.L273
 1864 0016 0121     		movs	r1, #1
 1865 0018 1A68     		ldr	r2, [r3]
 1866 001a 8A43     		bics	r2, r1
 1867 001c 1A60     		str	r2, [r3]
 1868              	.L273:
 1869 001e 2000     		movs	r0, r4
 1870              		@ sp needed
 1871 0020 FFF7FEFF 		bl	HAL_TIM_IC_MspDeInit
 1872 0024 2300     		movs	r3, r4
 1873 0026 0020     		movs	r0, #0
 1874 0028 3E33     		adds	r3, r3, #62
 1875 002a 1870     		strb	r0, [r3]
 1876 002c 3834     		adds	r4, r4, #56
 1877 002e 043B     		subs	r3, r3, #4
 1878 0030 1870     		strb	r0, [r3]
 1879 0032 5870     		strb	r0, [r3, #1]
 1880 0034 9870     		strb	r0, [r3, #2]
 1881 0036 D870     		strb	r0, [r3, #3]
 1882 0038 2870     		strb	r0, [r5]
 1883 003a 2070     		strb	r0, [r4]
 1884 003c 70BD     		pop	{r4, r5, r6, pc}
 1885              	.L275:
 1886 003e C046     		.align	2
 1887              	.L274:
 1888 0040 11110000 		.word	4369
 1890              		.section	.text.HAL_TIM_IC_Start,"ax",%progbits
 1891              		.align	1
 1892              		.global	HAL_TIM_IC_Start
 1893              		.syntax unified
 1894              		.code	16
 1895              		.thumb_func
 1897              	HAL_TIM_IC_Start:
 1898              		@ args = 0, pretend = 0, frame = 0
 1899              		@ frame_needed = 0, uses_anonymous_args = 0
 1900 0000 0300     		movs	r3, r0
 1901 0002 0200     		movs	r2, r0
 1902 0004 10B5     		push	{r4, lr}
 1903 0006 0029     		cmp	r1, #0
 1904 0008 23D1     		bne	.L277
 1905 000a 3A32     		adds	r2, r2, #58
ARM GAS  /tmp/ccCjdw1k.s 			page 33


 1906              	.L301:
 1907 000c 0120     		movs	r0, #1
 1908 000e 1478     		ldrb	r4, [r2]
 1909 0010 8442     		cmp	r4, r0
 1910 0012 1DD1     		bne	.L278
 1911 0014 0220     		movs	r0, #2
 1912 0016 1070     		strb	r0, [r2]
 1913 0018 1C68     		ldr	r4, [r3]
 1914 001a 0122     		movs	r2, #1
 1915 001c 2000     		movs	r0, r4
 1916 001e FFF7FEFF 		bl	TIM_CCxChannelCmd
 1917 0022 8023     		movs	r3, #128
 1918 0024 DB05     		lsls	r3, r3, #23
 1919 0026 9C42     		cmp	r4, r3
 1920 0028 08D0     		beq	.L286
 1921 002a 0F4B     		ldr	r3, .L304
 1922 002c 9C42     		cmp	r4, r3
 1923 002e 05D0     		beq	.L286
 1924 0030 0E4B     		ldr	r3, .L304+4
 1925 0032 9C42     		cmp	r4, r3
 1926 0034 02D0     		beq	.L286
 1927 0036 0E4B     		ldr	r3, .L304+8
 1928 0038 9C42     		cmp	r4, r3
 1929 003a 04D1     		bne	.L300
 1930              	.L286:
 1931 003c 0722     		movs	r2, #7
 1932 003e A368     		ldr	r3, [r4, #8]
 1933 0040 1340     		ands	r3, r2
 1934 0042 062B     		cmp	r3, #6
 1935 0044 03D0     		beq	.L288
 1936              	.L300:
 1937 0046 0123     		movs	r3, #1
 1938 0048 2268     		ldr	r2, [r4]
 1939 004a 1343     		orrs	r3, r2
 1940 004c 2360     		str	r3, [r4]
 1941              	.L288:
 1942 004e 0020     		movs	r0, #0
 1943              	.L278:
 1944              		@ sp needed
 1945 0050 10BD     		pop	{r4, pc}
 1946              	.L277:
 1947 0052 0429     		cmp	r1, #4
 1948 0054 01D1     		bne	.L280
 1949 0056 3B32     		adds	r2, r2, #59
 1950 0058 D8E7     		b	.L301
 1951              	.L280:
 1952 005a 0829     		cmp	r1, #8
 1953 005c 01D1     		bne	.L282
 1954 005e 3C32     		adds	r2, r2, #60
 1955 0060 D4E7     		b	.L301
 1956              	.L282:
 1957 0062 3D32     		adds	r2, r2, #61
 1958 0064 D2E7     		b	.L301
 1959              	.L305:
 1960 0066 C046     		.align	2
 1961              	.L304:
 1962 0068 00040040 		.word	1073742848
ARM GAS  /tmp/ccCjdw1k.s 			page 34


 1963 006c 00080140 		.word	1073809408
 1964 0070 00140140 		.word	1073812480
 1966              		.section	.text.HAL_TIM_IC_Stop,"ax",%progbits
 1967              		.align	1
 1968              		.global	HAL_TIM_IC_Stop
 1969              		.syntax unified
 1970              		.code	16
 1971              		.thumb_func
 1973              	HAL_TIM_IC_Stop:
 1974              		@ args = 0, pretend = 0, frame = 0
 1975              		@ frame_needed = 0, uses_anonymous_args = 0
 1976 0000 10B5     		push	{r4, lr}
 1977 0002 FFF7FEFF 		bl	HAL_TIM_OC_Stop
 1978              		@ sp needed
 1979 0006 10BD     		pop	{r4, pc}
 1981              		.section	.text.HAL_TIM_IC_Start_IT,"ax",%progbits
 1982              		.align	1
 1983              		.global	HAL_TIM_IC_Start_IT
 1984              		.syntax unified
 1985              		.code	16
 1986              		.thumb_func
 1988              	HAL_TIM_IC_Start_IT:
 1989              		@ args = 0, pretend = 0, frame = 0
 1990              		@ frame_needed = 0, uses_anonymous_args = 0
 1991 0000 10B5     		push	{r4, lr}
 1992 0002 0029     		cmp	r1, #0
 1993 0004 0AD1     		bne	.L308
 1994 0006 0200     		movs	r2, r0
 1995 0008 3A32     		adds	r2, r2, #58
 1996 000a 1378     		ldrb	r3, [r2]
 1997 000c 012B     		cmp	r3, #1
 1998 000e 40D1     		bne	.L309
 1999 0010 0223     		movs	r3, #2
 2000 0012 1370     		strb	r3, [r2]
 2001 0014 0268     		ldr	r2, [r0]
 2002 0016 D468     		ldr	r4, [r2, #12]
 2003              	.L326:
 2004 0018 2343     		orrs	r3, r4
 2005 001a 0BE0     		b	.L327
 2006              	.L308:
 2007 001c 0300     		movs	r3, r0
 2008 001e 0429     		cmp	r1, #4
 2009 0020 22D1     		bne	.L311
 2010 0022 3B33     		adds	r3, r3, #59
 2011              	.L329:
 2012 0024 1A78     		ldrb	r2, [r3]
 2013 0026 012A     		cmp	r2, #1
 2014 0028 33D1     		bne	.L309
 2015 002a 0222     		movs	r2, #2
 2016 002c 1A70     		strb	r2, [r3]
 2017 002e 0268     		ldr	r2, [r0]
 2018 0030 D368     		ldr	r3, [r2, #12]
 2019 0032 0B43     		orrs	r3, r1
 2020              	.L327:
 2021 0034 0468     		ldr	r4, [r0]
 2022 0036 D360     		str	r3, [r2, #12]
 2023 0038 2000     		movs	r0, r4
ARM GAS  /tmp/ccCjdw1k.s 			page 35


 2024 003a 0122     		movs	r2, #1
 2025 003c FFF7FEFF 		bl	TIM_CCxChannelCmd
 2026 0040 8023     		movs	r3, #128
 2027 0042 DB05     		lsls	r3, r3, #23
 2028 0044 9C42     		cmp	r4, r3
 2029 0046 08D0     		beq	.L317
 2030 0048 134B     		ldr	r3, .L330
 2031 004a 9C42     		cmp	r4, r3
 2032 004c 05D0     		beq	.L317
 2033 004e 134B     		ldr	r3, .L330+4
 2034 0050 9C42     		cmp	r4, r3
 2035 0052 02D0     		beq	.L317
 2036 0054 124B     		ldr	r3, .L330+8
 2037 0056 9C42     		cmp	r4, r3
 2038 0058 16D1     		bne	.L318
 2039              	.L317:
 2040 005a 0722     		movs	r2, #7
 2041 005c A368     		ldr	r3, [r4, #8]
 2042 005e 1340     		ands	r3, r2
 2043 0060 062B     		cmp	r3, #6
 2044 0062 11D1     		bne	.L318
 2045              	.L321:
 2046 0064 0020     		movs	r0, #0
 2047              	.L320:
 2048              		@ sp needed
 2049 0066 10BD     		pop	{r4, pc}
 2050              	.L311:
 2051 0068 0829     		cmp	r1, #8
 2052 006a 01D1     		bne	.L313
 2053 006c 3C33     		adds	r3, r3, #60
 2054 006e D9E7     		b	.L329
 2055              	.L313:
 2056 0070 3D33     		adds	r3, r3, #61
 2057 0072 1A78     		ldrb	r2, [r3]
 2058 0074 012A     		cmp	r2, #1
 2059 0076 0CD1     		bne	.L309
 2060 0078 0222     		movs	r2, #2
 2061 007a 1A70     		strb	r2, [r3]
 2062 007c 0C29     		cmp	r1, #12
 2063 007e 08D1     		bne	.L309
 2064 0080 0268     		ldr	r2, [r0]
 2065 0082 1023     		movs	r3, #16
 2066 0084 D468     		ldr	r4, [r2, #12]
 2067 0086 C7E7     		b	.L326
 2068              	.L318:
 2069 0088 0123     		movs	r3, #1
 2070 008a 2268     		ldr	r2, [r4]
 2071 008c 1343     		orrs	r3, r2
 2072 008e 2360     		str	r3, [r4]
 2073 0090 E8E7     		b	.L321
 2074              	.L309:
 2075 0092 0120     		movs	r0, #1
 2076 0094 E7E7     		b	.L320
 2077              	.L331:
 2078 0096 C046     		.align	2
 2079              	.L330:
 2080 0098 00040040 		.word	1073742848
ARM GAS  /tmp/ccCjdw1k.s 			page 36


 2081 009c 00080140 		.word	1073809408
 2082 00a0 00140140 		.word	1073812480
 2084              		.section	.text.HAL_TIM_IC_Stop_IT,"ax",%progbits
 2085              		.align	1
 2086              		.global	HAL_TIM_IC_Stop_IT
 2087              		.syntax unified
 2088              		.code	16
 2089              		.thumb_func
 2091              	HAL_TIM_IC_Stop_IT:
 2092              		@ args = 0, pretend = 0, frame = 0
 2093              		@ frame_needed = 0, uses_anonymous_args = 0
 2094 0000 10B5     		push	{r4, lr}
 2095 0002 FFF7FEFF 		bl	HAL_TIM_OC_Stop_IT
 2096              		@ sp needed
 2097 0006 10BD     		pop	{r4, pc}
 2099              		.section	.text.HAL_TIM_IC_Start_DMA,"ax",%progbits
 2100              		.align	1
 2101              		.global	HAL_TIM_IC_Start_DMA
 2102              		.syntax unified
 2103              		.code	16
 2104              		.thumb_func
 2106              	HAL_TIM_IC_Start_DMA:
 2107              		@ args = 0, pretend = 0, frame = 8
 2108              		@ frame_needed = 0, uses_anonymous_args = 0
 2109 0000 F7B5     		push	{r0, r1, r2, r4, r5, r6, r7, lr}
 2110 0002 0400     		movs	r4, r0
 2111 0004 0193     		str	r3, [sp, #4]
 2112 0006 0E00     		movs	r6, r1
 2113 0008 0300     		movs	r3, r0
 2114 000a 0092     		str	r2, [sp]
 2115 000c 0029     		cmp	r1, #0
 2116 000e 09D1     		bne	.L334
 2117 0010 3A33     		adds	r3, r3, #58
 2118              	.L362:
 2119 0012 1D78     		ldrb	r5, [r3]
 2120 0014 EDB2     		uxtb	r5, r5
 2121 0016 022D     		cmp	r5, #2
 2122 0018 02D0     		beq	.L338
 2123 001a 012D     		cmp	r5, #1
 2124 001c 0CD0     		beq	.L339
 2125              	.L341:
 2126 001e 0125     		movs	r5, #1
 2127              	.L338:
 2128              		@ sp needed
 2129 0020 2800     		movs	r0, r5
 2130 0022 FEBD     		pop	{r1, r2, r3, r4, r5, r6, r7, pc}
 2131              	.L334:
 2132 0024 0429     		cmp	r1, #4
 2133 0026 01D1     		bne	.L336
 2134 0028 3B33     		adds	r3, r3, #59
 2135 002a F2E7     		b	.L362
 2136              	.L336:
 2137 002c 0829     		cmp	r1, #8
 2138 002e 01D1     		bne	.L337
 2139 0030 3C33     		adds	r3, r3, #60
 2140 0032 EEE7     		b	.L362
 2141              	.L337:
ARM GAS  /tmp/ccCjdw1k.s 			page 37


 2142 0034 3D33     		adds	r3, r3, #61
 2143 0036 ECE7     		b	.L362
 2144              	.L339:
 2145 0038 009B     		ldr	r3, [sp]
 2146 003a 002B     		cmp	r3, #0
 2147 003c 02D1     		bne	.L340
 2148 003e 019B     		ldr	r3, [sp, #4]
 2149 0040 002B     		cmp	r3, #0
 2150 0042 ECD1     		bne	.L341
 2151              	.L340:
 2152 0044 0223     		movs	r3, #2
 2153 0046 2200     		movs	r2, r4
 2154 0048 002E     		cmp	r6, #0
 2155 004a 26D1     		bne	.L342
 2156 004c 3A32     		adds	r2, r2, #58
 2157              	.L363:
 2158 004e 1370     		strb	r3, [r2]
 2159 0050 2768     		ldr	r7, [r4]
 2160 0052 0122     		movs	r2, #1
 2161 0054 3100     		movs	r1, r6
 2162 0056 3800     		movs	r0, r7
 2163 0058 FFF7FEFF 		bl	TIM_CCxChannelCmd
 2164 005c 082E     		cmp	r6, #8
 2165 005e 69D0     		beq	.L346
 2166 0060 25D8     		bhi	.L347
 2167 0062 002E     		cmp	r6, #0
 2168 0064 39D0     		beq	.L348
 2169 0066 042E     		cmp	r6, #4
 2170 0068 4FD0     		beq	.L349
 2171              	.L350:
 2172 006a 8022     		movs	r2, #128
 2173 006c 2368     		ldr	r3, [r4]
 2174 006e D205     		lsls	r2, r2, #23
 2175 0070 9342     		cmp	r3, r2
 2176 0072 08D0     		beq	.L353
 2177 0074 3A4A     		ldr	r2, .L365
 2178 0076 9342     		cmp	r3, r2
 2179 0078 05D0     		beq	.L353
 2180 007a 3A4A     		ldr	r2, .L365+4
 2181 007c 9342     		cmp	r3, r2
 2182 007e 02D0     		beq	.L353
 2183 0080 394A     		ldr	r2, .L365+8
 2184 0082 9342     		cmp	r3, r2
 2185 0084 04D1     		bne	.L354
 2186              	.L353:
 2187 0086 0721     		movs	r1, #7
 2188 0088 9A68     		ldr	r2, [r3, #8]
 2189 008a 0A40     		ands	r2, r1
 2190 008c 062A     		cmp	r2, #6
 2191 008e C7D0     		beq	.L338
 2192              	.L354:
 2193 0090 0122     		movs	r2, #1
 2194 0092 1968     		ldr	r1, [r3]
 2195 0094 0A43     		orrs	r2, r1
 2196 0096 1A60     		str	r2, [r3]
 2197 0098 C2E7     		b	.L338
 2198              	.L342:
ARM GAS  /tmp/ccCjdw1k.s 			page 38


 2199 009a 042E     		cmp	r6, #4
 2200 009c 01D1     		bne	.L344
 2201 009e 3B32     		adds	r2, r2, #59
 2202 00a0 D5E7     		b	.L363
 2203              	.L344:
 2204 00a2 082E     		cmp	r6, #8
 2205 00a4 01D1     		bne	.L345
 2206 00a6 3C32     		adds	r2, r2, #60
 2207 00a8 D1E7     		b	.L363
 2208              	.L345:
 2209 00aa 3D32     		adds	r2, r2, #61
 2210 00ac CFE7     		b	.L363
 2211              	.L347:
 2212 00ae 0C2E     		cmp	r6, #12
 2213 00b0 DBD1     		bne	.L350
 2214 00b2 3900     		movs	r1, r7
 2215 00b4 E06A     		ldr	r0, [r4, #44]
 2216 00b6 2D4B     		ldr	r3, .L365+12
 2217 00b8 009A     		ldr	r2, [sp]
 2218 00ba C362     		str	r3, [r0, #44]
 2219 00bc 2C4B     		ldr	r3, .L365+16
 2220 00be 4031     		adds	r1, r1, #64
 2221 00c0 0363     		str	r3, [r0, #48]
 2222 00c2 2C4B     		ldr	r3, .L365+20
 2223 00c4 4363     		str	r3, [r0, #52]
 2224 00c6 019B     		ldr	r3, [sp, #4]
 2225 00c8 FFF7FEFF 		bl	HAL_DMA_Start_IT
 2226 00cc 0028     		cmp	r0, #0
 2227 00ce A6D1     		bne	.L341
 2228 00d0 8023     		movs	r3, #128
 2229 00d2 2268     		ldr	r2, [r4]
 2230 00d4 5B01     		lsls	r3, r3, #5
 2231 00d6 D168     		ldr	r1, [r2, #12]
 2232 00d8 13E0     		b	.L364
 2233              	.L348:
 2234 00da 3900     		movs	r1, r7
 2235 00dc 206A     		ldr	r0, [r4, #32]
 2236 00de 234B     		ldr	r3, .L365+12
 2237 00e0 009A     		ldr	r2, [sp]
 2238 00e2 C362     		str	r3, [r0, #44]
 2239 00e4 224B     		ldr	r3, .L365+16
 2240 00e6 3431     		adds	r1, r1, #52
 2241 00e8 0363     		str	r3, [r0, #48]
 2242 00ea 224B     		ldr	r3, .L365+20
 2243 00ec 4363     		str	r3, [r0, #52]
 2244 00ee 019B     		ldr	r3, [sp, #4]
 2245 00f0 FFF7FEFF 		bl	HAL_DMA_Start_IT
 2246 00f4 0028     		cmp	r0, #0
 2247 00f6 00D0     		beq	.LCB2409
 2248 00f8 91E7     		b	.L341	@long jump
 2249              	.LCB2409:
 2250 00fa 8023     		movs	r3, #128
 2251 00fc 2268     		ldr	r2, [r4]
 2252 00fe 9B00     		lsls	r3, r3, #2
 2253 0100 D168     		ldr	r1, [r2, #12]
 2254              	.L364:
 2255 0102 0B43     		orrs	r3, r1
ARM GAS  /tmp/ccCjdw1k.s 			page 39


 2256 0104 0025     		movs	r5, #0
 2257 0106 D360     		str	r3, [r2, #12]
 2258 0108 AFE7     		b	.L350
 2259              	.L349:
 2260 010a 3900     		movs	r1, r7
 2261 010c 606A     		ldr	r0, [r4, #36]
 2262 010e 174B     		ldr	r3, .L365+12
 2263 0110 009A     		ldr	r2, [sp]
 2264 0112 C362     		str	r3, [r0, #44]
 2265 0114 164B     		ldr	r3, .L365+16
 2266 0116 3831     		adds	r1, r1, #56
 2267 0118 0363     		str	r3, [r0, #48]
 2268 011a 164B     		ldr	r3, .L365+20
 2269 011c 4363     		str	r3, [r0, #52]
 2270 011e 019B     		ldr	r3, [sp, #4]
 2271 0120 FFF7FEFF 		bl	HAL_DMA_Start_IT
 2272 0124 0028     		cmp	r0, #0
 2273 0126 00D0     		beq	.LCB2437
 2274 0128 79E7     		b	.L341	@long jump
 2275              	.LCB2437:
 2276 012a 8023     		movs	r3, #128
 2277 012c 2268     		ldr	r2, [r4]
 2278 012e DB00     		lsls	r3, r3, #3
 2279 0130 D168     		ldr	r1, [r2, #12]
 2280 0132 E6E7     		b	.L364
 2281              	.L346:
 2282 0134 3900     		movs	r1, r7
 2283 0136 A06A     		ldr	r0, [r4, #40]
 2284 0138 0C4B     		ldr	r3, .L365+12
 2285 013a 009A     		ldr	r2, [sp]
 2286 013c C362     		str	r3, [r0, #44]
 2287 013e 0C4B     		ldr	r3, .L365+16
 2288 0140 3C31     		adds	r1, r1, #60
 2289 0142 0363     		str	r3, [r0, #48]
 2290 0144 0B4B     		ldr	r3, .L365+20
 2291 0146 4363     		str	r3, [r0, #52]
 2292 0148 019B     		ldr	r3, [sp, #4]
 2293 014a FFF7FEFF 		bl	HAL_DMA_Start_IT
 2294 014e 0028     		cmp	r0, #0
 2295 0150 00D0     		beq	.LCB2460
 2296 0152 64E7     		b	.L341	@long jump
 2297              	.LCB2460:
 2298 0154 8023     		movs	r3, #128
 2299 0156 2268     		ldr	r2, [r4]
 2300 0158 1B01     		lsls	r3, r3, #4
 2301 015a D168     		ldr	r1, [r2, #12]
 2302 015c D1E7     		b	.L364
 2303              	.L366:
 2304 015e C046     		.align	2
 2305              	.L365:
 2306 0160 00040040 		.word	1073742848
 2307 0164 00080140 		.word	1073809408
 2308 0168 00140140 		.word	1073812480
 2309 016c 00000000 		.word	TIM_DMACaptureCplt
 2310 0170 00000000 		.word	TIM_DMACaptureHalfCplt
 2311 0174 00000000 		.word	TIM_DMAError
 2313              		.section	.text.HAL_TIM_IC_Stop_DMA,"ax",%progbits
ARM GAS  /tmp/ccCjdw1k.s 			page 40


 2314              		.align	1
 2315              		.global	HAL_TIM_IC_Stop_DMA
 2316              		.syntax unified
 2317              		.code	16
 2318              		.thumb_func
 2320              	HAL_TIM_IC_Stop_DMA:
 2321              		@ args = 0, pretend = 0, frame = 0
 2322              		@ frame_needed = 0, uses_anonymous_args = 0
 2323 0000 70B5     		push	{r4, r5, r6, lr}
 2324 0002 0668     		ldr	r6, [r0]
 2325 0004 0400     		movs	r4, r0
 2326 0006 0022     		movs	r2, #0
 2327 0008 3000     		movs	r0, r6
 2328 000a 0D00     		movs	r5, r1
 2329 000c FFF7FEFF 		bl	TIM_CCxChannelCmd
 2330 0010 082D     		cmp	r5, #8
 2331 0012 2BD0     		beq	.L368
 2332 0014 05D8     		bhi	.L369
 2333 0016 002D     		cmp	r5, #0
 2334 0018 0BD0     		beq	.L370
 2335 001a 042D     		cmp	r5, #4
 2336 001c 20D0     		beq	.L371
 2337              	.L382:
 2338 001e 0120     		movs	r0, #1
 2339              	.L372:
 2340              		@ sp needed
 2341 0020 70BD     		pop	{r4, r5, r6, pc}
 2342              	.L369:
 2343 0022 0C2D     		cmp	r5, #12
 2344 0024 FBD1     		bne	.L382
 2345 0026 F368     		ldr	r3, [r6, #12]
 2346 0028 184A     		ldr	r2, .L383
 2347 002a E06A     		ldr	r0, [r4, #44]
 2348 002c 1340     		ands	r3, r2
 2349 002e F360     		str	r3, [r6, #12]
 2350 0030 04E0     		b	.L380
 2351              	.L370:
 2352 0032 F368     		ldr	r3, [r6, #12]
 2353 0034 164A     		ldr	r2, .L383+4
 2354 0036 206A     		ldr	r0, [r4, #32]
 2355 0038 1340     		ands	r3, r2
 2356 003a F360     		str	r3, [r6, #12]
 2357              	.L380:
 2358 003c FFF7FEFF 		bl	HAL_DMA_Abort_IT
 2359 0040 2368     		ldr	r3, [r4]
 2360 0042 144A     		ldr	r2, .L383+8
 2361 0044 196A     		ldr	r1, [r3, #32]
 2362 0046 1142     		tst	r1, r2
 2363 0048 03D1     		bne	.L375
 2364 004a 0121     		movs	r1, #1
 2365 004c 1A68     		ldr	r2, [r3]
 2366 004e 8A43     		bics	r2, r1
 2367 0050 1A60     		str	r2, [r3]
 2368              	.L375:
 2369 0052 0123     		movs	r3, #1
 2370 0054 002D     		cmp	r5, #0
 2371 0056 0FD1     		bne	.L376
ARM GAS  /tmp/ccCjdw1k.s 			page 41


 2372 0058 3A34     		adds	r4, r4, #58
 2373              	.L381:
 2374 005a 0020     		movs	r0, #0
 2375 005c 2370     		strb	r3, [r4]
 2376 005e DFE7     		b	.L372
 2377              	.L371:
 2378 0060 F368     		ldr	r3, [r6, #12]
 2379 0062 0D4A     		ldr	r2, .L383+12
 2380 0064 606A     		ldr	r0, [r4, #36]
 2381 0066 1340     		ands	r3, r2
 2382 0068 F360     		str	r3, [r6, #12]
 2383 006a E7E7     		b	.L380
 2384              	.L368:
 2385 006c F368     		ldr	r3, [r6, #12]
 2386 006e 0B4A     		ldr	r2, .L383+16
 2387 0070 A06A     		ldr	r0, [r4, #40]
 2388 0072 1340     		ands	r3, r2
 2389 0074 F360     		str	r3, [r6, #12]
 2390 0076 E1E7     		b	.L380
 2391              	.L376:
 2392 0078 042D     		cmp	r5, #4
 2393 007a 01D1     		bne	.L378
 2394 007c 3B34     		adds	r4, r4, #59
 2395 007e ECE7     		b	.L381
 2396              	.L378:
 2397 0080 082D     		cmp	r5, #8
 2398 0082 01D1     		bne	.L379
 2399 0084 3C34     		adds	r4, r4, #60
 2400 0086 E8E7     		b	.L381
 2401              	.L379:
 2402 0088 3D34     		adds	r4, r4, #61
 2403 008a E6E7     		b	.L381
 2404              	.L384:
 2405              		.align	2
 2406              	.L383:
 2407 008c FFEFFFFF 		.word	-4097
 2408 0090 FFFDFFFF 		.word	-513
 2409 0094 11110000 		.word	4369
 2410 0098 FFFBFFFF 		.word	-1025
 2411 009c FFF7FFFF 		.word	-2049
 2413              		.section	.text.HAL_TIM_OnePulse_MspInit,"ax",%progbits
 2414              		.align	1
 2415              		.weak	HAL_TIM_OnePulse_MspInit
 2416              		.syntax unified
 2417              		.code	16
 2418              		.thumb_func
 2420              	HAL_TIM_OnePulse_MspInit:
 2421              		@ args = 0, pretend = 0, frame = 0
 2422              		@ frame_needed = 0, uses_anonymous_args = 0
 2423              		@ link register save eliminated.
 2424              		@ sp needed
 2425 0000 7047     		bx	lr
 2427              		.section	.text.HAL_TIM_OnePulse_Init,"ax",%progbits
 2428              		.align	1
 2429              		.global	HAL_TIM_OnePulse_Init
 2430              		.syntax unified
 2431              		.code	16
ARM GAS  /tmp/ccCjdw1k.s 			page 42


 2432              		.thumb_func
 2434              	HAL_TIM_OnePulse_Init:
 2435              		@ args = 0, pretend = 0, frame = 0
 2436              		@ frame_needed = 0, uses_anonymous_args = 0
 2437 0000 F8B5     		push	{r3, r4, r5, r6, r7, lr}
 2438 0002 0400     		movs	r4, r0
 2439 0004 0F00     		movs	r7, r1
 2440 0006 0120     		movs	r0, #1
 2441 0008 002C     		cmp	r4, #0
 2442 000a 23D0     		beq	.L387
 2443 000c 2600     		movs	r6, r4
 2444 000e 3936     		adds	r6, r6, #57
 2445 0010 3378     		ldrb	r3, [r6]
 2446 0012 DAB2     		uxtb	r2, r3
 2447 0014 002B     		cmp	r3, #0
 2448 0016 05D1     		bne	.L388
 2449 0018 2300     		movs	r3, r4
 2450 001a 3833     		adds	r3, r3, #56
 2451 001c 2000     		movs	r0, r4
 2452 001e 1A70     		strb	r2, [r3]
 2453 0020 FFF7FEFF 		bl	HAL_TIM_OnePulse_MspInit
 2454              	.L388:
 2455 0024 0223     		movs	r3, #2
 2456 0026 2100     		movs	r1, r4
 2457 0028 3370     		strb	r3, [r6]
 2458 002a 20C9     		ldmia	r1!, {r5}
 2459 002c 2800     		movs	r0, r5
 2460 002e FFF7FEFF 		bl	TIM_Base_SetConfig
 2461 0032 0822     		movs	r2, #8
 2462 0034 2B68     		ldr	r3, [r5]
 2463 0036 0020     		movs	r0, #0
 2464 0038 9343     		bics	r3, r2
 2465 003a 2200     		movs	r2, r4
 2466 003c 2B60     		str	r3, [r5]
 2467 003e 0123     		movs	r3, #1
 2468 0040 2968     		ldr	r1, [r5]
 2469 0042 3E32     		adds	r2, r2, #62
 2470 0044 3943     		orrs	r1, r7
 2471 0046 2960     		str	r1, [r5]
 2472 0048 043A     		subs	r2, r2, #4
 2473 004a 3B34     		adds	r4, r4, #59
 2474 004c 1371     		strb	r3, [r2, #4]
 2475 004e 1370     		strb	r3, [r2]
 2476 0050 2370     		strb	r3, [r4]
 2477 0052 3370     		strb	r3, [r6]
 2478              	.L387:
 2479              		@ sp needed
 2480 0054 F8BD     		pop	{r3, r4, r5, r6, r7, pc}
 2482              		.section	.text.HAL_TIM_OnePulse_MspDeInit,"ax",%progbits
 2483              		.align	1
 2484              		.weak	HAL_TIM_OnePulse_MspDeInit
 2485              		.syntax unified
 2486              		.code	16
 2487              		.thumb_func
 2489              	HAL_TIM_OnePulse_MspDeInit:
 2490              		@ args = 0, pretend = 0, frame = 0
 2491              		@ frame_needed = 0, uses_anonymous_args = 0
ARM GAS  /tmp/ccCjdw1k.s 			page 43


 2492              		@ link register save eliminated.
 2493              		@ sp needed
 2494 0000 7047     		bx	lr
 2496              		.section	.text.HAL_TIM_OnePulse_DeInit,"ax",%progbits
 2497              		.align	1
 2498              		.global	HAL_TIM_OnePulse_DeInit
 2499              		.syntax unified
 2500              		.code	16
 2501              		.thumb_func
 2503              	HAL_TIM_OnePulse_DeInit:
 2504              		@ args = 0, pretend = 0, frame = 0
 2505              		@ frame_needed = 0, uses_anonymous_args = 0
 2506 0000 70B5     		push	{r4, r5, r6, lr}
 2507 0002 0500     		movs	r5, r0
 2508 0004 0223     		movs	r3, #2
 2509 0006 3935     		adds	r5, r5, #57
 2510 0008 2B70     		strb	r3, [r5]
 2511 000a 0368     		ldr	r3, [r0]
 2512 000c 0B4A     		ldr	r2, .L393
 2513 000e 196A     		ldr	r1, [r3, #32]
 2514 0010 0400     		movs	r4, r0
 2515 0012 1142     		tst	r1, r2
 2516 0014 03D1     		bne	.L392
 2517 0016 0121     		movs	r1, #1
 2518 0018 1A68     		ldr	r2, [r3]
 2519 001a 8A43     		bics	r2, r1
 2520 001c 1A60     		str	r2, [r3]
 2521              	.L392:
 2522 001e 2000     		movs	r0, r4
 2523              		@ sp needed
 2524 0020 FFF7FEFF 		bl	HAL_TIM_OnePulse_MspDeInit
 2525 0024 2300     		movs	r3, r4
 2526 0026 0020     		movs	r0, #0
 2527 0028 3E33     		adds	r3, r3, #62
 2528 002a 1870     		strb	r0, [r3]
 2529 002c 3834     		adds	r4, r4, #56
 2530 002e 043B     		subs	r3, r3, #4
 2531 0030 1870     		strb	r0, [r3]
 2532 0032 5870     		strb	r0, [r3, #1]
 2533 0034 2870     		strb	r0, [r5]
 2534 0036 2070     		strb	r0, [r4]
 2535 0038 70BD     		pop	{r4, r5, r6, pc}
 2536              	.L394:
 2537 003a C046     		.align	2
 2538              	.L393:
 2539 003c 11110000 		.word	4369
 2541              		.section	.text.HAL_TIM_OnePulse_Start,"ax",%progbits
 2542              		.align	1
 2543              		.global	HAL_TIM_OnePulse_Start
 2544              		.syntax unified
 2545              		.code	16
 2546              		.thumb_func
 2548              	HAL_TIM_OnePulse_Start:
 2549              		@ args = 0, pretend = 0, frame = 0
 2550              		@ frame_needed = 0, uses_anonymous_args = 0
 2551 0000 0300     		movs	r3, r0
 2552 0002 30B5     		push	{r4, r5, lr}
ARM GAS  /tmp/ccCjdw1k.s 			page 44


 2553 0004 1900     		movs	r1, r3
 2554 0006 0400     		movs	r4, r0
 2555 0008 3B31     		adds	r1, r1, #59
 2556 000a 3A34     		adds	r4, r4, #58
 2557 000c 2578     		ldrb	r5, [r4]
 2558 000e 0A78     		ldrb	r2, [r1]
 2559 0010 E8B2     		uxtb	r0, r5
 2560 0012 D2B2     		uxtb	r2, r2
 2561 0014 012D     		cmp	r5, #1
 2562 0016 14D1     		bne	.L397
 2563 0018 012A     		cmp	r2, #1
 2564 001a 11D1     		bne	.L396
 2565 001c 0132     		adds	r2, r2, #1
 2566 001e 2270     		strb	r2, [r4]
 2567 0020 0A70     		strb	r2, [r1]
 2568 0022 1B68     		ldr	r3, [r3]
 2569 0024 1A6A     		ldr	r2, [r3, #32]
 2570 0026 8243     		bics	r2, r0
 2571 0028 1A62     		str	r2, [r3, #32]
 2572 002a 1A6A     		ldr	r2, [r3, #32]
 2573 002c 0243     		orrs	r2, r0
 2574 002e 1A62     		str	r2, [r3, #32]
 2575 0030 1022     		movs	r2, #16
 2576 0032 0020     		movs	r0, #0
 2577 0034 196A     		ldr	r1, [r3, #32]
 2578 0036 9143     		bics	r1, r2
 2579 0038 1962     		str	r1, [r3, #32]
 2580 003a 196A     		ldr	r1, [r3, #32]
 2581 003c 0A43     		orrs	r2, r1
 2582 003e 1A62     		str	r2, [r3, #32]
 2583              	.L396:
 2584              		@ sp needed
 2585 0040 30BD     		pop	{r4, r5, pc}
 2586              	.L397:
 2587 0042 0120     		movs	r0, #1
 2588 0044 FCE7     		b	.L396
 2590              		.section	.text.HAL_TIM_OnePulse_Stop,"ax",%progbits
 2591              		.align	1
 2592              		.global	HAL_TIM_OnePulse_Stop
 2593              		.syntax unified
 2594              		.code	16
 2595              		.thumb_func
 2597              	HAL_TIM_OnePulse_Stop:
 2598              		@ args = 0, pretend = 0, frame = 0
 2599              		@ frame_needed = 0, uses_anonymous_args = 0
 2600 0000 0121     		movs	r1, #1
 2601 0002 10B5     		push	{r4, lr}
 2602 0004 1024     		movs	r4, #16
 2603 0006 0368     		ldr	r3, [r0]
 2604 0008 1A6A     		ldr	r2, [r3, #32]
 2605 000a 8A43     		bics	r2, r1
 2606 000c 1A62     		str	r2, [r3, #32]
 2607 000e 1A6A     		ldr	r2, [r3, #32]
 2608 0010 1A62     		str	r2, [r3, #32]
 2609 0012 1A6A     		ldr	r2, [r3, #32]
 2610 0014 A243     		bics	r2, r4
 2611 0016 1A62     		str	r2, [r3, #32]
ARM GAS  /tmp/ccCjdw1k.s 			page 45


 2612 0018 1A6A     		ldr	r2, [r3, #32]
 2613 001a 1A62     		str	r2, [r3, #32]
 2614 001c 1C6A     		ldr	r4, [r3, #32]
 2615 001e 074A     		ldr	r2, .L400
 2616 0020 1442     		tst	r4, r2
 2617 0022 02D1     		bne	.L399
 2618 0024 1A68     		ldr	r2, [r3]
 2619 0026 8A43     		bics	r2, r1
 2620 0028 1A60     		str	r2, [r3]
 2621              	.L399:
 2622 002a 0200     		movs	r2, r0
 2623              		@ sp needed
 2624 002c 0123     		movs	r3, #1
 2625 002e 3A32     		adds	r2, r2, #58
 2626 0030 3B30     		adds	r0, r0, #59
 2627 0032 1370     		strb	r3, [r2]
 2628 0034 0370     		strb	r3, [r0]
 2629 0036 0020     		movs	r0, #0
 2630 0038 10BD     		pop	{r4, pc}
 2631              	.L401:
 2632 003a C046     		.align	2
 2633              	.L400:
 2634 003c 11110000 		.word	4369
 2636              		.section	.text.HAL_TIM_OnePulse_Start_IT,"ax",%progbits
 2637              		.align	1
 2638              		.global	HAL_TIM_OnePulse_Start_IT
 2639              		.syntax unified
 2640              		.code	16
 2641              		.thumb_func
 2643              	HAL_TIM_OnePulse_Start_IT:
 2644              		@ args = 0, pretend = 0, frame = 0
 2645              		@ frame_needed = 0, uses_anonymous_args = 0
 2646 0000 0300     		movs	r3, r0
 2647 0002 30B5     		push	{r4, r5, lr}
 2648 0004 1900     		movs	r1, r3
 2649 0006 0400     		movs	r4, r0
 2650 0008 3B31     		adds	r1, r1, #59
 2651 000a 3A34     		adds	r4, r4, #58
 2652 000c 2578     		ldrb	r5, [r4]
 2653 000e 0A78     		ldrb	r2, [r1]
 2654 0010 E8B2     		uxtb	r0, r5
 2655 0012 D2B2     		uxtb	r2, r2
 2656 0014 012D     		cmp	r5, #1
 2657 0016 1BD1     		bne	.L404
 2658 0018 012A     		cmp	r2, #1
 2659 001a 18D1     		bne	.L403
 2660 001c 0132     		adds	r2, r2, #1
 2661 001e 2270     		strb	r2, [r4]
 2662 0020 0A70     		strb	r2, [r1]
 2663 0022 1B68     		ldr	r3, [r3]
 2664 0024 D968     		ldr	r1, [r3, #12]
 2665 0026 0A43     		orrs	r2, r1
 2666 0028 DA60     		str	r2, [r3, #12]
 2667 002a 0422     		movs	r2, #4
 2668 002c D968     		ldr	r1, [r3, #12]
 2669 002e 0A43     		orrs	r2, r1
 2670 0030 DA60     		str	r2, [r3, #12]
ARM GAS  /tmp/ccCjdw1k.s 			page 46


 2671 0032 1A6A     		ldr	r2, [r3, #32]
 2672 0034 8243     		bics	r2, r0
 2673 0036 1A62     		str	r2, [r3, #32]
 2674 0038 1A6A     		ldr	r2, [r3, #32]
 2675 003a 0243     		orrs	r2, r0
 2676 003c 1A62     		str	r2, [r3, #32]
 2677 003e 1022     		movs	r2, #16
 2678 0040 0020     		movs	r0, #0
 2679 0042 196A     		ldr	r1, [r3, #32]
 2680 0044 9143     		bics	r1, r2
 2681 0046 1962     		str	r1, [r3, #32]
 2682 0048 196A     		ldr	r1, [r3, #32]
 2683 004a 0A43     		orrs	r2, r1
 2684 004c 1A62     		str	r2, [r3, #32]
 2685              	.L403:
 2686              		@ sp needed
 2687 004e 30BD     		pop	{r4, r5, pc}
 2688              	.L404:
 2689 0050 0120     		movs	r0, #1
 2690 0052 FCE7     		b	.L403
 2692              		.section	.text.HAL_TIM_OnePulse_Stop_IT,"ax",%progbits
 2693              		.align	1
 2694              		.global	HAL_TIM_OnePulse_Stop_IT
 2695              		.syntax unified
 2696              		.code	16
 2697              		.thumb_func
 2699              	HAL_TIM_OnePulse_Stop_IT:
 2700              		@ args = 0, pretend = 0, frame = 0
 2701              		@ frame_needed = 0, uses_anonymous_args = 0
 2702 0000 0221     		movs	r1, #2
 2703 0002 10B5     		push	{r4, lr}
 2704 0004 1024     		movs	r4, #16
 2705 0006 0368     		ldr	r3, [r0]
 2706 0008 DA68     		ldr	r2, [r3, #12]
 2707 000a 8A43     		bics	r2, r1
 2708 000c DA60     		str	r2, [r3, #12]
 2709 000e DA68     		ldr	r2, [r3, #12]
 2710 0010 4918     		adds	r1, r1, r1
 2711 0012 8A43     		bics	r2, r1
 2712 0014 DA60     		str	r2, [r3, #12]
 2713 0016 1A6A     		ldr	r2, [r3, #32]
 2714 0018 0339     		subs	r1, r1, #3
 2715 001a 8A43     		bics	r2, r1
 2716 001c 1A62     		str	r2, [r3, #32]
 2717 001e 1A6A     		ldr	r2, [r3, #32]
 2718 0020 1A62     		str	r2, [r3, #32]
 2719 0022 1A6A     		ldr	r2, [r3, #32]
 2720 0024 A243     		bics	r2, r4
 2721 0026 1A62     		str	r2, [r3, #32]
 2722 0028 1A6A     		ldr	r2, [r3, #32]
 2723 002a 1A62     		str	r2, [r3, #32]
 2724 002c 1C6A     		ldr	r4, [r3, #32]
 2725 002e 074A     		ldr	r2, .L407
 2726 0030 1442     		tst	r4, r2
 2727 0032 02D1     		bne	.L406
 2728 0034 1A68     		ldr	r2, [r3]
 2729 0036 8A43     		bics	r2, r1
ARM GAS  /tmp/ccCjdw1k.s 			page 47


 2730 0038 1A60     		str	r2, [r3]
 2731              	.L406:
 2732 003a 0200     		movs	r2, r0
 2733              		@ sp needed
 2734 003c 0123     		movs	r3, #1
 2735 003e 3A32     		adds	r2, r2, #58
 2736 0040 3B30     		adds	r0, r0, #59
 2737 0042 1370     		strb	r3, [r2]
 2738 0044 0370     		strb	r3, [r0]
 2739 0046 0020     		movs	r0, #0
 2740 0048 10BD     		pop	{r4, pc}
 2741              	.L408:
 2742 004a C046     		.align	2
 2743              	.L407:
 2744 004c 11110000 		.word	4369
 2746              		.section	.text.HAL_TIM_Encoder_MspInit,"ax",%progbits
 2747              		.align	1
 2748              		.weak	HAL_TIM_Encoder_MspInit
 2749              		.syntax unified
 2750              		.code	16
 2751              		.thumb_func
 2753              	HAL_TIM_Encoder_MspInit:
 2754              		@ args = 0, pretend = 0, frame = 0
 2755              		@ frame_needed = 0, uses_anonymous_args = 0
 2756              		@ link register save eliminated.
 2757              		@ sp needed
 2758 0000 7047     		bx	lr
 2760              		.section	.text.HAL_TIM_Encoder_Init,"ax",%progbits
 2761              		.align	1
 2762              		.global	HAL_TIM_Encoder_Init
 2763              		.syntax unified
 2764              		.code	16
 2765              		.thumb_func
 2767              	HAL_TIM_Encoder_Init:
 2768              		@ args = 0, pretend = 0, frame = 8
 2769              		@ frame_needed = 0, uses_anonymous_args = 0
 2770 0000 F7B5     		push	{r0, r1, r2, r4, r5, r6, r7, lr}
 2771 0002 0400     		movs	r4, r0
 2772 0004 0D00     		movs	r5, r1
 2773 0006 0120     		movs	r0, #1
 2774 0008 002C     		cmp	r4, #0
 2775 000a 45D0     		beq	.L411
 2776 000c 2700     		movs	r7, r4
 2777 000e 3937     		adds	r7, r7, #57
 2778 0010 3B78     		ldrb	r3, [r7]
 2779 0012 DAB2     		uxtb	r2, r3
 2780 0014 002B     		cmp	r3, #0
 2781 0016 05D1     		bne	.L412
 2782 0018 2300     		movs	r3, r4
 2783 001a 3833     		adds	r3, r3, #56
 2784 001c 2000     		movs	r0, r4
 2785 001e 1A70     		strb	r2, [r3]
 2786 0020 FFF7FEFF 		bl	HAL_TIM_Encoder_MspInit
 2787              	.L412:
 2788 0024 0223     		movs	r3, #2
 2789 0026 2100     		movs	r1, r4
 2790 0028 3B70     		strb	r3, [r7]
ARM GAS  /tmp/ccCjdw1k.s 			page 48


 2791 002a 40C9     		ldmia	r1!, {r6}
 2792 002c 1B4A     		ldr	r2, .L414
 2793 002e B368     		ldr	r3, [r6, #8]
 2794 0030 3000     		movs	r0, r6
 2795 0032 1340     		ands	r3, r2
 2796 0034 B360     		str	r3, [r6, #8]
 2797 0036 FFF7FEFF 		bl	TIM_Base_SetConfig
 2798 003a B168     		ldr	r1, [r6, #8]
 2799 003c 2A68     		ldr	r2, [r5]
 2800 003e B369     		ldr	r3, [r6, #24]
 2801 0040 1143     		orrs	r1, r2
 2802 0042 174A     		ldr	r2, .L414+4
 2803 0044 0191     		str	r1, [sp, #4]
 2804 0046 1340     		ands	r3, r2
 2805 0048 AA69     		ldr	r2, [r5, #24]
 2806 004a A968     		ldr	r1, [r5, #8]
 2807 004c 1202     		lsls	r2, r2, #8
 2808 004e 0A43     		orrs	r2, r1
 2809 0050 1A43     		orrs	r2, r3
 2810 0052 144B     		ldr	r3, .L414+8
 2811 0054 2969     		ldr	r1, [r5, #16]
 2812 0056 1A40     		ands	r2, r3
 2813 0058 EB69     		ldr	r3, [r5, #28]
 2814 005a 0901     		lsls	r1, r1, #4
 2815 005c 1B02     		lsls	r3, r3, #8
 2816 005e 0B43     		orrs	r3, r1
 2817 0060 E968     		ldr	r1, [r5, #12]
 2818 0062 306A     		ldr	r0, [r6, #32]
 2819 0064 0B43     		orrs	r3, r1
 2820 0066 296A     		ldr	r1, [r5, #32]
 2821 0068 0903     		lsls	r1, r1, #12
 2822 006a 0B43     		orrs	r3, r1
 2823 006c 1343     		orrs	r3, r2
 2824 006e AA22     		movs	r2, #170
 2825 0070 9043     		bics	r0, r2
 2826 0072 6A69     		ldr	r2, [r5, #20]
 2827 0074 6D68     		ldr	r5, [r5, #4]
 2828 0076 1201     		lsls	r2, r2, #4
 2829 0078 0199     		ldr	r1, [sp, #4]
 2830 007a 2A43     		orrs	r2, r5
 2831 007c 0243     		orrs	r2, r0
 2832 007e B160     		str	r1, [r6, #8]
 2833 0080 B361     		str	r3, [r6, #24]
 2834 0082 3262     		str	r2, [r6, #32]
 2835 0084 2200     		movs	r2, r4
 2836 0086 0123     		movs	r3, #1
 2837 0088 0020     		movs	r0, #0
 2838 008a 3E32     		adds	r2, r2, #62
 2839 008c 1370     		strb	r3, [r2]
 2840 008e 3B34     		adds	r4, r4, #59
 2841 0090 043A     		subs	r2, r2, #4
 2842 0092 1370     		strb	r3, [r2]
 2843 0094 2370     		strb	r3, [r4]
 2844 0096 3B70     		strb	r3, [r7]
 2845              	.L411:
 2846              		@ sp needed
 2847 0098 FEBD     		pop	{r1, r2, r3, r4, r5, r6, r7, pc}
ARM GAS  /tmp/ccCjdw1k.s 			page 49


 2848              	.L415:
 2849 009a C046     		.align	2
 2850              	.L414:
 2851 009c F8BFFFFF 		.word	-16392
 2852 00a0 FCFCFFFF 		.word	-772
 2853 00a4 0303FFFF 		.word	-64765
 2855              		.section	.text.HAL_TIM_Encoder_MspDeInit,"ax",%progbits
 2856              		.align	1
 2857              		.weak	HAL_TIM_Encoder_MspDeInit
 2858              		.syntax unified
 2859              		.code	16
 2860              		.thumb_func
 2862              	HAL_TIM_Encoder_MspDeInit:
 2863              		@ args = 0, pretend = 0, frame = 0
 2864              		@ frame_needed = 0, uses_anonymous_args = 0
 2865              		@ link register save eliminated.
 2866              		@ sp needed
 2867 0000 7047     		bx	lr
 2869              		.section	.text.HAL_TIM_Encoder_DeInit,"ax",%progbits
 2870              		.align	1
 2871              		.global	HAL_TIM_Encoder_DeInit
 2872              		.syntax unified
 2873              		.code	16
 2874              		.thumb_func
 2876              	HAL_TIM_Encoder_DeInit:
 2877              		@ args = 0, pretend = 0, frame = 0
 2878              		@ frame_needed = 0, uses_anonymous_args = 0
 2879 0000 70B5     		push	{r4, r5, r6, lr}
 2880 0002 0500     		movs	r5, r0
 2881 0004 0223     		movs	r3, #2
 2882 0006 3935     		adds	r5, r5, #57
 2883 0008 2B70     		strb	r3, [r5]
 2884 000a 0368     		ldr	r3, [r0]
 2885 000c 0B4A     		ldr	r2, .L419
 2886 000e 196A     		ldr	r1, [r3, #32]
 2887 0010 0400     		movs	r4, r0
 2888 0012 1142     		tst	r1, r2
 2889 0014 03D1     		bne	.L418
 2890 0016 0121     		movs	r1, #1
 2891 0018 1A68     		ldr	r2, [r3]
 2892 001a 8A43     		bics	r2, r1
 2893 001c 1A60     		str	r2, [r3]
 2894              	.L418:
 2895 001e 2000     		movs	r0, r4
 2896              		@ sp needed
 2897 0020 FFF7FEFF 		bl	HAL_TIM_Encoder_MspDeInit
 2898 0024 2300     		movs	r3, r4
 2899 0026 0020     		movs	r0, #0
 2900 0028 3E33     		adds	r3, r3, #62
 2901 002a 1870     		strb	r0, [r3]
 2902 002c 3834     		adds	r4, r4, #56
 2903 002e 043B     		subs	r3, r3, #4
 2904 0030 1870     		strb	r0, [r3]
 2905 0032 5870     		strb	r0, [r3, #1]
 2906 0034 2870     		strb	r0, [r5]
 2907 0036 2070     		strb	r0, [r4]
 2908 0038 70BD     		pop	{r4, r5, r6, pc}
ARM GAS  /tmp/ccCjdw1k.s 			page 50


 2909              	.L420:
 2910 003a C046     		.align	2
 2911              	.L419:
 2912 003c 11110000 		.word	4369
 2914              		.section	.text.HAL_TIM_Encoder_Start,"ax",%progbits
 2915              		.align	1
 2916              		.global	HAL_TIM_Encoder_Start
 2917              		.syntax unified
 2918              		.code	16
 2919              		.thumb_func
 2921              	HAL_TIM_Encoder_Start:
 2922              		@ args = 0, pretend = 0, frame = 0
 2923              		@ frame_needed = 0, uses_anonymous_args = 0
 2924 0000 0300     		movs	r3, r0
 2925 0002 30B5     		push	{r4, r5, lr}
 2926 0004 1A00     		movs	r2, r3
 2927 0006 0500     		movs	r5, r0
 2928 0008 3B32     		adds	r2, r2, #59
 2929 000a 3A35     		adds	r5, r5, #58
 2930 000c 2878     		ldrb	r0, [r5]
 2931 000e 1478     		ldrb	r4, [r2]
 2932 0010 C0B2     		uxtb	r0, r0
 2933 0012 E4B2     		uxtb	r4, r4
 2934 0014 0029     		cmp	r1, #0
 2935 0016 11D1     		bne	.L422
 2936 0018 0128     		cmp	r0, #1
 2937 001a 2CD1     		bne	.L428
 2938 001c 0222     		movs	r2, #2
 2939 001e 2A70     		strb	r2, [r5]
 2940 0020 1A68     		ldr	r2, [r3]
 2941 0022 116A     		ldr	r1, [r2, #32]
 2942 0024 8143     		bics	r1, r0
 2943 0026 1162     		str	r1, [r2, #32]
 2944 0028 116A     		ldr	r1, [r2, #32]
 2945              	.L429:
 2946 002a 0143     		orrs	r1, r0
 2947 002c 1162     		str	r1, [r2, #32]
 2948 002e 1A68     		ldr	r2, [r3]
 2949 0030 0123     		movs	r3, #1
 2950 0032 0020     		movs	r0, #0
 2951 0034 1168     		ldr	r1, [r2]
 2952 0036 0B43     		orrs	r3, r1
 2953 0038 1360     		str	r3, [r2]
 2954              	.L423:
 2955              		@ sp needed
 2956 003a 30BD     		pop	{r4, r5, pc}
 2957              	.L422:
 2958 003c 0429     		cmp	r1, #4
 2959 003e 0BD1     		bne	.L425
 2960 0040 0120     		movs	r0, #1
 2961 0042 8442     		cmp	r4, r0
 2962 0044 F9D1     		bne	.L423
 2963 0046 0239     		subs	r1, r1, #2
 2964 0048 1170     		strb	r1, [r2]
 2965 004a 1A68     		ldr	r2, [r3]
 2966              	.L430:
 2967 004c 1021     		movs	r1, #16
ARM GAS  /tmp/ccCjdw1k.s 			page 51


 2968 004e 106A     		ldr	r0, [r2, #32]
 2969 0050 8843     		bics	r0, r1
 2970 0052 1062     		str	r0, [r2, #32]
 2971 0054 106A     		ldr	r0, [r2, #32]
 2972 0056 E8E7     		b	.L429
 2973              	.L425:
 2974 0058 0128     		cmp	r0, #1
 2975 005a 0CD1     		bne	.L428
 2976 005c 012C     		cmp	r4, #1
 2977 005e ECD1     		bne	.L423
 2978 0060 0221     		movs	r1, #2
 2979 0062 2970     		strb	r1, [r5]
 2980 0064 1170     		strb	r1, [r2]
 2981 0066 1A68     		ldr	r2, [r3]
 2982 0068 116A     		ldr	r1, [r2, #32]
 2983 006a A143     		bics	r1, r4
 2984 006c 1162     		str	r1, [r2, #32]
 2985 006e 116A     		ldr	r1, [r2, #32]
 2986 0070 0C43     		orrs	r4, r1
 2987 0072 1462     		str	r4, [r2, #32]
 2988 0074 EAE7     		b	.L430
 2989              	.L428:
 2990 0076 0120     		movs	r0, #1
 2991 0078 DFE7     		b	.L423
 2993              		.section	.text.HAL_TIM_Encoder_Stop,"ax",%progbits
 2994              		.align	1
 2995              		.global	HAL_TIM_Encoder_Stop
 2996              		.syntax unified
 2997              		.code	16
 2998              		.thumb_func
 3000              	HAL_TIM_Encoder_Stop:
 3001              		@ args = 0, pretend = 0, frame = 0
 3002              		@ frame_needed = 0, uses_anonymous_args = 0
 3003 0000 10B5     		push	{r4, lr}
 3004 0002 0368     		ldr	r3, [r0]
 3005 0004 0124     		movs	r4, #1
 3006 0006 0029     		cmp	r1, #0
 3007 0008 09D0     		beq	.L432
 3008 000a 0429     		cmp	r1, #4
 3009 000c 04D0     		beq	.L444
 3010 000e 1A6A     		ldr	r2, [r3, #32]
 3011 0010 A243     		bics	r2, r4
 3012 0012 1A62     		str	r2, [r3, #32]
 3013 0014 1A6A     		ldr	r2, [r3, #32]
 3014 0016 1A62     		str	r2, [r3, #32]
 3015              	.L444:
 3016 0018 1024     		movs	r4, #16
 3017 001a 1A6A     		ldr	r2, [r3, #32]
 3018 001c 00E0     		b	.L443
 3019              	.L432:
 3020 001e 1A6A     		ldr	r2, [r3, #32]
 3021              	.L443:
 3022 0020 A243     		bics	r2, r4
 3023 0022 1A62     		str	r2, [r3, #32]
 3024 0024 1A6A     		ldr	r2, [r3, #32]
 3025 0026 1A62     		str	r2, [r3, #32]
 3026 0028 1C6A     		ldr	r4, [r3, #32]
ARM GAS  /tmp/ccCjdw1k.s 			page 52


 3027 002a 0B4A     		ldr	r2, .L446
 3028 002c 1442     		tst	r4, r2
 3029 002e 03D1     		bne	.L436
 3030 0030 0124     		movs	r4, #1
 3031 0032 1A68     		ldr	r2, [r3]
 3032 0034 A243     		bics	r2, r4
 3033 0036 1A60     		str	r2, [r3]
 3034              	.L436:
 3035 0038 0123     		movs	r3, #1
 3036 003a 0029     		cmp	r1, #0
 3037 003c 05D0     		beq	.L437
 3038 003e 0200     		movs	r2, r0
 3039 0040 3B32     		adds	r2, r2, #59
 3040 0042 0429     		cmp	r1, #4
 3041 0044 05D1     		bne	.L442
 3042              	.L445:
 3043 0046 1370     		strb	r3, [r2]
 3044 0048 01E0     		b	.L440
 3045              	.L437:
 3046 004a 3A30     		adds	r0, r0, #58
 3047 004c 0370     		strb	r3, [r0]
 3048              	.L440:
 3049 004e 0020     		movs	r0, #0
 3050              		@ sp needed
 3051 0050 10BD     		pop	{r4, pc}
 3052              	.L442:
 3053 0052 3A30     		adds	r0, r0, #58
 3054 0054 0370     		strb	r3, [r0]
 3055 0056 F6E7     		b	.L445
 3056              	.L447:
 3057              		.align	2
 3058              	.L446:
 3059 0058 11110000 		.word	4369
 3061              		.section	.text.HAL_TIM_Encoder_Start_IT,"ax",%progbits
 3062              		.align	1
 3063              		.global	HAL_TIM_Encoder_Start_IT
 3064              		.syntax unified
 3065              		.code	16
 3066              		.thumb_func
 3068              	HAL_TIM_Encoder_Start_IT:
 3069              		@ args = 0, pretend = 0, frame = 0
 3070              		@ frame_needed = 0, uses_anonymous_args = 0
 3071 0000 0200     		movs	r2, r0
 3072 0002 30B5     		push	{r4, r5, lr}
 3073 0004 1300     		movs	r3, r2
 3074 0006 0500     		movs	r5, r0
 3075 0008 3B33     		adds	r3, r3, #59
 3076 000a 3A35     		adds	r5, r5, #58
 3077 000c 2878     		ldrb	r0, [r5]
 3078 000e 1C78     		ldrb	r4, [r3]
 3079 0010 C0B2     		uxtb	r0, r0
 3080 0012 E4B2     		uxtb	r4, r4
 3081 0014 0029     		cmp	r1, #0
 3082 0016 14D1     		bne	.L449
 3083 0018 0128     		cmp	r0, #1
 3084 001a 3DD1     		bne	.L455
 3085 001c 0231     		adds	r1, r1, #2
ARM GAS  /tmp/ccCjdw1k.s 			page 53


 3086 001e 2970     		strb	r1, [r5]
 3087 0020 1368     		ldr	r3, [r2]
 3088 0022 1C6A     		ldr	r4, [r3, #32]
 3089 0024 8443     		bics	r4, r0
 3090 0026 1C62     		str	r4, [r3, #32]
 3091 0028 1C6A     		ldr	r4, [r3, #32]
 3092 002a 0443     		orrs	r4, r0
 3093 002c 1C62     		str	r4, [r3, #32]
 3094              	.L457:
 3095 002e D868     		ldr	r0, [r3, #12]
 3096              	.L456:
 3097 0030 0143     		orrs	r1, r0
 3098 0032 D960     		str	r1, [r3, #12]
 3099 0034 0123     		movs	r3, #1
 3100 0036 0020     		movs	r0, #0
 3101 0038 1268     		ldr	r2, [r2]
 3102 003a 1168     		ldr	r1, [r2]
 3103 003c 0B43     		orrs	r3, r1
 3104 003e 1360     		str	r3, [r2]
 3105              	.L450:
 3106              		@ sp needed
 3107 0040 30BD     		pop	{r4, r5, pc}
 3108              	.L449:
 3109 0042 0429     		cmp	r1, #4
 3110 0044 0DD1     		bne	.L452
 3111 0046 0120     		movs	r0, #1
 3112 0048 8442     		cmp	r4, r0
 3113 004a F9D1     		bne	.L450
 3114 004c 0018     		adds	r0, r0, r0
 3115 004e 1870     		strb	r0, [r3]
 3116 0050 1368     		ldr	r3, [r2]
 3117 0052 0E30     		adds	r0, r0, #14
 3118 0054 1C6A     		ldr	r4, [r3, #32]
 3119 0056 8443     		bics	r4, r0
 3120 0058 1C62     		str	r4, [r3, #32]
 3121 005a 1C6A     		ldr	r4, [r3, #32]
 3122 005c 2043     		orrs	r0, r4
 3123 005e 1862     		str	r0, [r3, #32]
 3124 0060 E5E7     		b	.L457
 3125              	.L452:
 3126 0062 0128     		cmp	r0, #1
 3127 0064 18D1     		bne	.L455
 3128 0066 012C     		cmp	r4, #1
 3129 0068 EAD1     		bne	.L450
 3130 006a 0221     		movs	r1, #2
 3131 006c 2970     		strb	r1, [r5]
 3132 006e 1970     		strb	r1, [r3]
 3133 0070 1368     		ldr	r3, [r2]
 3134 0072 186A     		ldr	r0, [r3, #32]
 3135 0074 A043     		bics	r0, r4
 3136 0076 1862     		str	r0, [r3, #32]
 3137 0078 186A     		ldr	r0, [r3, #32]
 3138 007a 0443     		orrs	r4, r0
 3139 007c 1020     		movs	r0, #16
 3140 007e 1C62     		str	r4, [r3, #32]
 3141 0080 1C6A     		ldr	r4, [r3, #32]
 3142 0082 8443     		bics	r4, r0
ARM GAS  /tmp/ccCjdw1k.s 			page 54


 3143 0084 1C62     		str	r4, [r3, #32]
 3144 0086 1C6A     		ldr	r4, [r3, #32]
 3145 0088 2043     		orrs	r0, r4
 3146 008a 1862     		str	r0, [r3, #32]
 3147 008c D868     		ldr	r0, [r3, #12]
 3148 008e 0143     		orrs	r1, r0
 3149 0090 D960     		str	r1, [r3, #12]
 3150 0092 D868     		ldr	r0, [r3, #12]
 3151 0094 0421     		movs	r1, #4
 3152 0096 CBE7     		b	.L456
 3153              	.L455:
 3154 0098 0120     		movs	r0, #1
 3155 009a D1E7     		b	.L450
 3157              		.section	.text.HAL_TIM_Encoder_Stop_IT,"ax",%progbits
 3158              		.align	1
 3159              		.global	HAL_TIM_Encoder_Stop_IT
 3160              		.syntax unified
 3161              		.code	16
 3162              		.thumb_func
 3164              	HAL_TIM_Encoder_Stop_IT:
 3165              		@ args = 0, pretend = 0, frame = 0
 3166              		@ frame_needed = 0, uses_anonymous_args = 0
 3167 0000 0368     		ldr	r3, [r0]
 3168 0002 10B5     		push	{r4, lr}
 3169 0004 1A6A     		ldr	r2, [r3, #32]
 3170 0006 0124     		movs	r4, #1
 3171 0008 0029     		cmp	r1, #0
 3172 000a 07D1     		bne	.L459
 3173 000c A243     		bics	r2, r4
 3174 000e 1A62     		str	r2, [r3, #32]
 3175 0010 1A6A     		ldr	r2, [r3, #32]
 3176 0012 2419     		adds	r4, r4, r4
 3177 0014 1A62     		str	r2, [r3, #32]
 3178 0016 DA68     		ldr	r2, [r3, #12]
 3179              	.L468:
 3180 0018 A243     		bics	r2, r4
 3181 001a 08E0     		b	.L469
 3182              	.L459:
 3183 001c 0429     		cmp	r1, #4
 3184 001e 18D1     		bne	.L461
 3185 0020 1024     		movs	r4, #16
 3186 0022 A243     		bics	r2, r4
 3187 0024 1A62     		str	r2, [r3, #32]
 3188 0026 1A6A     		ldr	r2, [r3, #32]
 3189 0028 1A62     		str	r2, [r3, #32]
 3190 002a DA68     		ldr	r2, [r3, #12]
 3191 002c 8A43     		bics	r2, r1
 3192              	.L469:
 3193 002e DA60     		str	r2, [r3, #12]
 3194 0030 1C6A     		ldr	r4, [r3, #32]
 3195 0032 144A     		ldr	r2, .L471
 3196 0034 1442     		tst	r4, r2
 3197 0036 03D1     		bne	.L462
 3198 0038 0124     		movs	r4, #1
 3199 003a 1A68     		ldr	r2, [r3]
 3200 003c A243     		bics	r2, r4
 3201 003e 1A60     		str	r2, [r3]
ARM GAS  /tmp/ccCjdw1k.s 			page 55


 3202              	.L462:
 3203 0040 0123     		movs	r3, #1
 3204 0042 0029     		cmp	r1, #0
 3205 0044 16D0     		beq	.L463
 3206 0046 0200     		movs	r2, r0
 3207 0048 3B32     		adds	r2, r2, #59
 3208 004a 0429     		cmp	r1, #4
 3209 004c 16D1     		bne	.L467
 3210              	.L470:
 3211 004e 1370     		strb	r3, [r2]
 3212 0050 12E0     		b	.L466
 3213              	.L461:
 3214 0052 A243     		bics	r2, r4
 3215 0054 1024     		movs	r4, #16
 3216 0056 1A62     		str	r2, [r3, #32]
 3217 0058 1A6A     		ldr	r2, [r3, #32]
 3218 005a 1A62     		str	r2, [r3, #32]
 3219 005c 1A6A     		ldr	r2, [r3, #32]
 3220 005e A243     		bics	r2, r4
 3221 0060 1A62     		str	r2, [r3, #32]
 3222 0062 1A6A     		ldr	r2, [r3, #32]
 3223 0064 0E3C     		subs	r4, r4, #14
 3224 0066 1A62     		str	r2, [r3, #32]
 3225 0068 DA68     		ldr	r2, [r3, #12]
 3226 006a A243     		bics	r2, r4
 3227 006c DA60     		str	r2, [r3, #12]
 3228 006e DA68     		ldr	r2, [r3, #12]
 3229 0070 0234     		adds	r4, r4, #2
 3230 0072 D1E7     		b	.L468
 3231              	.L463:
 3232 0074 3A30     		adds	r0, r0, #58
 3233 0076 0370     		strb	r3, [r0]
 3234              	.L466:
 3235 0078 0020     		movs	r0, #0
 3236              		@ sp needed
 3237 007a 10BD     		pop	{r4, pc}
 3238              	.L467:
 3239 007c 3A30     		adds	r0, r0, #58
 3240 007e 0370     		strb	r3, [r0]
 3241 0080 E5E7     		b	.L470
 3242              	.L472:
 3243 0082 C046     		.align	2
 3244              	.L471:
 3245 0084 11110000 		.word	4369
 3247              		.section	.text.HAL_TIM_Encoder_Start_DMA,"ax",%progbits
 3248              		.align	1
 3249              		.global	HAL_TIM_Encoder_Start_DMA
 3250              		.syntax unified
 3251              		.code	16
 3252              		.thumb_func
 3254              	HAL_TIM_Encoder_Start_DMA:
 3255              		@ args = 4, pretend = 0, frame = 8
 3256              		@ frame_needed = 0, uses_anonymous_args = 0
 3257 0000 F7B5     		push	{r0, r1, r2, r4, r5, r6, r7, lr}
 3258 0002 1E00     		movs	r6, r3
 3259 0004 08AB     		add	r3, sp, #32
 3260 0006 1D88     		ldrh	r5, [r3]
ARM GAS  /tmp/ccCjdw1k.s 			page 56


 3261 0008 3A23     		movs	r3, #58
 3262 000a 0400     		movs	r4, r0
 3263 000c 9C46     		mov	ip, r3
 3264 000e 2700     		movs	r7, r4
 3265 0010 8444     		add	ip, ip, r0
 3266 0012 6346     		mov	r3, ip
 3267 0014 3B37     		adds	r7, r7, #59
 3268 0016 1878     		ldrb	r0, [r3]
 3269 0018 3B78     		ldrb	r3, [r7]
 3270 001a C0B2     		uxtb	r0, r0
 3271 001c DBB2     		uxtb	r3, r3
 3272 001e 0029     		cmp	r1, #0
 3273 0020 29D1     		bne	.L474
 3274 0022 0228     		cmp	r0, #2
 3275 0024 02D0     		beq	.L475
 3276 0026 0128     		cmp	r0, #1
 3277 0028 01D0     		beq	.L476
 3278              	.L478:
 3279 002a 0120     		movs	r0, #1
 3280              	.L475:
 3281              		@ sp needed
 3282 002c FEBD     		pop	{r1, r2, r3, r4, r5, r6, r7, pc}
 3283              	.L476:
 3284 002e 002A     		cmp	r2, #0
 3285 0030 01D1     		bne	.L477
 3286 0032 002D     		cmp	r5, #0
 3287 0034 F9D1     		bne	.L478
 3288              	.L477:
 3289 0036 0223     		movs	r3, #2
 3290 0038 6146     		mov	r1, ip
 3291 003a 0B70     		strb	r3, [r1]
 3292 003c 206A     		ldr	r0, [r4, #32]
 3293 003e 4C4B     		ldr	r3, .L503
 3294 0040 2168     		ldr	r1, [r4]
 3295 0042 C362     		str	r3, [r0, #44]
 3296 0044 4B4B     		ldr	r3, .L503+4
 3297 0046 3431     		adds	r1, r1, #52
 3298 0048 0363     		str	r3, [r0, #48]
 3299 004a 4B4B     		ldr	r3, .L503+8
 3300 004c 4363     		str	r3, [r0, #52]
 3301 004e 2B00     		movs	r3, r5
 3302 0050 FFF7FEFF 		bl	HAL_DMA_Start_IT
 3303 0054 0028     		cmp	r0, #0
 3304 0056 E8D1     		bne	.L478
 3305 0058 8022     		movs	r2, #128
 3306 005a 2368     		ldr	r3, [r4]
 3307 005c 9200     		lsls	r2, r2, #2
 3308 005e D968     		ldr	r1, [r3, #12]
 3309 0060 0A43     		orrs	r2, r1
 3310 0062 DA60     		str	r2, [r3, #12]
 3311 0064 0122     		movs	r2, #1
 3312 0066 196A     		ldr	r1, [r3, #32]
 3313 0068 9143     		bics	r1, r2
 3314 006a 1962     		str	r1, [r3, #32]
 3315 006c 196A     		ldr	r1, [r3, #32]
 3316 006e 1143     		orrs	r1, r2
 3317              	.L501:
ARM GAS  /tmp/ccCjdw1k.s 			page 57


 3318 0070 1962     		str	r1, [r3, #32]
 3319 0072 1968     		ldr	r1, [r3]
 3320 0074 2AE0     		b	.L502
 3321              	.L474:
 3322 0076 0429     		cmp	r1, #4
 3323 0078 2CD1     		bne	.L480
 3324 007a 1800     		movs	r0, r3
 3325 007c 022B     		cmp	r3, #2
 3326 007e D5D0     		beq	.L475
 3327 0080 012B     		cmp	r3, #1
 3328 0082 D2D1     		bne	.L478
 3329 0084 002E     		cmp	r6, #0
 3330 0086 01D1     		bne	.L481
 3331 0088 002D     		cmp	r5, #0
 3332 008a CED1     		bne	.L478
 3333              	.L481:
 3334 008c 0223     		movs	r3, #2
 3335 008e 3B70     		strb	r3, [r7]
 3336 0090 606A     		ldr	r0, [r4, #36]
 3337 0092 374B     		ldr	r3, .L503
 3338 0094 2168     		ldr	r1, [r4]
 3339 0096 C362     		str	r3, [r0, #44]
 3340 0098 364B     		ldr	r3, .L503+4
 3341 009a 3200     		movs	r2, r6
 3342 009c 0363     		str	r3, [r0, #48]
 3343 009e 364B     		ldr	r3, .L503+8
 3344 00a0 3831     		adds	r1, r1, #56
 3345 00a2 4363     		str	r3, [r0, #52]
 3346 00a4 2B00     		movs	r3, r5
 3347 00a6 FFF7FEFF 		bl	HAL_DMA_Start_IT
 3348 00aa 0028     		cmp	r0, #0
 3349 00ac BDD1     		bne	.L478
 3350 00ae 8022     		movs	r2, #128
 3351 00b0 2368     		ldr	r3, [r4]
 3352 00b2 D200     		lsls	r2, r2, #3
 3353 00b4 D968     		ldr	r1, [r3, #12]
 3354 00b6 0A43     		orrs	r2, r1
 3355 00b8 DA60     		str	r2, [r3, #12]
 3356 00ba 1022     		movs	r2, #16
 3357 00bc 196A     		ldr	r1, [r3, #32]
 3358 00be 9143     		bics	r1, r2
 3359 00c0 1962     		str	r1, [r3, #32]
 3360 00c2 196A     		ldr	r1, [r3, #32]
 3361 00c4 0A43     		orrs	r2, r1
 3362 00c6 1A62     		str	r2, [r3, #32]
 3363 00c8 0122     		movs	r2, #1
 3364 00ca 1968     		ldr	r1, [r3]
 3365              	.L502:
 3366 00cc 0A43     		orrs	r2, r1
 3367 00ce 0020     		movs	r0, #0
 3368 00d0 1A60     		str	r2, [r3]
 3369 00d2 ABE7     		b	.L475
 3370              	.L480:
 3371 00d4 0228     		cmp	r0, #2
 3372 00d6 A9D0     		beq	.L475
 3373 00d8 022B     		cmp	r3, #2
 3374 00da 46D0     		beq	.L488
ARM GAS  /tmp/ccCjdw1k.s 			page 58


 3375 00dc 0128     		cmp	r0, #1
 3376 00de A4D1     		bne	.L478
 3377 00e0 012B     		cmp	r3, #1
 3378 00e2 A2D1     		bne	.L478
 3379 00e4 002A     		cmp	r2, #0
 3380 00e6 01D0     		beq	.L483
 3381 00e8 002E     		cmp	r6, #0
 3382 00ea 01D1     		bne	.L484
 3383              	.L483:
 3384 00ec 002D     		cmp	r5, #0
 3385 00ee 9CD1     		bne	.L478
 3386              	.L484:
 3387 00f0 0223     		movs	r3, #2
 3388 00f2 6146     		mov	r1, ip
 3389 00f4 0B70     		strb	r3, [r1]
 3390 00f6 3B70     		strb	r3, [r7]
 3391 00f8 206A     		ldr	r0, [r4, #32]
 3392 00fa 1E4B     		ldr	r3, .L503+4
 3393 00fc 1C4F     		ldr	r7, .L503
 3394 00fe 2168     		ldr	r1, [r4]
 3395 0100 0093     		str	r3, [sp]
 3396 0102 0363     		str	r3, [r0, #48]
 3397 0104 1C4B     		ldr	r3, .L503+8
 3398 0106 C762     		str	r7, [r0, #44]
 3399 0108 0193     		str	r3, [sp, #4]
 3400 010a 4363     		str	r3, [r0, #52]
 3401 010c 3431     		adds	r1, r1, #52
 3402 010e 2B00     		movs	r3, r5
 3403 0110 FFF7FEFF 		bl	HAL_DMA_Start_IT
 3404 0114 0028     		cmp	r0, #0
 3405 0116 00D0     		beq	.LCB3659
 3406 0118 87E7     		b	.L478	@long jump
 3407              	.LCB3659:
 3408 011a 606A     		ldr	r0, [r4, #36]
 3409 011c 009B     		ldr	r3, [sp]
 3410 011e 2168     		ldr	r1, [r4]
 3411 0120 0363     		str	r3, [r0, #48]
 3412 0122 019B     		ldr	r3, [sp, #4]
 3413 0124 3200     		movs	r2, r6
 3414 0126 4363     		str	r3, [r0, #52]
 3415 0128 C762     		str	r7, [r0, #44]
 3416 012a 2B00     		movs	r3, r5
 3417 012c 3831     		adds	r1, r1, #56
 3418 012e FFF7FEFF 		bl	HAL_DMA_Start_IT
 3419 0132 0028     		cmp	r0, #0
 3420 0134 00D0     		beq	.LCB3673
 3421 0136 78E7     		b	.L478	@long jump
 3422              	.LCB3673:
 3423 0138 8022     		movs	r2, #128
 3424 013a 2368     		ldr	r3, [r4]
 3425 013c 9200     		lsls	r2, r2, #2
 3426 013e D968     		ldr	r1, [r3, #12]
 3427 0140 0A43     		orrs	r2, r1
 3428 0142 DA60     		str	r2, [r3, #12]
 3429 0144 8022     		movs	r2, #128
 3430 0146 D968     		ldr	r1, [r3, #12]
 3431 0148 D200     		lsls	r2, r2, #3
ARM GAS  /tmp/ccCjdw1k.s 			page 59


 3432 014a 0A43     		orrs	r2, r1
 3433 014c DA60     		str	r2, [r3, #12]
 3434 014e 0122     		movs	r2, #1
 3435 0150 196A     		ldr	r1, [r3, #32]
 3436 0152 9143     		bics	r1, r2
 3437 0154 1962     		str	r1, [r3, #32]
 3438 0156 196A     		ldr	r1, [r3, #32]
 3439 0158 1143     		orrs	r1, r2
 3440 015a 1962     		str	r1, [r3, #32]
 3441 015c 1021     		movs	r1, #16
 3442 015e 186A     		ldr	r0, [r3, #32]
 3443 0160 8843     		bics	r0, r1
 3444 0162 1862     		str	r0, [r3, #32]
 3445 0164 186A     		ldr	r0, [r3, #32]
 3446 0166 0143     		orrs	r1, r0
 3447 0168 82E7     		b	.L501
 3448              	.L488:
 3449 016a 1800     		movs	r0, r3
 3450 016c 5EE7     		b	.L475
 3451              	.L504:
 3452 016e C046     		.align	2
 3453              	.L503:
 3454 0170 00000000 		.word	TIM_DMACaptureCplt
 3455 0174 00000000 		.word	TIM_DMACaptureHalfCplt
 3456 0178 00000000 		.word	TIM_DMAError
 3458              		.section	.text.HAL_TIM_Encoder_Stop_DMA,"ax",%progbits
 3459              		.align	1
 3460              		.global	HAL_TIM_Encoder_Stop_DMA
 3461              		.syntax unified
 3462              		.code	16
 3463              		.thumb_func
 3465              	HAL_TIM_Encoder_Stop_DMA:
 3466              		@ args = 0, pretend = 0, frame = 0
 3467              		@ frame_needed = 0, uses_anonymous_args = 0
 3468 0000 70B5     		push	{r4, r5, r6, lr}
 3469 0002 0368     		ldr	r3, [r0]
 3470 0004 0400     		movs	r4, r0
 3471 0006 0D00     		movs	r5, r1
 3472 0008 0120     		movs	r0, #1
 3473 000a 0029     		cmp	r1, #0
 3474 000c 1DD1     		bne	.L506
 3475 000e 1A6A     		ldr	r2, [r3, #32]
 3476 0010 2349     		ldr	r1, .L518
 3477 0012 8243     		bics	r2, r0
 3478 0014 1A62     		str	r2, [r3, #32]
 3479 0016 1A6A     		ldr	r2, [r3, #32]
 3480 0018 206A     		ldr	r0, [r4, #32]
 3481 001a 1A62     		str	r2, [r3, #32]
 3482 001c DA68     		ldr	r2, [r3, #12]
 3483 001e 0A40     		ands	r2, r1
 3484 0020 DA60     		str	r2, [r3, #12]
 3485              	.L515:
 3486 0022 FFF7FEFF 		bl	HAL_DMA_Abort_IT
 3487 0026 2368     		ldr	r3, [r4]
 3488 0028 1E4A     		ldr	r2, .L518+4
 3489 002a 196A     		ldr	r1, [r3, #32]
 3490 002c 1142     		tst	r1, r2
ARM GAS  /tmp/ccCjdw1k.s 			page 60


 3491 002e 03D1     		bne	.L509
 3492 0030 0121     		movs	r1, #1
 3493 0032 1A68     		ldr	r2, [r3]
 3494 0034 8A43     		bics	r2, r1
 3495 0036 1A60     		str	r2, [r3]
 3496              	.L509:
 3497 0038 0123     		movs	r3, #1
 3498 003a 002D     		cmp	r5, #0
 3499 003c 28D0     		beq	.L510
 3500 003e 2200     		movs	r2, r4
 3501 0040 3B32     		adds	r2, r2, #59
 3502 0042 042D     		cmp	r5, #4
 3503 0044 28D1     		bne	.L514
 3504              	.L517:
 3505 0046 1370     		strb	r3, [r2]
 3506 0048 24E0     		b	.L513
 3507              	.L506:
 3508 004a 1749     		ldr	r1, .L518+8
 3509 004c 1A6A     		ldr	r2, [r3, #32]
 3510 004e 042D     		cmp	r5, #4
 3511 0050 09D1     		bne	.L508
 3512 0052 1020     		movs	r0, #16
 3513 0054 8243     		bics	r2, r0
 3514 0056 1A62     		str	r2, [r3, #32]
 3515 0058 1A6A     		ldr	r2, [r3, #32]
 3516 005a 1A62     		str	r2, [r3, #32]
 3517 005c DA68     		ldr	r2, [r3, #12]
 3518 005e 0A40     		ands	r2, r1
 3519 0060 DA60     		str	r2, [r3, #12]
 3520              	.L516:
 3521 0062 606A     		ldr	r0, [r4, #36]
 3522 0064 DDE7     		b	.L515
 3523              	.L508:
 3524 0066 8243     		bics	r2, r0
 3525 0068 1020     		movs	r0, #16
 3526 006a 1A62     		str	r2, [r3, #32]
 3527 006c 1A6A     		ldr	r2, [r3, #32]
 3528 006e 1A62     		str	r2, [r3, #32]
 3529 0070 1A6A     		ldr	r2, [r3, #32]
 3530 0072 8243     		bics	r2, r0
 3531 0074 1A62     		str	r2, [r3, #32]
 3532 0076 1A6A     		ldr	r2, [r3, #32]
 3533 0078 0948     		ldr	r0, .L518
 3534 007a 1A62     		str	r2, [r3, #32]
 3535 007c DA68     		ldr	r2, [r3, #12]
 3536 007e 0240     		ands	r2, r0
 3537 0080 DA60     		str	r2, [r3, #12]
 3538 0082 DA68     		ldr	r2, [r3, #12]
 3539 0084 206A     		ldr	r0, [r4, #32]
 3540 0086 0A40     		ands	r2, r1
 3541 0088 DA60     		str	r2, [r3, #12]
 3542 008a FFF7FEFF 		bl	HAL_DMA_Abort_IT
 3543 008e E8E7     		b	.L516
 3544              	.L510:
 3545 0090 3A34     		adds	r4, r4, #58
 3546 0092 2370     		strb	r3, [r4]
 3547              	.L513:
ARM GAS  /tmp/ccCjdw1k.s 			page 61


 3548 0094 0020     		movs	r0, #0
 3549              		@ sp needed
 3550 0096 70BD     		pop	{r4, r5, r6, pc}
 3551              	.L514:
 3552 0098 3A34     		adds	r4, r4, #58
 3553 009a 2370     		strb	r3, [r4]
 3554 009c D3E7     		b	.L517
 3555              	.L519:
 3556 009e C046     		.align	2
 3557              	.L518:
 3558 00a0 FFFDFFFF 		.word	-513
 3559 00a4 11110000 		.word	4369
 3560 00a8 FFFBFFFF 		.word	-1025
 3562              		.section	.text.HAL_TIM_OC_ConfigChannel,"ax",%progbits
 3563              		.align	1
 3564              		.global	HAL_TIM_OC_ConfigChannel
 3565              		.syntax unified
 3566              		.code	16
 3567              		.thumb_func
 3569              	HAL_TIM_OC_ConfigChannel:
 3570              		@ args = 0, pretend = 0, frame = 0
 3571              		@ frame_needed = 0, uses_anonymous_args = 0
 3572 0000 70B5     		push	{r4, r5, r6, lr}
 3573 0002 0400     		movs	r4, r0
 3574 0004 3834     		adds	r4, r4, #56
 3575 0006 2578     		ldrb	r5, [r4]
 3576 0008 0300     		movs	r3, r0
 3577 000a 0220     		movs	r0, #2
 3578 000c 012D     		cmp	r5, #1
 3579 000e 09D0     		beq	.L521
 3580 0010 082A     		cmp	r2, #8
 3581 0012 2AD0     		beq	.L522
 3582 0014 07D8     		bhi	.L523
 3583 0016 002A     		cmp	r2, #0
 3584 0018 1ED0     		beq	.L524
 3585 001a 042A     		cmp	r2, #4
 3586 001c 21D0     		beq	.L525
 3587              	.L531:
 3588 001e 0120     		movs	r0, #1
 3589              	.L526:
 3590 0020 0023     		movs	r3, #0
 3591 0022 2370     		strb	r3, [r4]
 3592              	.L521:
 3593              		@ sp needed
 3594 0024 70BD     		pop	{r4, r5, r6, pc}
 3595              	.L523:
 3596 0026 0C2A     		cmp	r2, #12
 3597 0028 F9D1     		bne	.L531
 3598 002a 1B68     		ldr	r3, [r3]
 3599 002c 1A48     		ldr	r0, .L532
 3600 002e 1A6A     		ldr	r2, [r3, #32]
 3601 0030 0240     		ands	r2, r0
 3602 0032 1A62     		str	r2, [r3, #32]
 3603 0034 1D6A     		ldr	r5, [r3, #32]
 3604 0036 1948     		ldr	r0, .L532+4
 3605 0038 5E68     		ldr	r6, [r3, #4]
 3606 003a DA69     		ldr	r2, [r3, #28]
ARM GAS  /tmp/ccCjdw1k.s 			page 62


 3607 003c 0240     		ands	r2, r0
 3608 003e 0868     		ldr	r0, [r1]
 3609 0040 0002     		lsls	r0, r0, #8
 3610 0042 1043     		orrs	r0, r2
 3611 0044 164A     		ldr	r2, .L532+8
 3612 0046 1540     		ands	r5, r2
 3613 0048 8A68     		ldr	r2, [r1, #8]
 3614 004a 4968     		ldr	r1, [r1, #4]
 3615 004c 1203     		lsls	r2, r2, #12
 3616 004e 5E60     		str	r6, [r3, #4]
 3617 0050 2A43     		orrs	r2, r5
 3618 0052 D861     		str	r0, [r3, #28]
 3619 0054 1964     		str	r1, [r3, #64]
 3620 0056 1DE0     		b	.L530
 3621              	.L524:
 3622 0058 1868     		ldr	r0, [r3]
 3623 005a FFF7FEFF 		bl	TIM_OC1_SetConfig
 3624              	.L528:
 3625 005e 0020     		movs	r0, #0
 3626 0060 DEE7     		b	.L526
 3627              	.L525:
 3628 0062 1868     		ldr	r0, [r3]
 3629 0064 FFF7FEFF 		bl	TIM_OC2_SetConfig
 3630 0068 F9E7     		b	.L528
 3631              	.L522:
 3632 006a 1B68     		ldr	r3, [r3]
 3633 006c 0D48     		ldr	r0, .L532+12
 3634 006e 1A6A     		ldr	r2, [r3, #32]
 3635 0070 0240     		ands	r2, r0
 3636 0072 1A62     		str	r2, [r3, #32]
 3637 0074 7322     		movs	r2, #115
 3638 0076 1D6A     		ldr	r5, [r3, #32]
 3639 0078 5E68     		ldr	r6, [r3, #4]
 3640 007a D869     		ldr	r0, [r3, #28]
 3641 007c 9043     		bics	r0, r2
 3642 007e 0A68     		ldr	r2, [r1]
 3643 0080 1043     		orrs	r0, r2
 3644 0082 094A     		ldr	r2, .L532+16
 3645 0084 1540     		ands	r5, r2
 3646 0086 8A68     		ldr	r2, [r1, #8]
 3647 0088 4968     		ldr	r1, [r1, #4]
 3648 008a 1202     		lsls	r2, r2, #8
 3649 008c 5E60     		str	r6, [r3, #4]
 3650 008e 2A43     		orrs	r2, r5
 3651 0090 D861     		str	r0, [r3, #28]
 3652 0092 D963     		str	r1, [r3, #60]
 3653              	.L530:
 3654 0094 1A62     		str	r2, [r3, #32]
 3655 0096 E2E7     		b	.L528
 3656              	.L533:
 3657              		.align	2
 3658              	.L532:
 3659 0098 FFEFFFFF 		.word	-4097
 3660 009c FF8CFFFF 		.word	-29441
 3661 00a0 FFDFFFFF 		.word	-8193
 3662 00a4 FFFEFFFF 		.word	-257
 3663 00a8 FFFDFFFF 		.word	-513
ARM GAS  /tmp/ccCjdw1k.s 			page 63


 3665              		.section	.text.HAL_TIM_IC_ConfigChannel,"ax",%progbits
 3666              		.align	1
 3667              		.global	HAL_TIM_IC_ConfigChannel
 3668              		.syntax unified
 3669              		.code	16
 3670              		.thumb_func
 3672              	HAL_TIM_IC_ConfigChannel:
 3673              		@ args = 0, pretend = 0, frame = 8
 3674              		@ frame_needed = 0, uses_anonymous_args = 0
 3675 0000 0300     		movs	r3, r0
 3676 0002 F7B5     		push	{r0, r1, r2, r4, r5, r6, r7, lr}
 3677 0004 3833     		adds	r3, r3, #56
 3678 0006 0190     		str	r0, [sp, #4]
 3679 0008 0C00     		movs	r4, r1
 3680 000a 1978     		ldrb	r1, [r3]
 3681 000c 0220     		movs	r0, #2
 3682 000e 0129     		cmp	r1, #1
 3683 0010 0CD0     		beq	.L535
 3684 0012 0138     		subs	r0, r0, #1
 3685 0014 1870     		strb	r0, [r3]
 3686 0016 082A     		cmp	r2, #8
 3687 0018 67D0     		beq	.L536
 3688 001a 08D8     		bhi	.L537
 3689 001c 002A     		cmp	r2, #0
 3690 001e 2DD0     		beq	.L538
 3691 0020 042A     		cmp	r2, #4
 3692 0022 3DD0     		beq	.L539
 3693              	.L540:
 3694 0024 0023     		movs	r3, #0
 3695 0026 019D     		ldr	r5, [sp, #4]
 3696 0028 3835     		adds	r5, r5, #56
 3697 002a 2B70     		strb	r3, [r5]
 3698              	.L535:
 3699              		@ sp needed
 3700 002c FEBD     		pop	{r1, r2, r3, r4, r5, r6, r7, pc}
 3701              	.L537:
 3702 002e 0C2A     		cmp	r2, #12
 3703 0030 F8D1     		bne	.L540
 3704 0032 019B     		ldr	r3, [sp, #4]
 3705 0034 404F     		ldr	r7, .L545
 3706 0036 1B68     		ldr	r3, [r3]
 3707 0038 2268     		ldr	r2, [r4]
 3708 003a 1E6A     		ldr	r6, [r3, #32]
 3709 003c 6068     		ldr	r0, [r4, #4]
 3710 003e 3E40     		ands	r6, r7
 3711 0040 E168     		ldr	r1, [r4, #12]
 3712 0042 1E62     		str	r6, [r3, #32]
 3713 0044 DF69     		ldr	r7, [r3, #28]
 3714 0046 3D4D     		ldr	r5, .L545+4
 3715 0048 0002     		lsls	r0, r0, #8
 3716 004a 2F40     		ands	r7, r5
 3717 004c 3843     		orrs	r0, r7
 3718 004e 3C4F     		ldr	r7, .L545+8
 3719 0050 0907     		lsls	r1, r1, #28
 3720 0052 3840     		ands	r0, r7
 3721 0054 090C     		lsrs	r1, r1, #16
 3722 0056 1E6A     		ldr	r6, [r3, #32]
ARM GAS  /tmp/ccCjdw1k.s 			page 64


 3723 0058 0143     		orrs	r1, r0
 3724 005a 3A48     		ldr	r0, .L545+12
 3725 005c 1203     		lsls	r2, r2, #12
 3726 005e 0640     		ands	r6, r0
 3727 0060 A020     		movs	r0, #160
 3728 0062 0002     		lsls	r0, r0, #8
 3729 0064 0240     		ands	r2, r0
 3730 0066 3243     		orrs	r2, r6
 3731 0068 D961     		str	r1, [r3, #28]
 3732 006a 1A62     		str	r2, [r3, #32]
 3733 006c DA69     		ldr	r2, [r3, #28]
 3734 006e 3649     		ldr	r1, .L545+16
 3735 0070 0A40     		ands	r2, r1
 3736 0072 DA61     		str	r2, [r3, #28]
 3737 0074 A268     		ldr	r2, [r4, #8]
 3738 0076 D969     		ldr	r1, [r3, #28]
 3739 0078 1202     		lsls	r2, r2, #8
 3740 007a 59E0     		b	.L544
 3741              	.L538:
 3742 007c 019B     		ldr	r3, [sp, #4]
 3743 007e 6268     		ldr	r2, [r4, #4]
 3744 0080 1E68     		ldr	r6, [r3]
 3745 0082 2168     		ldr	r1, [r4]
 3746 0084 E368     		ldr	r3, [r4, #12]
 3747 0086 3000     		movs	r0, r6
 3748 0088 FFF7FEFF 		bl	TIM_TI1_SetConfig
 3749 008c 0C22     		movs	r2, #12
 3750 008e B369     		ldr	r3, [r6, #24]
 3751 0090 9343     		bics	r3, r2
 3752 0092 B361     		str	r3, [r6, #24]
 3753 0094 B369     		ldr	r3, [r6, #24]
 3754 0096 A268     		ldr	r2, [r4, #8]
 3755 0098 1343     		orrs	r3, r2
 3756 009a B361     		str	r3, [r6, #24]
 3757              	.L542:
 3758 009c 0020     		movs	r0, #0
 3759 009e C1E7     		b	.L540
 3760              	.L539:
 3761 00a0 1027     		movs	r7, #16
 3762 00a2 019B     		ldr	r3, [sp, #4]
 3763 00a4 2268     		ldr	r2, [r4]
 3764 00a6 1B68     		ldr	r3, [r3]
 3765 00a8 6068     		ldr	r0, [r4, #4]
 3766 00aa 1E6A     		ldr	r6, [r3, #32]
 3767 00ac E168     		ldr	r1, [r4, #12]
 3768 00ae BE43     		bics	r6, r7
 3769 00b0 1E62     		str	r6, [r3, #32]
 3770 00b2 9F69     		ldr	r7, [r3, #24]
 3771 00b4 214D     		ldr	r5, .L545+4
 3772 00b6 0002     		lsls	r0, r0, #8
 3773 00b8 2F40     		ands	r7, r5
 3774 00ba 3843     		orrs	r0, r7
 3775 00bc 204F     		ldr	r7, .L545+8
 3776 00be 0907     		lsls	r1, r1, #28
 3777 00c0 3840     		ands	r0, r7
 3778 00c2 090C     		lsrs	r1, r1, #16
 3779 00c4 0143     		orrs	r1, r0
ARM GAS  /tmp/ccCjdw1k.s 			page 65


 3780 00c6 A020     		movs	r0, #160
 3781 00c8 1E6A     		ldr	r6, [r3, #32]
 3782 00ca 1201     		lsls	r2, r2, #4
 3783 00cc 8643     		bics	r6, r0
 3784 00ce 0240     		ands	r2, r0
 3785 00d0 3243     		orrs	r2, r6
 3786 00d2 9961     		str	r1, [r3, #24]
 3787 00d4 1A62     		str	r2, [r3, #32]
 3788 00d6 9A69     		ldr	r2, [r3, #24]
 3789 00d8 1B49     		ldr	r1, .L545+16
 3790 00da 0A40     		ands	r2, r1
 3791 00dc 9A61     		str	r2, [r3, #24]
 3792 00de A268     		ldr	r2, [r4, #8]
 3793 00e0 9969     		ldr	r1, [r3, #24]
 3794 00e2 1202     		lsls	r2, r2, #8
 3795 00e4 0A43     		orrs	r2, r1
 3796 00e6 9A61     		str	r2, [r3, #24]
 3797 00e8 D8E7     		b	.L542
 3798              	.L536:
 3799 00ea 0325     		movs	r5, #3
 3800 00ec 019B     		ldr	r3, [sp, #4]
 3801 00ee 174F     		ldr	r7, .L545+20
 3802 00f0 1B68     		ldr	r3, [r3]
 3803 00f2 2268     		ldr	r2, [r4]
 3804 00f4 1E6A     		ldr	r6, [r3, #32]
 3805 00f6 6068     		ldr	r0, [r4, #4]
 3806 00f8 3E40     		ands	r6, r7
 3807 00fa E168     		ldr	r1, [r4, #12]
 3808 00fc 1E62     		str	r6, [r3, #32]
 3809 00fe DF69     		ldr	r7, [r3, #28]
 3810 0100 0901     		lsls	r1, r1, #4
 3811 0102 AF43     		bics	r7, r5
 3812 0104 3843     		orrs	r0, r7
 3813 0106 F027     		movs	r7, #240
 3814 0108 B843     		bics	r0, r7
 3815 010a 0F37     		adds	r7, r7, #15
 3816 010c 3940     		ands	r1, r7
 3817 010e 1E6A     		ldr	r6, [r3, #32]
 3818 0110 0143     		orrs	r1, r0
 3819 0112 0F48     		ldr	r0, .L545+24
 3820 0114 D961     		str	r1, [r3, #28]
 3821 0116 3040     		ands	r0, r6
 3822 0118 A026     		movs	r6, #160
 3823 011a 0C21     		movs	r1, #12
 3824 011c 1202     		lsls	r2, r2, #8
 3825 011e 3601     		lsls	r6, r6, #4
 3826 0120 3240     		ands	r2, r6
 3827 0122 0243     		orrs	r2, r0
 3828 0124 1A62     		str	r2, [r3, #32]
 3829 0126 DA69     		ldr	r2, [r3, #28]
 3830 0128 8A43     		bics	r2, r1
 3831 012a DA61     		str	r2, [r3, #28]
 3832 012c DA69     		ldr	r2, [r3, #28]
 3833 012e A168     		ldr	r1, [r4, #8]
 3834              	.L544:
 3835 0130 0A43     		orrs	r2, r1
 3836 0132 DA61     		str	r2, [r3, #28]
ARM GAS  /tmp/ccCjdw1k.s 			page 66


 3837 0134 B2E7     		b	.L542
 3838              	.L546:
 3839 0136 C046     		.align	2
 3840              	.L545:
 3841 0138 FFEFFFFF 		.word	-4097
 3842 013c FFFCFFFF 		.word	-769
 3843 0140 FF0FFFFF 		.word	-61441
 3844 0144 FF5FFFFF 		.word	-40961
 3845 0148 FFF3FFFF 		.word	-3073
 3846 014c FFFEFFFF 		.word	-257
 3847 0150 FFF5FFFF 		.word	-2561
 3849              		.section	.text.HAL_TIM_PWM_ConfigChannel,"ax",%progbits
 3850              		.align	1
 3851              		.global	HAL_TIM_PWM_ConfigChannel
 3852              		.syntax unified
 3853              		.code	16
 3854              		.thumb_func
 3856              	HAL_TIM_PWM_ConfigChannel:
 3857              		@ args = 0, pretend = 0, frame = 0
 3858              		@ frame_needed = 0, uses_anonymous_args = 0
 3859 0000 F8B5     		push	{r3, r4, r5, r6, r7, lr}
 3860 0002 0500     		movs	r5, r0
 3861 0004 3835     		adds	r5, r5, #56
 3862 0006 0C00     		movs	r4, r1
 3863 0008 2978     		ldrb	r1, [r5]
 3864 000a 0300     		movs	r3, r0
 3865 000c 0220     		movs	r0, #2
 3866 000e 0129     		cmp	r1, #1
 3867 0010 0AD0     		beq	.L548
 3868 0012 0138     		subs	r0, r0, #1
 3869 0014 2870     		strb	r0, [r5]
 3870 0016 082A     		cmp	r2, #8
 3871 0018 52D0     		beq	.L549
 3872 001a 06D8     		bhi	.L550
 3873 001c 002A     		cmp	r2, #0
 3874 001e 2AD0     		beq	.L551
 3875 0020 042A     		cmp	r2, #4
 3876 0022 3BD0     		beq	.L552
 3877              	.L553:
 3878 0024 0023     		movs	r3, #0
 3879 0026 2B70     		strb	r3, [r5]
 3880              	.L548:
 3881              		@ sp needed
 3882 0028 F8BD     		pop	{r3, r4, r5, r6, r7, pc}
 3883              	.L550:
 3884 002a 0C2A     		cmp	r2, #12
 3885 002c FAD1     		bne	.L553
 3886 002e 1B68     		ldr	r3, [r3]
 3887 0030 3449     		ldr	r1, .L559
 3888 0032 1A6A     		ldr	r2, [r3, #32]
 3889 0034 0A40     		ands	r2, r1
 3890 0036 1A62     		str	r2, [r3, #32]
 3891 0038 186A     		ldr	r0, [r3, #32]
 3892 003a 3349     		ldr	r1, .L559+4
 3893 003c 5E68     		ldr	r6, [r3, #4]
 3894 003e DA69     		ldr	r2, [r3, #28]
 3895 0040 0A40     		ands	r2, r1
ARM GAS  /tmp/ccCjdw1k.s 			page 67


 3896 0042 2168     		ldr	r1, [r4]
 3897 0044 0902     		lsls	r1, r1, #8
 3898 0046 1143     		orrs	r1, r2
 3899 0048 304A     		ldr	r2, .L559+8
 3900 004a 1040     		ands	r0, r2
 3901 004c A268     		ldr	r2, [r4, #8]
 3902 004e 5E60     		str	r6, [r3, #4]
 3903 0050 1203     		lsls	r2, r2, #12
 3904 0052 D961     		str	r1, [r3, #28]
 3905 0054 6168     		ldr	r1, [r4, #4]
 3906 0056 0243     		orrs	r2, r0
 3907 0058 1964     		str	r1, [r3, #64]
 3908 005a 1A62     		str	r2, [r3, #32]
 3909 005c 8022     		movs	r2, #128
 3910 005e D969     		ldr	r1, [r3, #28]
 3911 0060 1201     		lsls	r2, r2, #4
 3912 0062 0A43     		orrs	r2, r1
 3913 0064 DA61     		str	r2, [r3, #28]
 3914 0066 DA69     		ldr	r2, [r3, #28]
 3915 0068 2949     		ldr	r1, .L559+12
 3916 006a 0A40     		ands	r2, r1
 3917 006c DA61     		str	r2, [r3, #28]
 3918 006e E268     		ldr	r2, [r4, #12]
 3919 0070 D969     		ldr	r1, [r3, #28]
 3920 0072 1202     		lsls	r2, r2, #8
 3921 0074 43E0     		b	.L558
 3922              	.L551:
 3923 0076 1E68     		ldr	r6, [r3]
 3924 0078 2100     		movs	r1, r4
 3925 007a 3000     		movs	r0, r6
 3926 007c FFF7FEFF 		bl	TIM_OC1_SetConfig
 3927 0080 0823     		movs	r3, #8
 3928 0082 B269     		ldr	r2, [r6, #24]
 3929 0084 1343     		orrs	r3, r2
 3930 0086 0422     		movs	r2, #4
 3931 0088 B361     		str	r3, [r6, #24]
 3932 008a B369     		ldr	r3, [r6, #24]
 3933 008c 9343     		bics	r3, r2
 3934 008e B361     		str	r3, [r6, #24]
 3935 0090 B369     		ldr	r3, [r6, #24]
 3936 0092 E268     		ldr	r2, [r4, #12]
 3937              	.L557:
 3938 0094 1343     		orrs	r3, r2
 3939 0096 B361     		str	r3, [r6, #24]
 3940              	.L555:
 3941 0098 0020     		movs	r0, #0
 3942 009a C3E7     		b	.L553
 3943              	.L552:
 3944 009c 1E68     		ldr	r6, [r3]
 3945 009e 2100     		movs	r1, r4
 3946 00a0 3000     		movs	r0, r6
 3947 00a2 FFF7FEFF 		bl	TIM_OC2_SetConfig
 3948 00a6 8023     		movs	r3, #128
 3949 00a8 B269     		ldr	r2, [r6, #24]
 3950 00aa 1B01     		lsls	r3, r3, #4
 3951 00ac 1343     		orrs	r3, r2
 3952 00ae B361     		str	r3, [r6, #24]
ARM GAS  /tmp/ccCjdw1k.s 			page 68


 3953 00b0 B369     		ldr	r3, [r6, #24]
 3954 00b2 174A     		ldr	r2, .L559+12
 3955 00b4 1340     		ands	r3, r2
 3956 00b6 B361     		str	r3, [r6, #24]
 3957 00b8 E368     		ldr	r3, [r4, #12]
 3958 00ba B269     		ldr	r2, [r6, #24]
 3959 00bc 1B02     		lsls	r3, r3, #8
 3960 00be E9E7     		b	.L557
 3961              	.L549:
 3962 00c0 1B68     		ldr	r3, [r3]
 3963 00c2 1448     		ldr	r0, .L559+16
 3964 00c4 196A     		ldr	r1, [r3, #32]
 3965 00c6 0140     		ands	r1, r0
 3966 00c8 1962     		str	r1, [r3, #32]
 3967 00ca 7321     		movs	r1, #115
 3968 00cc 1F6A     		ldr	r7, [r3, #32]
 3969 00ce 5E68     		ldr	r6, [r3, #4]
 3970 00d0 D869     		ldr	r0, [r3, #28]
 3971 00d2 8843     		bics	r0, r1
 3972 00d4 2168     		ldr	r1, [r4]
 3973 00d6 0843     		orrs	r0, r1
 3974 00d8 0F49     		ldr	r1, .L559+20
 3975 00da 0F40     		ands	r7, r1
 3976 00dc A168     		ldr	r1, [r4, #8]
 3977 00de 5E60     		str	r6, [r3, #4]
 3978 00e0 0902     		lsls	r1, r1, #8
 3979 00e2 D861     		str	r0, [r3, #28]
 3980 00e4 6068     		ldr	r0, [r4, #4]
 3981 00e6 3943     		orrs	r1, r7
 3982 00e8 D863     		str	r0, [r3, #60]
 3983 00ea 1962     		str	r1, [r3, #32]
 3984 00ec D969     		ldr	r1, [r3, #28]
 3985 00ee 0A43     		orrs	r2, r1
 3986 00f0 0421     		movs	r1, #4
 3987 00f2 DA61     		str	r2, [r3, #28]
 3988 00f4 DA69     		ldr	r2, [r3, #28]
 3989 00f6 8A43     		bics	r2, r1
 3990 00f8 DA61     		str	r2, [r3, #28]
 3991 00fa DA69     		ldr	r2, [r3, #28]
 3992 00fc E168     		ldr	r1, [r4, #12]
 3993              	.L558:
 3994 00fe 0A43     		orrs	r2, r1
 3995 0100 DA61     		str	r2, [r3, #28]
 3996 0102 C9E7     		b	.L555
 3997              	.L560:
 3998              		.align	2
 3999              	.L559:
 4000 0104 FFEFFFFF 		.word	-4097
 4001 0108 FF8CFFFF 		.word	-29441
 4002 010c FFDFFFFF 		.word	-8193
 4003 0110 FFFBFFFF 		.word	-1025
 4004 0114 FFFEFFFF 		.word	-257
 4005 0118 FFFDFFFF 		.word	-513
 4007              		.section	.text.HAL_TIM_OnePulse_ConfigChannel,"ax",%progbits
 4008              		.align	1
 4009              		.global	HAL_TIM_OnePulse_ConfigChannel
 4010              		.syntax unified
ARM GAS  /tmp/ccCjdw1k.s 			page 69


 4011              		.code	16
 4012              		.thumb_func
 4014              	HAL_TIM_OnePulse_ConfigChannel:
 4015              		@ args = 0, pretend = 0, frame = 24
 4016              		@ frame_needed = 0, uses_anonymous_args = 0
 4017 0000 F0B5     		push	{r4, r5, r6, r7, lr}
 4018 0002 0400     		movs	r4, r0
 4019 0004 0D00     		movs	r5, r1
 4020 0006 1F00     		movs	r7, r3
 4021 0008 0120     		movs	r0, #1
 4022 000a 87B0     		sub	sp, sp, #28
 4023 000c 9A42     		cmp	r2, r3
 4024 000e 1BD0     		beq	.L562
 4025 0010 2600     		movs	r6, r4
 4026 0012 0223     		movs	r3, #2
 4027 0014 3836     		adds	r6, r6, #56
 4028 0016 3178     		ldrb	r1, [r6]
 4029 0018 1800     		movs	r0, r3
 4030 001a 0129     		cmp	r1, #1
 4031 001c 14D0     		beq	.L562
 4032 001e 0121     		movs	r1, #1
 4033 0020 3170     		strb	r1, [r6]
 4034 0022 2100     		movs	r1, r4
 4035 0024 3931     		adds	r1, r1, #57
 4036 0026 0B70     		strb	r3, [r1]
 4037 0028 6968     		ldr	r1, [r5, #4]
 4038 002a AB68     		ldr	r3, [r5, #8]
 4039 002c 2868     		ldr	r0, [r5]
 4040 002e 0391     		str	r1, [sp, #12]
 4041 0030 0290     		str	r0, [sp, #8]
 4042 0032 0493     		str	r3, [sp, #16]
 4043 0034 002A     		cmp	r2, #0
 4044 0036 09D0     		beq	.L563
 4045 0038 042A     		cmp	r2, #4
 4046 003a 40D0     		beq	.L564
 4047              	.L569:
 4048 003c 0120     		movs	r0, #1
 4049              	.L565:
 4050 003e 0123     		movs	r3, #1
 4051 0040 3934     		adds	r4, r4, #57
 4052 0042 2370     		strb	r3, [r4]
 4053 0044 0023     		movs	r3, #0
 4054 0046 3370     		strb	r3, [r6]
 4055              	.L562:
 4056 0048 07B0     		add	sp, sp, #28
 4057              		@ sp needed
 4058 004a F0BD     		pop	{r4, r5, r6, r7, pc}
 4059              	.L563:
 4060 004c 2068     		ldr	r0, [r4]
 4061 004e 02A9     		add	r1, sp, #8
 4062 0050 FFF7FEFF 		bl	TIM_OC1_SetConfig
 4063              	.L566:
 4064 0054 002F     		cmp	r7, #0
 4065 0056 37D0     		beq	.L567
 4066 0058 042F     		cmp	r7, #4
 4067 005a EFD1     		bne	.L569
 4068 005c 1027     		movs	r7, #16
ARM GAS  /tmp/ccCjdw1k.s 			page 70


 4069 005e 2368     		ldr	r3, [r4]
 4070 0060 EA68     		ldr	r2, [r5, #12]
 4071 0062 2869     		ldr	r0, [r5, #16]
 4072 0064 6969     		ldr	r1, [r5, #20]
 4073 0066 1D6A     		ldr	r5, [r3, #32]
 4074 0068 0192     		str	r2, [sp, #4]
 4075 006a BD43     		bics	r5, r7
 4076 006c 1D62     		str	r5, [r3, #32]
 4077 006e 9F69     		ldr	r7, [r3, #24]
 4078 0070 234A     		ldr	r2, .L573
 4079 0072 0002     		lsls	r0, r0, #8
 4080 0074 1740     		ands	r7, r2
 4081 0076 3843     		orrs	r0, r7
 4082 0078 224F     		ldr	r7, .L573+4
 4083 007a 0907     		lsls	r1, r1, #28
 4084 007c 3840     		ands	r0, r7
 4085 007e 090C     		lsrs	r1, r1, #16
 4086 0080 0143     		orrs	r1, r0
 4087 0082 A020     		movs	r0, #160
 4088 0084 019A     		ldr	r2, [sp, #4]
 4089 0086 1D6A     		ldr	r5, [r3, #32]
 4090 0088 1201     		lsls	r2, r2, #4
 4091 008a 8543     		bics	r5, r0
 4092 008c 0240     		ands	r2, r0
 4093 008e 2A43     		orrs	r2, r5
 4094 0090 9961     		str	r1, [r3, #24]
 4095 0092 1A62     		str	r2, [r3, #32]
 4096 0094 9A69     		ldr	r2, [r3, #24]
 4097 0096 1C49     		ldr	r1, .L573+8
 4098 0098 0A40     		ands	r2, r1
 4099 009a 7021     		movs	r1, #112
 4100 009c 9A61     		str	r2, [r3, #24]
 4101 009e 9A68     		ldr	r2, [r3, #8]
 4102 00a0 8A43     		bics	r2, r1
 4103 00a2 9A60     		str	r2, [r3, #8]
 4104 00a4 6022     		movs	r2, #96
 4105 00a6 9968     		ldr	r1, [r3, #8]
 4106 00a8 0A43     		orrs	r2, r1
 4107 00aa 0721     		movs	r1, #7
 4108 00ac 9A60     		str	r2, [r3, #8]
 4109 00ae 9A68     		ldr	r2, [r3, #8]
 4110 00b0 8A43     		bics	r2, r1
 4111 00b2 9A60     		str	r2, [r3, #8]
 4112 00b4 0622     		movs	r2, #6
 4113 00b6 9968     		ldr	r1, [r3, #8]
 4114 00b8 0A43     		orrs	r2, r1
 4115 00ba 9A60     		str	r2, [r3, #8]
 4116 00bc 1EE0     		b	.L570
 4117              	.L564:
 4118 00be 2068     		ldr	r0, [r4]
 4119 00c0 02A9     		add	r1, sp, #8
 4120 00c2 FFF7FEFF 		bl	TIM_OC2_SetConfig
 4121 00c6 C5E7     		b	.L566
 4122              	.L567:
 4123 00c8 2768     		ldr	r7, [r4]
 4124 00ca 0C35     		adds	r5, r5, #12
 4125 00cc 0ECD     		ldmia	r5!, {r1, r2, r3}
ARM GAS  /tmp/ccCjdw1k.s 			page 71


 4126 00ce 3800     		movs	r0, r7
 4127 00d0 FFF7FEFF 		bl	TIM_TI1_SetConfig
 4128 00d4 0C22     		movs	r2, #12
 4129 00d6 BB69     		ldr	r3, [r7, #24]
 4130 00d8 9343     		bics	r3, r2
 4131 00da BB61     		str	r3, [r7, #24]
 4132 00dc BB68     		ldr	r3, [r7, #8]
 4133 00de 6432     		adds	r2, r2, #100
 4134 00e0 9343     		bics	r3, r2
 4135 00e2 BB60     		str	r3, [r7, #8]
 4136 00e4 5023     		movs	r3, #80
 4137 00e6 BA68     		ldr	r2, [r7, #8]
 4138 00e8 1343     		orrs	r3, r2
 4139 00ea 0722     		movs	r2, #7
 4140 00ec BB60     		str	r3, [r7, #8]
 4141 00ee BB68     		ldr	r3, [r7, #8]
 4142 00f0 9343     		bics	r3, r2
 4143 00f2 BB60     		str	r3, [r7, #8]
 4144 00f4 0623     		movs	r3, #6
 4145 00f6 BA68     		ldr	r2, [r7, #8]
 4146 00f8 1343     		orrs	r3, r2
 4147 00fa BB60     		str	r3, [r7, #8]
 4148              	.L570:
 4149 00fc 0020     		movs	r0, #0
 4150 00fe 9EE7     		b	.L565
 4151              	.L574:
 4152              		.align	2
 4153              	.L573:
 4154 0100 FFFCFFFF 		.word	-769
 4155 0104 FF0FFFFF 		.word	-61441
 4156 0108 FFF3FFFF 		.word	-3073
 4158              		.section	.text.HAL_TIM_DMABurst_MultiWriteStart,"ax",%progbits
 4159              		.align	1
 4160              		.global	HAL_TIM_DMABurst_MultiWriteStart
 4161              		.syntax unified
 4162              		.code	16
 4163              		.thumb_func
 4165              	HAL_TIM_DMABurst_MultiWriteStart:
 4166              		@ args = 8, pretend = 0, frame = 0
 4167              		@ frame_needed = 0, uses_anonymous_args = 0
 4168 0000 F8B5     		push	{r3, r4, r5, r6, r7, lr}
 4169 0002 1500     		movs	r5, r2
 4170 0004 0200     		movs	r2, r0
 4171 0006 3E32     		adds	r2, r2, #62
 4172 0008 1678     		ldrb	r6, [r2]
 4173 000a 0400     		movs	r4, r0
 4174 000c 0F00     		movs	r7, r1
 4175 000e F0B2     		uxtb	r0, r6
 4176 0010 1900     		movs	r1, r3
 4177 0012 079B     		ldr	r3, [sp, #28]
 4178 0014 022E     		cmp	r6, #2
 4179 0016 3ED0     		beq	.L576
 4180 0018 1078     		ldrb	r0, [r2]
 4181 001a 0128     		cmp	r0, #1
 4182 001c 06D1     		bne	.L577
 4183 001e 0029     		cmp	r1, #0
 4184 0020 02D1     		bne	.L578
ARM GAS  /tmp/ccCjdw1k.s 			page 72


 4185 0022 0698     		ldr	r0, [sp, #24]
 4186 0024 0028     		cmp	r0, #0
 4187 0026 12D1     		bne	.L579
 4188              	.L578:
 4189 0028 0220     		movs	r0, #2
 4190 002a 1070     		strb	r0, [r2]
 4191              	.L577:
 4192 002c 8022     		movs	r2, #128
 4193 002e 1201     		lsls	r2, r2, #4
 4194 0030 9542     		cmp	r5, r2
 4195 0032 38D0     		beq	.L580
 4196 0034 0DD8     		bhi	.L581
 4197 0036 8022     		movs	r2, #128
 4198 0038 9200     		lsls	r2, r2, #2
 4199 003a 9542     		cmp	r5, r2
 4200 003c 2CD0     		beq	.L582
 4201 003e 8022     		movs	r2, #128
 4202 0040 D200     		lsls	r2, r2, #3
 4203 0042 9542     		cmp	r5, r2
 4204 0044 2DD0     		beq	.L583
 4205 0046 8022     		movs	r2, #128
 4206 0048 5200     		lsls	r2, r2, #1
 4207 004a 9542     		cmp	r5, r2
 4208 004c 0ED0     		beq	.L584
 4209              	.L579:
 4210 004e 0120     		movs	r0, #1
 4211 0050 21E0     		b	.L576
 4212              	.L581:
 4213 0052 8022     		movs	r2, #128
 4214 0054 5201     		lsls	r2, r2, #5
 4215 0056 9542     		cmp	r5, r2
 4216 0058 27D0     		beq	.L585
 4217 005a 8022     		movs	r2, #128
 4218 005c D201     		lsls	r2, r2, #7
 4219 005e 9542     		cmp	r5, r2
 4220 0060 F5D1     		bne	.L579
 4221 0062 134A     		ldr	r2, .L597
 4222 0064 606B     		ldr	r0, [r4, #52]
 4223 0066 C262     		str	r2, [r0, #44]
 4224 0068 124A     		ldr	r2, .L597+4
 4225 006a 03E0     		b	.L595
 4226              	.L584:
 4227 006c 124A     		ldr	r2, .L597+8
 4228 006e E069     		ldr	r0, [r4, #28]
 4229 0070 C262     		str	r2, [r0, #44]
 4230 0072 124A     		ldr	r2, .L597+12
 4231              	.L595:
 4232 0074 0263     		str	r2, [r0, #48]
 4233 0076 124A     		ldr	r2, .L597+16
 4234 0078 4263     		str	r2, [r0, #52]
 4235 007a 2268     		ldr	r2, [r4]
 4236 007c 4C32     		adds	r2, r2, #76
 4237 007e FFF7FEFF 		bl	HAL_DMA_Start_IT
 4238 0082 0028     		cmp	r0, #0
 4239 0084 E3D1     		bne	.L579
 4240 0086 0020     		movs	r0, #0
 4241 0088 069E     		ldr	r6, [sp, #24]
ARM GAS  /tmp/ccCjdw1k.s 			page 73


 4242 008a 2368     		ldr	r3, [r4]
 4243 008c 3E43     		orrs	r6, r7
 4244 008e 9E64     		str	r6, [r3, #72]
 4245 0090 DA68     		ldr	r2, [r3, #12]
 4246 0092 2A43     		orrs	r2, r5
 4247 0094 DA60     		str	r2, [r3, #12]
 4248              	.L576:
 4249              		@ sp needed
 4250 0096 F8BD     		pop	{r3, r4, r5, r6, r7, pc}
 4251              	.L582:
 4252 0098 206A     		ldr	r0, [r4, #32]
 4253              	.L596:
 4254 009a 0A4A     		ldr	r2, .L597+20
 4255 009c C262     		str	r2, [r0, #44]
 4256 009e 0A4A     		ldr	r2, .L597+24
 4257 00a0 E8E7     		b	.L595
 4258              	.L583:
 4259 00a2 606A     		ldr	r0, [r4, #36]
 4260 00a4 F9E7     		b	.L596
 4261              	.L580:
 4262 00a6 A06A     		ldr	r0, [r4, #40]
 4263 00a8 F7E7     		b	.L596
 4264              	.L585:
 4265 00aa E06A     		ldr	r0, [r4, #44]
 4266 00ac F5E7     		b	.L596
 4267              	.L598:
 4268 00ae C046     		.align	2
 4269              	.L597:
 4270 00b0 00000000 		.word	TIM_DMATriggerCplt
 4271 00b4 00000000 		.word	TIM_DMATriggerHalfCplt
 4272 00b8 00000000 		.word	TIM_DMAPeriodElapsedCplt
 4273 00bc 00000000 		.word	TIM_DMAPeriodElapsedHalfCplt
 4274 00c0 00000000 		.word	TIM_DMAError
 4275 00c4 00000000 		.word	TIM_DMADelayPulseCplt
 4276 00c8 00000000 		.word	TIM_DMADelayPulseHalfCplt
 4278              		.section	.text.HAL_TIM_DMABurst_WriteStart,"ax",%progbits
 4279              		.align	1
 4280              		.global	HAL_TIM_DMABurst_WriteStart
 4281              		.syntax unified
 4282              		.code	16
 4283              		.thumb_func
 4285              	HAL_TIM_DMABurst_WriteStart:
 4286              		@ args = 4, pretend = 0, frame = 0
 4287              		@ frame_needed = 0, uses_anonymous_args = 0
 4288 0000 37B5     		push	{r0, r1, r2, r4, r5, lr}
 4289 0002 069D     		ldr	r5, [sp, #24]
 4290              		@ sp needed
 4291 0004 2C0A     		lsrs	r4, r5, #8
 4292 0006 0134     		adds	r4, r4, #1
 4293 0008 0095     		str	r5, [sp]
 4294 000a 0194     		str	r4, [sp, #4]
 4295 000c FFF7FEFF 		bl	HAL_TIM_DMABurst_MultiWriteStart
 4296 0010 3EBD     		pop	{r1, r2, r3, r4, r5, pc}
 4298              		.section	.text.HAL_TIM_DMABurst_WriteStop,"ax",%progbits
 4299              		.align	1
 4300              		.global	HAL_TIM_DMABurst_WriteStop
 4301              		.syntax unified
ARM GAS  /tmp/ccCjdw1k.s 			page 74


 4302              		.code	16
 4303              		.thumb_func
 4305              	HAL_TIM_DMABurst_WriteStop:
 4306              		@ args = 0, pretend = 0, frame = 0
 4307              		@ frame_needed = 0, uses_anonymous_args = 0
 4308 0000 8023     		movs	r3, #128
 4309 0002 70B5     		push	{r4, r5, r6, lr}
 4310 0004 1B01     		lsls	r3, r3, #4
 4311 0006 0400     		movs	r4, r0
 4312 0008 0D00     		movs	r5, r1
 4313 000a 9942     		cmp	r1, r3
 4314 000c 28D0     		beq	.L601
 4315 000e 0DD8     		bhi	.L602
 4316 0010 8023     		movs	r3, #128
 4317 0012 9B00     		lsls	r3, r3, #2
 4318 0014 9942     		cmp	r1, r3
 4319 0016 1FD0     		beq	.L603
 4320 0018 8023     		movs	r3, #128
 4321 001a DB00     		lsls	r3, r3, #3
 4322 001c 9942     		cmp	r1, r3
 4323 001e 1DD0     		beq	.L604
 4324 0020 8023     		movs	r3, #128
 4325 0022 5B00     		lsls	r3, r3, #1
 4326 0024 9942     		cmp	r1, r3
 4327 0026 0BD0     		beq	.L605
 4328              	.L611:
 4329 0028 0120     		movs	r0, #1
 4330              	.L606:
 4331              		@ sp needed
 4332 002a 70BD     		pop	{r4, r5, r6, pc}
 4333              	.L602:
 4334 002c 8023     		movs	r3, #128
 4335 002e 5B01     		lsls	r3, r3, #5
 4336 0030 9942     		cmp	r1, r3
 4337 0032 17D0     		beq	.L607
 4338 0034 8023     		movs	r3, #128
 4339 0036 DB01     		lsls	r3, r3, #7
 4340 0038 9942     		cmp	r1, r3
 4341 003a F5D1     		bne	.L611
 4342 003c 406B     		ldr	r0, [r0, #52]
 4343 003e 00E0     		b	.L610
 4344              	.L605:
 4345 0040 C069     		ldr	r0, [r0, #28]
 4346              	.L610:
 4347 0042 FFF7FEFF 		bl	HAL_DMA_Abort_IT
 4348 0046 2268     		ldr	r2, [r4]
 4349 0048 3E34     		adds	r4, r4, #62
 4350 004a D368     		ldr	r3, [r2, #12]
 4351 004c 0020     		movs	r0, #0
 4352 004e AB43     		bics	r3, r5
 4353 0050 D360     		str	r3, [r2, #12]
 4354 0052 0123     		movs	r3, #1
 4355 0054 2370     		strb	r3, [r4]
 4356 0056 E8E7     		b	.L606
 4357              	.L603:
 4358 0058 006A     		ldr	r0, [r0, #32]
 4359 005a F2E7     		b	.L610
ARM GAS  /tmp/ccCjdw1k.s 			page 75


 4360              	.L604:
 4361 005c 406A     		ldr	r0, [r0, #36]
 4362 005e F0E7     		b	.L610
 4363              	.L601:
 4364 0060 806A     		ldr	r0, [r0, #40]
 4365 0062 EEE7     		b	.L610
 4366              	.L607:
 4367 0064 C06A     		ldr	r0, [r0, #44]
 4368 0066 ECE7     		b	.L610
 4370              		.section	.text.HAL_TIM_DMABurst_MultiReadStart,"ax",%progbits
 4371              		.align	1
 4372              		.global	HAL_TIM_DMABurst_MultiReadStart
 4373              		.syntax unified
 4374              		.code	16
 4375              		.thumb_func
 4377              	HAL_TIM_DMABurst_MultiReadStart:
 4378              		@ args = 8, pretend = 0, frame = 0
 4379              		@ frame_needed = 0, uses_anonymous_args = 0
 4380 0000 F8B5     		push	{r3, r4, r5, r6, r7, lr}
 4381 0002 0F00     		movs	r7, r1
 4382 0004 0100     		movs	r1, r0
 4383 0006 3E31     		adds	r1, r1, #62
 4384 0008 0E78     		ldrb	r6, [r1]
 4385 000a 0400     		movs	r4, r0
 4386 000c 1500     		movs	r5, r2
 4387 000e F0B2     		uxtb	r0, r6
 4388 0010 1A00     		movs	r2, r3
 4389 0012 079B     		ldr	r3, [sp, #28]
 4390 0014 022E     		cmp	r6, #2
 4391 0016 3ED0     		beq	.L613
 4392 0018 0878     		ldrb	r0, [r1]
 4393 001a 0128     		cmp	r0, #1
 4394 001c 06D1     		bne	.L614
 4395 001e 002A     		cmp	r2, #0
 4396 0020 02D1     		bne	.L615
 4397 0022 0698     		ldr	r0, [sp, #24]
 4398 0024 0028     		cmp	r0, #0
 4399 0026 12D1     		bne	.L616
 4400              	.L615:
 4401 0028 0220     		movs	r0, #2
 4402 002a 0870     		strb	r0, [r1]
 4403              	.L614:
 4404 002c 8021     		movs	r1, #128
 4405 002e 0901     		lsls	r1, r1, #4
 4406 0030 8D42     		cmp	r5, r1
 4407 0032 38D0     		beq	.L617
 4408 0034 0DD8     		bhi	.L618
 4409 0036 8021     		movs	r1, #128
 4410 0038 8900     		lsls	r1, r1, #2
 4411 003a 8D42     		cmp	r5, r1
 4412 003c 2CD0     		beq	.L619
 4413 003e 8021     		movs	r1, #128
 4414 0040 C900     		lsls	r1, r1, #3
 4415 0042 8D42     		cmp	r5, r1
 4416 0044 2DD0     		beq	.L620
 4417 0046 8021     		movs	r1, #128
 4418 0048 4900     		lsls	r1, r1, #1
ARM GAS  /tmp/ccCjdw1k.s 			page 76


 4419 004a 8D42     		cmp	r5, r1
 4420 004c 0ED0     		beq	.L621
 4421              	.L616:
 4422 004e 0120     		movs	r0, #1
 4423 0050 21E0     		b	.L613
 4424              	.L618:
 4425 0052 8021     		movs	r1, #128
 4426 0054 4901     		lsls	r1, r1, #5
 4427 0056 8D42     		cmp	r5, r1
 4428 0058 27D0     		beq	.L622
 4429 005a 8021     		movs	r1, #128
 4430 005c C901     		lsls	r1, r1, #7
 4431 005e 8D42     		cmp	r5, r1
 4432 0060 F5D1     		bne	.L616
 4433 0062 1349     		ldr	r1, .L634
 4434 0064 606B     		ldr	r0, [r4, #52]
 4435 0066 C162     		str	r1, [r0, #44]
 4436 0068 1249     		ldr	r1, .L634+4
 4437 006a 03E0     		b	.L632
 4438              	.L621:
 4439 006c 1249     		ldr	r1, .L634+8
 4440 006e E069     		ldr	r0, [r4, #28]
 4441 0070 C162     		str	r1, [r0, #44]
 4442 0072 1249     		ldr	r1, .L634+12
 4443              	.L632:
 4444 0074 0163     		str	r1, [r0, #48]
 4445 0076 1249     		ldr	r1, .L634+16
 4446 0078 4163     		str	r1, [r0, #52]
 4447 007a 2168     		ldr	r1, [r4]
 4448 007c 4C31     		adds	r1, r1, #76
 4449 007e FFF7FEFF 		bl	HAL_DMA_Start_IT
 4450 0082 0028     		cmp	r0, #0
 4451 0084 E3D1     		bne	.L616
 4452 0086 0020     		movs	r0, #0
 4453 0088 069E     		ldr	r6, [sp, #24]
 4454 008a 2368     		ldr	r3, [r4]
 4455 008c 3E43     		orrs	r6, r7
 4456 008e 9E64     		str	r6, [r3, #72]
 4457 0090 DA68     		ldr	r2, [r3, #12]
 4458 0092 2A43     		orrs	r2, r5
 4459 0094 DA60     		str	r2, [r3, #12]
 4460              	.L613:
 4461              		@ sp needed
 4462 0096 F8BD     		pop	{r3, r4, r5, r6, r7, pc}
 4463              	.L619:
 4464 0098 206A     		ldr	r0, [r4, #32]
 4465              	.L633:
 4466 009a 0A49     		ldr	r1, .L634+20
 4467 009c C162     		str	r1, [r0, #44]
 4468 009e 0A49     		ldr	r1, .L634+24
 4469 00a0 E8E7     		b	.L632
 4470              	.L620:
 4471 00a2 606A     		ldr	r0, [r4, #36]
 4472 00a4 F9E7     		b	.L633
 4473              	.L617:
 4474 00a6 A06A     		ldr	r0, [r4, #40]
 4475 00a8 F7E7     		b	.L633
ARM GAS  /tmp/ccCjdw1k.s 			page 77


 4476              	.L622:
 4477 00aa E06A     		ldr	r0, [r4, #44]
 4478 00ac F5E7     		b	.L633
 4479              	.L635:
 4480 00ae C046     		.align	2
 4481              	.L634:
 4482 00b0 00000000 		.word	TIM_DMATriggerCplt
 4483 00b4 00000000 		.word	TIM_DMATriggerHalfCplt
 4484 00b8 00000000 		.word	TIM_DMAPeriodElapsedCplt
 4485 00bc 00000000 		.word	TIM_DMAPeriodElapsedHalfCplt
 4486 00c0 00000000 		.word	TIM_DMAError
 4487 00c4 00000000 		.word	TIM_DMACaptureCplt
 4488 00c8 00000000 		.word	TIM_DMACaptureHalfCplt
 4490              		.section	.text.HAL_TIM_DMABurst_ReadStart,"ax",%progbits
 4491              		.align	1
 4492              		.global	HAL_TIM_DMABurst_ReadStart
 4493              		.syntax unified
 4494              		.code	16
 4495              		.thumb_func
 4497              	HAL_TIM_DMABurst_ReadStart:
 4498              		@ args = 4, pretend = 0, frame = 0
 4499              		@ frame_needed = 0, uses_anonymous_args = 0
 4500 0000 37B5     		push	{r0, r1, r2, r4, r5, lr}
 4501 0002 069D     		ldr	r5, [sp, #24]
 4502              		@ sp needed
 4503 0004 2C0A     		lsrs	r4, r5, #8
 4504 0006 0134     		adds	r4, r4, #1
 4505 0008 0095     		str	r5, [sp]
 4506 000a 0194     		str	r4, [sp, #4]
 4507 000c FFF7FEFF 		bl	HAL_TIM_DMABurst_MultiReadStart
 4508 0010 3EBD     		pop	{r1, r2, r3, r4, r5, pc}
 4510              		.section	.text.HAL_TIM_DMABurst_ReadStop,"ax",%progbits
 4511              		.align	1
 4512              		.global	HAL_TIM_DMABurst_ReadStop
 4513              		.syntax unified
 4514              		.code	16
 4515              		.thumb_func
 4517              	HAL_TIM_DMABurst_ReadStop:
 4518              		@ args = 0, pretend = 0, frame = 0
 4519              		@ frame_needed = 0, uses_anonymous_args = 0
 4520 0000 10B5     		push	{r4, lr}
 4521 0002 FFF7FEFF 		bl	HAL_TIM_DMABurst_WriteStop
 4522              		@ sp needed
 4523 0006 10BD     		pop	{r4, pc}
 4525              		.section	.text.HAL_TIM_GenerateEvent,"ax",%progbits
 4526              		.align	1
 4527              		.global	HAL_TIM_GenerateEvent
 4528              		.syntax unified
 4529              		.code	16
 4530              		.thumb_func
 4532              	HAL_TIM_GenerateEvent:
 4533              		@ args = 0, pretend = 0, frame = 0
 4534              		@ frame_needed = 0, uses_anonymous_args = 0
 4535 0000 0200     		movs	r2, r0
 4536 0002 30B5     		push	{r4, r5, lr}
 4537 0004 0224     		movs	r4, #2
 4538 0006 3832     		adds	r2, r2, #56
ARM GAS  /tmp/ccCjdw1k.s 			page 78


 4539 0008 1578     		ldrb	r5, [r2]
 4540 000a 0300     		movs	r3, r0
 4541 000c 2000     		movs	r0, r4
 4542 000e 012D     		cmp	r5, #1
 4543 0010 08D0     		beq	.L639
 4544 0012 1800     		movs	r0, r3
 4545 0014 3930     		adds	r0, r0, #57
 4546 0016 0470     		strb	r4, [r0]
 4547 0018 1B68     		ldr	r3, [r3]
 4548 001a 5961     		str	r1, [r3, #20]
 4549 001c 0123     		movs	r3, #1
 4550 001e 0370     		strb	r3, [r0]
 4551 0020 0020     		movs	r0, #0
 4552 0022 1070     		strb	r0, [r2]
 4553              	.L639:
 4554              		@ sp needed
 4555 0024 30BD     		pop	{r4, r5, pc}
 4557              		.section	.text.HAL_TIM_ConfigOCrefClear,"ax",%progbits
 4558              		.align	1
 4559              		.global	HAL_TIM_ConfigOCrefClear
 4560              		.syntax unified
 4561              		.code	16
 4562              		.thumb_func
 4564              	HAL_TIM_ConfigOCrefClear:
 4565              		@ args = 0, pretend = 0, frame = 8
 4566              		@ frame_needed = 0, uses_anonymous_args = 0
 4567 0000 F7B5     		push	{r0, r1, r2, r4, r5, r6, r7, lr}
 4568 0002 0400     		movs	r4, r0
 4569 0004 0227     		movs	r7, #2
 4570 0006 3834     		adds	r4, r4, #56
 4571 0008 2578     		ldrb	r5, [r4]
 4572 000a 0300     		movs	r3, r0
 4573 000c 3800     		movs	r0, r7
 4574 000e 012D     		cmp	r5, #1
 4575 0010 21D0     		beq	.L642
 4576 0012 1D00     		movs	r5, r3
 4577 0014 0126     		movs	r6, #1
 4578 0016 3935     		adds	r5, r5, #57
 4579 0018 2670     		strb	r6, [r4]
 4580 001a 2F70     		strb	r7, [r5]
 4581 001c 4868     		ldr	r0, [r1, #4]
 4582 001e 0028     		cmp	r0, #0
 4583 0020 05D0     		beq	.L643
 4584 0022 B042     		cmp	r0, r6
 4585 0024 11D0     		beq	.L644
 4586 0026 3000     		movs	r0, r6
 4587              	.L645:
 4588 0028 0123     		movs	r3, #1
 4589 002a 2B70     		strb	r3, [r5]
 4590 002c 11E0     		b	.L662
 4591              	.L643:
 4592 002e 1E68     		ldr	r6, [r3]
 4593 0030 2C4F     		ldr	r7, .L663
 4594 0032 B068     		ldr	r0, [r6, #8]
 4595 0034 3840     		ands	r0, r7
 4596              	.L659:
 4597 0036 B060     		str	r0, [r6, #8]
ARM GAS  /tmp/ccCjdw1k.s 			page 79


 4598 0038 082A     		cmp	r2, #8
 4599 003a 42D0     		beq	.L648
 4600 003c 1AD8     		bhi	.L649
 4601 003e 002A     		cmp	r2, #0
 4602 0040 24D0     		beq	.L650
 4603 0042 042A     		cmp	r2, #4
 4604 0044 2FD0     		beq	.L651
 4605              	.L652:
 4606 0046 0020     		movs	r0, #0
 4607 0048 EEE7     		b	.L645
 4608              	.L644:
 4609 004a CE68     		ldr	r6, [r1, #12]
 4610 004c 002E     		cmp	r6, #0
 4611 004e 03D0     		beq	.L647
 4612 0050 2870     		strb	r0, [r5]
 4613              	.L662:
 4614 0052 0023     		movs	r3, #0
 4615 0054 2370     		strb	r3, [r4]
 4616              	.L642:
 4617              		@ sp needed
 4618 0056 FEBD     		pop	{r1, r2, r3, r4, r5, r6, r7, pc}
 4619              	.L647:
 4620 0058 1E68     		ldr	r6, [r3]
 4621 005a 2248     		ldr	r0, .L663
 4622 005c B768     		ldr	r7, [r6, #8]
 4623 005e 0740     		ands	r7, r0
 4624 0060 0869     		ldr	r0, [r1, #16]
 4625 0062 0197     		str	r7, [sp, #4]
 4626 0064 0002     		lsls	r0, r0, #8
 4627 0066 0700     		movs	r7, r0
 4628 0068 8868     		ldr	r0, [r1, #8]
 4629 006a 0743     		orrs	r7, r0
 4630 006c 3800     		movs	r0, r7
 4631 006e 019F     		ldr	r7, [sp, #4]
 4632 0070 3843     		orrs	r0, r7
 4633 0072 E0E7     		b	.L659
 4634              	.L649:
 4635 0074 0C2A     		cmp	r2, #12
 4636 0076 E6D1     		bne	.L652
 4637 0078 0A68     		ldr	r2, [r1]
 4638 007a 1B68     		ldr	r3, [r3]
 4639 007c 002A     		cmp	r2, #0
 4640 007e 2DD0     		beq	.L657
 4641 0080 8022     		movs	r2, #128
 4642 0082 D969     		ldr	r1, [r3, #28]
 4643 0084 1202     		lsls	r2, r2, #8
 4644 0086 0A43     		orrs	r2, r1
 4645              	.L661:
 4646 0088 DA61     		str	r2, [r3, #28]
 4647 008a DCE7     		b	.L652
 4648              	.L650:
 4649 008c 0968     		ldr	r1, [r1]
 4650 008e 1A68     		ldr	r2, [r3]
 4651 0090 8023     		movs	r3, #128
 4652 0092 0029     		cmp	r1, #0
 4653 0094 03D0     		beq	.L654
 4654 0096 9169     		ldr	r1, [r2, #24]
ARM GAS  /tmp/ccCjdw1k.s 			page 80


 4655 0098 0B43     		orrs	r3, r1
 4656 009a 9361     		str	r3, [r2, #24]
 4657 009c D3E7     		b	.L652
 4658              	.L654:
 4659 009e 9169     		ldr	r1, [r2, #24]
 4660 00a0 9943     		bics	r1, r3
 4661 00a2 9161     		str	r1, [r2, #24]
 4662 00a4 CFE7     		b	.L652
 4663              	.L651:
 4664 00a6 0A68     		ldr	r2, [r1]
 4665 00a8 1B68     		ldr	r3, [r3]
 4666 00aa 002A     		cmp	r2, #0
 4667 00ac 05D0     		beq	.L655
 4668 00ae 8022     		movs	r2, #128
 4669 00b0 9969     		ldr	r1, [r3, #24]
 4670 00b2 1202     		lsls	r2, r2, #8
 4671 00b4 0A43     		orrs	r2, r1
 4672              	.L660:
 4673 00b6 9A61     		str	r2, [r3, #24]
 4674 00b8 C5E7     		b	.L652
 4675              	.L655:
 4676 00ba 9A69     		ldr	r2, [r3, #24]
 4677 00bc 0A49     		ldr	r1, .L663+4
 4678 00be 0A40     		ands	r2, r1
 4679 00c0 F9E7     		b	.L660
 4680              	.L648:
 4681 00c2 0968     		ldr	r1, [r1]
 4682 00c4 1A68     		ldr	r2, [r3]
 4683 00c6 8023     		movs	r3, #128
 4684 00c8 0029     		cmp	r1, #0
 4685 00ca 03D0     		beq	.L656
 4686 00cc D169     		ldr	r1, [r2, #28]
 4687 00ce 0B43     		orrs	r3, r1
 4688 00d0 D361     		str	r3, [r2, #28]
 4689 00d2 B8E7     		b	.L652
 4690              	.L656:
 4691 00d4 D169     		ldr	r1, [r2, #28]
 4692 00d6 9943     		bics	r1, r3
 4693 00d8 D161     		str	r1, [r2, #28]
 4694 00da B4E7     		b	.L652
 4695              	.L657:
 4696 00dc DA69     		ldr	r2, [r3, #28]
 4697 00de 0249     		ldr	r1, .L663+4
 4698 00e0 0A40     		ands	r2, r1
 4699 00e2 D1E7     		b	.L661
 4700              	.L664:
 4701              		.align	2
 4702              	.L663:
 4703 00e4 FF00FFFF 		.word	-65281
 4704 00e8 FF7FFFFF 		.word	-32769
 4706              		.section	.text.HAL_TIM_ConfigClockSource,"ax",%progbits
 4707              		.align	1
 4708              		.global	HAL_TIM_ConfigClockSource
 4709              		.syntax unified
 4710              		.code	16
 4711              		.thumb_func
 4713              	HAL_TIM_ConfigClockSource:
ARM GAS  /tmp/ccCjdw1k.s 			page 81


 4714              		@ args = 0, pretend = 0, frame = 0
 4715              		@ frame_needed = 0, uses_anonymous_args = 0
 4716 0000 F0B5     		push	{r4, r5, r6, r7, lr}
 4717 0002 0400     		movs	r4, r0
 4718 0004 0222     		movs	r2, #2
 4719 0006 3834     		adds	r4, r4, #56
 4720 0008 2578     		ldrb	r5, [r4]
 4721 000a 0300     		movs	r3, r0
 4722 000c 1000     		movs	r0, r2
 4723 000e 012D     		cmp	r5, #1
 4724 0010 1CD0     		beq	.L666
 4725 0012 1D00     		movs	r5, r3
 4726 0014 0138     		subs	r0, r0, #1
 4727 0016 3935     		adds	r5, r5, #57
 4728 0018 2070     		strb	r0, [r4]
 4729 001a 2A70     		strb	r2, [r5]
 4730 001c 1B68     		ldr	r3, [r3]
 4731 001e 464E     		ldr	r6, .L689
 4732 0020 9A68     		ldr	r2, [r3, #8]
 4733 0022 3240     		ands	r2, r6
 4734 0024 9A60     		str	r2, [r3, #8]
 4735 0026 0A68     		ldr	r2, [r1]
 4736 0028 602A     		cmp	r2, #96
 4737 002a 59D0     		beq	.L667
 4738 002c 2ED8     		bhi	.L668
 4739 002e 402A     		cmp	r2, #64
 4740 0030 00D1     		bne	.LCB5155
 4741 0032 6CE0     		b	.L669	@long jump
 4742              	.LCB5155:
 4743 0034 13D8     		bhi	.L670
 4744 0036 202A     		cmp	r2, #32
 4745 0038 0BD0     		beq	.L671
 4746 003a 08D8     		bhi	.L672
 4747 003c 1021     		movs	r1, #16
 4748 003e 1600     		movs	r6, r2
 4749 0040 8E43     		bics	r6, r1
 4750 0042 06D0     		beq	.L671
 4751              	.L673:
 4752 0044 0123     		movs	r3, #1
 4753 0046 2B70     		strb	r3, [r5]
 4754 0048 0023     		movs	r3, #0
 4755 004a 2370     		strb	r3, [r4]
 4756              	.L666:
 4757              		@ sp needed
 4758 004c F0BD     		pop	{r4, r5, r6, r7, pc}
 4759              	.L672:
 4760 004e 302A     		cmp	r2, #48
 4761 0050 F8D1     		bne	.L673
 4762              	.L671:
 4763 0052 7020     		movs	r0, #112
 4764 0054 9968     		ldr	r1, [r3, #8]
 4765 0056 8143     		bics	r1, r0
 4766 0058 0A43     		orrs	r2, r1
 4767 005a 0721     		movs	r1, #7
 4768 005c 2DE0     		b	.L688
 4769              	.L670:
 4770 005e 502A     		cmp	r2, #80
ARM GAS  /tmp/ccCjdw1k.s 			page 82


 4771 0060 F0D1     		bne	.L673
 4772 0062 4E68     		ldr	r6, [r1, #4]
 4773 0064 CA68     		ldr	r2, [r1, #12]
 4774 0066 196A     		ldr	r1, [r3, #32]
 4775 0068 1F6A     		ldr	r7, [r3, #32]
 4776 006a 1201     		lsls	r2, r2, #4
 4777 006c 8743     		bics	r7, r0
 4778 006e 1F62     		str	r7, [r3, #32]
 4779 0070 F027     		movs	r7, #240
 4780 0072 9869     		ldr	r0, [r3, #24]
 4781 0074 B843     		bics	r0, r7
 4782 0076 0243     		orrs	r2, r0
 4783 0078 0A20     		movs	r0, #10
 4784 007a 9A61     		str	r2, [r3, #24]
 4785 007c 7022     		movs	r2, #112
 4786 007e 8143     		bics	r1, r0
 4787 0080 3143     		orrs	r1, r6
 4788 0082 1962     		str	r1, [r3, #32]
 4789 0084 9968     		ldr	r1, [r3, #8]
 4790 0086 9143     		bics	r1, r2
 4791 0088 193A     		subs	r2, r2, #25
 4792 008a 16E0     		b	.L688
 4793              	.L668:
 4794 008c 8026     		movs	r6, #128
 4795 008e 7601     		lsls	r6, r6, #5
 4796 0090 B242     		cmp	r2, r6
 4797 0092 14D0     		beq	.L675
 4798 0094 8026     		movs	r6, #128
 4799 0096 B601     		lsls	r6, r6, #6
 4800 0098 B242     		cmp	r2, r6
 4801 009a 12D0     		beq	.L676
 4802 009c 702A     		cmp	r2, #112
 4803 009e D1D1     		bne	.L673
 4804 00a0 9868     		ldr	r0, [r3, #8]
 4805 00a2 264A     		ldr	r2, .L689+4
 4806 00a4 4E68     		ldr	r6, [r1, #4]
 4807 00a6 1040     		ands	r0, r2
 4808 00a8 8A68     		ldr	r2, [r1, #8]
 4809 00aa C968     		ldr	r1, [r1, #12]
 4810 00ac 3243     		orrs	r2, r6
 4811 00ae 0902     		lsls	r1, r1, #8
 4812 00b0 0A43     		orrs	r2, r1
 4813 00b2 0243     		orrs	r2, r0
 4814 00b4 9A60     		str	r2, [r3, #8]
 4815 00b6 7722     		movs	r2, #119
 4816 00b8 9968     		ldr	r1, [r3, #8]
 4817              	.L688:
 4818 00ba 0A43     		orrs	r2, r1
 4819 00bc 9A60     		str	r2, [r3, #8]
 4820              	.L675:
 4821 00be 0020     		movs	r0, #0
 4822 00c0 C0E7     		b	.L673
 4823              	.L676:
 4824 00c2 9868     		ldr	r0, [r3, #8]
 4825 00c4 1D4A     		ldr	r2, .L689+4
 4826 00c6 4E68     		ldr	r6, [r1, #4]
 4827 00c8 1040     		ands	r0, r2
ARM GAS  /tmp/ccCjdw1k.s 			page 83


 4828 00ca 8A68     		ldr	r2, [r1, #8]
 4829 00cc C968     		ldr	r1, [r1, #12]
 4830 00ce 3243     		orrs	r2, r6
 4831 00d0 0902     		lsls	r1, r1, #8
 4832 00d2 0A43     		orrs	r2, r1
 4833 00d4 0243     		orrs	r2, r0
 4834 00d6 9A60     		str	r2, [r3, #8]
 4835 00d8 8022     		movs	r2, #128
 4836 00da 9968     		ldr	r1, [r3, #8]
 4837 00dc D201     		lsls	r2, r2, #7
 4838 00de ECE7     		b	.L688
 4839              	.L667:
 4840 00e0 1026     		movs	r6, #16
 4841 00e2 186A     		ldr	r0, [r3, #32]
 4842 00e4 4A68     		ldr	r2, [r1, #4]
 4843 00e6 B043     		bics	r0, r6
 4844 00e8 C968     		ldr	r1, [r1, #12]
 4845 00ea 1862     		str	r0, [r3, #32]
 4846 00ec 9E69     		ldr	r6, [r3, #24]
 4847 00ee 144F     		ldr	r7, .L689+8
 4848 00f0 0903     		lsls	r1, r1, #12
 4849 00f2 3E40     		ands	r6, r7
 4850 00f4 3143     		orrs	r1, r6
 4851 00f6 A026     		movs	r6, #160
 4852 00f8 186A     		ldr	r0, [r3, #32]
 4853 00fa 1201     		lsls	r2, r2, #4
 4854 00fc B043     		bics	r0, r6
 4855 00fe 0243     		orrs	r2, r0
 4856 0100 9961     		str	r1, [r3, #24]
 4857 0102 1A62     		str	r2, [r3, #32]
 4858 0104 7022     		movs	r2, #112
 4859 0106 9968     		ldr	r1, [r3, #8]
 4860 0108 9143     		bics	r1, r2
 4861 010a 093A     		subs	r2, r2, #9
 4862 010c D5E7     		b	.L688
 4863              	.L669:
 4864 010e 4E68     		ldr	r6, [r1, #4]
 4865 0110 CA68     		ldr	r2, [r1, #12]
 4866 0112 196A     		ldr	r1, [r3, #32]
 4867 0114 1F6A     		ldr	r7, [r3, #32]
 4868 0116 1201     		lsls	r2, r2, #4
 4869 0118 8743     		bics	r7, r0
 4870 011a 1F62     		str	r7, [r3, #32]
 4871 011c F027     		movs	r7, #240
 4872 011e 9869     		ldr	r0, [r3, #24]
 4873 0120 B843     		bics	r0, r7
 4874 0122 0243     		orrs	r2, r0
 4875 0124 0A20     		movs	r0, #10
 4876 0126 9A61     		str	r2, [r3, #24]
 4877 0128 7022     		movs	r2, #112
 4878 012a 8143     		bics	r1, r0
 4879 012c 3143     		orrs	r1, r6
 4880 012e 1962     		str	r1, [r3, #32]
 4881 0130 9968     		ldr	r1, [r3, #8]
 4882 0132 9143     		bics	r1, r2
 4883 0134 293A     		subs	r2, r2, #41
 4884 0136 C0E7     		b	.L688
ARM GAS  /tmp/ccCjdw1k.s 			page 84


 4885              	.L690:
 4886              		.align	2
 4887              	.L689:
 4888 0138 8800FFFF 		.word	-65400
 4889 013c FF00FFFF 		.word	-65281
 4890 0140 FF0FFFFF 		.word	-61441
 4892              		.section	.text.HAL_TIM_ConfigTI1Input,"ax",%progbits
 4893              		.align	1
 4894              		.global	HAL_TIM_ConfigTI1Input
 4895              		.syntax unified
 4896              		.code	16
 4897              		.thumb_func
 4899              	HAL_TIM_ConfigTI1Input:
 4900              		@ args = 0, pretend = 0, frame = 0
 4901              		@ frame_needed = 0, uses_anonymous_args = 0
 4902              		@ link register save eliminated.
 4903 0000 0268     		ldr	r2, [r0]
 4904 0002 8020     		movs	r0, #128
 4905              		@ sp needed
 4906 0004 5368     		ldr	r3, [r2, #4]
 4907 0006 8343     		bics	r3, r0
 4908 0008 0B43     		orrs	r3, r1
 4909 000a 0020     		movs	r0, #0
 4910 000c 5360     		str	r3, [r2, #4]
 4911 000e 7047     		bx	lr
 4913              		.section	.text.HAL_TIM_SlaveConfigSynchro,"ax",%progbits
 4914              		.align	1
 4915              		.global	HAL_TIM_SlaveConfigSynchro
 4916              		.syntax unified
 4917              		.code	16
 4918              		.thumb_func
 4920              	HAL_TIM_SlaveConfigSynchro:
 4921              		@ args = 0, pretend = 0, frame = 0
 4922              		@ frame_needed = 0, uses_anonymous_args = 0
 4923 0000 F8B5     		push	{r3, r4, r5, r6, r7, lr}
 4924 0002 0500     		movs	r5, r0
 4925 0004 0223     		movs	r3, #2
 4926 0006 3835     		adds	r5, r5, #56
 4927 0008 2A78     		ldrb	r2, [r5]
 4928 000a 0400     		movs	r4, r0
 4929 000c 1800     		movs	r0, r3
 4930 000e 012A     		cmp	r2, #1
 4931 0010 0DD0     		beq	.L693
 4932 0012 2700     		movs	r7, r4
 4933 0014 0126     		movs	r6, #1
 4934 0016 3937     		adds	r7, r7, #57
 4935 0018 2E70     		strb	r6, [r5]
 4936 001a 2000     		movs	r0, r4
 4937 001c 3B70     		strb	r3, [r7]
 4938 001e FFF7FEFF 		bl	TIM_SlaveTimer_SetConfig.constprop.0
 4939 0022 0028     		cmp	r0, #0
 4940 0024 04D0     		beq	.L694
 4941 0026 0023     		movs	r3, #0
 4942 0028 3000     		movs	r0, r6
 4943 002a 3E70     		strb	r6, [r7]
 4944 002c 2B70     		strb	r3, [r5]
 4945              	.L693:
ARM GAS  /tmp/ccCjdw1k.s 			page 85


 4946              		@ sp needed
 4947 002e F8BD     		pop	{r3, r4, r5, r6, r7, pc}
 4948              	.L694:
 4949 0030 4021     		movs	r1, #64
 4950 0032 2368     		ldr	r3, [r4]
 4951 0034 DA68     		ldr	r2, [r3, #12]
 4952 0036 8A43     		bics	r2, r1
 4953 0038 DA60     		str	r2, [r3, #12]
 4954 003a DA68     		ldr	r2, [r3, #12]
 4955 003c 0249     		ldr	r1, .L696
 4956 003e 0A40     		ands	r2, r1
 4957 0040 DA60     		str	r2, [r3, #12]
 4958 0042 3E70     		strb	r6, [r7]
 4959 0044 2870     		strb	r0, [r5]
 4960 0046 F2E7     		b	.L693
 4961              	.L697:
 4962              		.align	2
 4963              	.L696:
 4964 0048 FFBFFFFF 		.word	-16385
 4966              		.section	.text.HAL_TIM_SlaveConfigSynchro_IT,"ax",%progbits
 4967              		.align	1
 4968              		.global	HAL_TIM_SlaveConfigSynchro_IT
 4969              		.syntax unified
 4970              		.code	16
 4971              		.thumb_func
 4973              	HAL_TIM_SlaveConfigSynchro_IT:
 4974              		@ args = 0, pretend = 0, frame = 0
 4975              		@ frame_needed = 0, uses_anonymous_args = 0
 4976 0000 F8B5     		push	{r3, r4, r5, r6, r7, lr}
 4977 0002 0500     		movs	r5, r0
 4978 0004 0223     		movs	r3, #2
 4979 0006 3835     		adds	r5, r5, #56
 4980 0008 2A78     		ldrb	r2, [r5]
 4981 000a 0400     		movs	r4, r0
 4982 000c 1800     		movs	r0, r3
 4983 000e 012A     		cmp	r2, #1
 4984 0010 0DD0     		beq	.L699
 4985 0012 2700     		movs	r7, r4
 4986 0014 0126     		movs	r6, #1
 4987 0016 3937     		adds	r7, r7, #57
 4988 0018 2E70     		strb	r6, [r5]
 4989 001a 2000     		movs	r0, r4
 4990 001c 3B70     		strb	r3, [r7]
 4991 001e FFF7FEFF 		bl	TIM_SlaveTimer_SetConfig.constprop.0
 4992 0022 0028     		cmp	r0, #0
 4993 0024 04D0     		beq	.L700
 4994 0026 0023     		movs	r3, #0
 4995 0028 3000     		movs	r0, r6
 4996 002a 3E70     		strb	r6, [r7]
 4997 002c 2B70     		strb	r3, [r5]
 4998              	.L699:
 4999              		@ sp needed
 5000 002e F8BD     		pop	{r3, r4, r5, r6, r7, pc}
 5001              	.L700:
 5002 0030 4022     		movs	r2, #64
 5003 0032 2368     		ldr	r3, [r4]
 5004 0034 D968     		ldr	r1, [r3, #12]
ARM GAS  /tmp/ccCjdw1k.s 			page 86


 5005 0036 0A43     		orrs	r2, r1
 5006 0038 DA60     		str	r2, [r3, #12]
 5007 003a DA68     		ldr	r2, [r3, #12]
 5008 003c 0249     		ldr	r1, .L702
 5009 003e 0A40     		ands	r2, r1
 5010 0040 DA60     		str	r2, [r3, #12]
 5011 0042 3E70     		strb	r6, [r7]
 5012 0044 2870     		strb	r0, [r5]
 5013 0046 F2E7     		b	.L699
 5014              	.L703:
 5015              		.align	2
 5016              	.L702:
 5017 0048 FFBFFFFF 		.word	-16385
 5019              		.section	.text.HAL_TIM_ReadCapturedValue,"ax",%progbits
 5020              		.align	1
 5021              		.global	HAL_TIM_ReadCapturedValue
 5022              		.syntax unified
 5023              		.code	16
 5024              		.thumb_func
 5026              	HAL_TIM_ReadCapturedValue:
 5027              		@ args = 0, pretend = 0, frame = 0
 5028              		@ frame_needed = 0, uses_anonymous_args = 0
 5029              		@ link register save eliminated.
 5030 0000 0829     		cmp	r1, #8
 5031 0002 11D0     		beq	.L705
 5032 0004 05D8     		bhi	.L706
 5033 0006 0029     		cmp	r1, #0
 5034 0008 08D0     		beq	.L707
 5035 000a 0429     		cmp	r1, #4
 5036 000c 09D0     		beq	.L708
 5037              	.L711:
 5038 000e 0020     		movs	r0, #0
 5039              	.L704:
 5040              		@ sp needed
 5041 0010 7047     		bx	lr
 5042              	.L706:
 5043 0012 0C29     		cmp	r1, #12
 5044 0014 FBD1     		bne	.L711
 5045 0016 0368     		ldr	r3, [r0]
 5046 0018 186C     		ldr	r0, [r3, #64]
 5047 001a F9E7     		b	.L704
 5048              	.L707:
 5049 001c 0368     		ldr	r3, [r0]
 5050 001e 586B     		ldr	r0, [r3, #52]
 5051 0020 F6E7     		b	.L704
 5052              	.L708:
 5053 0022 0368     		ldr	r3, [r0]
 5054 0024 986B     		ldr	r0, [r3, #56]
 5055 0026 F3E7     		b	.L704
 5056              	.L705:
 5057 0028 0368     		ldr	r3, [r0]
 5058 002a D86B     		ldr	r0, [r3, #60]
 5059 002c F0E7     		b	.L704
 5061              		.section	.text.HAL_TIM_PeriodElapsedCallback,"ax",%progbits
 5062              		.align	1
 5063              		.weak	HAL_TIM_PeriodElapsedCallback
 5064              		.syntax unified
ARM GAS  /tmp/ccCjdw1k.s 			page 87


 5065              		.code	16
 5066              		.thumb_func
 5068              	HAL_TIM_PeriodElapsedCallback:
 5069              		@ args = 0, pretend = 0, frame = 0
 5070              		@ frame_needed = 0, uses_anonymous_args = 0
 5071              		@ link register save eliminated.
 5072              		@ sp needed
 5073 0000 7047     		bx	lr
 5075              		.section	.text.TIM_DMAPeriodElapsedCplt,"ax",%progbits
 5076              		.align	1
 5077              		.syntax unified
 5078              		.code	16
 5079              		.thumb_func
 5081              	TIM_DMAPeriodElapsedCplt:
 5082              		@ args = 0, pretend = 0, frame = 0
 5083              		@ frame_needed = 0, uses_anonymous_args = 0
 5084 0000 806A     		ldr	r0, [r0, #40]
 5085 0002 10B5     		push	{r4, lr}
 5086 0004 C369     		ldr	r3, [r0, #28]
 5087 0006 DB69     		ldr	r3, [r3, #28]
 5088 0008 002B     		cmp	r3, #0
 5089 000a 03D1     		bne	.L714
 5090 000c 0300     		movs	r3, r0
 5091 000e 0122     		movs	r2, #1
 5092 0010 3933     		adds	r3, r3, #57
 5093 0012 1A70     		strb	r2, [r3]
 5094              	.L714:
 5095 0014 FFF7FEFF 		bl	HAL_TIM_PeriodElapsedCallback
 5096              		@ sp needed
 5097 0018 10BD     		pop	{r4, pc}
 5099              		.section	.text.HAL_TIM_PeriodElapsedHalfCpltCallback,"ax",%progbits
 5100              		.align	1
 5101              		.weak	HAL_TIM_PeriodElapsedHalfCpltCallback
 5102              		.syntax unified
 5103              		.code	16
 5104              		.thumb_func
 5106              	HAL_TIM_PeriodElapsedHalfCpltCallback:
 5107              		@ args = 0, pretend = 0, frame = 0
 5108              		@ frame_needed = 0, uses_anonymous_args = 0
 5109              		@ link register save eliminated.
 5110              		@ sp needed
 5111 0000 7047     		bx	lr
 5113              		.section	.text.TIM_DMAPeriodElapsedHalfCplt,"ax",%progbits
 5114              		.align	1
 5115              		.syntax unified
 5116              		.code	16
 5117              		.thumb_func
 5119              	TIM_DMAPeriodElapsedHalfCplt:
 5120              		@ args = 0, pretend = 0, frame = 0
 5121              		@ frame_needed = 0, uses_anonymous_args = 0
 5122 0000 10B5     		push	{r4, lr}
 5123 0002 806A     		ldr	r0, [r0, #40]
 5124 0004 FFF7FEFF 		bl	HAL_TIM_PeriodElapsedHalfCpltCallback
 5125              		@ sp needed
 5126 0008 10BD     		pop	{r4, pc}
 5128              		.section	.text.HAL_TIM_OC_DelayElapsedCallback,"ax",%progbits
 5129              		.align	1
ARM GAS  /tmp/ccCjdw1k.s 			page 88


 5130              		.weak	HAL_TIM_OC_DelayElapsedCallback
 5131              		.syntax unified
 5132              		.code	16
 5133              		.thumb_func
 5135              	HAL_TIM_OC_DelayElapsedCallback:
 5136              		@ args = 0, pretend = 0, frame = 0
 5137              		@ frame_needed = 0, uses_anonymous_args = 0
 5138              		@ link register save eliminated.
 5139              		@ sp needed
 5140 0000 7047     		bx	lr
 5142              		.section	.text.HAL_TIM_IC_CaptureCallback,"ax",%progbits
 5143              		.align	1
 5144              		.weak	HAL_TIM_IC_CaptureCallback
 5145              		.syntax unified
 5146              		.code	16
 5147              		.thumb_func
 5149              	HAL_TIM_IC_CaptureCallback:
 5150              		@ args = 0, pretend = 0, frame = 0
 5151              		@ frame_needed = 0, uses_anonymous_args = 0
 5152              		@ link register save eliminated.
 5153              		@ sp needed
 5154 0000 7047     		bx	lr
 5156              		.section	.text.TIM_DMACaptureCplt,"ax",%progbits
 5157              		.align	1
 5158              		.global	TIM_DMACaptureCplt
 5159              		.syntax unified
 5160              		.code	16
 5161              		.thumb_func
 5163              	TIM_DMACaptureCplt:
 5164              		@ args = 0, pretend = 0, frame = 0
 5165              		@ frame_needed = 0, uses_anonymous_args = 0
 5166 0000 10B5     		push	{r4, lr}
 5167 0002 846A     		ldr	r4, [r0, #40]
 5168 0004 226A     		ldr	r2, [r4, #32]
 5169 0006 8242     		cmp	r2, r0
 5170 0008 0DD1     		bne	.L720
 5171 000a 0123     		movs	r3, #1
 5172 000c 2376     		strb	r3, [r4, #24]
 5173 000e D269     		ldr	r2, [r2, #28]
 5174 0010 002A     		cmp	r2, #0
 5175 0012 02D1     		bne	.L722
 5176 0014 2200     		movs	r2, r4
 5177 0016 3A32     		adds	r2, r2, #58
 5178 0018 1370     		strb	r3, [r2]
 5179              	.L722:
 5180 001a 2000     		movs	r0, r4
 5181              		@ sp needed
 5182 001c FFF7FEFF 		bl	HAL_TIM_IC_CaptureCallback
 5183 0020 0023     		movs	r3, #0
 5184 0022 2376     		strb	r3, [r4, #24]
 5185 0024 10BD     		pop	{r4, pc}
 5186              	.L720:
 5187 0026 636A     		ldr	r3, [r4, #36]
 5188 0028 8342     		cmp	r3, r0
 5189 002a 09D1     		bne	.L723
 5190 002c 0222     		movs	r2, #2
 5191 002e 2276     		strb	r2, [r4, #24]
ARM GAS  /tmp/ccCjdw1k.s 			page 89


 5192 0030 DB69     		ldr	r3, [r3, #28]
 5193 0032 002B     		cmp	r3, #0
 5194 0034 F1D1     		bne	.L722
 5195 0036 2300     		movs	r3, r4
 5196 0038 013A     		subs	r2, r2, #1
 5197 003a 3B33     		adds	r3, r3, #59
 5198              	.L726:
 5199 003c 1A70     		strb	r2, [r3]
 5200 003e ECE7     		b	.L722
 5201              	.L723:
 5202 0040 A36A     		ldr	r3, [r4, #40]
 5203 0042 8342     		cmp	r3, r0
 5204 0044 08D1     		bne	.L725
 5205 0046 0422     		movs	r2, #4
 5206 0048 2276     		strb	r2, [r4, #24]
 5207 004a DB69     		ldr	r3, [r3, #28]
 5208 004c 002B     		cmp	r3, #0
 5209 004e E4D1     		bne	.L722
 5210 0050 2300     		movs	r3, r4
 5211 0052 033A     		subs	r2, r2, #3
 5212 0054 3C33     		adds	r3, r3, #60
 5213 0056 F1E7     		b	.L726
 5214              	.L725:
 5215 0058 E36A     		ldr	r3, [r4, #44]
 5216 005a 8342     		cmp	r3, r0
 5217 005c DDD1     		bne	.L722
 5218 005e 0822     		movs	r2, #8
 5219 0060 2276     		strb	r2, [r4, #24]
 5220 0062 DB69     		ldr	r3, [r3, #28]
 5221 0064 002B     		cmp	r3, #0
 5222 0066 D8D1     		bne	.L722
 5223 0068 2300     		movs	r3, r4
 5224 006a 073A     		subs	r2, r2, #7
 5225 006c 3D33     		adds	r3, r3, #61
 5226 006e E5E7     		b	.L726
 5228              		.section	.text.HAL_TIM_IC_CaptureHalfCpltCallback,"ax",%progbits
 5229              		.align	1
 5230              		.weak	HAL_TIM_IC_CaptureHalfCpltCallback
 5231              		.syntax unified
 5232              		.code	16
 5233              		.thumb_func
 5235              	HAL_TIM_IC_CaptureHalfCpltCallback:
 5236              		@ args = 0, pretend = 0, frame = 0
 5237              		@ frame_needed = 0, uses_anonymous_args = 0
 5238              		@ link register save eliminated.
 5239              		@ sp needed
 5240 0000 7047     		bx	lr
 5242              		.section	.text.TIM_DMACaptureHalfCplt,"ax",%progbits
 5243              		.align	1
 5244              		.global	TIM_DMACaptureHalfCplt
 5245              		.syntax unified
 5246              		.code	16
 5247              		.thumb_func
 5249              	TIM_DMACaptureHalfCplt:
 5250              		@ args = 0, pretend = 0, frame = 0
 5251              		@ frame_needed = 0, uses_anonymous_args = 0
 5252 0000 10B5     		push	{r4, lr}
ARM GAS  /tmp/ccCjdw1k.s 			page 90


 5253 0002 846A     		ldr	r4, [r0, #40]
 5254 0004 236A     		ldr	r3, [r4, #32]
 5255 0006 8342     		cmp	r3, r0
 5256 0008 07D1     		bne	.L729
 5257 000a 0123     		movs	r3, #1
 5258              	.L733:
 5259 000c 2376     		strb	r3, [r4, #24]
 5260              	.L730:
 5261 000e 2000     		movs	r0, r4
 5262              		@ sp needed
 5263 0010 FFF7FEFF 		bl	HAL_TIM_IC_CaptureHalfCpltCallback
 5264 0014 0023     		movs	r3, #0
 5265 0016 2376     		strb	r3, [r4, #24]
 5266 0018 10BD     		pop	{r4, pc}
 5267              	.L729:
 5268 001a 636A     		ldr	r3, [r4, #36]
 5269 001c 8342     		cmp	r3, r0
 5270 001e 01D1     		bne	.L731
 5271 0020 0223     		movs	r3, #2
 5272 0022 F3E7     		b	.L733
 5273              	.L731:
 5274 0024 A36A     		ldr	r3, [r4, #40]
 5275 0026 8342     		cmp	r3, r0
 5276 0028 01D1     		bne	.L732
 5277 002a 0423     		movs	r3, #4
 5278 002c EEE7     		b	.L733
 5279              	.L732:
 5280 002e E36A     		ldr	r3, [r4, #44]
 5281 0030 8342     		cmp	r3, r0
 5282 0032 ECD1     		bne	.L730
 5283 0034 0823     		movs	r3, #8
 5284 0036 E9E7     		b	.L733
 5286              		.section	.text.HAL_TIM_PWM_PulseFinishedCallback,"ax",%progbits
 5287              		.align	1
 5288              		.weak	HAL_TIM_PWM_PulseFinishedCallback
 5289              		.syntax unified
 5290              		.code	16
 5291              		.thumb_func
 5293              	HAL_TIM_PWM_PulseFinishedCallback:
 5294              		@ args = 0, pretend = 0, frame = 0
 5295              		@ frame_needed = 0, uses_anonymous_args = 0
 5296              		@ link register save eliminated.
 5297              		@ sp needed
 5298 0000 7047     		bx	lr
 5300              		.section	.text.TIM_DMADelayPulseCplt,"ax",%progbits
 5301              		.align	1
 5302              		.syntax unified
 5303              		.code	16
 5304              		.thumb_func
 5306              	TIM_DMADelayPulseCplt:
 5307              		@ args = 0, pretend = 0, frame = 0
 5308              		@ frame_needed = 0, uses_anonymous_args = 0
 5309 0000 10B5     		push	{r4, lr}
 5310 0002 846A     		ldr	r4, [r0, #40]
 5311 0004 226A     		ldr	r2, [r4, #32]
 5312 0006 8242     		cmp	r2, r0
 5313 0008 0DD1     		bne	.L736
ARM GAS  /tmp/ccCjdw1k.s 			page 91


 5314 000a 0123     		movs	r3, #1
 5315 000c 2376     		strb	r3, [r4, #24]
 5316 000e D269     		ldr	r2, [r2, #28]
 5317 0010 002A     		cmp	r2, #0
 5318 0012 02D1     		bne	.L738
 5319 0014 2200     		movs	r2, r4
 5320 0016 3A32     		adds	r2, r2, #58
 5321 0018 1370     		strb	r3, [r2]
 5322              	.L738:
 5323 001a 2000     		movs	r0, r4
 5324              		@ sp needed
 5325 001c FFF7FEFF 		bl	HAL_TIM_PWM_PulseFinishedCallback
 5326 0020 0023     		movs	r3, #0
 5327 0022 2376     		strb	r3, [r4, #24]
 5328 0024 10BD     		pop	{r4, pc}
 5329              	.L736:
 5330 0026 636A     		ldr	r3, [r4, #36]
 5331 0028 8342     		cmp	r3, r0
 5332 002a 09D1     		bne	.L739
 5333 002c 0222     		movs	r2, #2
 5334 002e 2276     		strb	r2, [r4, #24]
 5335 0030 DB69     		ldr	r3, [r3, #28]
 5336 0032 002B     		cmp	r3, #0
 5337 0034 F1D1     		bne	.L738
 5338 0036 2300     		movs	r3, r4
 5339 0038 013A     		subs	r2, r2, #1
 5340 003a 3B33     		adds	r3, r3, #59
 5341              	.L742:
 5342 003c 1A70     		strb	r2, [r3]
 5343 003e ECE7     		b	.L738
 5344              	.L739:
 5345 0040 A36A     		ldr	r3, [r4, #40]
 5346 0042 8342     		cmp	r3, r0
 5347 0044 08D1     		bne	.L741
 5348 0046 0422     		movs	r2, #4
 5349 0048 2276     		strb	r2, [r4, #24]
 5350 004a DB69     		ldr	r3, [r3, #28]
 5351 004c 002B     		cmp	r3, #0
 5352 004e E4D1     		bne	.L738
 5353 0050 2300     		movs	r3, r4
 5354 0052 033A     		subs	r2, r2, #3
 5355 0054 3C33     		adds	r3, r3, #60
 5356 0056 F1E7     		b	.L742
 5357              	.L741:
 5358 0058 E36A     		ldr	r3, [r4, #44]
 5359 005a 8342     		cmp	r3, r0
 5360 005c DDD1     		bne	.L738
 5361 005e 0822     		movs	r2, #8
 5362 0060 2276     		strb	r2, [r4, #24]
 5363 0062 DB69     		ldr	r3, [r3, #28]
 5364 0064 002B     		cmp	r3, #0
 5365 0066 D8D1     		bne	.L738
 5366 0068 2300     		movs	r3, r4
 5367 006a 073A     		subs	r2, r2, #7
 5368 006c 3D33     		adds	r3, r3, #61
 5369 006e E5E7     		b	.L742
 5371              		.section	.text.HAL_TIM_PWM_PulseFinishedHalfCpltCallback,"ax",%progbits
ARM GAS  /tmp/ccCjdw1k.s 			page 92


 5372              		.align	1
 5373              		.weak	HAL_TIM_PWM_PulseFinishedHalfCpltCallback
 5374              		.syntax unified
 5375              		.code	16
 5376              		.thumb_func
 5378              	HAL_TIM_PWM_PulseFinishedHalfCpltCallback:
 5379              		@ args = 0, pretend = 0, frame = 0
 5380              		@ frame_needed = 0, uses_anonymous_args = 0
 5381              		@ link register save eliminated.
 5382              		@ sp needed
 5383 0000 7047     		bx	lr
 5385              		.section	.text.TIM_DMADelayPulseHalfCplt,"ax",%progbits
 5386              		.align	1
 5387              		.syntax unified
 5388              		.code	16
 5389              		.thumb_func
 5391              	TIM_DMADelayPulseHalfCplt:
 5392              		@ args = 0, pretend = 0, frame = 0
 5393              		@ frame_needed = 0, uses_anonymous_args = 0
 5394 0000 10B5     		push	{r4, lr}
 5395 0002 846A     		ldr	r4, [r0, #40]
 5396 0004 236A     		ldr	r3, [r4, #32]
 5397 0006 8342     		cmp	r3, r0
 5398 0008 07D1     		bne	.L745
 5399 000a 0123     		movs	r3, #1
 5400              	.L749:
 5401 000c 2376     		strb	r3, [r4, #24]
 5402              	.L746:
 5403 000e 2000     		movs	r0, r4
 5404              		@ sp needed
 5405 0010 FFF7FEFF 		bl	HAL_TIM_PWM_PulseFinishedHalfCpltCallback
 5406 0014 0023     		movs	r3, #0
 5407 0016 2376     		strb	r3, [r4, #24]
 5408 0018 10BD     		pop	{r4, pc}
 5409              	.L745:
 5410 001a 636A     		ldr	r3, [r4, #36]
 5411 001c 8342     		cmp	r3, r0
 5412 001e 01D1     		bne	.L747
 5413 0020 0223     		movs	r3, #2
 5414 0022 F3E7     		b	.L749
 5415              	.L747:
 5416 0024 A36A     		ldr	r3, [r4, #40]
 5417 0026 8342     		cmp	r3, r0
 5418 0028 01D1     		bne	.L748
 5419 002a 0423     		movs	r3, #4
 5420 002c EEE7     		b	.L749
 5421              	.L748:
 5422 002e E36A     		ldr	r3, [r4, #44]
 5423 0030 8342     		cmp	r3, r0
 5424 0032 ECD1     		bne	.L746
 5425 0034 0823     		movs	r3, #8
 5426 0036 E9E7     		b	.L749
 5428              		.section	.text.HAL_TIM_TriggerCallback,"ax",%progbits
 5429              		.align	1
 5430              		.weak	HAL_TIM_TriggerCallback
 5431              		.syntax unified
 5432              		.code	16
ARM GAS  /tmp/ccCjdw1k.s 			page 93


 5433              		.thumb_func
 5435              	HAL_TIM_TriggerCallback:
 5436              		@ args = 0, pretend = 0, frame = 0
 5437              		@ frame_needed = 0, uses_anonymous_args = 0
 5438              		@ link register save eliminated.
 5439              		@ sp needed
 5440 0000 7047     		bx	lr
 5442              		.section	.text.HAL_TIM_IRQHandler,"ax",%progbits
 5443              		.align	1
 5444              		.global	HAL_TIM_IRQHandler
 5445              		.syntax unified
 5446              		.code	16
 5447              		.thumb_func
 5449              	HAL_TIM_IRQHandler:
 5450              		@ args = 0, pretend = 0, frame = 0
 5451              		@ frame_needed = 0, uses_anonymous_args = 0
 5452 0000 0222     		movs	r2, #2
 5453 0002 0368     		ldr	r3, [r0]
 5454 0004 10B5     		push	{r4, lr}
 5455 0006 1969     		ldr	r1, [r3, #16]
 5456 0008 0400     		movs	r4, r0
 5457 000a 1142     		tst	r1, r2
 5458 000c 0DD0     		beq	.L752
 5459 000e D968     		ldr	r1, [r3, #12]
 5460 0010 1142     		tst	r1, r2
 5461 0012 0AD0     		beq	.L752
 5462 0014 053A     		subs	r2, r2, #5
 5463 0016 1A61     		str	r2, [r3, #16]
 5464 0018 0432     		adds	r2, r2, #4
 5465 001a 0276     		strb	r2, [r0, #24]
 5466 001c 9B69     		ldr	r3, [r3, #24]
 5467 001e 9B07     		lsls	r3, r3, #30
 5468 0020 5ED0     		beq	.L753
 5469 0022 FFF7FEFF 		bl	HAL_TIM_IC_CaptureCallback
 5470              	.L754:
 5471 0026 0023     		movs	r3, #0
 5472 0028 2376     		strb	r3, [r4, #24]
 5473              	.L752:
 5474 002a 0422     		movs	r2, #4
 5475 002c 2368     		ldr	r3, [r4]
 5476 002e 1969     		ldr	r1, [r3, #16]
 5477 0030 1142     		tst	r1, r2
 5478 0032 10D0     		beq	.L755
 5479 0034 D968     		ldr	r1, [r3, #12]
 5480 0036 1142     		tst	r1, r2
 5481 0038 0DD0     		beq	.L755
 5482 003a 093A     		subs	r2, r2, #9
 5483 003c 1A61     		str	r2, [r3, #16]
 5484 003e 0732     		adds	r2, r2, #7
 5485 0040 2276     		strb	r2, [r4, #24]
 5486 0042 9A69     		ldr	r2, [r3, #24]
 5487 0044 C023     		movs	r3, #192
 5488 0046 9B00     		lsls	r3, r3, #2
 5489 0048 2000     		movs	r0, r4
 5490 004a 1A42     		tst	r2, r3
 5491 004c 4ED0     		beq	.L756
 5492 004e FFF7FEFF 		bl	HAL_TIM_IC_CaptureCallback
ARM GAS  /tmp/ccCjdw1k.s 			page 94


 5493              	.L757:
 5494 0052 0023     		movs	r3, #0
 5495 0054 2376     		strb	r3, [r4, #24]
 5496              	.L755:
 5497 0056 0822     		movs	r2, #8
 5498 0058 2368     		ldr	r3, [r4]
 5499 005a 1969     		ldr	r1, [r3, #16]
 5500 005c 1142     		tst	r1, r2
 5501 005e 0ED0     		beq	.L758
 5502 0060 D968     		ldr	r1, [r3, #12]
 5503 0062 1142     		tst	r1, r2
 5504 0064 0BD0     		beq	.L758
 5505 0066 113A     		subs	r2, r2, #17
 5506 0068 1A61     		str	r2, [r3, #16]
 5507 006a 0D32     		adds	r2, r2, #13
 5508 006c 2276     		strb	r2, [r4, #24]
 5509 006e DB69     		ldr	r3, [r3, #28]
 5510 0070 2000     		movs	r0, r4
 5511 0072 9B07     		lsls	r3, r3, #30
 5512 0074 40D0     		beq	.L759
 5513 0076 FFF7FEFF 		bl	HAL_TIM_IC_CaptureCallback
 5514              	.L760:
 5515 007a 0023     		movs	r3, #0
 5516 007c 2376     		strb	r3, [r4, #24]
 5517              	.L758:
 5518 007e 1022     		movs	r2, #16
 5519 0080 2368     		ldr	r3, [r4]
 5520 0082 1969     		ldr	r1, [r3, #16]
 5521 0084 1142     		tst	r1, r2
 5522 0086 10D0     		beq	.L761
 5523 0088 D968     		ldr	r1, [r3, #12]
 5524 008a 1142     		tst	r1, r2
 5525 008c 0DD0     		beq	.L761
 5526 008e 213A     		subs	r2, r2, #33
 5527 0090 1A61     		str	r2, [r3, #16]
 5528 0092 1932     		adds	r2, r2, #25
 5529 0094 2276     		strb	r2, [r4, #24]
 5530 0096 DA69     		ldr	r2, [r3, #28]
 5531 0098 C023     		movs	r3, #192
 5532 009a 9B00     		lsls	r3, r3, #2
 5533 009c 2000     		movs	r0, r4
 5534 009e 1A42     		tst	r2, r3
 5535 00a0 30D0     		beq	.L762
 5536 00a2 FFF7FEFF 		bl	HAL_TIM_IC_CaptureCallback
 5537              	.L763:
 5538 00a6 0023     		movs	r3, #0
 5539 00a8 2376     		strb	r3, [r4, #24]
 5540              	.L761:
 5541 00aa 0122     		movs	r2, #1
 5542 00ac 2368     		ldr	r3, [r4]
 5543 00ae 1969     		ldr	r1, [r3, #16]
 5544 00b0 1142     		tst	r1, r2
 5545 00b2 07D0     		beq	.L764
 5546 00b4 D968     		ldr	r1, [r3, #12]
 5547 00b6 1142     		tst	r1, r2
 5548 00b8 04D0     		beq	.L764
 5549 00ba 033A     		subs	r2, r2, #3
ARM GAS  /tmp/ccCjdw1k.s 			page 95


 5550 00bc 2000     		movs	r0, r4
 5551 00be 1A61     		str	r2, [r3, #16]
 5552 00c0 FFF7FEFF 		bl	HAL_TIM_PeriodElapsedCallback
 5553              	.L764:
 5554 00c4 4022     		movs	r2, #64
 5555 00c6 2368     		ldr	r3, [r4]
 5556 00c8 1969     		ldr	r1, [r3, #16]
 5557 00ca 1142     		tst	r1, r2
 5558 00cc 07D0     		beq	.L751
 5559 00ce D968     		ldr	r1, [r3, #12]
 5560 00d0 1142     		tst	r1, r2
 5561 00d2 04D0     		beq	.L751
 5562 00d4 813A     		subs	r2, r2, #129
 5563 00d6 2000     		movs	r0, r4
 5564 00d8 1A61     		str	r2, [r3, #16]
 5565 00da FFF7FEFF 		bl	HAL_TIM_TriggerCallback
 5566              	.L751:
 5567              		@ sp needed
 5568 00de 10BD     		pop	{r4, pc}
 5569              	.L753:
 5570 00e0 FFF7FEFF 		bl	HAL_TIM_OC_DelayElapsedCallback
 5571 00e4 2000     		movs	r0, r4
 5572 00e6 FFF7FEFF 		bl	HAL_TIM_PWM_PulseFinishedCallback
 5573 00ea 9CE7     		b	.L754
 5574              	.L756:
 5575 00ec FFF7FEFF 		bl	HAL_TIM_OC_DelayElapsedCallback
 5576 00f0 2000     		movs	r0, r4
 5577 00f2 FFF7FEFF 		bl	HAL_TIM_PWM_PulseFinishedCallback
 5578 00f6 ACE7     		b	.L757
 5579              	.L759:
 5580 00f8 FFF7FEFF 		bl	HAL_TIM_OC_DelayElapsedCallback
 5581 00fc 2000     		movs	r0, r4
 5582 00fe FFF7FEFF 		bl	HAL_TIM_PWM_PulseFinishedCallback
 5583 0102 BAE7     		b	.L760
 5584              	.L762:
 5585 0104 FFF7FEFF 		bl	HAL_TIM_OC_DelayElapsedCallback
 5586 0108 2000     		movs	r0, r4
 5587 010a FFF7FEFF 		bl	HAL_TIM_PWM_PulseFinishedCallback
 5588 010e CAE7     		b	.L763
 5590              		.section	.text.TIM_DMATriggerCplt,"ax",%progbits
 5591              		.align	1
 5592              		.syntax unified
 5593              		.code	16
 5594              		.thumb_func
 5596              	TIM_DMATriggerCplt:
 5597              		@ args = 0, pretend = 0, frame = 0
 5598              		@ frame_needed = 0, uses_anonymous_args = 0
 5599 0000 806A     		ldr	r0, [r0, #40]
 5600 0002 10B5     		push	{r4, lr}
 5601 0004 436B     		ldr	r3, [r0, #52]
 5602 0006 DB69     		ldr	r3, [r3, #28]
 5603 0008 002B     		cmp	r3, #0
 5604 000a 03D1     		bne	.L803
 5605 000c 0300     		movs	r3, r0
 5606 000e 0122     		movs	r2, #1
 5607 0010 3933     		adds	r3, r3, #57
 5608 0012 1A70     		strb	r2, [r3]
ARM GAS  /tmp/ccCjdw1k.s 			page 96


 5609              	.L803:
 5610 0014 FFF7FEFF 		bl	HAL_TIM_TriggerCallback
 5611              		@ sp needed
 5612 0018 10BD     		pop	{r4, pc}
 5614              		.section	.text.HAL_TIM_TriggerHalfCpltCallback,"ax",%progbits
 5615              		.align	1
 5616              		.weak	HAL_TIM_TriggerHalfCpltCallback
 5617              		.syntax unified
 5618              		.code	16
 5619              		.thumb_func
 5621              	HAL_TIM_TriggerHalfCpltCallback:
 5622              		@ args = 0, pretend = 0, frame = 0
 5623              		@ frame_needed = 0, uses_anonymous_args = 0
 5624              		@ link register save eliminated.
 5625              		@ sp needed
 5626 0000 7047     		bx	lr
 5628              		.section	.text.TIM_DMATriggerHalfCplt,"ax",%progbits
 5629              		.align	1
 5630              		.syntax unified
 5631              		.code	16
 5632              		.thumb_func
 5634              	TIM_DMATriggerHalfCplt:
 5635              		@ args = 0, pretend = 0, frame = 0
 5636              		@ frame_needed = 0, uses_anonymous_args = 0
 5637 0000 10B5     		push	{r4, lr}
 5638 0002 806A     		ldr	r0, [r0, #40]
 5639 0004 FFF7FEFF 		bl	HAL_TIM_TriggerHalfCpltCallback
 5640              		@ sp needed
 5641 0008 10BD     		pop	{r4, pc}
 5643              		.section	.text.HAL_TIM_ErrorCallback,"ax",%progbits
 5644              		.align	1
 5645              		.weak	HAL_TIM_ErrorCallback
 5646              		.syntax unified
 5647              		.code	16
 5648              		.thumb_func
 5650              	HAL_TIM_ErrorCallback:
 5651              		@ args = 0, pretend = 0, frame = 0
 5652              		@ frame_needed = 0, uses_anonymous_args = 0
 5653              		@ link register save eliminated.
 5654              		@ sp needed
 5655 0000 7047     		bx	lr
 5657              		.section	.text.TIM_DMAError,"ax",%progbits
 5658              		.align	1
 5659              		.global	TIM_DMAError
 5660              		.syntax unified
 5661              		.code	16
 5662              		.thumb_func
 5664              	TIM_DMAError:
 5665              		@ args = 0, pretend = 0, frame = 0
 5666              		@ frame_needed = 0, uses_anonymous_args = 0
 5667 0000 10B5     		push	{r4, lr}
 5668 0002 846A     		ldr	r4, [r0, #40]
 5669 0004 236A     		ldr	r3, [r4, #32]
 5670 0006 8342     		cmp	r3, r0
 5671 0008 05D1     		bne	.L808
 5672 000a 0123     		movs	r3, #1
 5673 000c 2200     		movs	r2, r4
ARM GAS  /tmp/ccCjdw1k.s 			page 97


 5674 000e 2376     		strb	r3, [r4, #24]
 5675 0010 3A32     		adds	r2, r2, #58
 5676              	.L813:
 5677 0012 1370     		strb	r3, [r2]
 5678 0014 08E0     		b	.L809
 5679              	.L808:
 5680 0016 636A     		ldr	r3, [r4, #36]
 5681 0018 8342     		cmp	r3, r0
 5682 001a 0BD1     		bne	.L810
 5683 001c 0223     		movs	r3, #2
 5684 001e 2376     		strb	r3, [r4, #24]
 5685 0020 2300     		movs	r3, r4
 5686 0022 0122     		movs	r2, #1
 5687 0024 3B33     		adds	r3, r3, #59
 5688 0026 1A70     		strb	r2, [r3]
 5689              	.L809:
 5690 0028 2000     		movs	r0, r4
 5691              		@ sp needed
 5692 002a FFF7FEFF 		bl	HAL_TIM_ErrorCallback
 5693 002e 0023     		movs	r3, #0
 5694 0030 2376     		strb	r3, [r4, #24]
 5695 0032 10BD     		pop	{r4, pc}
 5696              	.L810:
 5697 0034 A26A     		ldr	r2, [r4, #40]
 5698 0036 0123     		movs	r3, #1
 5699 0038 8242     		cmp	r2, r0
 5700 003a 04D1     		bne	.L811
 5701 003c 0422     		movs	r2, #4
 5702 003e 2276     		strb	r2, [r4, #24]
 5703 0040 2200     		movs	r2, r4
 5704 0042 3C32     		adds	r2, r2, #60
 5705 0044 E5E7     		b	.L813
 5706              	.L811:
 5707 0046 E26A     		ldr	r2, [r4, #44]
 5708 0048 8242     		cmp	r2, r0
 5709 004a 04D1     		bne	.L812
 5710 004c 0822     		movs	r2, #8
 5711 004e 2276     		strb	r2, [r4, #24]
 5712 0050 2200     		movs	r2, r4
 5713 0052 3D32     		adds	r2, r2, #61
 5714 0054 DDE7     		b	.L813
 5715              	.L812:
 5716 0056 2200     		movs	r2, r4
 5717 0058 3932     		adds	r2, r2, #57
 5718 005a DAE7     		b	.L813
 5720              		.section	.text.HAL_TIM_Base_GetState,"ax",%progbits
 5721              		.align	1
 5722              		.global	HAL_TIM_Base_GetState
 5723              		.syntax unified
 5724              		.code	16
 5725              		.thumb_func
 5727              	HAL_TIM_Base_GetState:
 5728              		@ args = 0, pretend = 0, frame = 0
 5729              		@ frame_needed = 0, uses_anonymous_args = 0
 5730              		@ link register save eliminated.
 5731 0000 3930     		adds	r0, r0, #57
 5732 0002 0078     		ldrb	r0, [r0]
ARM GAS  /tmp/ccCjdw1k.s 			page 98


 5733              		@ sp needed
 5734 0004 C0B2     		uxtb	r0, r0
 5735 0006 7047     		bx	lr
 5737              		.section	.text.HAL_TIM_OC_GetState,"ax",%progbits
 5738              		.align	1
 5739              		.global	HAL_TIM_OC_GetState
 5740              		.syntax unified
 5741              		.code	16
 5742              		.thumb_func
 5744              	HAL_TIM_OC_GetState:
 5745              		@ args = 0, pretend = 0, frame = 0
 5746              		@ frame_needed = 0, uses_anonymous_args = 0
 5747              		@ link register save eliminated.
 5748 0000 3930     		adds	r0, r0, #57
 5749 0002 0078     		ldrb	r0, [r0]
 5750              		@ sp needed
 5751 0004 C0B2     		uxtb	r0, r0
 5752 0006 7047     		bx	lr
 5754              		.section	.text.HAL_TIM_PWM_GetState,"ax",%progbits
 5755              		.align	1
 5756              		.global	HAL_TIM_PWM_GetState
 5757              		.syntax unified
 5758              		.code	16
 5759              		.thumb_func
 5761              	HAL_TIM_PWM_GetState:
 5762              		@ args = 0, pretend = 0, frame = 0
 5763              		@ frame_needed = 0, uses_anonymous_args = 0
 5764              		@ link register save eliminated.
 5765 0000 3930     		adds	r0, r0, #57
 5766 0002 0078     		ldrb	r0, [r0]
 5767              		@ sp needed
 5768 0004 C0B2     		uxtb	r0, r0
 5769 0006 7047     		bx	lr
 5771              		.section	.text.HAL_TIM_IC_GetState,"ax",%progbits
 5772              		.align	1
 5773              		.global	HAL_TIM_IC_GetState
 5774              		.syntax unified
 5775              		.code	16
 5776              		.thumb_func
 5778              	HAL_TIM_IC_GetState:
 5779              		@ args = 0, pretend = 0, frame = 0
 5780              		@ frame_needed = 0, uses_anonymous_args = 0
 5781              		@ link register save eliminated.
 5782 0000 3930     		adds	r0, r0, #57
 5783 0002 0078     		ldrb	r0, [r0]
 5784              		@ sp needed
 5785 0004 C0B2     		uxtb	r0, r0
 5786 0006 7047     		bx	lr
 5788              		.section	.text.HAL_TIM_OnePulse_GetState,"ax",%progbits
 5789              		.align	1
 5790              		.global	HAL_TIM_OnePulse_GetState
 5791              		.syntax unified
 5792              		.code	16
 5793              		.thumb_func
 5795              	HAL_TIM_OnePulse_GetState:
 5796              		@ args = 0, pretend = 0, frame = 0
 5797              		@ frame_needed = 0, uses_anonymous_args = 0
ARM GAS  /tmp/ccCjdw1k.s 			page 99


 5798              		@ link register save eliminated.
 5799 0000 3930     		adds	r0, r0, #57
 5800 0002 0078     		ldrb	r0, [r0]
 5801              		@ sp needed
 5802 0004 C0B2     		uxtb	r0, r0
 5803 0006 7047     		bx	lr
 5805              		.section	.text.HAL_TIM_Encoder_GetState,"ax",%progbits
 5806              		.align	1
 5807              		.global	HAL_TIM_Encoder_GetState
 5808              		.syntax unified
 5809              		.code	16
 5810              		.thumb_func
 5812              	HAL_TIM_Encoder_GetState:
 5813              		@ args = 0, pretend = 0, frame = 0
 5814              		@ frame_needed = 0, uses_anonymous_args = 0
 5815              		@ link register save eliminated.
 5816 0000 3930     		adds	r0, r0, #57
 5817 0002 0078     		ldrb	r0, [r0]
 5818              		@ sp needed
 5819 0004 C0B2     		uxtb	r0, r0
 5820 0006 7047     		bx	lr
 5822              		.section	.text.HAL_TIM_GetActiveChannel,"ax",%progbits
 5823              		.align	1
 5824              		.global	HAL_TIM_GetActiveChannel
 5825              		.syntax unified
 5826              		.code	16
 5827              		.thumb_func
 5829              	HAL_TIM_GetActiveChannel:
 5830              		@ args = 0, pretend = 0, frame = 0
 5831              		@ frame_needed = 0, uses_anonymous_args = 0
 5832              		@ link register save eliminated.
 5833 0000 007E     		ldrb	r0, [r0, #24]
 5834              		@ sp needed
 5835 0002 7047     		bx	lr
 5837              		.section	.text.HAL_TIM_GetChannelState,"ax",%progbits
 5838              		.align	1
 5839              		.global	HAL_TIM_GetChannelState
 5840              		.syntax unified
 5841              		.code	16
 5842              		.thumb_func
 5844              	HAL_TIM_GetChannelState:
 5845              		@ args = 0, pretend = 0, frame = 0
 5846              		@ frame_needed = 0, uses_anonymous_args = 0
 5847              		@ link register save eliminated.
 5848 0000 0029     		cmp	r1, #0
 5849 0002 03D1     		bne	.L822
 5850 0004 3A30     		adds	r0, r0, #58
 5851              	.L826:
 5852 0006 0078     		ldrb	r0, [r0]
 5853              		@ sp needed
 5854 0008 C0B2     		uxtb	r0, r0
 5855 000a 7047     		bx	lr
 5856              	.L822:
 5857 000c 0429     		cmp	r1, #4
 5858 000e 01D1     		bne	.L824
 5859 0010 3B30     		adds	r0, r0, #59
 5860 0012 F8E7     		b	.L826
ARM GAS  /tmp/ccCjdw1k.s 			page 100


 5861              	.L824:
 5862 0014 0829     		cmp	r1, #8
 5863 0016 01D1     		bne	.L825
 5864 0018 3C30     		adds	r0, r0, #60
 5865 001a F4E7     		b	.L826
 5866              	.L825:
 5867 001c 3D30     		adds	r0, r0, #61
 5868 001e F2E7     		b	.L826
 5870              		.section	.text.HAL_TIM_DMABurstState,"ax",%progbits
 5871              		.align	1
 5872              		.global	HAL_TIM_DMABurstState
 5873              		.syntax unified
 5874              		.code	16
 5875              		.thumb_func
 5877              	HAL_TIM_DMABurstState:
 5878              		@ args = 0, pretend = 0, frame = 0
 5879              		@ frame_needed = 0, uses_anonymous_args = 0
 5880              		@ link register save eliminated.
 5881 0000 3E30     		adds	r0, r0, #62
 5882 0002 0078     		ldrb	r0, [r0]
 5883              		@ sp needed
 5884 0004 C0B2     		uxtb	r0, r0
 5885 0006 7047     		bx	lr
 5887              		.ident	"GCC: (Arch Repository) 13.2.0"
ARM GAS  /tmp/ccCjdw1k.s 			page 101

