ARM GAS  /tmp/ccGhHShQ.s 			page 1


   1              		.cpu cortex-m0
   2              		.arch armv6s-m
   3              		.fpu softvfp
   4              		.eabi_attribute 23, 1
   5              		.eabi_attribute 24, 1
   6              		.eabi_attribute 25, 1
   7              		.eabi_attribute 26, 1
   8              		.eabi_attribute 30, 4
   9              		.eabi_attribute 34, 0
  10              		.eabi_attribute 18, 4
  11              		.file	"stm32l0xx_hal_iwdg.c"
  12              		.text
  13              		.section	.text.HAL_IWDG_Init,"ax",%progbits
  14              		.align	1
  15              		.global	HAL_IWDG_Init
  16              		.syntax unified
  17              		.code	16
  18              		.thumb_func
  20              	HAL_IWDG_Init:
  21              		@ args = 0, pretend = 0, frame = 0
  22              		@ frame_needed = 0, uses_anonymous_args = 0
  23 0000 70B5     		push	{r4, r5, r6, lr}
  24 0002 0400     		movs	r4, r0
  25 0004 0120     		movs	r0, #1
  26 0006 002C     		cmp	r4, #0
  27 0008 16D0     		beq	.L2
  28 000a 2368     		ldr	r3, [r4]
  29 000c 124A     		ldr	r2, .L10
  30 000e 0726     		movs	r6, #7
  31 0010 1A60     		str	r2, [r3]
  32 0012 124A     		ldr	r2, .L10+4
  33 0014 1A60     		str	r2, [r3]
  34 0016 6268     		ldr	r2, [r4, #4]
  35 0018 5A60     		str	r2, [r3, #4]
  36 001a A268     		ldr	r2, [r4, #8]
  37 001c 9A60     		str	r2, [r3, #8]
  38 001e FFF7FEFF 		bl	HAL_GetTick
  39 0022 0500     		movs	r5, r0
  40              	.L9:
  41 0024 2368     		ldr	r3, [r4]
  42 0026 DA68     		ldr	r2, [r3, #12]
  43 0028 3242     		tst	r2, r6
  44 002a 06D1     		bne	.L4
  45 002c 1969     		ldr	r1, [r3, #16]
  46 002e E268     		ldr	r2, [r4, #12]
  47 0030 9142     		cmp	r1, r2
  48 0032 0DD0     		beq	.L5
  49 0034 1A61     		str	r2, [r3, #16]
  50              	.L6:
  51 0036 0020     		movs	r0, #0
  52              	.L2:
  53              		@ sp needed
  54 0038 70BD     		pop	{r4, r5, r6, pc}
  55              	.L4:
  56 003a FFF7FEFF 		bl	HAL_GetTick
  57 003e 401B     		subs	r0, r0, r5
  58 0040 2A28     		cmp	r0, #42
ARM GAS  /tmp/ccGhHShQ.s 			page 2


  59 0042 EFD9     		bls	.L9
  60 0044 2368     		ldr	r3, [r4]
  61 0046 DB68     		ldr	r3, [r3, #12]
  62 0048 3342     		tst	r3, r6
  63 004a EBD0     		beq	.L9
  64 004c 0320     		movs	r0, #3
  65 004e F3E7     		b	.L2
  66              	.L5:
  67 0050 034A     		ldr	r2, .L10+8
  68 0052 1A60     		str	r2, [r3]
  69 0054 EFE7     		b	.L6
  70              	.L11:
  71 0056 C046     		.align	2
  72              	.L10:
  73 0058 CCCC0000 		.word	52428
  74 005c 55550000 		.word	21845
  75 0060 AAAA0000 		.word	43690
  77              		.section	.text.HAL_IWDG_Refresh,"ax",%progbits
  78              		.align	1
  79              		.global	HAL_IWDG_Refresh
  80              		.syntax unified
  81              		.code	16
  82              		.thumb_func
  84              	HAL_IWDG_Refresh:
  85              		@ args = 0, pretend = 0, frame = 0
  86              		@ frame_needed = 0, uses_anonymous_args = 0
  87              		@ link register save eliminated.
  88 0000 0368     		ldr	r3, [r0]
  89 0002 024A     		ldr	r2, .L13
  90 0004 0020     		movs	r0, #0
  91              		@ sp needed
  92 0006 1A60     		str	r2, [r3]
  93 0008 7047     		bx	lr
  94              	.L14:
  95 000a C046     		.align	2
  96              	.L13:
  97 000c AAAA0000 		.word	43690
  99              		.ident	"GCC: (Arch Repository) 13.2.0"
ARM GAS  /tmp/ccGhHShQ.s 			page 3


DEFINED SYMBOLS
                            *ABS*:00000000 stm32l0xx_hal_iwdg.c
     /tmp/ccGhHShQ.s:14     .text.HAL_IWDG_Init:00000000 $t
     /tmp/ccGhHShQ.s:20     .text.HAL_IWDG_Init:00000000 HAL_IWDG_Init
     /tmp/ccGhHShQ.s:73     .text.HAL_IWDG_Init:00000058 $d
     /tmp/ccGhHShQ.s:78     .text.HAL_IWDG_Refresh:00000000 $t
     /tmp/ccGhHShQ.s:84     .text.HAL_IWDG_Refresh:00000000 HAL_IWDG_Refresh
     /tmp/ccGhHShQ.s:97     .text.HAL_IWDG_Refresh:0000000c $d

UNDEFINED SYMBOLS
HAL_GetTick
