ARM GAS  /tmp/cckQLJZb.s 			page 1


   1              		.cpu cortex-m0
   2              		.arch armv6s-m
   3              		.fpu softvfp
   4              		.eabi_attribute 23, 1
   5              		.eabi_attribute 24, 1
   6              		.eabi_attribute 25, 1
   7              		.eabi_attribute 26, 1
   8              		.eabi_attribute 30, 4
   9              		.eabi_attribute 34, 0
  10              		.eabi_attribute 18, 4
  11              		.file	"stm32l0xx_hal_flash_ramfunc.c"
  12              		.text
  13              		.section	.RamFunc,"ax",%progbits
  14              		.align	1
  15              		.syntax unified
  16              		.code	16
  17              		.thumb_func
  19              	FLASHRAM_WaitForLastOperation.constprop.0:
  20              		@ args = 0, pretend = 0, frame = 0
  21              		@ frame_needed = 0, uses_anonymous_args = 0
  22 0000 0121     		movs	r1, #1
  23 0002 30B5     		push	{r4, r5, lr}
  24 0004 3D4A     		ldr	r2, .L49
  25 0006 3E4B     		ldr	r3, .L49+4
  26              	.L2:
  27 0008 9869     		ldr	r0, [r3, #24]
  28 000a 0842     		tst	r0, r1
  29 000c 05D0     		beq	.L3
  30 000e 002A     		cmp	r2, #0
  31 0010 01D1     		bne	.L4
  32 0012 0320     		movs	r0, #3
  33              	.L5:
  34              		@ sp needed
  35 0014 30BD     		pop	{r4, r5, pc}
  36              	.L4:
  37 0016 013A     		subs	r2, r2, #1
  38 0018 F6E7     		b	.L2
  39              	.L3:
  40 001a 0320     		movs	r0, #3
  41 001c 002A     		cmp	r2, #0
  42 001e F9D0     		beq	.L5
  43 0020 0222     		movs	r2, #2
  44 0022 9969     		ldr	r1, [r3, #24]
  45 0024 1142     		tst	r1, r2
  46 0026 00D0     		beq	.L6
  47 0028 9A61     		str	r2, [r3, #24]
  48              	.L6:
  49 002a 9A69     		ldr	r2, [r3, #24]
  50 002c D205     		lsls	r2, r2, #23
  51 002e 15D4     		bmi	.L7
  52 0030 9A69     		ldr	r2, [r3, #24]
  53 0032 9205     		lsls	r2, r2, #22
  54 0034 12D4     		bmi	.L7
  55 0036 9A69     		ldr	r2, [r3, #24]
  56 0038 5205     		lsls	r2, r2, #21
  57 003a 0FD4     		bmi	.L7
  58 003c 9A69     		ldr	r2, [r3, #24]
ARM GAS  /tmp/cckQLJZb.s 			page 2


  59 003e 1205     		lsls	r2, r2, #20
  60 0040 0CD4     		bmi	.L7
  61 0042 9A69     		ldr	r2, [r3, #24]
  62 0044 9204     		lsls	r2, r2, #18
  63 0046 09D4     		bmi	.L7
  64 0048 9969     		ldr	r1, [r3, #24]
  65 004a 8022     		movs	r2, #128
  66 004c 0800     		movs	r0, r1
  67 004e 9202     		lsls	r2, r2, #10
  68 0050 1040     		ands	r0, r2
  69 0052 1142     		tst	r1, r2
  70 0054 02D1     		bne	.L7
  71 0056 9A69     		ldr	r2, [r3, #24]
  72 0058 D203     		lsls	r2, r2, #15
  73 005a DBD5     		bpl	.L5
  74              	.L7:
  75 005c 9869     		ldr	r0, [r3, #24]
  76 005e 8021     		movs	r1, #128
  77 0060 0200     		movs	r2, r0
  78 0062 4900     		lsls	r1, r1, #1
  79 0064 0A40     		ands	r2, r1
  80 0066 0842     		tst	r0, r1
  81 0068 05D0     		beq	.L8
  82 006a 0222     		movs	r2, #2
  83 006c 2548     		ldr	r0, .L49+8
  84 006e 4469     		ldr	r4, [r0, #20]
  85 0070 2243     		orrs	r2, r4
  86 0072 4261     		str	r2, [r0, #20]
  87 0074 0A00     		movs	r2, r1
  88              	.L8:
  89 0076 8020     		movs	r0, #128
  90 0078 9969     		ldr	r1, [r3, #24]
  91 007a 8000     		lsls	r0, r0, #2
  92 007c 0142     		tst	r1, r0
  93 007e 05D0     		beq	.L9
  94 0080 0121     		movs	r1, #1
  95 0082 204C     		ldr	r4, .L49+8
  96 0084 0243     		orrs	r2, r0
  97 0086 6569     		ldr	r5, [r4, #20]
  98 0088 2943     		orrs	r1, r5
  99 008a 6161     		str	r1, [r4, #20]
 100              	.L9:
 101 008c 8020     		movs	r0, #128
 102 008e 9969     		ldr	r1, [r3, #24]
 103 0090 C000     		lsls	r0, r0, #3
 104 0092 0142     		tst	r1, r0
 105 0094 05D0     		beq	.L10
 106 0096 0821     		movs	r1, #8
 107 0098 1A4C     		ldr	r4, .L49+8
 108 009a 0243     		orrs	r2, r0
 109 009c 6569     		ldr	r5, [r4, #20]
 110 009e 2943     		orrs	r1, r5
 111 00a0 6161     		str	r1, [r4, #20]
 112              	.L10:
 113 00a2 8020     		movs	r0, #128
 114 00a4 9969     		ldr	r1, [r3, #24]
 115 00a6 0001     		lsls	r0, r0, #4
ARM GAS  /tmp/cckQLJZb.s 			page 3


 116 00a8 0142     		tst	r1, r0
 117 00aa 05D0     		beq	.L11
 118 00ac 0421     		movs	r1, #4
 119 00ae 154C     		ldr	r4, .L49+8
 120 00b0 0243     		orrs	r2, r0
 121 00b2 6569     		ldr	r5, [r4, #20]
 122 00b4 2943     		orrs	r1, r5
 123 00b6 6161     		str	r1, [r4, #20]
 124              	.L11:
 125 00b8 8020     		movs	r0, #128
 126 00ba 9969     		ldr	r1, [r3, #24]
 127 00bc 8001     		lsls	r0, r0, #6
 128 00be 0142     		tst	r1, r0
 129 00c0 05D0     		beq	.L12
 130 00c2 1021     		movs	r1, #16
 131 00c4 0F4C     		ldr	r4, .L49+8
 132 00c6 0243     		orrs	r2, r0
 133 00c8 6569     		ldr	r5, [r4, #20]
 134 00ca 2943     		orrs	r1, r5
 135 00cc 6161     		str	r1, [r4, #20]
 136              	.L12:
 137 00ce 9969     		ldr	r1, [r3, #24]
 138 00d0 8903     		lsls	r1, r1, #14
 139 00d2 05D5     		bpl	.L13
 140 00d4 2020     		movs	r0, #32
 141 00d6 0B4C     		ldr	r4, .L49+8
 142 00d8 0243     		orrs	r2, r0
 143 00da 6169     		ldr	r1, [r4, #20]
 144 00dc 0143     		orrs	r1, r0
 145 00de 6161     		str	r1, [r4, #20]
 146              	.L13:
 147 00e0 8020     		movs	r0, #128
 148 00e2 9969     		ldr	r1, [r3, #24]
 149 00e4 4002     		lsls	r0, r0, #9
 150 00e6 0142     		tst	r1, r0
 151 00e8 05D0     		beq	.L14
 152 00ea 4021     		movs	r1, #64
 153 00ec 054C     		ldr	r4, .L49+8
 154 00ee 0243     		orrs	r2, r0
 155 00f0 6569     		ldr	r5, [r4, #20]
 156 00f2 2943     		orrs	r1, r5
 157 00f4 6161     		str	r1, [r4, #20]
 158              	.L14:
 159 00f6 0120     		movs	r0, #1
 160 00f8 9A61     		str	r2, [r3, #24]
 161 00fa 8BE7     		b	.L5
 162              	.L50:
 163              		.align	2
 164              	.L49:
 165 00fc 50C30000 		.word	50000
 166 0100 00200240 		.word	1073881088
 167 0104 00000000 		.word	pFlash
 169              		.align	1
 170              		.global	HAL_FLASHEx_EnableRunPowerDown
 171              		.syntax unified
 172              		.code	16
 173              		.thumb_func
ARM GAS  /tmp/cckQLJZb.s 			page 4


 175              	HAL_FLASHEx_EnableRunPowerDown:
 176              		@ args = 0, pretend = 0, frame = 0
 177              		@ frame_needed = 0, uses_anonymous_args = 0
 178              		@ link register save eliminated.
 179 0108 054B     		ldr	r3, .L52
 180 010a 064A     		ldr	r2, .L52+4
 181 010c 0020     		movs	r0, #0
 182              		@ sp needed
 183 010e 9A60     		str	r2, [r3, #8]
 184 0110 054A     		ldr	r2, .L52+8
 185 0112 9A60     		str	r2, [r3, #8]
 186 0114 1022     		movs	r2, #16
 187 0116 1968     		ldr	r1, [r3]
 188 0118 0A43     		orrs	r2, r1
 189 011a 1A60     		str	r2, [r3]
 190 011c 7047     		bx	lr
 191              	.L53:
 192 011e C046     		.align	2
 193              	.L52:
 194 0120 00200240 		.word	1073881088
 195 0124 37261504 		.word	68494903
 196 0128 FDFCFBFA 		.word	-84148995
 198              		.align	1
 199              		.global	HAL_FLASHEx_DisableRunPowerDown
 200              		.syntax unified
 201              		.code	16
 202              		.thumb_func
 204              	HAL_FLASHEx_DisableRunPowerDown:
 205              		@ args = 0, pretend = 0, frame = 0
 206              		@ frame_needed = 0, uses_anonymous_args = 0
 207              		@ link register save eliminated.
 208 012c 1021     		movs	r1, #16
 209              		@ sp needed
 210 012e 054B     		ldr	r3, .L55
 211 0130 054A     		ldr	r2, .L55+4
 212 0132 0020     		movs	r0, #0
 213 0134 9A60     		str	r2, [r3, #8]
 214 0136 054A     		ldr	r2, .L55+8
 215 0138 9A60     		str	r2, [r3, #8]
 216 013a 1A68     		ldr	r2, [r3]
 217 013c 8A43     		bics	r2, r1
 218 013e 1A60     		str	r2, [r3]
 219 0140 7047     		bx	lr
 220              	.L56:
 221 0142 C046     		.align	2
 222              	.L55:
 223 0144 00200240 		.word	1073881088
 224 0148 37261504 		.word	68494903
 225 014c FDFCFBFA 		.word	-84148995
 227              		.align	1
 228              		.global	HAL_FLASHEx_EraseParallelPage
 229              		.syntax unified
 230              		.code	16
 231              		.thumb_func
 233              	HAL_FLASHEx_EraseParallelPage:
 234              		@ args = 0, pretend = 0, frame = 0
 235              		@ frame_needed = 0, uses_anonymous_args = 0
ARM GAS  /tmp/cckQLJZb.s 			page 5


 236 0150 F8B5     		push	{r3, r4, r5, r6, r7, lr}
 237 0152 0600     		movs	r6, r0
 238 0154 0D00     		movs	r5, r1
 239 0156 FFF753FF 		bl	FLASHRAM_WaitForLastOperation.constprop.0
 240 015a 0028     		cmp	r0, #0
 241 015c 1DD1     		bne	.L58
 242 015e 8023     		movs	r3, #128
 243 0160 0E4C     		ldr	r4, .L59
 244 0162 1B02     		lsls	r3, r3, #8
 245 0164 6268     		ldr	r2, [r4, #4]
 246 0166 0827     		movs	r7, #8
 247 0168 1343     		orrs	r3, r2
 248 016a 6360     		str	r3, [r4, #4]
 249 016c 8023     		movs	r3, #128
 250 016e 6268     		ldr	r2, [r4, #4]
 251 0170 9B00     		lsls	r3, r3, #2
 252 0172 1343     		orrs	r3, r2
 253 0174 6360     		str	r3, [r4, #4]
 254 0176 6368     		ldr	r3, [r4, #4]
 255 0178 3B43     		orrs	r3, r7
 256 017a 6360     		str	r3, [r4, #4]
 257 017c 3060     		str	r0, [r6]
 258 017e 2860     		str	r0, [r5]
 259 0180 FFF73EFF 		bl	FLASHRAM_WaitForLastOperation.constprop.0
 260 0184 6368     		ldr	r3, [r4, #4]
 261 0186 064A     		ldr	r2, .L59+4
 262 0188 BB43     		bics	r3, r7
 263 018a 6360     		str	r3, [r4, #4]
 264 018c 6368     		ldr	r3, [r4, #4]
 265 018e 1340     		ands	r3, r2
 266 0190 6360     		str	r3, [r4, #4]
 267 0192 6368     		ldr	r3, [r4, #4]
 268 0194 034A     		ldr	r2, .L59+8
 269 0196 1340     		ands	r3, r2
 270 0198 6360     		str	r3, [r4, #4]
 271              	.L58:
 272              		@ sp needed
 273 019a F8BD     		pop	{r3, r4, r5, r6, r7, pc}
 274              	.L60:
 275              		.align	2
 276              	.L59:
 277 019c 00200240 		.word	1073881088
 278 01a0 FFFDFFFF 		.word	-513
 279 01a4 FF7FFFFF 		.word	-32769
 281              		.align	1
 282              		.global	HAL_FLASHEx_ProgramParallelHalfPage
 283              		.syntax unified
 284              		.code	16
 285              		.thumb_func
 287              	HAL_FLASHEx_ProgramParallelHalfPage:
 288              		@ args = 0, pretend = 0, frame = 8
 289              		@ frame_needed = 0, uses_anonymous_args = 0
 290 01a8 F7B5     		push	{r0, r1, r2, r4, r5, r6, r7, lr}
 291 01aa 0700     		movs	r7, r0
 292 01ac 0E00     		movs	r6, r1
 293 01ae 1D00     		movs	r5, r3
 294 01b0 0192     		str	r2, [sp, #4]
ARM GAS  /tmp/cckQLJZb.s 			page 6


 295 01b2 FFF725FF 		bl	FLASHRAM_WaitForLastOperation.constprop.0
 296 01b6 0028     		cmp	r0, #0
 297 01b8 2FD1     		bne	.L62
 298 01ba 8023     		movs	r3, #128
 299 01bc 174C     		ldr	r4, .L68
 300 01be 1B02     		lsls	r3, r3, #8
 301 01c0 6268     		ldr	r2, [r4, #4]
 302 01c2 1343     		orrs	r3, r2
 303 01c4 6360     		str	r3, [r4, #4]
 304 01c6 8023     		movs	r3, #128
 305 01c8 6268     		ldr	r2, [r4, #4]
 306 01ca DB00     		lsls	r3, r3, #3
 307 01cc 1343     		orrs	r3, r2
 308 01ce 6360     		str	r3, [r4, #4]
 309 01d0 0823     		movs	r3, #8
 310 01d2 6268     		ldr	r2, [r4, #4]
 311 01d4 1343     		orrs	r3, r2
 312 01d6 6360     		str	r3, [r4, #4]
 313 01d8 FFF712FF 		bl	FLASHRAM_WaitForLastOperation.constprop.0
 314 01dc 0028     		cmp	r0, #0
 315 01de 10D1     		bne	.L63
 316              		.syntax divided
 317              	@ 209 "bsp_l0/mcu_drivers/cmsis/Core/Include/cmsis_gcc.h" 1
 318 01e0 72B6     		cpsid i
 319              	@ 0 "" 2
 320              		.thumb
 321              		.syntax unified
 322 01e2 3300     		movs	r3, r6
 323 01e4 4033     		adds	r3, r3, #64
 324              	.L64:
 325 01e6 04CE     		ldmia	r6!, {r2}
 326 01e8 3A60     		str	r2, [r7]
 327 01ea 9E42     		cmp	r6, r3
 328 01ec FBD1     		bne	.L64
 329 01ee 2B00     		movs	r3, r5
 330 01f0 4033     		adds	r3, r3, #64
 331              	.L65:
 332 01f2 04CD     		ldmia	r5!, {r2}
 333 01f4 0199     		ldr	r1, [sp, #4]
 334 01f6 0A60     		str	r2, [r1]
 335 01f8 9D42     		cmp	r5, r3
 336 01fa FAD1     		bne	.L65
 337              		.syntax divided
 338              	@ 198 "bsp_l0/mcu_drivers/cmsis/Core/Include/cmsis_gcc.h" 1
 339 01fc 62B6     		cpsie i
 340              	@ 0 "" 2
 341              		.thumb
 342              		.syntax unified
 343 01fe FFF7FFFE 		bl	FLASHRAM_WaitForLastOperation.constprop.0
 344              	.L63:
 345 0202 0822     		movs	r2, #8
 346 0204 6368     		ldr	r3, [r4, #4]
 347 0206 9343     		bics	r3, r2
 348 0208 6360     		str	r3, [r4, #4]
 349 020a 6368     		ldr	r3, [r4, #4]
 350 020c 044A     		ldr	r2, .L68+4
 351 020e 1340     		ands	r3, r2
ARM GAS  /tmp/cckQLJZb.s 			page 7


 352 0210 6360     		str	r3, [r4, #4]
 353 0212 6368     		ldr	r3, [r4, #4]
 354 0214 034A     		ldr	r2, .L68+8
 355 0216 1340     		ands	r3, r2
 356 0218 6360     		str	r3, [r4, #4]
 357              	.L62:
 358              		@ sp needed
 359 021a FEBD     		pop	{r1, r2, r3, r4, r5, r6, r7, pc}
 360              	.L69:
 361              		.align	2
 362              	.L68:
 363 021c 00200240 		.word	1073881088
 364 0220 FFFBFFFF 		.word	-1025
 365 0224 FF7FFFFF 		.word	-32769
 367              		.align	1
 368              		.global	HAL_FLASHEx_HalfPageProgram
 369              		.syntax unified
 370              		.code	16
 371              		.thumb_func
 373              	HAL_FLASHEx_HalfPageProgram:
 374              		@ args = 0, pretend = 0, frame = 0
 375              		@ frame_needed = 0, uses_anonymous_args = 0
 376 0228 70B5     		push	{r4, r5, r6, lr}
 377 022a 0600     		movs	r6, r0
 378 022c 0D00     		movs	r5, r1
 379 022e FFF7E7FE 		bl	FLASHRAM_WaitForLastOperation.constprop.0
 380 0232 0028     		cmp	r0, #0
 381 0234 1BD1     		bne	.L71
 382 0236 8023     		movs	r3, #128
 383 0238 0D4C     		ldr	r4, .L74
 384 023a DB00     		lsls	r3, r3, #3
 385 023c 6268     		ldr	r2, [r4, #4]
 386 023e 1343     		orrs	r3, r2
 387 0240 6360     		str	r3, [r4, #4]
 388 0242 0823     		movs	r3, #8
 389 0244 6268     		ldr	r2, [r4, #4]
 390 0246 1343     		orrs	r3, r2
 391 0248 6360     		str	r3, [r4, #4]
 392              		.syntax divided
 393              	@ 209 "bsp_l0/mcu_drivers/cmsis/Core/Include/cmsis_gcc.h" 1
 394 024a 72B6     		cpsid i
 395              	@ 0 "" 2
 396              		.thumb
 397              		.syntax unified
 398 024c 2B00     		movs	r3, r5
 399 024e 4033     		adds	r3, r3, #64
 400              	.L72:
 401 0250 04CD     		ldmia	r5!, {r2}
 402 0252 3260     		str	r2, [r6]
 403 0254 9D42     		cmp	r5, r3
 404 0256 FBD1     		bne	.L72
 405              		.syntax divided
 406              	@ 198 "bsp_l0/mcu_drivers/cmsis/Core/Include/cmsis_gcc.h" 1
 407 0258 62B6     		cpsie i
 408              	@ 0 "" 2
 409              		.thumb
 410              		.syntax unified
ARM GAS  /tmp/cckQLJZb.s 			page 8


 411 025a FFF7D1FE 		bl	FLASHRAM_WaitForLastOperation.constprop.0
 412 025e 0822     		movs	r2, #8
 413 0260 6368     		ldr	r3, [r4, #4]
 414 0262 9343     		bics	r3, r2
 415 0264 6360     		str	r3, [r4, #4]
 416 0266 6368     		ldr	r3, [r4, #4]
 417 0268 024A     		ldr	r2, .L74+4
 418 026a 1340     		ands	r3, r2
 419 026c 6360     		str	r3, [r4, #4]
 420              	.L71:
 421              		@ sp needed
 422 026e 70BD     		pop	{r4, r5, r6, pc}
 423              	.L75:
 424              		.align	2
 425              	.L74:
 426 0270 00200240 		.word	1073881088
 427 0274 FFFBFFFF 		.word	-1025
 429              		.align	1
 430              		.global	HAL_FLASHEx_GetError
 431              		.syntax unified
 432              		.code	16
 433              		.thumb_func
 435              	HAL_FLASHEx_GetError:
 436              		@ args = 0, pretend = 0, frame = 0
 437              		@ frame_needed = 0, uses_anonymous_args = 0
 438              		@ link register save eliminated.
 439 0278 024B     		ldr	r3, .L77
 440              		@ sp needed
 441 027a 5B69     		ldr	r3, [r3, #20]
 442 027c 0360     		str	r3, [r0]
 443 027e 0020     		movs	r0, #0
 444 0280 7047     		bx	lr
 445              	.L78:
 446 0282 C046     		.align	2
 447              	.L77:
 448 0284 00000000 		.word	pFlash
 450              		.ident	"GCC: (Arch Repository) 13.2.0"
ARM GAS  /tmp/cckQLJZb.s 			page 9

