ARM GAS  /tmp/ccqubiij.s 			page 1


   1              		.cpu cortex-m0
   2              		.arch armv6s-m
   3              		.fpu softvfp
   4              		.eabi_attribute 23, 1
   5              		.eabi_attribute 24, 1
   6              		.eabi_attribute 25, 1
   7              		.eabi_attribute 26, 1
   8              		.eabi_attribute 30, 4
   9              		.eabi_attribute 34, 0
  10              		.eabi_attribute 18, 4
  11              		.file	"stm32l0xx_hal_adc_ex.c"
  12              		.text
  13              		.section	.text.HAL_ADCEx_Calibration_Start,"ax",%progbits
  14              		.align	1
  15              		.global	HAL_ADCEx_Calibration_Start
  16              		.syntax unified
  17              		.code	16
  18              		.thumb_func
  20              	HAL_ADCEx_Calibration_Start:
  21              		@ args = 0, pretend = 0, frame = 0
  22              		@ frame_needed = 0, uses_anonymous_args = 0
  23 0000 F8B5     		push	{r3, r4, r5, r6, r7, lr}
  24 0002 0500     		movs	r5, r0
  25 0004 5035     		adds	r5, r5, #80
  26 0006 2B78     		ldrb	r3, [r5]
  27 0008 0400     		movs	r4, r0
  28 000a 0220     		movs	r0, #2
  29 000c 012B     		cmp	r3, #1
  30 000e 47D0     		beq	.L2
  31 0010 0123     		movs	r3, #1
  32 0012 0322     		movs	r2, #3
  33 0014 2B70     		strb	r3, [r5]
  34 0016 2368     		ldr	r3, [r4]
  35 0018 9868     		ldr	r0, [r3, #8]
  36 001a 1040     		ands	r0, r2
  37 001c 0128     		cmp	r0, #1
  38 001e 09D1     		bne	.L3
  39 0020 1A68     		ldr	r2, [r3]
  40 0022 0242     		tst	r2, r0
  41 0024 06D0     		beq	.L3
  42 0026 2023     		movs	r3, #32
  43 0028 626D     		ldr	r2, [r4, #84]
  44 002a 1343     		orrs	r3, r2
  45 002c 6365     		str	r3, [r4, #84]
  46              	.L4:
  47 002e 0023     		movs	r3, #0
  48 0030 2B70     		strb	r3, [r5]
  49 0032 35E0     		b	.L2
  50              	.L3:
  51 0034 616D     		ldr	r1, [r4, #84]
  52 0036 1B4A     		ldr	r2, .L12
  53 0038 1140     		ands	r1, r2
  54 003a 0632     		adds	r2, r2, #6
  55 003c FF32     		adds	r2, r2, #255
  56 003e 0A43     		orrs	r2, r1
  57 0040 0321     		movs	r1, #3
  58 0042 6265     		str	r2, [r4, #84]
ARM GAS  /tmp/ccqubiij.s 			page 2


  59 0044 DE68     		ldr	r6, [r3, #12]
  60 0046 DA68     		ldr	r2, [r3, #12]
  61 0048 8A43     		bics	r2, r1
  62 004a DA60     		str	r2, [r3, #12]
  63 004c 8022     		movs	r2, #128
  64 004e 9968     		ldr	r1, [r3, #8]
  65 0050 1206     		lsls	r2, r2, #24
  66 0052 0A43     		orrs	r2, r1
  67 0054 9A60     		str	r2, [r3, #8]
  68 0056 FFF7FEFF 		bl	HAL_GetTick
  69 005a 0700     		movs	r7, r0
  70              	.L10:
  71 005c 2368     		ldr	r3, [r4]
  72 005e 9A68     		ldr	r2, [r3, #8]
  73 0060 002A     		cmp	r2, #0
  74 0062 0BDB     		blt	.L6
  75 0064 0321     		movs	r1, #3
  76 0066 DA68     		ldr	r2, [r3, #12]
  77 0068 0E40     		ands	r6, r1
  78 006a 1643     		orrs	r6, r2
  79 006c DE60     		str	r6, [r3, #12]
  80 006e 0123     		movs	r3, #1
  81 0070 626D     		ldr	r2, [r4, #84]
  82 0072 0020     		movs	r0, #0
  83 0074 8A43     		bics	r2, r1
  84 0076 1343     		orrs	r3, r2
  85 0078 6365     		str	r3, [r4, #84]
  86 007a D8E7     		b	.L4
  87              	.L6:
  88 007c FFF7FEFF 		bl	HAL_GetTick
  89 0080 C01B     		subs	r0, r0, r7
  90 0082 0A28     		cmp	r0, #10
  91 0084 EAD9     		bls	.L10
  92 0086 2368     		ldr	r3, [r4]
  93 0088 9B68     		ldr	r3, [r3, #8]
  94 008a 002B     		cmp	r3, #0
  95 008c E6DA     		bge	.L10
  96 008e 1223     		movs	r3, #18
  97 0090 626D     		ldr	r2, [r4, #84]
  98 0092 0120     		movs	r0, #1
  99 0094 9A43     		bics	r2, r3
 100 0096 023B     		subs	r3, r3, #2
 101 0098 1343     		orrs	r3, r2
 102 009a 6365     		str	r3, [r4, #84]
 103 009c 0023     		movs	r3, #0
 104 009e 2B70     		strb	r3, [r5]
 105              	.L2:
 106              		@ sp needed
 107 00a0 F8BD     		pop	{r3, r4, r5, r6, r7, pc}
 108              	.L13:
 109 00a2 C046     		.align	2
 110              	.L12:
 111 00a4 FDFEFFFF 		.word	-259
 113              		.section	.text.HAL_ADCEx_Calibration_GetValue,"ax",%progbits
 114              		.align	1
 115              		.global	HAL_ADCEx_Calibration_GetValue
 116              		.syntax unified
ARM GAS  /tmp/ccqubiij.s 			page 3


 117              		.code	16
 118              		.thumb_func
 120              	HAL_ADCEx_Calibration_GetValue:
 121              		@ args = 0, pretend = 0, frame = 0
 122              		@ frame_needed = 0, uses_anonymous_args = 0
 123              		@ link register save eliminated.
 124 0000 0368     		ldr	r3, [r0]
 125              		@ sp needed
 126 0002 B433     		adds	r3, r3, #180
 127 0004 1868     		ldr	r0, [r3]
 128 0006 7F23     		movs	r3, #127
 129 0008 1840     		ands	r0, r3
 130 000a 7047     		bx	lr
 132              		.section	.text.HAL_ADCEx_Calibration_SetValue,"ax",%progbits
 133              		.align	1
 134              		.global	HAL_ADCEx_Calibration_SetValue
 135              		.syntax unified
 136              		.code	16
 137              		.thumb_func
 139              	HAL_ADCEx_Calibration_SetValue:
 140              		@ args = 0, pretend = 0, frame = 0
 141              		@ frame_needed = 0, uses_anonymous_args = 0
 142 0000 70B5     		push	{r4, r5, r6, lr}
 143 0002 0400     		movs	r4, r0
 144 0004 5034     		adds	r4, r4, #80
 145 0006 2378     		ldrb	r3, [r4]
 146 0008 0100     		movs	r1, r0
 147 000a 1500     		movs	r5, r2
 148 000c 0220     		movs	r0, #2
 149 000e 012B     		cmp	r3, #1
 150 0010 1AD0     		beq	.L16
 151 0012 0123     		movs	r3, #1
 152 0014 0322     		movs	r2, #3
 153 0016 2370     		strb	r3, [r4]
 154 0018 0B68     		ldr	r3, [r1]
 155 001a 9868     		ldr	r0, [r3, #8]
 156 001c 1040     		ands	r0, r2
 157 001e 0128     		cmp	r0, #1
 158 0020 13D1     		bne	.L17
 159 0022 1A68     		ldr	r2, [r3]
 160 0024 0242     		tst	r2, r0
 161 0026 10D0     		beq	.L17
 162 0028 9E68     		ldr	r6, [r3, #8]
 163 002a 0422     		movs	r2, #4
 164 002c 3000     		movs	r0, r6
 165 002e 1040     		ands	r0, r2
 166 0030 1642     		tst	r6, r2
 167 0032 0AD1     		bne	.L17
 168 0034 7F21     		movs	r1, #127
 169 0036 B433     		adds	r3, r3, #180
 170 0038 1A68     		ldr	r2, [r3]
 171 003a 8A43     		bics	r2, r1
 172 003c 1A60     		str	r2, [r3]
 173 003e 1A68     		ldr	r2, [r3]
 174 0040 2A43     		orrs	r2, r5
 175 0042 1A60     		str	r2, [r3]
 176              	.L18:
ARM GAS  /tmp/ccqubiij.s 			page 4


 177 0044 0023     		movs	r3, #0
 178 0046 2370     		strb	r3, [r4]
 179              	.L16:
 180              		@ sp needed
 181 0048 70BD     		pop	{r4, r5, r6, pc}
 182              	.L17:
 183 004a 1023     		movs	r3, #16
 184 004c 0120     		movs	r0, #1
 185 004e 4A6D     		ldr	r2, [r1, #84]
 186 0050 1343     		orrs	r3, r2
 187 0052 4B65     		str	r3, [r1, #84]
 188 0054 8B6D     		ldr	r3, [r1, #88]
 189 0056 0343     		orrs	r3, r0
 190 0058 8B65     		str	r3, [r1, #88]
 191 005a F3E7     		b	.L18
 193              		.section	.text.HAL_ADCEx_EnableVREFINT,"ax",%progbits
 194              		.align	1
 195              		.global	HAL_ADCEx_EnableVREFINT
 196              		.syntax unified
 197              		.code	16
 198              		.thumb_func
 200              	HAL_ADCEx_EnableVREFINT:
 201              		@ args = 0, pretend = 0, frame = 0
 202              		@ frame_needed = 0, uses_anonymous_args = 0
 203 0000 8023     		movs	r3, #128
 204 0002 70B5     		push	{r4, r5, r6, lr}
 205 0004 0C4C     		ldr	r4, .L29
 206 0006 5B00     		lsls	r3, r3, #1
 207 0008 226A     		ldr	r2, [r4, #32]
 208 000a 8026     		movs	r6, #128
 209 000c 1343     		orrs	r3, r2
 210 000e 2362     		str	r3, [r4, #32]
 211 0010 FFF7FEFF 		bl	HAL_GetTick
 212 0014 0500     		movs	r5, r0
 213 0016 F605     		lsls	r6, r6, #23
 214              	.L28:
 215 0018 236A     		ldr	r3, [r4, #32]
 216 001a 3342     		tst	r3, r6
 217 001c 01D0     		beq	.L26
 218 001e 0020     		movs	r0, #0
 219              	.L25:
 220              		@ sp needed
 221 0020 70BD     		pop	{r4, r5, r6, pc}
 222              	.L26:
 223 0022 FFF7FEFF 		bl	HAL_GetTick
 224 0026 401B     		subs	r0, r0, r5
 225 0028 0328     		cmp	r0, #3
 226 002a F5D9     		bls	.L28
 227 002c 236A     		ldr	r3, [r4, #32]
 228 002e 3342     		tst	r3, r6
 229 0030 F2D1     		bne	.L28
 230 0032 0120     		movs	r0, #1
 231 0034 F4E7     		b	.L25
 232              	.L30:
 233 0036 C046     		.align	2
 234              	.L29:
 235 0038 00000140 		.word	1073807360
ARM GAS  /tmp/ccqubiij.s 			page 5


 237              		.section	.text.HAL_ADCEx_DisableVREFINT,"ax",%progbits
 238              		.align	1
 239              		.global	HAL_ADCEx_DisableVREFINT
 240              		.syntax unified
 241              		.code	16
 242              		.thumb_func
 244              	HAL_ADCEx_DisableVREFINT:
 245              		@ args = 0, pretend = 0, frame = 0
 246              		@ frame_needed = 0, uses_anonymous_args = 0
 247              		@ link register save eliminated.
 248 0000 024A     		ldr	r2, .L32
 249 0002 0349     		ldr	r1, .L32+4
 250 0004 136A     		ldr	r3, [r2, #32]
 251              		@ sp needed
 252 0006 0B40     		ands	r3, r1
 253 0008 1362     		str	r3, [r2, #32]
 254 000a 7047     		bx	lr
 255              	.L33:
 256              		.align	2
 257              	.L32:
 258 000c 00000140 		.word	1073807360
 259 0010 FFFEFFFF 		.word	-257
 261              		.section	.text.HAL_ADCEx_EnableVREFINTTempSensor,"ax",%progbits
 262              		.align	1
 263              		.global	HAL_ADCEx_EnableVREFINTTempSensor
 264              		.syntax unified
 265              		.code	16
 266              		.thumb_func
 268              	HAL_ADCEx_EnableVREFINTTempSensor:
 269              		@ args = 0, pretend = 0, frame = 0
 270              		@ frame_needed = 0, uses_anonymous_args = 0
 271 0000 8023     		movs	r3, #128
 272 0002 70B5     		push	{r4, r5, r6, lr}
 273 0004 0C4C     		ldr	r4, .L40
 274 0006 9B00     		lsls	r3, r3, #2
 275 0008 226A     		ldr	r2, [r4, #32]
 276 000a 8026     		movs	r6, #128
 277 000c 1343     		orrs	r3, r2
 278 000e 2362     		str	r3, [r4, #32]
 279 0010 FFF7FEFF 		bl	HAL_GetTick
 280 0014 0500     		movs	r5, r0
 281 0016 F605     		lsls	r6, r6, #23
 282              	.L39:
 283 0018 236A     		ldr	r3, [r4, #32]
 284 001a 3342     		tst	r3, r6
 285 001c 01D0     		beq	.L37
 286 001e 0020     		movs	r0, #0
 287              	.L36:
 288              		@ sp needed
 289 0020 70BD     		pop	{r4, r5, r6, pc}
 290              	.L37:
 291 0022 FFF7FEFF 		bl	HAL_GetTick
 292 0026 401B     		subs	r0, r0, r5
 293 0028 0128     		cmp	r0, #1
 294 002a F5D9     		bls	.L39
 295 002c 236A     		ldr	r3, [r4, #32]
 296 002e 3342     		tst	r3, r6
ARM GAS  /tmp/ccqubiij.s 			page 6


 297 0030 F2D1     		bne	.L39
 298 0032 0120     		movs	r0, #1
 299 0034 F4E7     		b	.L36
 300              	.L41:
 301 0036 C046     		.align	2
 302              	.L40:
 303 0038 00000140 		.word	1073807360
 305              		.section	.text.HAL_ADCEx_DisableVREFINTTempSensor,"ax",%progbits
 306              		.align	1
 307              		.global	HAL_ADCEx_DisableVREFINTTempSensor
 308              		.syntax unified
 309              		.code	16
 310              		.thumb_func
 312              	HAL_ADCEx_DisableVREFINTTempSensor:
 313              		@ args = 0, pretend = 0, frame = 0
 314              		@ frame_needed = 0, uses_anonymous_args = 0
 315              		@ link register save eliminated.
 316 0000 024A     		ldr	r2, .L43
 317 0002 0349     		ldr	r1, .L43+4
 318 0004 136A     		ldr	r3, [r2, #32]
 319              		@ sp needed
 320 0006 0B40     		ands	r3, r1
 321 0008 1362     		str	r3, [r2, #32]
 322 000a 7047     		bx	lr
 323              	.L44:
 324              		.align	2
 325              	.L43:
 326 000c 00000140 		.word	1073807360
 327 0010 FFFDFFFF 		.word	-513
 329              		.ident	"GCC: (Arch Repository) 13.2.0"
ARM GAS  /tmp/ccqubiij.s 			page 7

