ARM GAS  /tmp/ccFagmuD.s 			page 1


   1              		.cpu cortex-m0
   2              		.arch armv6s-m
   3              		.fpu softvfp
   4              		.eabi_attribute 23, 1
   5              		.eabi_attribute 24, 1
   6              		.eabi_attribute 25, 1
   7              		.eabi_attribute 26, 1
   8              		.eabi_attribute 30, 4
   9              		.eabi_attribute 34, 0
  10              		.eabi_attribute 18, 4
  11              		.file	"system_stm32l0xx.c"
  12              		.text
  13              		.section	.text.SystemInit,"ax",%progbits
  14              		.align	1
  15              		.global	SystemInit
  16              		.syntax unified
  17              		.code	16
  18              		.thumb_func
  20              	SystemInit:
  21              		@ args = 0, pretend = 0, frame = 0
  22              		@ frame_needed = 0, uses_anonymous_args = 0
  23              		@ link register save eliminated.
  24              		@ sp needed
  25 0000 7047     		bx	lr
  27              		.global	__aeabi_uidiv
  28              		.global	__aeabi_idiv
  29              		.section	.text.SystemCoreClockUpdate,"ax",%progbits
  30              		.align	1
  31              		.global	SystemCoreClockUpdate
  32              		.syntax unified
  33              		.code	16
  34              		.thumb_func
  36              	SystemCoreClockUpdate:
  37              		@ args = 0, pretend = 0, frame = 0
  38              		@ frame_needed = 0, uses_anonymous_args = 0
  39 0000 0C22     		movs	r2, #12
  40 0002 10B5     		push	{r4, lr}
  41 0004 1D4C     		ldr	r4, .L11
  42 0006 E368     		ldr	r3, [r4, #12]
  43 0008 1340     		ands	r3, r2
  44 000a 042B     		cmp	r3, #4
  45 000c 13D0     		beq	.L3
  46 000e 082B     		cmp	r3, #8
  47 0010 31D0     		beq	.L8
  48 0012 002B     		cmp	r3, #0
  49 0014 17D1     		bne	.L5
  50 0016 8020     		movs	r0, #128
  51 0018 6368     		ldr	r3, [r4, #4]
  52 001a 0002     		lsls	r0, r0, #8
  53 001c 1B04     		lsls	r3, r3, #16
  54 001e 5B0F     		lsrs	r3, r3, #29
  55 0020 0133     		adds	r3, r3, #1
  56 0022 9840     		lsls	r0, r0, r3
  57              	.L4:
  58              		@ sp needed
  59 0024 E368     		ldr	r3, [r4, #12]
  60 0026 164A     		ldr	r2, .L11+4
ARM GAS  /tmp/ccFagmuD.s 			page 2


  61 0028 1B06     		lsls	r3, r3, #24
  62 002a 1B0F     		lsrs	r3, r3, #28
  63 002c D35C     		ldrb	r3, [r2, r3]
  64 002e 1549     		ldr	r1, .L11+8
  65 0030 D840     		lsrs	r0, r0, r3
  66 0032 0860     		str	r0, [r1]
  67 0034 10BD     		pop	{r4, pc}
  68              	.L3:
  69 0036 2068     		ldr	r0, [r4]
  70 0038 134B     		ldr	r3, .L11+12
  71 003a C006     		lsls	r0, r0, #27
  72 003c C017     		asrs	r0, r0, #31
  73 003e 1840     		ands	r0, r3
  74 0040 124B     		ldr	r3, .L11+16
  75 0042 C018     		adds	r0, r0, r3
  76 0044 EEE7     		b	.L4
  77              	.L5:
  78 0046 E368     		ldr	r3, [r4, #12]
  79 0048 114A     		ldr	r2, .L11+20
  80 004a E168     		ldr	r1, [r4, #12]
  81 004c 9B02     		lsls	r3, r3, #10
  82 004e 1B0F     		lsrs	r3, r3, #28
  83 0050 D35C     		ldrb	r3, [r2, r3]
  84 0052 0902     		lsls	r1, r1, #8
  85 0054 E268     		ldr	r2, [r4, #12]
  86 0056 890F     		lsrs	r1, r1, #30
  87 0058 0131     		adds	r1, r1, #1
  88 005a D203     		lsls	r2, r2, #15
  89 005c 09D4     		bmi	.L6
  90 005e 2268     		ldr	r2, [r4]
  91 0060 D206     		lsls	r2, r2, #27
  92 0062 04D5     		bpl	.L7
  93 0064 0B48     		ldr	r0, .L11+24
  94              	.L10:
  95 0066 5843     		muls	r0, r3
  96 0068 FFF7FEFF 		bl	__aeabi_uidiv
  97 006c DAE7     		b	.L4
  98              	.L7:
  99 006e 0748     		ldr	r0, .L11+16
 100 0070 F9E7     		b	.L10
 101              	.L6:
 102 0072 0948     		ldr	r0, .L11+28
 103 0074 F7E7     		b	.L10
 104              	.L8:
 105 0076 0848     		ldr	r0, .L11+28
 106 0078 D4E7     		b	.L4
 107              	.L12:
 108 007a C046     		.align	2
 109              	.L11:
 110 007c 00100240 		.word	1073876992
 111 0080 00000000 		.word	AHBPrescTable
 112 0084 00000000 		.word	SystemCoreClock
 113 0088 00E548FF 		.word	-12000000
 114 008c 0024F400 		.word	16000000
 115 0090 00000000 		.word	PLLMulTable
 116 0094 00093D00 		.word	4000000
 117 0098 00127A00 		.word	8000000
ARM GAS  /tmp/ccFagmuD.s 			page 3


 119              		.global	PLLMulTable
 120              		.section	.rodata.PLLMulTable,"a"
 121              		.align	2
 124              	PLLMulTable:
 125 0000 03040608 		.ascii	"\003\004\006\010\014\020\030 0"
 125      0C101820 
 125      30
 126              		.global	APBPrescTable
 127              		.section	.rodata.APBPrescTable,"a"
 128              		.align	2
 131              	APBPrescTable:
 132 0000 00000000 		.ascii	"\000\000\000\000\001\002\003\004"
 132      01020304 
 133              		.global	AHBPrescTable
 134              		.section	.rodata.AHBPrescTable,"a"
 135              		.align	2
 138              	AHBPrescTable:
 139 0000 00000000 		.ascii	"\000\000\000\000\000\000\000\000\001\002\003\004\006"
 139      00000000 
 139      01020304 
 139      06
 140 000d 070809   		.ascii	"\007\010\011"
 141              		.global	SystemCoreClock
 142              		.section	.data.SystemCoreClock,"aw"
 143              		.align	2
 146              	SystemCoreClock:
 147 0000 00002000 		.word	2097152
 148              		.ident	"GCC: (Arch Repository) 13.2.0"
ARM GAS  /tmp/ccFagmuD.s 			page 4


DEFINED SYMBOLS
                            *ABS*:00000000 system_stm32l0xx.c
     /tmp/ccFagmuD.s:14     .text.SystemInit:00000000 $t
     /tmp/ccFagmuD.s:20     .text.SystemInit:00000000 SystemInit
     /tmp/ccFagmuD.s:30     .text.SystemCoreClockUpdate:00000000 $t
     /tmp/ccFagmuD.s:36     .text.SystemCoreClockUpdate:00000000 SystemCoreClockUpdate
     /tmp/ccFagmuD.s:110    .text.SystemCoreClockUpdate:0000007c $d
     /tmp/ccFagmuD.s:138    .rodata.AHBPrescTable:00000000 AHBPrescTable
     /tmp/ccFagmuD.s:146    .data.SystemCoreClock:00000000 SystemCoreClock
     /tmp/ccFagmuD.s:124    .rodata.PLLMulTable:00000000 PLLMulTable
     /tmp/ccFagmuD.s:121    .rodata.PLLMulTable:00000000 $d
     /tmp/ccFagmuD.s:131    .rodata.APBPrescTable:00000000 APBPrescTable
     /tmp/ccFagmuD.s:128    .rodata.APBPrescTable:00000000 $d
     /tmp/ccFagmuD.s:135    .rodata.AHBPrescTable:00000000 $d
     /tmp/ccFagmuD.s:143    .data.SystemCoreClock:00000000 $d

UNDEFINED SYMBOLS
__aeabi_uidiv
__aeabi_idiv
