ARM GAS  /tmp/ccwJaFk5.s 			page 1


   1              		.cpu cortex-m0
   2              		.arch armv6s-m
   3              		.fpu softvfp
   4              		.eabi_attribute 23, 1
   5              		.eabi_attribute 24, 1
   6              		.eabi_attribute 25, 1
   7              		.eabi_attribute 26, 1
   8              		.eabi_attribute 30, 4
   9              		.eabi_attribute 34, 0
  10              		.eabi_attribute 18, 4
  11              		.file	"timer.c"
  12              		.text
  13              		.section	.text.TimerInsertTimer,"ax",%progbits
  14              		.align	1
  15              		.syntax unified
  16              		.code	16
  17              		.thumb_func
  19              	TimerInsertTimer:
  20              		@ args = 0, pretend = 0, frame = 0
  21              		@ frame_needed = 0, uses_anonymous_args = 0
  22 0000 094B     		ldr	r3, .L6
  23 0002 10B5     		push	{r4, lr}
  24 0004 1A68     		ldr	r2, [r3]
  25 0006 5369     		ldr	r3, [r2, #20]
  26              	.L2:
  27 0008 5169     		ldr	r1, [r2, #20]
  28 000a 0029     		cmp	r1, #0
  29 000c 02D1     		bne	.L4
  30              	.L3:
  31 000e 5061     		str	r0, [r2, #20]
  32              		@ sp needed
  33 0010 4161     		str	r1, [r0, #20]
  34 0012 10BD     		pop	{r4, pc}
  35              	.L4:
  36 0014 0468     		ldr	r4, [r0]
  37 0016 1968     		ldr	r1, [r3]
  38 0018 8C42     		cmp	r4, r1
  39 001a 02D9     		bls	.L5
  40 001c 1A00     		movs	r2, r3
  41 001e 5B69     		ldr	r3, [r3, #20]
  42 0020 F2E7     		b	.L2
  43              	.L5:
  44 0022 1900     		movs	r1, r3
  45 0024 F3E7     		b	.L3
  46              	.L7:
  47 0026 C046     		.align	2
  48              	.L6:
  49 0028 00000000 		.word	TimerListHead
  51              		.section	.text.TimerSetTimeout,"ax",%progbits
  52              		.align	1
  53              		.syntax unified
  54              		.code	16
  55              		.thumb_func
  57              	TimerSetTimeout:
  58              		@ args = 0, pretend = 0, frame = 0
  59              		@ frame_needed = 0, uses_anonymous_args = 0
  60 0000 70B5     		push	{r4, r5, r6, lr}
ARM GAS  /tmp/ccwJaFk5.s 			page 2


  61 0002 0400     		movs	r4, r0
  62 0004 FFF7FEFF 		bl	hal_rtc_get_minimum_timeout
  63 0008 0123     		movs	r3, #1
  64 000a 6372     		strb	r3, [r4, #9]
  65 000c 0500     		movs	r5, r0
  66 000e 2468     		ldr	r4, [r4]
  67 0010 FFF7FEFF 		bl	hal_rtc_get_timer_elapsed_time
  68 0014 201A     		subs	r0, r4, r0
  69 0016 A842     		cmp	r0, r5
  70 0018 00D2     		bcs	.L9
  71 001a 2800     		movs	r0, r5
  72              	.L9:
  73              		@ sp needed
  74 001c FFF7FEFF 		bl	hal_rtc_wakeup_timer_set_ms
  75 0020 70BD     		pop	{r4, r5, r6, pc}
  77              		.section	.text.TimerInsertNewHeadTimer,"ax",%progbits
  78              		.align	1
  79              		.syntax unified
  80              		.code	16
  81              		.thumb_func
  83              	TimerInsertNewHeadTimer:
  84              		@ args = 0, pretend = 0, frame = 0
  85              		@ frame_needed = 0, uses_anonymous_args = 0
  86 0000 054A     		ldr	r2, .L15
  87 0002 10B5     		push	{r4, lr}
  88 0004 1368     		ldr	r3, [r2]
  89 0006 002B     		cmp	r3, #0
  90 0008 01D0     		beq	.L11
  91 000a 0021     		movs	r1, #0
  92 000c 5972     		strb	r1, [r3, #9]
  93              	.L11:
  94 000e 4361     		str	r3, [r0, #20]
  95 0010 1060     		str	r0, [r2]
  96              		@ sp needed
  97 0012 FFF7FEFF 		bl	TimerSetTimeout
  98 0016 10BD     		pop	{r4, pc}
  99              	.L16:
 100              		.align	2
 101              	.L15:
 102 0018 00000000 		.word	TimerListHead
 104              		.section	.text.TimerInit,"ax",%progbits
 105              		.align	1
 106              		.global	TimerInit
 107              		.syntax unified
 108              		.code	16
 109              		.thumb_func
 111              	TimerInit:
 112              		@ args = 0, pretend = 0, frame = 0
 113              		@ frame_needed = 0, uses_anonymous_args = 0
 114              		@ link register save eliminated.
 115 0000 0023     		movs	r3, #0
 116              		@ sp needed
 117 0002 0360     		str	r3, [r0]
 118 0004 4360     		str	r3, [r0, #4]
 119 0006 0381     		strh	r3, [r0, #8]
 120 0008 C160     		str	r1, [r0, #12]
 121 000a 0361     		str	r3, [r0, #16]
ARM GAS  /tmp/ccwJaFk5.s 			page 3


 122 000c 4361     		str	r3, [r0, #20]
 123 000e 7047     		bx	lr
 125              		.section	.text.TimerSetContext,"ax",%progbits
 126              		.align	1
 127              		.global	TimerSetContext
 128              		.syntax unified
 129              		.code	16
 130              		.thumb_func
 132              	TimerSetContext:
 133              		@ args = 0, pretend = 0, frame = 0
 134              		@ frame_needed = 0, uses_anonymous_args = 0
 135              		@ link register save eliminated.
 136 0000 0161     		str	r1, [r0, #16]
 137              		@ sp needed
 138 0002 7047     		bx	lr
 140              		.section	.text.TimerStart,"ax",%progbits
 141              		.align	1
 142              		.global	TimerStart
 143              		.syntax unified
 144              		.code	16
 145              		.thumb_func
 147              	TimerStart:
 148              		@ args = 0, pretend = 0, frame = 8
 149              		@ frame_needed = 0, uses_anonymous_args = 0
 150 0000 37B5     		push	{r0, r1, r2, r4, r5, lr}
 151 0002 0400     		movs	r4, r0
 152 0004 01A8     		add	r0, sp, #4
 153 0006 FFF7FEFF 		bl	hal_mcu_critical_section_begin
 154 000a 002C     		cmp	r4, #0
 155 000c 0FD0     		beq	.L20
 156 000e 124D     		ldr	r5, .L34
 157 0010 2A68     		ldr	r2, [r5]
 158 0012 1300     		movs	r3, r2
 159              	.L21:
 160 0014 002B     		cmp	r3, #0
 161 0016 0ED1     		bne	.L22
 162 0018 6368     		ldr	r3, [r4, #4]
 163 001a 2360     		str	r3, [r4]
 164 001c 0123     		movs	r3, #1
 165 001e 2381     		strh	r3, [r4, #8]
 166 0020 002A     		cmp	r2, #0
 167 0022 0CD1     		bne	.L32
 168 0024 FFF7FEFF 		bl	hal_rtc_set_timer_context
 169              	.L33:
 170 0028 2000     		movs	r0, r4
 171 002a FFF7FEFF 		bl	TimerInsertNewHeadTimer
 172              	.L20:
 173              		@ sp needed
 174 002e 01A8     		add	r0, sp, #4
 175 0030 FFF7FEFF 		bl	hal_mcu_critical_section_end
 176 0034 37BD     		pop	{r0, r1, r2, r4, r5, pc}
 177              	.L22:
 178 0036 9C42     		cmp	r4, r3
 179 0038 F9D0     		beq	.L20
 180 003a 5B69     		ldr	r3, [r3, #20]
 181 003c EAE7     		b	.L21
 182              	.L32:
ARM GAS  /tmp/ccwJaFk5.s 			page 4


 183 003e FFF7FEFF 		bl	hal_rtc_get_timer_elapsed_time
 184 0042 2368     		ldr	r3, [r4]
 185 0044 C018     		adds	r0, r0, r3
 186 0046 2B68     		ldr	r3, [r5]
 187 0048 2060     		str	r0, [r4]
 188 004a 1B68     		ldr	r3, [r3]
 189 004c 9842     		cmp	r0, r3
 190 004e EBD3     		bcc	.L33
 191 0050 2000     		movs	r0, r4
 192 0052 FFF7FEFF 		bl	TimerInsertTimer
 193 0056 EAE7     		b	.L20
 194              	.L35:
 195              		.align	2
 196              	.L34:
 197 0058 00000000 		.word	TimerListHead
 199              		.section	.text.TimerStartNoReload,"ax",%progbits
 200              		.align	1
 201              		.global	TimerStartNoReload
 202              		.syntax unified
 203              		.code	16
 204              		.thumb_func
 206              	TimerStartNoReload:
 207              		@ args = 0, pretend = 0, frame = 8
 208              		@ frame_needed = 0, uses_anonymous_args = 0
 209 0000 37B5     		push	{r0, r1, r2, r4, r5, lr}
 210 0002 0400     		movs	r4, r0
 211 0004 01A8     		add	r0, sp, #4
 212 0006 FFF7FEFF 		bl	hal_mcu_critical_section_begin
 213 000a 002C     		cmp	r4, #0
 214 000c 0DD0     		beq	.L37
 215 000e 114D     		ldr	r5, .L51
 216 0010 2A68     		ldr	r2, [r5]
 217 0012 1300     		movs	r3, r2
 218              	.L38:
 219 0014 002B     		cmp	r3, #0
 220 0016 0CD1     		bne	.L39
 221 0018 0123     		movs	r3, #1
 222 001a 2381     		strh	r3, [r4, #8]
 223 001c 002A     		cmp	r2, #0
 224 001e 0CD1     		bne	.L49
 225 0020 FFF7FEFF 		bl	hal_rtc_set_timer_context
 226              	.L50:
 227 0024 2000     		movs	r0, r4
 228 0026 FFF7FEFF 		bl	TimerInsertNewHeadTimer
 229              	.L37:
 230              		@ sp needed
 231 002a 01A8     		add	r0, sp, #4
 232 002c FFF7FEFF 		bl	hal_mcu_critical_section_end
 233 0030 37BD     		pop	{r0, r1, r2, r4, r5, pc}
 234              	.L39:
 235 0032 9C42     		cmp	r4, r3
 236 0034 F9D0     		beq	.L37
 237 0036 5B69     		ldr	r3, [r3, #20]
 238 0038 ECE7     		b	.L38
 239              	.L49:
 240 003a FFF7FEFF 		bl	hal_rtc_get_timer_elapsed_time
 241 003e 2368     		ldr	r3, [r4]
ARM GAS  /tmp/ccwJaFk5.s 			page 5


 242 0040 C018     		adds	r0, r0, r3
 243 0042 2B68     		ldr	r3, [r5]
 244 0044 2060     		str	r0, [r4]
 245 0046 1B68     		ldr	r3, [r3]
 246 0048 9842     		cmp	r0, r3
 247 004a EBD3     		bcc	.L50
 248 004c 2000     		movs	r0, r4
 249 004e FFF7FEFF 		bl	TimerInsertTimer
 250 0052 EAE7     		b	.L37
 251              	.L52:
 252              		.align	2
 253              	.L51:
 254 0054 00000000 		.word	TimerListHead
 256              		.section	.text.TimerIsStarted,"ax",%progbits
 257              		.align	1
 258              		.global	TimerIsStarted
 259              		.syntax unified
 260              		.code	16
 261              		.thumb_func
 263              	TimerIsStarted:
 264              		@ args = 0, pretend = 0, frame = 0
 265              		@ frame_needed = 0, uses_anonymous_args = 0
 266              		@ link register save eliminated.
 267 0000 007A     		ldrb	r0, [r0, #8]
 268              		@ sp needed
 269 0002 7047     		bx	lr
 271              		.section	.text.TimerIrqHandler,"ax",%progbits
 272              		.align	1
 273              		.global	TimerIrqHandler
 274              		.syntax unified
 275              		.code	16
 276              		.thumb_func
 278              	TimerIrqHandler:
 279              		@ args = 0, pretend = 0, frame = 0
 280              		@ frame_needed = 0, uses_anonymous_args = 0
 281 0000 F8B5     		push	{r3, r4, r5, r6, r7, lr}
 282 0002 FFF7FEFF 		bl	hal_rtc_get_timer_context
 283 0006 0500     		movs	r5, r0
 284 0008 FFF7FEFF 		bl	hal_rtc_set_timer_context
 285 000c 1A4C     		ldr	r4, .L73
 286 000e 2368     		ldr	r3, [r4]
 287 0010 002B     		cmp	r3, #0
 288 0012 15D0     		beq	.L61
 289 0014 1A00     		movs	r2, r3
 290 0016 471B     		subs	r7, r0, r5
 291              	.L56:
 292 0018 5269     		ldr	r2, [r2, #20]
 293 001a 002A     		cmp	r2, #0
 294 001c 06D1     		bne	.L58
 295 001e 5969     		ldr	r1, [r3, #20]
 296 0020 1A72     		strb	r2, [r3, #8]
 297 0022 DA68     		ldr	r2, [r3, #12]
 298 0024 2160     		str	r1, [r4]
 299 0026 002A     		cmp	r2, #0
 300 0028 08D1     		bne	.L62
 301              	.L60:
 302 002a FEE7     		b	.L60
ARM GAS  /tmp/ccwJaFk5.s 			page 6


 303              	.L58:
 304 002c 1168     		ldr	r1, [r2]
 305 002e 0026     		movs	r6, #0
 306 0030 B942     		cmp	r1, r7
 307 0032 01D9     		bls	.L57
 308 0034 4919     		adds	r1, r1, r5
 309 0036 0E1A     		subs	r6, r1, r0
 310              	.L57:
 311 0038 1660     		str	r6, [r2]
 312 003a EDE7     		b	.L56
 313              	.L62:
 314 003c 1869     		ldr	r0, [r3, #16]
 315 003e 9047     		blx	r2
 316              	.L61:
 317 0040 2368     		ldr	r3, [r4]
 318 0042 002B     		cmp	r3, #0
 319 0044 03D1     		bne	.L64
 320              	.L68:
 321 0046 2068     		ldr	r0, [r4]
 322 0048 0028     		cmp	r0, #0
 323 004a 0ED1     		bne	.L65
 324              	.L54:
 325              		@ sp needed
 326 004c F8BD     		pop	{r3, r4, r5, r6, r7, pc}
 327              	.L64:
 328 004e 1D68     		ldr	r5, [r3]
 329 0050 FFF7FEFF 		bl	hal_rtc_get_timer_elapsed_time
 330 0054 8542     		cmp	r5, r0
 331 0056 F6D2     		bcs	.L68
 332 0058 2368     		ldr	r3, [r4]
 333 005a 5A69     		ldr	r2, [r3, #20]
 334 005c 2260     		str	r2, [r4]
 335 005e 0022     		movs	r2, #0
 336 0060 1A72     		strb	r2, [r3, #8]
 337 0062 DA68     		ldr	r2, [r3, #12]
 338 0064 002A     		cmp	r2, #0
 339 0066 E9D1     		bne	.L62
 340              	.L63:
 341 0068 FEE7     		b	.L63
 342              	.L65:
 343 006a 437A     		ldrb	r3, [r0, #9]
 344 006c 002B     		cmp	r3, #0
 345 006e EDD1     		bne	.L54
 346 0070 FFF7FEFF 		bl	TimerSetTimeout
 347 0074 EAE7     		b	.L54
 348              	.L74:
 349 0076 C046     		.align	2
 350              	.L73:
 351 0078 00000000 		.word	TimerListHead
 353              		.section	.text.TimerStop,"ax",%progbits
 354              		.align	1
 355              		.global	TimerStop
 356              		.syntax unified
 357              		.code	16
 358              		.thumb_func
 360              	TimerStop:
 361              		@ args = 0, pretend = 0, frame = 8
ARM GAS  /tmp/ccwJaFk5.s 			page 7


 362              		@ frame_needed = 0, uses_anonymous_args = 0
 363 0000 37B5     		push	{r0, r1, r2, r4, r5, lr}
 364 0002 0400     		movs	r4, r0
 365 0004 01A8     		add	r0, sp, #4
 366 0006 FFF7FEFF 		bl	hal_mcu_critical_section_begin
 367 000a 134D     		ldr	r5, .L93
 368 000c 2B68     		ldr	r3, [r5]
 369 000e 002B     		cmp	r3, #0
 370 0010 01D0     		beq	.L77
 371 0012 002C     		cmp	r4, #0
 372 0014 03D1     		bne	.L91
 373              	.L77:
 374              		@ sp needed
 375 0016 01A8     		add	r0, sp, #4
 376 0018 FFF7FEFF 		bl	hal_mcu_critical_section_end
 377 001c 37BD     		pop	{r0, r1, r2, r4, r5, pc}
 378              	.L91:
 379 001e 0022     		movs	r2, #0
 380 0020 2272     		strb	r2, [r4, #8]
 381 0022 A342     		cmp	r3, r4
 382 0024 0FD1     		bne	.L80
 383 0026 597A     		ldrb	r1, [r3, #9]
 384 0028 5C69     		ldr	r4, [r3, #20]
 385 002a 9142     		cmp	r1, r2
 386 002c 09D0     		beq	.L81
 387 002e 5A72     		strb	r2, [r3, #9]
 388 0030 9442     		cmp	r4, r2
 389 0032 04D0     		beq	.L82
 390 0034 2000     		movs	r0, r4
 391 0036 2C60     		str	r4, [r5]
 392 0038 FFF7FEFF 		bl	TimerSetTimeout
 393 003c EBE7     		b	.L77
 394              	.L82:
 395 003e FFF7FEFF 		bl	hal_rtc_wakeup_timer_stop
 396              	.L81:
 397 0042 2C60     		str	r4, [r5]
 398 0044 E7E7     		b	.L77
 399              	.L80:
 400 0046 1A00     		movs	r2, r3
 401 0048 5B69     		ldr	r3, [r3, #20]
 402 004a 002B     		cmp	r3, #0
 403 004c E3D0     		beq	.L77
 404 004e 9C42     		cmp	r4, r3
 405 0050 F9D1     		bne	.L80
 406 0052 6369     		ldr	r3, [r4, #20]
 407 0054 5361     		str	r3, [r2, #20]
 408 0056 DEE7     		b	.L77
 409              	.L94:
 410              		.align	2
 411              	.L93:
 412 0058 00000000 		.word	TimerListHead
 414              		.section	.text.TimerReset,"ax",%progbits
 415              		.align	1
 416              		.global	TimerReset
 417              		.syntax unified
 418              		.code	16
 419              		.thumb_func
ARM GAS  /tmp/ccwJaFk5.s 			page 8


 421              	TimerReset:
 422              		@ args = 0, pretend = 0, frame = 0
 423              		@ frame_needed = 0, uses_anonymous_args = 0
 424 0000 10B5     		push	{r4, lr}
 425 0002 0400     		movs	r4, r0
 426              		@ sp needed
 427 0004 FFF7FEFF 		bl	TimerStop
 428 0008 2000     		movs	r0, r4
 429 000a FFF7FEFF 		bl	TimerStart
 430 000e 10BD     		pop	{r4, pc}
 432              		.section	.text.TimerSetValue,"ax",%progbits
 433              		.align	1
 434              		.global	TimerSetValue
 435              		.syntax unified
 436              		.code	16
 437              		.thumb_func
 439              	TimerSetValue:
 440              		@ args = 0, pretend = 0, frame = 0
 441              		@ frame_needed = 0, uses_anonymous_args = 0
 442 0000 70B5     		push	{r4, r5, r6, lr}
 443 0002 0500     		movs	r5, r0
 444 0004 0800     		movs	r0, r1
 445 0006 FFF7FEFF 		bl	rtc_ms_2_ticks
 446 000a 0400     		movs	r4, r0
 447 000c 2800     		movs	r0, r5
 448 000e FFF7FEFF 		bl	TimerStop
 449 0012 FFF7FEFF 		bl	hal_rtc_get_minimum_timeout
 450 0016 8442     		cmp	r4, r0
 451 0018 00D2     		bcs	.L97
 452 001a 0400     		movs	r4, r0
 453              	.L97:
 454              		@ sp needed
 455 001c 2C60     		str	r4, [r5]
 456 001e 6C60     		str	r4, [r5, #4]
 457 0020 70BD     		pop	{r4, r5, r6, pc}
 459              		.section	.text.TimerGetCurrentTime,"ax",%progbits
 460              		.align	1
 461              		.global	TimerGetCurrentTime
 462              		.syntax unified
 463              		.code	16
 464              		.thumb_func
 466              	TimerGetCurrentTime:
 467              		@ args = 0, pretend = 0, frame = 0
 468              		@ frame_needed = 0, uses_anonymous_args = 0
 469 0000 10B5     		push	{r4, lr}
 470 0002 FFF7FEFF 		bl	hal_rtc_get_time_ms
 471              		@ sp needed
 472 0006 10BD     		pop	{r4, pc}
 474              		.section	.text.TimerGetElapsedTime,"ax",%progbits
 475              		.align	1
 476              		.global	TimerGetElapsedTime
 477              		.syntax unified
 478              		.code	16
 479              		.thumb_func
 481              	TimerGetElapsedTime:
 482              		@ args = 0, pretend = 0, frame = 0
 483              		@ frame_needed = 0, uses_anonymous_args = 0
ARM GAS  /tmp/ccwJaFk5.s 			page 9


 484 0000 70B5     		push	{r4, r5, r6, lr}
 485 0002 041E     		subs	r4, r0, #0
 486 0004 09D0     		beq	.L100
 487 0006 FFF7FEFF 		bl	hal_rtc_get_time_ticks
 488 000a 0500     		movs	r5, r0
 489 000c 2000     		movs	r0, r4
 490 000e FFF7FEFF 		bl	rtc_ms_2_ticks
 491 0012 281A     		subs	r0, r5, r0
 492 0014 FFF7FEFF 		bl	rtc_tick_2_ms
 493 0018 0400     		movs	r4, r0
 494              	.L100:
 495              		@ sp needed
 496 001a 2000     		movs	r0, r4
 497 001c 70BD     		pop	{r4, r5, r6, pc}
 499              		.section	.text.TimerBackup,"ax",%progbits
 500              		.align	1
 501              		.global	TimerBackup
 502              		.syntax unified
 503              		.code	16
 504              		.thumb_func
 506              	TimerBackup:
 507              		@ args = 0, pretend = 0, frame = 0
 508              		@ frame_needed = 0, uses_anonymous_args = 0
 509 0000 0D4B     		ldr	r3, .L107
 510 0002 70B5     		push	{r4, r5, r6, lr}
 511 0004 1C68     		ldr	r4, [r3]
 512              	.L105:
 513 0006 002C     		cmp	r4, #0
 514 0008 00D1     		bne	.L106
 515              		@ sp needed
 516 000a 70BD     		pop	{r4, r5, r6, pc}
 517              	.L106:
 518 000c 0B4D     		ldr	r5, .L107+4
 519 000e 0C4E     		ldr	r6, .L107+8
 520 0010 2B78     		ldrb	r3, [r5]
 521 0012 9B00     		lsls	r3, r3, #2
 522 0014 9C51     		str	r4, [r3, r6]
 523 0016 FFF7FEFF 		bl	hal_rtc_get_timer_elapsed_time
 524 001a 2B78     		ldrb	r3, [r5]
 525 001c 9B00     		lsls	r3, r3, #2
 526 001e 9B59     		ldr	r3, [r3, r6]
 527 0020 1A68     		ldr	r2, [r3]
 528 0022 121A     		subs	r2, r2, r0
 529 0024 1A60     		str	r2, [r3]
 530 0026 1800     		movs	r0, r3
 531 0028 FFF7FEFF 		bl	TimerStop
 532 002c 2B78     		ldrb	r3, [r5]
 533 002e 6469     		ldr	r4, [r4, #20]
 534 0030 0133     		adds	r3, r3, #1
 535 0032 2B70     		strb	r3, [r5]
 536 0034 E7E7     		b	.L105
 537              	.L108:
 538 0036 C046     		.align	2
 539              	.L107:
 540 0038 00000000 		.word	TimerListHead
 541 003c 00000000 		.word	backuped_timers
 542 0040 00000000 		.word	backup
ARM GAS  /tmp/ccwJaFk5.s 			page 10


 544              		.section	.text.TimerRestore,"ax",%progbits
 545              		.align	1
 546              		.global	TimerRestore
 547              		.syntax unified
 548              		.code	16
 549              		.thumb_func
 551              	TimerRestore:
 552              		@ args = 0, pretend = 0, frame = 0
 553              		@ frame_needed = 0, uses_anonymous_args = 0
 554 0000 10B5     		push	{r4, lr}
 555 0002 0024     		movs	r4, #0
 556              	.L110:
 557 0004 074B     		ldr	r3, .L112
 558 0006 1A78     		ldrb	r2, [r3]
 559 0008 A242     		cmp	r2, r4
 560 000a 02D8     		bhi	.L111
 561              		@ sp needed
 562 000c 0022     		movs	r2, #0
 563 000e 1A70     		strb	r2, [r3]
 564 0010 10BD     		pop	{r4, pc}
 565              	.L111:
 566 0012 054B     		ldr	r3, .L112+4
 567 0014 A200     		lsls	r2, r4, #2
 568 0016 D058     		ldr	r0, [r2, r3]
 569 0018 0134     		adds	r4, r4, #1
 570 001a FFF7FEFF 		bl	TimerStartNoReload
 571 001e E4B2     		uxtb	r4, r4
 572 0020 F0E7     		b	.L110
 573              	.L113:
 574 0022 C046     		.align	2
 575              	.L112:
 576 0024 00000000 		.word	backuped_timers
 577 0028 00000000 		.word	backup
 579              		.section	.bss.backuped_timers,"aw",%nobits
 582              	backuped_timers:
 583 0000 00       		.space	1
 584              		.section	.bss.backup,"aw",%nobits
 585              		.align	2
 588              	backup:
 589 0000 00000000 		.space	32
 589      00000000 
 589      00000000 
 589      00000000 
 589      00000000 
 590              		.section	.bss.TimerListHead,"aw",%nobits
 591              		.align	2
 594              	TimerListHead:
 595 0000 00000000 		.space	4
 596              		.ident	"GCC: (Arch Repository) 13.2.0"
ARM GAS  /tmp/ccwJaFk5.s 			page 11

